
hydro2dimpl.elf:     file format elf32-microblazeel


Disassembly of section .vectors.reset:

00000000 <_start>:
   0:	b0000000 	imm	0
   4:	b8080050 	brai	80	// 50 <_start1>

Disassembly of section .vectors.sw_exception:

00000008 <_vector_sw_exception>:
   8:	b0000000 	imm	0
   c:	b80826cc 	brai	9932	// 26cc <_exception_handler>

Disassembly of section .vectors.interrupt:

00000010 <_vector_interrupt>:
  10:	b0000000 	imm	0
  14:	b8085cb4 	brai	23732	// 5cb4 <__interrupt_handler>

Disassembly of section .vectors.hw_exception:

00000020 <_vector_hw_exception>:
  20:	b0000000 	imm	0
  24:	b80802ec 	brai	748	// 2ec <_hw_exception_handler>

Disassembly of section .text:

00000050 <_start1>:
      50:	b0000000 	imm	0
      54:	31a06538 	addik	r13, r0, 25912	// 6538 <_SDA_BASE_>
      58:	b0000000 	imm	0
      5c:	30405f38 	addik	r2, r0, 24376	// 5f38 <_SDA2_BASE_>
      60:	b0000001 	imm	1
      64:	3020f628 	addik	r1, r0, -2520
      68:	b0000000 	imm	0
      6c:	b9f401d0 	brlid	r15, 464	// 23c <_crtinit>
      70:	80000000 	or	r0, r0, r0
      74:	b0000000 	imm	0
      78:	b9f41568 	brlid	r15, 5480	// 15e0 <exit>
      7c:	30a30000 	addik	r5, r3, 0

00000080 <_exit>:
      80:	b8000000 	bri	0	// 80 <_exit>

00000084 <deregister_tm_clones>:
      84:	b0000000 	imm	0
      88:	30a06534 	addik	r5, r0, 25908	// 6534 <__TMC_END__>
      8c:	b0000000 	imm	0
      90:	30606534 	addik	r3, r0, 25908	// 6534 <__TMC_END__>
      94:	88632800 	xor	r3, r3, r5
      98:	bc03002c 	beqi	r3, 44		// c4
      9c:	b0000000 	imm	0
      a0:	30600000 	addik	r3, r0, 0
      a4:	bc030020 	beqi	r3, 32		// c4
      a8:	3021ffe4 	addik	r1, r1, -28
      ac:	f9e10000 	swi	r15, r1, 0
      b0:	99fc1800 	brald	r15, r3
      b4:	80000000 	or	r0, r0, r0
      b8:	e9e10000 	lwi	r15, r1, 0
      bc:	b60f0008 	rtsd	r15, 8
      c0:	3021001c 	addik	r1, r1, 28
      c4:	b60f0008 	rtsd	r15, 8
      c8:	80000000 	or	r0, r0, r0

000000cc <register_tm_clones>:
      cc:	b0000000 	imm	0
      d0:	30a06534 	addik	r5, r0, 25908	// 6534 <__TMC_END__>
      d4:	b0000000 	imm	0
      d8:	30c06534 	addik	r6, r0, 25908	// 6534 <__TMC_END__>
      dc:	14c53000 	rsubk	r6, r5, r6
      e0:	64c60202 	bsrai	r6, r6, 2
      e4:	6466001f 	bsrli	r3, r6, 31
      e8:	10c33000 	addk	r6, r3, r6
      ec:	90c60001 	sra	r6, r6
      f0:	bc06002c 	beqi	r6, 44		// 11c
      f4:	b0000000 	imm	0
      f8:	30600000 	addik	r3, r0, 0
      fc:	bc030020 	beqi	r3, 32		// 11c
     100:	3021ffe4 	addik	r1, r1, -28
     104:	f9e10000 	swi	r15, r1, 0
     108:	99fc1800 	brald	r15, r3
     10c:	80000000 	or	r0, r0, r0
     110:	e9e10000 	lwi	r15, r1, 0
     114:	b60f0008 	rtsd	r15, 8
     118:	3021001c 	addik	r1, r1, 28
     11c:	b60f0008 	rtsd	r15, 8
     120:	80000000 	or	r0, r0, r0

00000124 <__do_global_dtors_aux>:
     124:	b0000000 	imm	0
     128:	e0606538 	lbui	r3, r0, 25912	// 6538 <_SDA_BASE_>
     12c:	bc2300c4 	bnei	r3, 196		// 1f0
     130:	3021ffdc 	addik	r1, r1, -36
     134:	fa61001c 	swi	r19, r1, 28
     138:	b0000000 	imm	0
     13c:	30805dd4 	addik	r4, r0, 24020	// 5dd4 <__CTOR_END__>
     140:	b0000000 	imm	0
     144:	32605dd8 	addik	r19, r0, 24024	// 5dd8 <__DTOR_END__>
     148:	b0000000 	imm	0
     14c:	e860653c 	lwi	r3, r0, 25916	// 653c <dtor_idx.5045>
     150:	fac10020 	swi	r22, r1, 32
     154:	16649800 	rsubk	r19, r4, r19
     158:	66730202 	bsrai	r19, r19, 2
     15c:	f9e10000 	swi	r15, r1, 0
     160:	3273ffff 	addik	r19, r19, -1
     164:	b0000000 	imm	0
     168:	32c05dd4 	addik	r22, r0, 24020	// 5dd4 <__CTOR_END__>
     16c:	16531803 	cmpu	r18, r19, r3
     170:	beb20034 	bgeid	r18, 52		// 1a4
     174:	30630001 	addik	r3, r3, 1
     178:	64830402 	bslli	r4, r3, 2
     17c:	c884b000 	lw	r4, r4, r22
     180:	b0000000 	imm	0
     184:	f860653c 	swi	r3, r0, 25916	// 653c <dtor_idx.5045>
     188:	99fc2000 	brald	r15, r4
     18c:	80000000 	or	r0, r0, r0
     190:	b0000000 	imm	0
     194:	e860653c 	lwi	r3, r0, 25916	// 653c <dtor_idx.5045>
     198:	16531803 	cmpu	r18, r19, r3
     19c:	be52ffdc 	bltid	r18, -36		// 178
     1a0:	30630001 	addik	r3, r3, 1
     1a4:	b9f4fee0 	brlid	r15, -288	// 84 <deregister_tm_clones>
     1a8:	80000000 	or	r0, r0, r0
     1ac:	b0000000 	imm	0
     1b0:	30600000 	addik	r3, r0, 0
     1b4:	be030020 	beqid	r3, 32		// 1d4
     1b8:	e9e10000 	lwi	r15, r1, 0
     1bc:	b0000000 	imm	0
     1c0:	30a06534 	addik	r5, r0, 25908	// 6534 <__TMC_END__>
     1c4:	b000ffff 	imm	-1
     1c8:	b9f4fe38 	brlid	r15, -456	// 0 <_start>
     1cc:	80000000 	or	r0, r0, r0
     1d0:	e9e10000 	lwi	r15, r1, 0
     1d4:	ea61001c 	lwi	r19, r1, 28
     1d8:	eac10020 	lwi	r22, r1, 32
     1dc:	30600001 	addik	r3, r0, 1
     1e0:	b0000000 	imm	0
     1e4:	f0606538 	sbi	r3, r0, 25912	// 6538 <_SDA_BASE_>
     1e8:	b60f0008 	rtsd	r15, 8
     1ec:	30210024 	addik	r1, r1, 36
     1f0:	b60f0008 	rtsd	r15, 8
     1f4:	80000000 	or	r0, r0, r0

000001f8 <frame_dummy>:
     1f8:	b0000000 	imm	0
     1fc:	30600000 	addik	r3, r0, 0
     200:	3021ffe4 	addik	r1, r1, -28
     204:	be030024 	beqid	r3, 36		// 228
     208:	f9e10000 	swi	r15, r1, 0
     20c:	b0000000 	imm	0
     210:	30c06540 	addik	r6, r0, 25920	// 6540 <object.5055>
     214:	b0000000 	imm	0
     218:	30a06534 	addik	r5, r0, 25908	// 6534 <__TMC_END__>
     21c:	b000ffff 	imm	-1
     220:	b9f4fde0 	brlid	r15, -544	// 0 <_start>
     224:	80000000 	or	r0, r0, r0
     228:	b9f4fea4 	brlid	r15, -348	// cc <register_tm_clones>
     22c:	80000000 	or	r0, r0, r0
     230:	e9e10000 	lwi	r15, r1, 0
     234:	b60f0008 	rtsd	r15, 8
     238:	3021001c 	addik	r1, r1, 28

0000023c <_crtinit>:
     23c:	2021ffd8 	addi	r1, r1, -40
     240:	f9e10000 	swi	r15, r1, 0
     244:	b0000000 	imm	0
     248:	20c06538 	addi	r6, r0, 25912	// 6538 <_SDA_BASE_>
     24c:	b0000000 	imm	0
     250:	20e06538 	addi	r7, r0, 25912	// 6538 <_SDA_BASE_>
     254:	06463800 	rsub	r18, r6, r7
     258:	bc720014 	blei	r18, 20		// 26c
     25c:	f8060000 	swi	r0, r6, 0
     260:	20c60004 	addi	r6, r6, 4
     264:	06463800 	rsub	r18, r6, r7
     268:	bc92fff4 	bgti	r18, -12		// 25c
     26c:	b0000000 	imm	0
     270:	20c06538 	addi	r6, r0, 25912	// 6538 <_SDA_BASE_>
     274:	b0000000 	imm	0
     278:	20e06648 	addi	r7, r0, 26184	// 6648 <__bss_end>
     27c:	06463800 	rsub	r18, r6, r7
     280:	bc720014 	blei	r18, 20		// 294
     284:	f8060000 	swi	r0, r6, 0
     288:	20c60004 	addi	r6, r6, 4
     28c:	06463800 	rsub	r18, r6, r7
     290:	bc92fff4 	bgti	r18, -12		// 284
     294:	b0000000 	imm	0
     298:	b9f42440 	brlid	r15, 9280	// 26d8 <_program_init>
     29c:	80000000 	or	r0, r0, r0
     2a0:	b0000000 	imm	0
     2a4:	b9f45acc 	brlid	r15, 23244	// 5d70 <__init>
     2a8:	80000000 	or	r0, r0, r0
     2ac:	20c00000 	addi	r6, r0, 0
     2b0:	20e00000 	addi	r7, r0, 0
     2b4:	b0000000 	imm	0
     2b8:	b9f453e4 	brlid	r15, 21476	// 569c <main>
     2bc:	20a00000 	addi	r5, r0, 0
     2c0:	32630000 	addik	r19, r3, 0
     2c4:	b0000000 	imm	0
     2c8:	b9f45ae4 	brlid	r15, 23268	// 5dac <__fini>
     2cc:	80000000 	or	r0, r0, r0
     2d0:	b0000000 	imm	0
     2d4:	b9f423fc 	brlid	r15, 9212	// 26d0 <_program_clean>
     2d8:	80000000 	or	r0, r0, r0
     2dc:	c9e10000 	lw	r15, r1, r0
     2e0:	30730000 	addik	r3, r19, 0
     2e4:	b60f0008 	rtsd	r15, 8
     2e8:	20210028 	addi	r1, r1, 40

000002ec <_hw_exception_handler>:
     2ec:	b8000000 	bri	0	// 2ec <_hw_exception_handler>

000002f0 <__extendsfdf2>:
     2f0:	3021ffd0 	addik	r1, r1, -48
     2f4:	f8a1002c 	swi	r5, r1, 44
     2f8:	30c1001c 	addik	r6, r1, 28
     2fc:	f9e10000 	swi	r15, r1, 0
     300:	b0000000 	imm	0
     304:	b9f40c38 	brlid	r15, 3128	// f3c <__unpack_f>
     308:	30a1002c 	addik	r5, r1, 44
     30c:	e9210028 	lwi	r9, r1, 40
     310:	e8e10024 	lwi	r7, r1, 36
     314:	e8c10020 	lwi	r6, r1, 32
     318:	e8a1001c 	lwi	r5, r1, 28
     31c:	6509041e 	bslli	r8, r9, 30
     320:	b0000000 	imm	0
     324:	b9f40af8 	brlid	r15, 2808	// e1c <__make_dp>
     328:	65290002 	bsrli	r9, r9, 2
     32c:	e9e10000 	lwi	r15, r1, 0
     330:	b60f0008 	rtsd	r15, 8
     334:	30210030 	addik	r1, r1, 48

00000338 <_fpadd_parts>:
     338:	e8650000 	lwi	r3, r5, 0
     33c:	31000001 	addik	r8, r0, 1
     340:	16434003 	cmpu	r18, r3, r8
     344:	bcb20288 	bgei	r18, 648		// 5cc
     348:	e8860000 	lwi	r4, r6, 0
     34c:	16444003 	cmpu	r18, r4, r8
     350:	bcb20160 	bgei	r18, 352		// 4b0
     354:	a9030004 	xori	r8, r3, 4
     358:	be080288 	beqid	r8, 648		// 5e0
     35c:	a9040004 	xori	r8, r4, 4
     360:	bc080150 	beqi	r8, 336		// 4b0
     364:	a8840002 	xori	r4, r4, 2
     368:	be040138 	beqid	r4, 312		// 4a0
     36c:	a8830002 	xori	r4, r3, 2
     370:	a8630002 	xori	r3, r3, 2
     374:	bc03013c 	beqi	r3, 316		// 4b0
     378:	3021ffe0 	addik	r1, r1, -32
     37c:	fa610004 	swi	r19, r1, 4
     380:	fac10008 	swi	r22, r1, 8
     384:	fae1000c 	swi	r23, r1, 12
     388:	fb010010 	swi	r24, r1, 16
     38c:	fb210014 	swi	r25, r1, 20
     390:	fb410018 	swi	r26, r1, 24
     394:	fb61001c 	swi	r27, r1, 28
     398:	e9450008 	lwi	r10, r5, 8
     39c:	e9660008 	lwi	r11, r6, 8
     3a0:	3180003f 	addik	r12, r0, 63
     3a4:	eac5000c 	lwi	r22, r5, 12
     3a8:	eae50010 	lwi	r23, r5, 16
     3ac:	148b5000 	rsubk	r4, r11, r10
     3b0:	6504021f 	bsrai	r8, r4, 31
     3b4:	88682000 	xor	r3, r8, r4
     3b8:	14681800 	rsubk	r3, r8, r3
     3bc:	e906000c 	lwi	r8, r6, 12
     3c0:	e9260010 	lwi	r9, r6, 16
     3c4:	16436001 	cmp	r18, r3, r12
     3c8:	bcb200f0 	bgei	r18, 240		// 4b8
     3cc:	164a5801 	cmp	r18, r10, r11
     3d0:	bcb2023c 	bgei	r18, 572		// 60c
     3d4:	31200000 	addik	r9, r0, 0
     3d8:	31000000 	addik	r8, r0, 0
     3dc:	e9650004 	lwi	r11, r5, 4
     3e0:	e8660004 	lwi	r3, r6, 4
     3e4:	886b1800 	xor	r3, r11, r3
     3e8:	bc030160 	beqi	r3, 352		// 548
     3ec:	bc0b01e8 	beqi	r11, 488		// 5d4
     3f0:	04964000 	rsub	r4, r22, r8
     3f4:	0cb74800 	rsubc	r5, r23, r9
     3f8:	be450224 	bltid	r5, 548		// 61c
     3fc:	30600001 	addik	r3, r0, 1
     400:	f8070004 	swi	r0, r7, 4
     404:	f9470008 	swi	r10, r7, 8
     408:	f887000c 	swi	r4, r7, 12
     40c:	f8a70010 	swi	r5, r7, 16
     410:	b0000fff 	imm	4095
     414:	3060ffff 	addik	r3, r0, -1
     418:	2104ffff 	addi	r8, r4, -1
     41c:	2925ffff 	addic	r9, r5, -1
     420:	16491803 	cmpu	r18, r9, r3
     424:	be52013c 	bltid	r18, 316		// 560
     428:	88691800 	xor	r3, r9, r3
     42c:	be0302ac 	beqid	r3, 684		// 6d8
     430:	3060fffe 	addik	r3, r0, -2
     434:	e8670008 	lwi	r3, r7, 8
     438:	b0000fff 	imm	4095
     43c:	3140ffff 	addik	r10, r0, -1
     440:	3160fffe 	addik	r11, r0, -2
     444:	11242000 	addk	r9, r4, r4
     448:	6504001f 	bsrli	r8, r4, 31
     44c:	10890000 	addk	r4, r9, r0
     450:	10c52800 	addk	r6, r5, r5
     454:	80a83000 	or	r5, r8, r6
     458:	2104ffff 	addi	r8, r4, -1
     45c:	2925ffff 	addic	r9, r5, -1
     460:	b0000fff 	imm	4095
     464:	a8c9ffff 	xori	r6, r9, -1
     468:	16495003 	cmpu	r18, r9, r10
     46c:	be520018 	bltid	r18, 24		// 484
     470:	3063ffff 	addik	r3, r3, -1
     474:	be26ffd4 	bneid	r6, -44		// 448
     478:	11242000 	addk	r9, r4, r4
     47c:	16485803 	cmpu	r18, r8, r11
     480:	bcb2ffc8 	bgei	r18, -56		// 448
     484:	30c00003 	addik	r6, r0, 3
     488:	f8670008 	swi	r3, r7, 8
     48c:	f887000c 	swi	r4, r7, 12
     490:	f8a70010 	swi	r5, r7, 16
     494:	f8c70000 	swi	r6, r7, 0
     498:	b8100110 	brid	272		// 5a8
     49c:	10670000 	addk	r3, r7, r0
     4a0:	be040068 	beqid	r4, 104		// 508
     4a4:	10650000 	addk	r3, r5, r0
     4a8:	b60f0008 	rtsd	r15, 8
     4ac:	80000000 	or	r0, r0, r0
     4b0:	b60f0008 	rtsd	r15, 8
     4b4:	10660000 	addk	r3, r6, r0
     4b8:	bc640180 	blei	r4, 384		// 638
     4bc:	a4830020 	andi	r4, r3, 32
     4c0:	be0401e0 	beqid	r4, 480		// 6a0
     4c4:	3340ffff 	addik	r26, r0, -1
     4c8:	11800000 	addk	r12, r0, r0
     4cc:	3080ffff 	addik	r4, r0, -1
     4d0:	130c0000 	addk	r24, r12, r0
     4d4:	47241c00 	bsll	r25, r4, r3
     4d8:	45691800 	bsrl	r11, r9, r3
     4dc:	ab18ffff 	xori	r24, r24, -1
     4e0:	ab39ffff 	xori	r25, r25, -1
     4e4:	84784000 	and	r3, r24, r8
     4e8:	84994800 	and	r4, r25, r9
     4ec:	80832000 	or	r4, r3, r4
     4f0:	14640000 	rsubk	r3, r4, r0
     4f4:	80632000 	or	r3, r3, r4
     4f8:	6463001f 	bsrli	r3, r3, 31
     4fc:	112c0000 	addk	r9, r12, r0
     500:	b810fedc 	brid	-292		// 3dc
     504:	810b1800 	or	r8, r11, r3
     508:	e9250004 	lwi	r9, r5, 4
     50c:	e8850008 	lwi	r4, r5, 8
     510:	31400002 	addik	r10, r0, 2
     514:	e905000c 	lwi	r8, r5, 12
     518:	e8a50010 	lwi	r5, r5, 16
     51c:	f9270004 	swi	r9, r7, 4
     520:	f9470000 	swi	r10, r7, 0
     524:	e8630004 	lwi	r3, r3, 4
     528:	f8870008 	swi	r4, r7, 8
     52c:	e8860004 	lwi	r4, r6, 4
     530:	f907000c 	swi	r8, r7, 12
     534:	f8a70010 	swi	r5, r7, 16
     538:	84632000 	and	r3, r3, r4
     53c:	f8670004 	swi	r3, r7, 4
     540:	b60f0008 	rtsd	r15, 8
     544:	10670000 	addk	r3, r7, r0
     548:	00964000 	add	r4, r22, r8
     54c:	08b74800 	addc	r5, r23, r9
     550:	f9670004 	swi	r11, r7, 4
     554:	f9470008 	swi	r10, r7, 8
     558:	f887000c 	swi	r4, r7, 12
     55c:	f8a70010 	swi	r5, r7, 16
     560:	b0001fff 	imm	8191
     564:	3060ffff 	addik	r3, r0, -1
     568:	31400003 	addik	r10, r0, 3
     56c:	16451803 	cmpu	r18, r5, r3
     570:	beb20034 	bgeid	r18, 52		// 5a4
     574:	f9470000 	swi	r10, r7, 0
     578:	e8c70008 	lwi	r6, r7, 8
     57c:	6505041f 	bslli	r8, r5, 31
     580:	90640041 	srl	r3, r4
     584:	80681800 	or	r3, r8, r3
     588:	a4840001 	andi	r4, r4, 1
     58c:	80632000 	or	r3, r3, r4
     590:	90a50041 	srl	r5, r5
     594:	30860001 	addik	r4, r6, 1
     598:	f867000c 	swi	r3, r7, 12
     59c:	f8a70010 	swi	r5, r7, 16
     5a0:	f8870008 	swi	r4, r7, 8
     5a4:	10670000 	addk	r3, r7, r0
     5a8:	ea610004 	lwi	r19, r1, 4
     5ac:	eac10008 	lwi	r22, r1, 8
     5b0:	eae1000c 	lwi	r23, r1, 12
     5b4:	eb010010 	lwi	r24, r1, 16
     5b8:	eb210014 	lwi	r25, r1, 20
     5bc:	eb410018 	lwi	r26, r1, 24
     5c0:	eb61001c 	lwi	r27, r1, 28
     5c4:	b60f0008 	rtsd	r15, 8
     5c8:	30210020 	addik	r1, r1, 32
     5cc:	b60f0008 	rtsd	r15, 8
     5d0:	10650000 	addk	r3, r5, r0
     5d4:	0488b000 	rsub	r4, r8, r22
     5d8:	0ca9b800 	rsubc	r5, r9, r23
     5dc:	b800fe1c 	bri	-484		// 3f8
     5e0:	a8840004 	xori	r4, r4, 4
     5e4:	be24fec4 	bneid	r4, -316		// 4a8
     5e8:	10650000 	addk	r3, r5, r0
     5ec:	e8850004 	lwi	r4, r5, 4
     5f0:	e8a60004 	lwi	r5, r6, 4
     5f4:	88842800 	xor	r4, r4, r5
     5f8:	bc04000c 	beqi	r4, 12		// 604
     5fc:	b0000000 	imm	0
     600:	30605f1c 	addik	r3, r0, 24348	// 5f1c <__thenan_df>
     604:	b60f0008 	rtsd	r15, 8
     608:	80000000 	or	r0, r0, r0
     60c:	32e00000 	addik	r23, r0, 0
     610:	32c00000 	addik	r22, r0, 0
     614:	b810fdc8 	brid	-568		// 3dc
     618:	114b0000 	addk	r10, r11, r0
     61c:	04840000 	rsub	r4, r4, r0
     620:	0ca50000 	rsubc	r5, r5, r0
     624:	f8670004 	swi	r3, r7, 4
     628:	f9470008 	swi	r10, r7, 8
     62c:	f887000c 	swi	r4, r7, 12
     630:	f8a70010 	swi	r5, r7, 16
     634:	b800fddc 	bri	-548		// 410
     638:	bc04fda4 	beqi	r4, -604		// 3dc
     63c:	a4830020 	andi	r4, r3, 32
     640:	be0400b4 	beqid	r4, 180		// 6f4
     644:	114a1800 	addk	r10, r10, r3
     648:	45771800 	bsrl	r11, r23, r3
     64c:	be240098 	bneid	r4, 152		// 6e4
     650:	11800000 	addk	r12, r0, r0
     654:	b0007fff 	imm	32767
     658:	3080ffff 	addik	r4, r0, -1
     65c:	3260ffff 	addik	r19, r0, -1
     660:	ab43ffff 	xori	r26, r3, -1
     664:	4484d000 	bsrl	r4, r4, r26
     668:	47331c00 	bsll	r25, r19, r3
     66c:	47131c00 	bsll	r24, r19, r3
     670:	8324c800 	or	r25, r4, r25
     674:	ab18ffff 	xori	r24, r24, -1
     678:	ab39ffff 	xori	r25, r25, -1
     67c:	8478b000 	and	r3, r24, r22
     680:	8499b800 	and	r4, r25, r23
     684:	80832000 	or	r4, r3, r4
     688:	14640000 	rsubk	r3, r4, r0
     68c:	80632000 	or	r3, r3, r4
     690:	6463001f 	bsrli	r3, r3, 31
     694:	12ec0000 	addk	r23, r12, r0
     698:	b810fd44 	brid	-700		// 3dc
     69c:	82cb1800 	or	r22, r11, r3
     6a0:	b0007fff 	imm	32767
     6a4:	3260ffff 	addik	r19, r0, -1
     6a8:	a883ffff 	xori	r4, r3, -1
     6ac:	46732000 	bsrl	r19, r19, r4
     6b0:	473a1c00 	bsll	r25, r26, r3
     6b4:	45681800 	bsrl	r11, r8, r3
     6b8:	45891800 	bsrl	r12, r9, r3
     6bc:	471a1c00 	bsll	r24, r26, r3
     6c0:	10894800 	addk	r4, r9, r9
     6c4:	ab63ffff 	xori	r27, r3, -1
     6c8:	4484dc00 	bsll	r4, r4, r27
     6cc:	8333c800 	or	r25, r19, r25
     6d0:	b810fe0c 	brid	-500		// 4dc
     6d4:	81645800 	or	r11, r4, r11
     6d8:	16481803 	cmpu	r18, r8, r3
     6dc:	bcb2fd58 	bgei	r18, -680		// 434
     6e0:	b800fe80 	bri	-384		// 560
     6e4:	3080ffff 	addik	r4, r0, -1
     6e8:	47241c00 	bsll	r25, r4, r3
     6ec:	b810ff88 	brid	-120		// 674
     6f0:	130c0000 	addk	r24, r12, r0
     6f4:	a963ffff 	xori	r11, r3, -1
     6f8:	1097b800 	addk	r4, r23, r23
     6fc:	44845c00 	bsll	r4, r4, r11
     700:	45761800 	bsrl	r11, r22, r3
     704:	45971800 	bsrl	r12, r23, r3
     708:	b810ff4c 	brid	-180		// 654
     70c:	81645800 	or	r11, r4, r11

00000710 <__adddf3>:
     710:	11450000 	addk	r10, r5, r0
     714:	11660000 	addk	r11, r6, r0
     718:	11280000 	addk	r9, r8, r0
     71c:	11070000 	addk	r8, r7, r0
     720:	3021ff98 	addik	r1, r1, -104
     724:	30c10044 	addik	r6, r1, 68
     728:	f9e10000 	swi	r15, r1, 0
     72c:	f9410060 	swi	r10, r1, 96
     730:	f9610064 	swi	r11, r1, 100
     734:	f9010058 	swi	r8, r1, 88
     738:	f921005c 	swi	r9, r1, 92
     73c:	b0000000 	imm	0
     740:	b9f40ba4 	brlid	r15, 2980	// 12e4 <__unpack_d>
     744:	30a10060 	addik	r5, r1, 96
     748:	30c10030 	addik	r6, r1, 48
     74c:	b0000000 	imm	0
     750:	b9f40b94 	brlid	r15, 2964	// 12e4 <__unpack_d>
     754:	30a10058 	addik	r5, r1, 88
     758:	30c10030 	addik	r6, r1, 48
     75c:	30a10044 	addik	r5, r1, 68
     760:	b9f4fbd8 	brlid	r15, -1064	// 338 <_fpadd_parts>
     764:	30e1001c 	addik	r7, r1, 28
     768:	b0000000 	imm	0
     76c:	b9f408d0 	brlid	r15, 2256	// 103c <__pack_d>
     770:	10a30000 	addk	r5, r3, r0
     774:	e9e10000 	lwi	r15, r1, 0
     778:	b60f0008 	rtsd	r15, 8
     77c:	30210068 	addik	r1, r1, 104

00000780 <__subdf3>:
     780:	11450000 	addk	r10, r5, r0
     784:	11660000 	addk	r11, r6, r0
     788:	11280000 	addk	r9, r8, r0
     78c:	11070000 	addk	r8, r7, r0
     790:	3021ff98 	addik	r1, r1, -104
     794:	30c10044 	addik	r6, r1, 68
     798:	f9e10000 	swi	r15, r1, 0
     79c:	f9410060 	swi	r10, r1, 96
     7a0:	f9610064 	swi	r11, r1, 100
     7a4:	f9010058 	swi	r8, r1, 88
     7a8:	f921005c 	swi	r9, r1, 92
     7ac:	b0000000 	imm	0
     7b0:	b9f40b34 	brlid	r15, 2868	// 12e4 <__unpack_d>
     7b4:	30a10060 	addik	r5, r1, 96
     7b8:	30c10030 	addik	r6, r1, 48
     7bc:	b0000000 	imm	0
     7c0:	b9f40b24 	brlid	r15, 2852	// 12e4 <__unpack_d>
     7c4:	30a10058 	addik	r5, r1, 88
     7c8:	e8610034 	lwi	r3, r1, 52
     7cc:	30c10030 	addik	r6, r1, 48
     7d0:	30a10044 	addik	r5, r1, 68
     7d4:	30e1001c 	addik	r7, r1, 28
     7d8:	a8630001 	xori	r3, r3, 1
     7dc:	b9f4fb5c 	brlid	r15, -1188	// 338 <_fpadd_parts>
     7e0:	f8610034 	swi	r3, r1, 52
     7e4:	b0000000 	imm	0
     7e8:	b9f40854 	brlid	r15, 2132	// 103c <__pack_d>
     7ec:	10a30000 	addk	r5, r3, r0
     7f0:	e9e10000 	lwi	r15, r1, 0
     7f4:	b60f0008 	rtsd	r15, 8
     7f8:	30210068 	addik	r1, r1, 104

000007fc <__muldf3>:
     7fc:	11450000 	addk	r10, r5, r0
     800:	11660000 	addk	r11, r6, r0
     804:	11280000 	addk	r9, r8, r0
     808:	11070000 	addk	r8, r7, r0
     80c:	3021ff74 	addik	r1, r1, -140
     810:	30c10044 	addik	r6, r1, 68
     814:	30a10060 	addik	r5, r1, 96
     818:	f9e10000 	swi	r15, r1, 0
     81c:	f9410060 	swi	r10, r1, 96
     820:	f9610064 	swi	r11, r1, 100
     824:	f9010058 	swi	r8, r1, 88
     828:	f921005c 	swi	r9, r1, 92
     82c:	fa610068 	swi	r19, r1, 104
     830:	fac1006c 	swi	r22, r1, 108
     834:	fae10070 	swi	r23, r1, 112
     838:	fb010074 	swi	r24, r1, 116
     83c:	fb210078 	swi	r25, r1, 120
     840:	fb41007c 	swi	r26, r1, 124
     844:	fb610080 	swi	r27, r1, 128
     848:	fb810084 	swi	r28, r1, 132
     84c:	b0000000 	imm	0
     850:	b9f40a94 	brlid	r15, 2708	// 12e4 <__unpack_d>
     854:	fba10088 	swi	r29, r1, 136
     858:	30a10058 	addik	r5, r1, 88
     85c:	b0000000 	imm	0
     860:	b9f40a84 	brlid	r15, 2692	// 12e4 <__unpack_d>
     864:	30c10030 	addik	r6, r1, 48
     868:	e8610044 	lwi	r3, r1, 68
     86c:	30a00001 	addik	r5, r0, 1
     870:	16432803 	cmpu	r18, r3, r5
     874:	beb20260 	bgeid	r18, 608		// ad4
     878:	e8810030 	lwi	r4, r1, 48
     87c:	16442803 	cmpu	r18, r4, r5
     880:	bcb20288 	bgei	r18, 648		// b08
     884:	a8a30004 	xori	r5, r3, 4
     888:	be050244 	beqid	r5, 580		// acc
     88c:	a8a40004 	xori	r5, r4, 4
     890:	be050274 	beqid	r5, 628		// b04
     894:	a8630002 	xori	r3, r3, 2
     898:	e8c10048 	lwi	r6, r1, 72
     89c:	e8a10034 	lwi	r5, r1, 52
     8a0:	88a53000 	xor	r5, r5, r6
     8a4:	14c50000 	rsubk	r6, r5, r0
     8a8:	80a62800 	or	r5, r6, r5
     8ac:	be030198 	beqid	r3, 408		// a44
     8b0:	6665001f 	bsrli	r19, r5, 31
     8b4:	a8840002 	xori	r4, r4, 2
     8b8:	be040240 	beqid	r4, 576		// af8
     8bc:	eae10050 	lwi	r23, r1, 80
     8c0:	eba1003c 	lwi	r29, r1, 60
     8c4:	11000000 	addk	r8, r0, r0
     8c8:	10c80000 	addk	r6, r8, r0
     8cc:	10f70000 	addk	r7, r23, r0
     8d0:	10bd0000 	addk	r5, r29, r0
     8d4:	eac10040 	lwi	r22, r1, 64
     8d8:	b0000000 	imm	0
     8dc:	b9f405e0 	brlid	r15, 1504	// ebc <__muldi3>
     8e0:	eb810054 	lwi	r28, r1, 84
     8e4:	11000000 	addk	r8, r0, r0
     8e8:	10f70000 	addk	r7, r23, r0
     8ec:	10c80000 	addk	r6, r8, r0
     8f0:	10b60000 	addk	r5, r22, r0
     8f4:	13030000 	addk	r24, r3, r0
     8f8:	b0000000 	imm	0
     8fc:	b9f405c0 	brlid	r15, 1472	// ebc <__muldi3>
     900:	13240000 	addk	r25, r4, r0
     904:	11000000 	addk	r8, r0, r0
     908:	10f60000 	addk	r7, r22, r0
     90c:	10c80000 	addk	r6, r8, r0
     910:	10bc0000 	addk	r5, r28, r0
     914:	13430000 	addk	r26, r3, r0
     918:	b0000000 	imm	0
     91c:	b9f405a0 	brlid	r15, 1440	// ebc <__muldi3>
     920:	13640000 	addk	r27, r4, r0
     924:	11000000 	addk	r8, r0, r0
     928:	10c80000 	addk	r6, r8, r0
     92c:	10fd0000 	addk	r7, r29, r0
     930:	10bc0000 	addk	r5, r28, r0
     934:	12c30000 	addk	r22, r3, r0
     938:	b0000000 	imm	0
     93c:	b9f40580 	brlid	r15, 1408	// ebc <__muldi3>
     940:	12e40000 	addk	r23, r4, r0
     944:	11030000 	addk	r8, r3, r0
     948:	11240000 	addk	r9, r4, r0
     94c:	0108d000 	add	r8, r8, r26
     950:	0929d800 	addc	r9, r9, r27
     954:	165b4803 	cmpu	r18, r27, r9
     958:	beb20130 	bgeid	r18, 304		// a88
     95c:	887b4800 	xor	r3, r27, r9
     960:	30e00000 	addik	r7, r0, 0
     964:	30c00000 	addik	r6, r0, 0
     968:	10e80000 	addk	r7, r8, r0
     96c:	31600001 	addik	r11, r0, 1
     970:	31400000 	addik	r10, r0, 0
     974:	00c6c000 	add	r6, r6, r24
     978:	08e7c800 	addc	r7, r7, r25
     97c:	16593803 	cmpu	r18, r25, r7
     980:	be52013c 	bltid	r18, 316		// abc
     984:	88793800 	xor	r3, r25, r7
     988:	be230010 	bneid	r3, 16		// 998
     98c:	10890000 	addk	r4, r9, r0
     990:	16583003 	cmpu	r18, r24, r6
     994:	bc520128 	blti	r18, 296		// abc
     998:	e901004c 	lwi	r8, r1, 76
     99c:	e8610038 	lwi	r3, r1, 56
     9a0:	10a00000 	addk	r5, r0, r0
     9a4:	0084b000 	add	r4, r4, r22
     9a8:	08a5b800 	addc	r5, r5, r23
     9ac:	11081800 	addk	r8, r8, r3
     9b0:	b0001fff 	imm	8191
     9b4:	32c0ffff 	addik	r22, r0, -1
     9b8:	31080004 	addik	r8, r8, 4
     9bc:	00845000 	add	r4, r4, r10
     9c0:	08a55800 	addc	r5, r5, r11
     9c4:	f9010024 	swi	r8, r1, 36
     9c8:	1645b003 	cmpu	r18, r5, r22
     9cc:	beb201a8 	bgeid	r18, 424		// b74
     9d0:	fa610020 	swi	r19, r1, 32
     9d4:	6565041f 	bslli	r11, r5, 31
     9d8:	6667041f 	bslli	r19, r7, 31
     9dc:	91250041 	srl	r9, r5
     9e0:	91440041 	srl	r10, r4
     9e4:	a4640001 	andi	r3, r4, 1
     9e8:	10a90000 	addk	r5, r9, r0
     9ec:	91860041 	srl	r12, r6
     9f0:	808b5000 	or	r4, r11, r10
     9f4:	91270041 	srl	r9, r7
     9f8:	be030014 	beqid	r3, 20		// a0c
     9fc:	31080001 	addik	r8, r8, 1
     a00:	80d36000 	or	r6, r19, r12
     a04:	b0008000 	imm	-32768
     a08:	a0e90000 	ori	r7, r9, 0
     a0c:	1645b003 	cmpu	r18, r5, r22
     a10:	be52ffc8 	bltid	r18, -56		// 9d8
     a14:	6565041f 	bslli	r11, r5, 31
     a18:	f9010024 	swi	r8, r1, 36
     a1c:	a46400ff 	andi	r3, r4, 255
     a20:	a8630080 	xori	r3, r3, 128
     a24:	be030108 	beqid	r3, 264		// b2c
     a28:	65050418 	bslli	r8, r5, 24
     a2c:	30600003 	addik	r3, r0, 3
     a30:	f8810028 	swi	r4, r1, 40
     a34:	f8a1002c 	swi	r5, r1, 44
     a38:	f861001c 	swi	r3, r1, 28
     a3c:	b8100010 	brid	16		// a4c
     a40:	30a1001c 	addik	r5, r1, 28
     a44:	fa610048 	swi	r19, r1, 72
     a48:	30a10044 	addik	r5, r1, 68
     a4c:	b0000000 	imm	0
     a50:	b9f405ec 	brlid	r15, 1516	// 103c <__pack_d>
     a54:	80000000 	or	r0, r0, r0
     a58:	e9e10000 	lwi	r15, r1, 0
     a5c:	ea610068 	lwi	r19, r1, 104
     a60:	eac1006c 	lwi	r22, r1, 108
     a64:	eae10070 	lwi	r23, r1, 112
     a68:	eb010074 	lwi	r24, r1, 116
     a6c:	eb210078 	lwi	r25, r1, 120
     a70:	eb41007c 	lwi	r26, r1, 124
     a74:	eb610080 	lwi	r27, r1, 128
     a78:	eb810084 	lwi	r28, r1, 132
     a7c:	eba10088 	lwi	r29, r1, 136
     a80:	b60f0008 	rtsd	r15, 8
     a84:	3021008c 	addik	r1, r1, 140
     a88:	bc23000c 	bnei	r3, 12		// a94
     a8c:	165a4003 	cmpu	r18, r26, r8
     a90:	bc52fed0 	blti	r18, -304		// 960
     a94:	30e00000 	addik	r7, r0, 0
     a98:	30c00000 	addik	r6, r0, 0
     a9c:	10e80000 	addk	r7, r8, r0
     aa0:	31600000 	addik	r11, r0, 0
     aa4:	31400000 	addik	r10, r0, 0
     aa8:	00c6c000 	add	r6, r6, r24
     aac:	08e7c800 	addc	r7, r7, r25
     ab0:	16593803 	cmpu	r18, r25, r7
     ab4:	beb2fed4 	bgeid	r18, -300		// 988
     ab8:	88793800 	xor	r3, r25, r7
     abc:	214a0001 	addi	r10, r10, 1
     ac0:	296b0000 	addic	r11, r11, 0
     ac4:	b810fed4 	brid	-300		// 998
     ac8:	10890000 	addk	r4, r9, r0
     acc:	a8840002 	xori	r4, r4, 2
     ad0:	bc040098 	beqi	r4, 152		// b68
     ad4:	e8610048 	lwi	r3, r1, 72
     ad8:	e8810034 	lwi	r4, r1, 52
     adc:	30a10044 	addik	r5, r1, 68
     ae0:	88832000 	xor	r4, r3, r4
     ae4:	14640000 	rsubk	r3, r4, r0
     ae8:	80632000 	or	r3, r3, r4
     aec:	6463001f 	bsrli	r3, r3, 31
     af0:	b810ff5c 	brid	-164		// a4c
     af4:	f8610048 	swi	r3, r1, 72
     af8:	fa610034 	swi	r19, r1, 52
     afc:	b810ff50 	brid	-176		// a4c
     b00:	30a10030 	addik	r5, r1, 48
     b04:	bc030064 	beqi	r3, 100		// b68
     b08:	e8610048 	lwi	r3, r1, 72
     b0c:	e8810034 	lwi	r4, r1, 52
     b10:	30a10030 	addik	r5, r1, 48
     b14:	88832000 	xor	r4, r3, r4
     b18:	14640000 	rsubk	r3, r4, r0
     b1c:	80632000 	or	r3, r3, r4
     b20:	6463001f 	bsrli	r3, r3, 31
     b24:	b810ff28 	brid	-216		// a4c
     b28:	f8610034 	swi	r3, r1, 52
     b2c:	64640008 	bsrli	r3, r4, 8
     b30:	80681800 	or	r3, r8, r3
     b34:	a8630001 	xori	r3, r3, 1
     b38:	a4630001 	andi	r3, r3, 1
     b3c:	be03fef0 	beqid	r3, -272		// a2c
     b40:	80c63800 	or	r6, r6, r7
     b44:	14660000 	rsubk	r3, r6, r0
     b48:	80c33000 	or	r6, r3, r6
     b4c:	bea6fee4 	bgeid	r6, -284		// a30
     b50:	30600003 	addik	r3, r0, 3
     b54:	20c40080 	addi	r6, r4, 128
     b58:	28e50000 	addic	r7, r5, 0
     b5c:	a486ff00 	andi	r4, r6, -256
     b60:	b810fed0 	brid	-304		// a30
     b64:	10a70000 	addk	r5, r7, r0
     b68:	b0000000 	imm	0
     b6c:	30a05f1c 	addik	r5, r0, 24348	// 5f1c <__thenan_df>
     b70:	b800fedc 	bri	-292		// a4c
     b74:	b0000fff 	imm	4095
     b78:	3260ffff 	addik	r19, r0, -1
     b7c:	16459803 	cmpu	r18, r5, r19
     b80:	be52fea0 	bltid	r18, -352		// a20
     b84:	a46400ff 	andi	r3, r4, 255
     b88:	6584001f 	bsrli	r12, r4, 31
     b8c:	6546001f 	bsrli	r10, r6, 31
     b90:	10652800 	addk	r3, r5, r5
     b94:	11242000 	addk	r9, r4, r4
     b98:	806c1800 	or	r3, r12, r3
     b9c:	10890000 	addk	r4, r9, r0
     ba0:	11663000 	addk	r11, r6, r6
     ba4:	11273800 	addk	r9, r7, r7
     ba8:	10a30000 	addk	r5, r3, r0
     bac:	bea70010 	bgeid	r7, 16		// bbc
     bb0:	3108ffff 	addik	r8, r8, -1
     bb4:	a0c40001 	ori	r6, r4, 1
     bb8:	10860000 	addk	r4, r6, r0
     bbc:	10cb0000 	addk	r6, r11, r0
     bc0:	16459803 	cmpu	r18, r5, r19
     bc4:	beb2ffc4 	bgeid	r18, -60		// b88
     bc8:	80ea4800 	or	r7, r10, r9
     bcc:	b810fe50 	brid	-432		// a1c
     bd0:	f9010024 	swi	r8, r1, 36

00000bd4 <__divdf3>:
     bd4:	11450000 	addk	r10, r5, r0
     bd8:	11660000 	addk	r11, r6, r0
     bdc:	11280000 	addk	r9, r8, r0
     be0:	11070000 	addk	r8, r7, r0
     be4:	3021ff98 	addik	r1, r1, -104
     be8:	30c10030 	addik	r6, r1, 48
     bec:	30a1004c 	addik	r5, r1, 76
     bf0:	f9e10000 	swi	r15, r1, 0
     bf4:	f941004c 	swi	r10, r1, 76
     bf8:	f9610050 	swi	r11, r1, 80
     bfc:	f9010044 	swi	r8, r1, 68
     c00:	f9210048 	swi	r9, r1, 72
     c04:	fa610054 	swi	r19, r1, 84
     c08:	fac10058 	swi	r22, r1, 88
     c0c:	fae1005c 	swi	r23, r1, 92
     c10:	fb010060 	swi	r24, r1, 96
     c14:	b0000000 	imm	0
     c18:	b9f406cc 	brlid	r15, 1740	// 12e4 <__unpack_d>
     c1c:	fb210064 	swi	r25, r1, 100
     c20:	30a10044 	addik	r5, r1, 68
     c24:	b0000000 	imm	0
     c28:	b9f406bc 	brlid	r15, 1724	// 12e4 <__unpack_d>
     c2c:	30c1001c 	addik	r6, r1, 28
     c30:	e8810030 	lwi	r4, r1, 48
     c34:	30a00001 	addik	r5, r0, 1
     c38:	16442803 	cmpu	r18, r4, r5
     c3c:	beb20114 	bgeid	r18, 276		// d50
     c40:	e861001c 	lwi	r3, r1, 28
     c44:	16432803 	cmpu	r18, r3, r5
     c48:	beb201b0 	bgeid	r18, 432		// df8
     c4c:	e8c10034 	lwi	r6, r1, 52
     c50:	e8e10020 	lwi	r7, r1, 32
     c54:	30a4fffe 	addik	r5, r4, -2
     c58:	a4a5fffd 	andi	r5, r5, -3
     c5c:	88c63800 	xor	r6, r6, r7
     c60:	be050120 	beqid	r5, 288		// d80
     c64:	f8c10034 	swi	r6, r1, 52
     c68:	a8830004 	xori	r4, r3, 4
     c6c:	be040194 	beqid	r4, 404		// e00
     c70:	a8630002 	xori	r3, r3, 2
     c74:	be03013c 	beqid	r3, 316		// db0
     c78:	e8610038 	lwi	r3, r1, 56
     c7c:	e8c10024 	lwi	r6, r1, 36
     c80:	e881003c 	lwi	r4, r1, 60
     c84:	e8a10040 	lwi	r5, r1, 64
     c88:	e9010028 	lwi	r8, r1, 40
     c8c:	e921002c 	lwi	r9, r1, 44
     c90:	14661800 	rsubk	r3, r6, r3
     c94:	16492803 	cmpu	r18, r9, r5
     c98:	beb200fc 	bgeid	r18, 252		// d94
     c9c:	f8610038 	swi	r3, r1, 56
     ca0:	11442000 	addk	r10, r4, r4
     ca4:	64e4001f 	bsrli	r7, r4, 31
     ca8:	108a0000 	addk	r4, r10, r0
     cac:	10c52800 	addk	r6, r5, r5
     cb0:	3063ffff 	addik	r3, r3, -1
     cb4:	f8610038 	swi	r3, r1, 56
     cb8:	80a73000 	or	r5, r7, r6
     cbc:	b0001000 	imm	4096
     cc0:	30c00000 	addik	r6, r0, 0
     cc4:	30e0003d 	addik	r7, r0, 61
     cc8:	31600000 	addik	r11, r0, 0
     ccc:	31400000 	addik	r10, r0, 0
     cd0:	10600000 	addk	r3, r0, r0
     cd4:	66e6041f 	bslli	r23, r6, 31
     cd8:	92c30041 	srl	r22, r3
     cdc:	30e7ffff 	addik	r7, r7, -1
     ce0:	16492803 	cmpu	r18, r9, r5
     ce4:	be520034 	bltid	r18, 52		// d18
     ce8:	89892800 	xor	r12, r9, r5
     cec:	826b3000 	or	r19, r11, r6
     cf0:	be2c0010 	bneid	r12, 16		// d00
     cf4:	806a1800 	or	r3, r10, r3
     cf8:	16482003 	cmpu	r18, r8, r4
     cfc:	bc52001c 	blti	r18, 28		// d18
     d00:	07082000 	rsub	r24, r8, r4
     d04:	0f292800 	rsubc	r25, r9, r5
     d08:	11430000 	addk	r10, r3, r0
     d0c:	10980000 	addk	r4, r24, r0
     d10:	10b90000 	addk	r5, r25, r0
     d14:	11730000 	addk	r11, r19, r0
     d18:	6664001f 	bsrli	r19, r4, 31
     d1c:	10642000 	addk	r3, r4, r4
     d20:	11852800 	addk	r12, r5, r5
     d24:	10830000 	addk	r4, r3, r0
     d28:	90c60041 	srl	r6, r6
     d2c:	8077b000 	or	r3, r23, r22
     d30:	be27ffa4 	bneid	r7, -92		// cd4
     d34:	80b36000 	or	r5, r19, r12
     d38:	a46a00ff 	andi	r3, r10, 255
     d3c:	a8630080 	xori	r3, r3, 128
     d40:	be030080 	beqid	r3, 128		// dc0
     d44:	64cb0418 	bslli	r6, r11, 24
     d48:	f941003c 	swi	r10, r1, 60
     d4c:	f9610040 	swi	r11, r1, 64
     d50:	30a10030 	addik	r5, r1, 48
     d54:	b0000000 	imm	0
     d58:	b9f402e4 	brlid	r15, 740	// 103c <__pack_d>
     d5c:	80000000 	or	r0, r0, r0
     d60:	e9e10000 	lwi	r15, r1, 0
     d64:	ea610054 	lwi	r19, r1, 84
     d68:	eac10058 	lwi	r22, r1, 88
     d6c:	eae1005c 	lwi	r23, r1, 92
     d70:	eb010060 	lwi	r24, r1, 96
     d74:	eb210064 	lwi	r25, r1, 100
     d78:	b60f0008 	rtsd	r15, 8
     d7c:	30210068 	addik	r1, r1, 104
     d80:	88641800 	xor	r3, r4, r3
     d84:	bc23ffcc 	bnei	r3, -52		// d50
     d88:	b0000000 	imm	0
     d8c:	30a05f1c 	addik	r5, r0, 24348	// 5f1c <__thenan_df>
     d90:	b800ffc4 	bri	-60		// d54
     d94:	88c92800 	xor	r6, r9, r5
     d98:	bc26ff24 	bnei	r6, -220		// cbc
     d9c:	16482003 	cmpu	r18, r8, r4
     da0:	beb2ff1c 	bgeid	r18, -228		// cbc
     da4:	11442000 	addk	r10, r4, r4
     da8:	b810ff00 	brid	-256		// ca8
     dac:	64e4001f 	bsrli	r7, r4, 31
     db0:	30e00004 	addik	r7, r0, 4
     db4:	f8e10030 	swi	r7, r1, 48
     db8:	b810ff9c 	brid	-100		// d54
     dbc:	30a10030 	addik	r5, r1, 48
     dc0:	646a0008 	bsrli	r3, r10, 8
     dc4:	80661800 	or	r3, r6, r3
     dc8:	a8630001 	xori	r3, r3, 1
     dcc:	a4630001 	andi	r3, r3, 1
     dd0:	be03ff78 	beqid	r3, -136		// d48
     dd4:	80842800 	or	r4, r4, r5
     dd8:	14640000 	rsubk	r3, r4, r0
     ddc:	80832000 	or	r4, r3, r4
     de0:	bca4ff68 	bgei	r4, -152		// d48
     de4:	208a0080 	addi	r4, r10, 128
     de8:	28ab0000 	addic	r5, r11, 0
     dec:	a544ff00 	andi	r10, r4, -256
     df0:	b810ff58 	brid	-168		// d48
     df4:	11650000 	addk	r11, r5, r0
     df8:	b810ff5c 	brid	-164		// d54
     dfc:	30a1001c 	addik	r5, r1, 28
     e00:	30e00000 	addik	r7, r0, 0
     e04:	30c00000 	addik	r6, r0, 0
     e08:	f8c1003c 	swi	r6, r1, 60
     e0c:	f8e10040 	swi	r7, r1, 64
     e10:	f8810038 	swi	r4, r1, 56
     e14:	b810ff40 	brid	-192		// d54
     e18:	30a10030 	addik	r5, r1, 48

00000e1c <__make_dp>:
     e1c:	3021ffd0 	addik	r1, r1, -48
     e20:	f8a1001c 	swi	r5, r1, 28
     e24:	f9e10000 	swi	r15, r1, 0
     e28:	f8c10020 	swi	r6, r1, 32
     e2c:	f8e10024 	swi	r7, r1, 36
     e30:	f9010028 	swi	r8, r1, 40
     e34:	f921002c 	swi	r9, r1, 44
     e38:	b0000000 	imm	0
     e3c:	b9f40200 	brlid	r15, 512	// 103c <__pack_d>
     e40:	30a1001c 	addik	r5, r1, 28
     e44:	e9e10000 	lwi	r15, r1, 0
     e48:	b60f0008 	rtsd	r15, 8
     e4c:	30210030 	addik	r1, r1, 48

00000e50 <__truncdfsf2>:
     e50:	11050000 	addk	r8, r5, r0
     e54:	11260000 	addk	r9, r6, r0
     e58:	3021ffc8 	addik	r1, r1, -56
     e5c:	30c1001c 	addik	r6, r1, 28
     e60:	f9010030 	swi	r8, r1, 48
     e64:	f9210034 	swi	r9, r1, 52
     e68:	f9e10000 	swi	r15, r1, 0
     e6c:	b0000000 	imm	0
     e70:	b9f40474 	brlid	r15, 1140	// 12e4 <__unpack_d>
     e74:	30a10030 	addik	r5, r1, 48
     e78:	e8610028 	lwi	r3, r1, 40
     e7c:	e901002c 	lwi	r8, r1, 44
     e80:	6483001e 	bsrli	r4, r3, 30
     e84:	65080402 	bslli	r8, r8, 2
     e88:	b0003fff 	imm	16383
     e8c:	a463ffff 	andi	r3, r3, -1
     e90:	be03000c 	beqid	r3, 12		// e9c
     e94:	81082000 	or	r8, r8, r4
     e98:	a1080001 	ori	r8, r8, 1
     e9c:	e8e10024 	lwi	r7, r1, 36
     ea0:	e8c10020 	lwi	r6, r1, 32
     ea4:	b0000000 	imm	0
     ea8:	b9f40164 	brlid	r15, 356	// 100c <__make_fp>
     eac:	e8a1001c 	lwi	r5, r1, 28
     eb0:	e9e10000 	lwi	r15, r1, 0
     eb4:	b60f0008 	rtsd	r15, 8
     eb8:	30210038 	addik	r1, r1, 56

00000ebc <__muldi3>:
     ebc:	3021fff8 	addik	r1, r1, -8
     ec0:	b0000000 	imm	0
     ec4:	a525ffff 	andi	r9, r5, -1
     ec8:	65450010 	bsrli	r10, r5, 16
     ecc:	b0000000 	imm	0
     ed0:	a567ffff 	andi	r11, r7, -1
     ed4:	fa610004 	swi	r19, r1, 4
     ed8:	66670010 	bsrli	r19, r7, 16
     edc:	41895800 	mul	r12, r9, r11
     ee0:	40699800 	mul	r3, r9, r19
     ee4:	416a5800 	mul	r11, r10, r11
     ee8:	652c0010 	bsrli	r9, r12, 16
     eec:	10635800 	addk	r3, r3, r11
     ef0:	11291800 	addk	r9, r9, r3
     ef4:	164b4803 	cmpu	r18, r11, r9
     ef8:	beb20010 	bgeid	r18, 16		// f08
     efc:	414a9800 	mul	r10, r10, r19
     f00:	b0000001 	imm	1
     f04:	314a0000 	addik	r10, r10, 0
     f08:	64890010 	bsrli	r4, r9, 16
     f0c:	40a54000 	mul	r5, r5, r8
     f10:	11445000 	addk	r10, r4, r10
     f14:	40e73000 	mul	r7, r7, r6
     f18:	ea610004 	lwi	r19, r1, 4
     f1c:	65290410 	bslli	r9, r9, 16
     f20:	b0000000 	imm	0
     f24:	a46cffff 	andi	r3, r12, -1
     f28:	10a55000 	addk	r5, r5, r10
     f2c:	10691800 	addk	r3, r9, r3
     f30:	10853800 	addk	r4, r5, r7
     f34:	b60f0008 	rtsd	r15, 8
     f38:	30210008 	addik	r1, r1, 8

00000f3c <__unpack_f>:
     f3c:	e8a50000 	lwi	r5, r5, 0
     f40:	6465001f 	bsrli	r3, r5, 31
     f44:	64850017 	bsrli	r4, r5, 23
     f48:	f8660004 	swi	r3, r6, 4
     f4c:	a48400ff 	andi	r4, r4, 255
     f50:	b000007f 	imm	127
     f54:	a465ffff 	andi	r3, r5, -1
     f58:	be240040 	bneid	r4, 64		// f98
     f5c:	a8e400ff 	xori	r7, r4, 255
     f60:	be030060 	beqid	r3, 96		// fc0
     f64:	30800003 	addik	r4, r0, 3
     f68:	b0003fff 	imm	16383
     f6c:	30a0ffff 	addik	r5, r0, -1
     f70:	64630407 	bslli	r3, r3, 7
     f74:	f8860000 	swi	r4, r6, 0
     f78:	3080ff82 	addik	r4, r0, -126
     f7c:	10631800 	addk	r3, r3, r3
     f80:	16432803 	cmpu	r18, r3, r5
     f84:	beb2fff8 	bgeid	r18, -8		// f7c
     f88:	3084ffff 	addik	r4, r4, -1
     f8c:	f8860008 	swi	r4, r6, 8
     f90:	b60f0008 	rtsd	r15, 8
     f94:	f866000c 	swi	r3, r6, 12
     f98:	be070034 	beqid	r7, 52		// fcc
     f9c:	3084ff81 	addik	r4, r4, -127
     fa0:	64630407 	bslli	r3, r3, 7
     fa4:	30a00003 	addik	r5, r0, 3
     fa8:	b0004000 	imm	16384
     fac:	a0630000 	ori	r3, r3, 0
     fb0:	f8a60000 	swi	r5, r6, 0
     fb4:	f8860008 	swi	r4, r6, 8
     fb8:	b60f0008 	rtsd	r15, 8
     fbc:	f866000c 	swi	r3, r6, 12
     fc0:	30600002 	addik	r3, r0, 2
     fc4:	b60f0008 	rtsd	r15, 8
     fc8:	f8660000 	swi	r3, r6, 0
     fcc:	bc03002c 	beqi	r3, 44		// ff8
     fd0:	b0000040 	imm	64
     fd4:	a4a50000 	andi	r5, r5, 0
     fd8:	be05002c 	beqid	r5, 44		// 1004
     fdc:	30800001 	addik	r4, r0, 1
     fe0:	f8860000 	swi	r4, r6, 0
     fe4:	64630407 	bslli	r3, r3, 7
     fe8:	b000dfff 	imm	-8193
     fec:	a463ff80 	andi	r3, r3, -128
     ff0:	b60f0008 	rtsd	r15, 8
     ff4:	f866000c 	swi	r3, r6, 12
     ff8:	30a00004 	addik	r5, r0, 4
     ffc:	b60f0008 	rtsd	r15, 8
    1000:	f8a60000 	swi	r5, r6, 0
    1004:	b810ffe0 	brid	-32		// fe4
    1008:	f8a60000 	swi	r5, r6, 0

0000100c <__make_fp>:
    100c:	3021ffd4 	addik	r1, r1, -44
    1010:	f8a1001c 	swi	r5, r1, 28
    1014:	30a1001c 	addik	r5, r1, 28
    1018:	f9e10000 	swi	r15, r1, 0
    101c:	f8c10020 	swi	r6, r1, 32
    1020:	f8e10024 	swi	r7, r1, 36
    1024:	b0000000 	imm	0
    1028:	b9f403d4 	brlid	r15, 980	// 13fc <__pack_f>
    102c:	f9010028 	swi	r8, r1, 40
    1030:	e9e10000 	lwi	r15, r1, 0
    1034:	b60f0008 	rtsd	r15, 8
    1038:	3021002c 	addik	r1, r1, 44

0000103c <__pack_d>:
    103c:	3021fff4 	addik	r1, r1, -12
    1040:	fa610004 	swi	r19, r1, 4
    1044:	fac10008 	swi	r22, r1, 8
    1048:	e8650000 	lwi	r3, r5, 0
    104c:	30800001 	addik	r4, r0, 1
    1050:	e905000c 	lwi	r8, r5, 12
    1054:	e9250010 	lwi	r9, r5, 16
    1058:	16432003 	cmpu	r18, r3, r4
    105c:	beb20140 	bgeid	r18, 320		// 119c
    1060:	e9450004 	lwi	r10, r5, 4
    1064:	a8830004 	xori	r4, r3, 4
    1068:	be040128 	beqid	r4, 296		// 1190
    106c:	80c84800 	or	r6, r8, r9
    1070:	14860000 	rsubk	r4, r6, r0
    1074:	80843000 	or	r4, r4, r6
    1078:	bea4008c 	bgeid	r4, 140		// 1104
    107c:	a8630002 	xori	r3, r3, 2
    1080:	14830000 	rsubk	r4, r3, r0
    1084:	80641800 	or	r3, r4, r3
    1088:	a863ffff 	xori	r3, r3, -1
    108c:	6483001f 	bsrli	r4, r3, 31
    1090:	be240078 	bneid	r4, 120		// 1108
    1094:	10600000 	addk	r3, r0, r0
    1098:	e8650008 	lwi	r3, r5, 8
    109c:	30a0fc02 	addik	r5, r0, -1022
    10a0:	16451801 	cmp	r18, r5, r3
    10a4:	bc520120 	blti	r18, 288		// 11c4
    10a8:	30a003ff 	addik	r5, r0, 1023
    10ac:	16432801 	cmp	r18, r3, r5
    10b0:	bc5200e0 	blti	r18, 224		// 1190
    10b4:	a48800ff 	andi	r4, r8, 255
    10b8:	a8840080 	xori	r4, r4, 128
    10bc:	be0400ac 	beqid	r4, 172		// 1168
    10c0:	a4880100 	andi	r4, r8, 256
    10c4:	2108007f 	addi	r8, r8, 127
    10c8:	29290000 	addic	r9, r9, 0
    10cc:	b0001fff 	imm	8191
    10d0:	3080ffff 	addik	r4, r0, -1
    10d4:	16492003 	cmpu	r18, r9, r4
    10d8:	be5200a0 	bltid	r18, 160		// 1178
    10dc:	64c9041f 	bslli	r6, r9, 31
    10e0:	306303ff 	addik	r3, r3, 1023
    10e4:	64c90418 	bslli	r6, r9, 24
    10e8:	64a80008 	bsrli	r5, r8, 8
    10ec:	64890008 	bsrli	r4, r9, 8
    10f0:	80a62800 	or	r5, r6, r5
    10f4:	b000000f 	imm	15
    10f8:	a484ffff 	andi	r4, r4, -1
    10fc:	b8100014 	brid	20		// 1110
    1100:	a46307ff 	andi	r3, r3, 2047
    1104:	10600000 	addk	r3, r0, r0
    1108:	10a30000 	addk	r5, r3, r0
    110c:	10830000 	addk	r4, r3, r0
    1110:	30e00000 	addik	r7, r0, 0
    1114:	30c00000 	addik	r6, r0, 0
    1118:	10c50000 	addk	r6, r5, r0
    111c:	b000000f 	imm	15
    1120:	a4a4ffff 	andi	r5, r4, -1
    1124:	b000fff0 	imm	-16
    1128:	a4870000 	andi	r4, r7, 0
    112c:	64630414 	bslli	r3, r3, 20
    1130:	654a041f 	bslli	r10, r10, 31
    1134:	80842800 	or	r4, r4, r5
    1138:	b000800f 	imm	-32753
    113c:	a484ffff 	andi	r4, r4, -1
    1140:	80841800 	or	r4, r4, r3
    1144:	b0007fff 	imm	32767
    1148:	a484ffff 	andi	r4, r4, -1
    114c:	80e45000 	or	r7, r4, r10
    1150:	10660000 	addk	r3, r6, r0
    1154:	10870000 	addk	r4, r7, r0
    1158:	ea610004 	lwi	r19, r1, 4
    115c:	eac10008 	lwi	r22, r1, 8
    1160:	b60f0008 	rtsd	r15, 8
    1164:	3021000c 	addik	r1, r1, 12
    1168:	bc04ff64 	beqi	r4, -156		// 10cc
    116c:	21080080 	addi	r8, r8, 128
    1170:	29290000 	addic	r9, r9, 0
    1174:	b800ff58 	bri	-168		// 10cc
    1178:	90890041 	srl	r4, r9
    117c:	90a80041 	srl	r5, r8
    1180:	81062800 	or	r8, r6, r5
    1184:	11240000 	addk	r9, r4, r0
    1188:	b810ff5c 	brid	-164		// 10e4
    118c:	30630400 	addik	r3, r3, 1024
    1190:	10a40000 	addk	r5, r4, r0
    1194:	b810ff7c 	brid	-132		// 1110
    1198:	306007ff 	addik	r3, r0, 2047
    119c:	64890008 	bsrli	r4, r9, 8
    11a0:	64a90418 	bslli	r5, r9, 24
    11a4:	65080008 	bsrli	r8, r8, 8
    11a8:	b0000007 	imm	7
    11ac:	a484ffff 	andi	r4, r4, -1
    11b0:	80a54000 	or	r5, r5, r8
    11b4:	b0000008 	imm	8
    11b8:	a0840000 	ori	r4, r4, 0
    11bc:	b810ff54 	brid	-172		// 1110
    11c0:	306007ff 	addik	r3, r0, 2047
    11c4:	14c32800 	rsubk	r6, r3, r5
    11c8:	30600038 	addik	r3, r0, 56
    11cc:	16461801 	cmp	r18, r6, r3
    11d0:	be52ff38 	bltid	r18, -200		// 1108
    11d4:	10600000 	addk	r3, r0, r0
    11d8:	a4660020 	andi	r3, r6, 32
    11dc:	be03008c 	beqid	r3, 140		// 1268
    11e0:	3260ffff 	addik	r19, r0, -1
    11e4:	30e0ffff 	addik	r7, r0, -1
    11e8:	10640000 	addk	r3, r4, r0
    11ec:	44a73400 	bsll	r5, r7, r6
    11f0:	45693000 	bsrl	r11, r9, r6
    11f4:	a884ffff 	xori	r4, r4, -1
    11f8:	a8a5ffff 	xori	r5, r5, -1
    11fc:	84844000 	and	r4, r4, r8
    1200:	84a54800 	and	r5, r5, r9
    1204:	80a42800 	or	r5, r4, r5
    1208:	14850000 	rsubk	r4, r5, r0
    120c:	80842800 	or	r4, r4, r5
    1210:	6484001f 	bsrli	r4, r4, 31
    1214:	80cb2000 	or	r6, r11, r4
    1218:	a50600ff 	andi	r8, r6, 255
    121c:	a9080080 	xori	r8, r8, 128
    1220:	be080080 	beqid	r8, 128		// 12a0
    1224:	10e30000 	addk	r7, r3, r0
    1228:	20c6007f 	addi	r6, r6, 127
    122c:	28e70000 	addic	r7, r7, 0
    1230:	b0000fff 	imm	4095
    1234:	3100ffff 	addik	r8, r0, -1
    1238:	64670418 	bslli	r3, r7, 24
    123c:	64a60008 	bsrli	r5, r6, 8
    1240:	64870008 	bsrli	r4, r7, 8
    1244:	80a32800 	or	r5, r3, r5
    1248:	b000000f 	imm	15
    124c:	a484ffff 	andi	r4, r4, -1
    1250:	16474003 	cmpu	r18, r7, r8
    1254:	be52000c 	bltid	r18, 12		// 1260
    1258:	30600001 	addik	r3, r0, 1
    125c:	30600000 	addik	r3, r0, 0
    1260:	b810feb0 	brid	-336		// 1110
    1264:	a4630001 	andi	r3, r3, 1
    1268:	b0007fff 	imm	32767
    126c:	3180ffff 	addik	r12, r0, -1
    1270:	a866ffff 	xori	r3, r6, -1
    1274:	10e94800 	addk	r7, r9, r9
    1278:	aac6ffff 	xori	r22, r6, -1
    127c:	458c1800 	bsrl	r12, r12, r3
    1280:	44b33400 	bsll	r5, r19, r6
    1284:	45683000 	bsrl	r11, r8, r6
    1288:	44e7b400 	bsll	r7, r7, r22
    128c:	44693000 	bsrl	r3, r9, r6
    1290:	44933400 	bsll	r4, r19, r6
    1294:	80ac2800 	or	r5, r12, r5
    1298:	b810ff5c 	brid	-164		// 11f4
    129c:	81675800 	or	r11, r7, r11
    12a0:	a5260100 	andi	r9, r6, 256
    12a4:	bc09ff8c 	beqi	r9, -116		// 1230
    12a8:	20c60080 	addi	r6, r6, 128
    12ac:	28e70000 	addic	r7, r7, 0
    12b0:	b0000fff 	imm	4095
    12b4:	3120ffff 	addik	r9, r0, -1
    12b8:	64670418 	bslli	r3, r7, 24
    12bc:	64a60008 	bsrli	r5, r6, 8
    12c0:	64870008 	bsrli	r4, r7, 8
    12c4:	80a32800 	or	r5, r3, r5
    12c8:	b000000f 	imm	15
    12cc:	a484ffff 	andi	r4, r4, -1
    12d0:	16474803 	cmpu	r18, r7, r9
    12d4:	be52ff8c 	bltid	r18, -116		// 1260
    12d8:	30600001 	addik	r3, r0, 1
    12dc:	b810ff84 	brid	-124		// 1260
    12e0:	10680000 	addk	r3, r8, r0

000012e4 <__unpack_d>:
    12e4:	e8e50004 	lwi	r7, r5, 4
    12e8:	e8850000 	lwi	r4, r5, 0
    12ec:	6467001f 	bsrli	r3, r7, 31
    12f0:	64a70014 	bsrli	r5, r7, 20
    12f4:	f8660004 	swi	r3, r6, 4
    12f8:	a4a507ff 	andi	r5, r5, 2047
    12fc:	b000000f 	imm	15
    1300:	a467ffff 	andi	r3, r7, -1
    1304:	be250060 	bneid	r5, 96		// 1364
    1308:	a90507ff 	xori	r8, r5, 2047
    130c:	80a41800 	or	r5, r4, r3
    1310:	be05008c 	beqid	r5, 140		// 139c
    1314:	64a40018 	bsrli	r5, r4, 24
    1318:	64630408 	bslli	r3, r3, 8
    131c:	64840408 	bslli	r4, r4, 8
    1320:	b0000fff 	imm	4095
    1324:	3100ffff 	addik	r8, r0, -1
    1328:	30e00003 	addik	r7, r0, 3
    132c:	80651800 	or	r3, r5, r3
    1330:	f8e60000 	swi	r7, r6, 0
    1334:	30a0fc02 	addik	r5, r0, -1022
    1338:	64e4001f 	bsrli	r7, r4, 31
    133c:	10631800 	addk	r3, r3, r3
    1340:	80671800 	or	r3, r7, r3
    1344:	10842000 	addk	r4, r4, r4
    1348:	16434003 	cmpu	r18, r3, r8
    134c:	beb2ffec 	bgeid	r18, -20		// 1338
    1350:	30a5ffff 	addik	r5, r5, -1
    1354:	f8a60008 	swi	r5, r6, 8
    1358:	f886000c 	swi	r4, r6, 12
    135c:	b60f0008 	rtsd	r15, 8
    1360:	f8660010 	swi	r3, r6, 16
    1364:	be080044 	beqid	r8, 68		// 13a8
    1368:	30a5fc01 	addik	r5, r5, -1023
    136c:	64e40018 	bsrli	r7, r4, 24
    1370:	64630408 	bslli	r3, r3, 8
    1374:	64840408 	bslli	r4, r4, 8
    1378:	80671800 	or	r3, r7, r3
    137c:	30e00003 	addik	r7, r0, 3
    1380:	b0001000 	imm	4096
    1384:	a0630000 	ori	r3, r3, 0
    1388:	f8e60000 	swi	r7, r6, 0
    138c:	f8a60008 	swi	r5, r6, 8
    1390:	f886000c 	swi	r4, r6, 12
    1394:	b60f0008 	rtsd	r15, 8
    1398:	f8660010 	swi	r3, r6, 16
    139c:	30600002 	addik	r3, r0, 2
    13a0:	b60f0008 	rtsd	r15, 8
    13a4:	f8660000 	swi	r3, r6, 0
    13a8:	80a41800 	or	r5, r4, r3
    13ac:	bc05003c 	beqi	r5, 60		// 13e8
    13b0:	b0000008 	imm	8
    13b4:	a4e70000 	andi	r7, r7, 0
    13b8:	be07003c 	beqid	r7, 60		// 13f4
    13bc:	30a00001 	addik	r5, r0, 1
    13c0:	f8a60000 	swi	r5, r6, 0
    13c4:	64a40018 	bsrli	r5, r4, 24
    13c8:	64630408 	bslli	r3, r3, 8
    13cc:	64840408 	bslli	r4, r4, 8
    13d0:	80651800 	or	r3, r5, r3
    13d4:	b000f7ff 	imm	-2049
    13d8:	a463ffff 	andi	r3, r3, -1
    13dc:	f886000c 	swi	r4, r6, 12
    13e0:	b60f0008 	rtsd	r15, 8
    13e4:	f8660010 	swi	r3, r6, 16
    13e8:	30600004 	addik	r3, r0, 4
    13ec:	b60f0008 	rtsd	r15, 8
    13f0:	f8660000 	swi	r3, r6, 0
    13f4:	b810ffd0 	brid	-48		// 13c4
    13f8:	f8e60000 	swi	r7, r6, 0

000013fc <__pack_f>:
    13fc:	e8c50000 	lwi	r6, r5, 0
    1400:	30600001 	addik	r3, r0, 1
    1404:	e905000c 	lwi	r8, r5, 12
    1408:	16461803 	cmpu	r18, r6, r3
    140c:	beb200ec 	bgeid	r18, 236		// 14f8
    1410:	e9250004 	lwi	r9, r5, 4
    1414:	a8860004 	xori	r4, r6, 4
    1418:	bc0400c0 	beqi	r4, 192		// 14d8
    141c:	14880000 	rsubk	r4, r8, r0
    1420:	80844000 	or	r4, r4, r8
    1424:	bea40080 	bgeid	r4, 128		// 14a4
    1428:	a8c60002 	xori	r6, r6, 2
    142c:	14e60000 	rsubk	r7, r6, r0
    1430:	80c73000 	or	r6, r7, r6
    1434:	a8e6ffff 	xori	r7, r6, -1
    1438:	64c7001f 	bsrli	r6, r7, 31
    143c:	be260068 	bneid	r6, 104		// 14a4
    1440:	3080ff82 	addik	r4, r0, -126
    1444:	e8a50008 	lwi	r5, r5, 8
    1448:	16442801 	cmp	r18, r4, r5
    144c:	bc5200ec 	blti	r18, 236		// 1538
    1450:	3060007f 	addik	r3, r0, 127
    1454:	16451801 	cmp	r18, r5, r3
    1458:	bc52007c 	blti	r18, 124		// 14d4
    145c:	84681800 	and	r3, r8, r3
    1460:	a8630040 	xori	r3, r3, 64
    1464:	be030064 	beqid	r3, 100		// 14c8
    1468:	a4680080 	andi	r3, r8, 128
    146c:	3108003f 	addik	r8, r8, 63
    1470:	bc4800bc 	blti	r8, 188		// 152c
    1474:	30a5007f 	addik	r5, r5, 127
    1478:	64880007 	bsrli	r4, r8, 7
    147c:	64c9041f 	bslli	r6, r9, 31
    1480:	a46500ff 	andi	r3, r5, 255
    1484:	64a30417 	bslli	r5, r3, 23
    1488:	b000007f 	imm	127
    148c:	a484ffff 	andi	r4, r4, -1
    1490:	b000007f 	imm	127
    1494:	a464ffff 	andi	r3, r4, -1
    1498:	80632800 	or	r3, r3, r5
    149c:	b60f0008 	rtsd	r15, 8
    14a0:	80633000 	or	r3, r3, r6
    14a4:	10600000 	addk	r3, r0, r0
    14a8:	10830000 	addk	r4, r3, r0
    14ac:	64a30417 	bslli	r5, r3, 23
    14b0:	64c9041f 	bslli	r6, r9, 31
    14b4:	b000007f 	imm	127
    14b8:	a464ffff 	andi	r3, r4, -1
    14bc:	80632800 	or	r3, r3, r5
    14c0:	b60f0008 	rtsd	r15, 8
    14c4:	80633000 	or	r3, r3, r6
    14c8:	bc03ffa8 	beqi	r3, -88		// 1470
    14cc:	b810ffa4 	brid	-92		// 1470
    14d0:	31080040 	addik	r8, r8, 64
    14d4:	10860000 	addk	r4, r6, r0
    14d8:	306000ff 	addik	r3, r0, 255
    14dc:	64a30417 	bslli	r5, r3, 23
    14e0:	64c9041f 	bslli	r6, r9, 31
    14e4:	b000007f 	imm	127
    14e8:	a464ffff 	andi	r3, r4, -1
    14ec:	80632800 	or	r3, r3, r5
    14f0:	b60f0008 	rtsd	r15, 8
    14f4:	80633000 	or	r3, r3, r6
    14f8:	64880007 	bsrli	r4, r8, 7
    14fc:	64c9041f 	bslli	r6, r9, 31
    1500:	306000ff 	addik	r3, r0, 255
    1504:	b000003f 	imm	63
    1508:	a484ffff 	andi	r4, r4, -1
    150c:	64a30417 	bslli	r5, r3, 23
    1510:	b0000040 	imm	64
    1514:	a0840000 	ori	r4, r4, 0
    1518:	b000007f 	imm	127
    151c:	a464ffff 	andi	r3, r4, -1
    1520:	80632800 	or	r3, r3, r5
    1524:	b60f0008 	rtsd	r15, 8
    1528:	80633000 	or	r3, r3, r6
    152c:	91080041 	srl	r8, r8
    1530:	b810ff48 	brid	-184		// 1478
    1534:	30a50080 	addik	r5, r5, 128
    1538:	14a52000 	rsubk	r5, r5, r4
    153c:	30800019 	addik	r4, r0, 25
    1540:	16452001 	cmp	r18, r5, r4
    1544:	be52ff60 	bltid	r18, -160		// 14a4
    1548:	3080ffff 	addik	r4, r0, -1
    154c:	44842c00 	bsll	r4, r4, r5
    1550:	44a82800 	bsrl	r5, r8, r5
    1554:	a884ffff 	xori	r4, r4, -1
    1558:	84844000 	and	r4, r4, r8
    155c:	14e40000 	rsubk	r7, r4, r0
    1560:	80e72000 	or	r7, r7, r4
    1564:	64e7001f 	bsrli	r7, r7, 31
    1568:	80e53800 	or	r7, r5, r7
    156c:	a507007f 	andi	r8, r7, 127
    1570:	a9080040 	xori	r8, r8, 64
    1574:	bc080034 	beqi	r8, 52		// 15a8
    1578:	30e7003f 	addik	r7, r7, 63
    157c:	b0003fff 	imm	16383
    1580:	3100ffff 	addik	r8, r0, -1
    1584:	64870007 	bsrli	r4, r7, 7
    1588:	b000007f 	imm	127
    158c:	a484ffff 	andi	r4, r4, -1
    1590:	16474003 	cmpu	r18, r7, r8
    1594:	be52000c 	bltid	r18, 12		// 15a0
    1598:	10a30000 	addk	r5, r3, r0
    159c:	10a60000 	addk	r5, r6, r0
    15a0:	b810ff0c 	brid	-244		// 14ac
    15a4:	a46500ff 	andi	r3, r5, 255
    15a8:	a4c70080 	andi	r6, r7, 128
    15ac:	bc06ffd0 	beqi	r6, -48		// 157c
    15b0:	30e70040 	addik	r7, r7, 64
    15b4:	b0003fff 	imm	16383
    15b8:	30c0ffff 	addik	r6, r0, -1
    15bc:	64870007 	bsrli	r4, r7, 7
    15c0:	b000007f 	imm	127
    15c4:	a484ffff 	andi	r4, r4, -1
    15c8:	16473003 	cmpu	r18, r7, r6
    15cc:	be52ffd4 	bltid	r18, -44		// 15a0
    15d0:	10a30000 	addk	r5, r3, r0
    15d4:	10a80000 	addk	r5, r8, r0
    15d8:	b810fed4 	brid	-300		// 14ac
    15dc:	a46500ff 	andi	r3, r5, 255

000015e0 <exit>:
    15e0:	3021ffe0 	addik	r1, r1, -32
    15e4:	10c00000 	addk	r6, r0, r0
    15e8:	fa61001c 	swi	r19, r1, 28
    15ec:	f9e10000 	swi	r15, r1, 0
    15f0:	b0000000 	imm	0
    15f4:	b9f409e0 	brlid	r15, 2528	// 1fd4 <__call_exitprocs>
    15f8:	12650000 	addk	r19, r5, r0
    15fc:	b0000000 	imm	0
    1600:	e8a05f30 	lwi	r5, r0, 24368	// 5f30 <_global_impure_ptr>
    1604:	e8650028 	lwi	r3, r5, 40
    1608:	bc03000c 	beqi	r3, 12		// 1614
    160c:	99fc1800 	brald	r15, r3
    1610:	80000000 	or	r0, r0, r0
    1614:	b000ffff 	imm	-1
    1618:	b9f4ea68 	brlid	r15, -5528	// 80 <_exit>
    161c:	10b30000 	addk	r5, r19, r0

00001620 <malloc>:
    1620:	10c50000 	addk	r6, r5, r0
    1624:	b0000000 	imm	0
    1628:	e8a05f38 	lwi	r5, r0, 24376	// 5f38 <_SDA2_BASE_>
    162c:	3021ffe4 	addik	r1, r1, -28
    1630:	f9e10000 	swi	r15, r1, 0
    1634:	b0000000 	imm	0
    1638:	b9f40040 	brlid	r15, 64	// 1678 <_malloc_r>
    163c:	80000000 	or	r0, r0, r0
    1640:	e9e10000 	lwi	r15, r1, 0
    1644:	b60f0008 	rtsd	r15, 8
    1648:	3021001c 	addik	r1, r1, 28

0000164c <free>:
    164c:	10c50000 	addk	r6, r5, r0
    1650:	b0000000 	imm	0
    1654:	e8a05f38 	lwi	r5, r0, 24376	// 5f38 <_SDA2_BASE_>
    1658:	3021ffe4 	addik	r1, r1, -28
    165c:	f9e10000 	swi	r15, r1, 0
    1660:	b0000000 	imm	0
    1664:	b9f40c88 	brlid	r15, 3208	// 22ec <_free_r>
    1668:	80000000 	or	r0, r0, r0
    166c:	e9e10000 	lwi	r15, r1, 0
    1670:	b60f0008 	rtsd	r15, 8
    1674:	3021001c 	addik	r1, r1, 28

00001678 <_malloc_r>:
    1678:	3021ffc8 	addik	r1, r1, -56
    167c:	fac10020 	swi	r22, r1, 32
    1680:	fae10024 	swi	r23, r1, 36
    1684:	f9e10000 	swi	r15, r1, 0
    1688:	fa61001c 	swi	r19, r1, 28
    168c:	fb010028 	swi	r24, r1, 40
    1690:	fb21002c 	swi	r25, r1, 44
    1694:	fb410030 	swi	r26, r1, 48
    1698:	fb610034 	swi	r27, r1, 52
    169c:	30600016 	addik	r3, r0, 22
    16a0:	32c6000b 	addik	r22, r6, 11
    16a4:	16561803 	cmpu	r18, r22, r3
    16a8:	be5200a4 	bltid	r18, 164		// 174c
    16ac:	12e50000 	addk	r23, r5, r0
    16b0:	32c00010 	addik	r22, r0, 16	// 10 <_vector_interrupt>
    16b4:	1646b003 	cmpu	r18, r6, r22
    16b8:	be5200ac 	bltid	r18, 172		// 1764
    16bc:	3060000c 	addik	r3, r0, 12
    16c0:	b0000000 	imm	0
    16c4:	b9f408a4 	brlid	r15, 2212	// 1f68 <__malloc_lock>
    16c8:	80000000 	or	r0, r0, r0
    16cc:	30600018 	addik	r3, r0, 24
    16d0:	30e00002 	addik	r7, r0, 2
    16d4:	b0000000 	imm	0
    16d8:	30636034 	addik	r3, r3, 24628
    16dc:	ea630004 	lwi	r19, r3, 4
    16e0:	3083fff8 	addik	r4, r3, -8
    16e4:	88932000 	xor	r4, r19, r4
    16e8:	bc04054c 	beqi	r4, 1356		// 1c34
    16ec:	e8730004 	lwi	r3, r19, 4
    16f0:	e8d3000c 	lwi	r6, r19, 12
    16f4:	e8f30008 	lwi	r7, r19, 8
    16f8:	a463fffc 	andi	r3, r3, -4
    16fc:	10731800 	addk	r3, r19, r3
    1700:	e8830004 	lwi	r4, r3, 4
    1704:	10b70000 	addk	r5, r23, r0
    1708:	f8c7000c 	swi	r6, r7, 12
    170c:	f8e60008 	swi	r7, r6, 8
    1710:	a0840001 	ori	r4, r4, 1
    1714:	b0000000 	imm	0
    1718:	b9f40858 	brlid	r15, 2136	// 1f70 <__malloc_unlock>
    171c:	f8830004 	swi	r4, r3, 4
    1720:	30730008 	addik	r3, r19, 8
    1724:	e9e10000 	lwi	r15, r1, 0
    1728:	ea61001c 	lwi	r19, r1, 28
    172c:	eac10020 	lwi	r22, r1, 32
    1730:	eae10024 	lwi	r23, r1, 36
    1734:	eb010028 	lwi	r24, r1, 40
    1738:	eb21002c 	lwi	r25, r1, 44
    173c:	eb410030 	lwi	r26, r1, 48
    1740:	eb610034 	lwi	r27, r1, 52
    1744:	b60f0008 	rtsd	r15, 8
    1748:	30210038 	addik	r1, r1, 56
    174c:	a6d6fff8 	andi	r22, r22, -8
    1750:	6476001f 	bsrli	r3, r22, 31
    1754:	bc23000c 	bnei	r3, 12		// 1760
    1758:	1646b003 	cmpu	r18, r6, r22
    175c:	bcb20014 	bgei	r18, 20		// 1770
    1760:	3060000c 	addik	r3, r0, 12
    1764:	f8770000 	swi	r3, r23, 0
    1768:	b810ffbc 	brid	-68		// 1724
    176c:	10600000 	addk	r3, r0, r0
    1770:	b0000000 	imm	0
    1774:	b9f407f4 	brlid	r15, 2036	// 1f68 <__malloc_lock>
    1778:	80000000 	or	r0, r0, r0
    177c:	306001f7 	addik	r3, r0, 503
    1780:	16561803 	cmpu	r18, r22, r3
    1784:	beb2026c 	bgeid	r18, 620		// 19f0
    1788:	64f60003 	bsrli	r7, r22, 3
    178c:	64760009 	bsrli	r3, r22, 9
    1790:	be030034 	beqid	r3, 52		// 17c4
    1794:	30a00200 	addik	r5, r0, 512
    1798:	30800004 	addik	r4, r0, 4
    179c:	16432003 	cmpu	r18, r3, r4
    17a0:	beb2023c 	bgeid	r18, 572		// 19dc
    17a4:	30800014 	addik	r4, r0, 20
    17a8:	16432003 	cmpu	r18, r3, r4
    17ac:	be5205b0 	bltid	r18, 1456		// 1d5c
    17b0:	30800054 	addik	r4, r0, 84
    17b4:	30e3005c 	addik	r7, r3, 92
    17b8:	3103005b 	addik	r8, r3, 91
    17bc:	b8100010 	brid	16		// 17cc
    17c0:	64a70403 	bslli	r5, r7, 3
    17c4:	30e00040 	addik	r7, r0, 64
    17c8:	3100003f 	addik	r8, r0, 63
    17cc:	b0000000 	imm	0
    17d0:	30a56034 	addik	r5, r5, 24628
    17d4:	ea650004 	lwi	r19, r5, 4
    17d8:	30a5fff8 	addik	r5, r5, -8
    17dc:	88659800 	xor	r3, r5, r19
    17e0:	bc030044 	beqi	r3, 68		// 1824
    17e4:	e8730004 	lwi	r3, r19, 4
    17e8:	30c0000f 	addik	r6, r0, 15
    17ec:	a463fffc 	andi	r3, r3, -4
    17f0:	14961800 	rsubk	r4, r22, r3
    17f4:	16443001 	cmp	r18, r4, r6
    17f8:	bc520028 	blti	r18, 40		// 1820
    17fc:	bca4042c 	bgei	r4, 1068		// 1c28
    1800:	ea73000c 	lwi	r19, r19, 12
    1804:	88659800 	xor	r3, r5, r19
    1808:	bc03001c 	beqi	r3, 28		// 1824
    180c:	e8730004 	lwi	r3, r19, 4
    1810:	a463fffc 	andi	r3, r3, -4
    1814:	14961800 	rsubk	r4, r22, r3
    1818:	16443001 	cmp	r18, r4, r6
    181c:	bcb2ffe0 	bgei	r18, -32		// 17fc
    1820:	10e80000 	addk	r7, r8, r0
    1824:	b0000000 	imm	0
    1828:	ea606044 	lwi	r19, r0, 24644
    182c:	b0000000 	imm	0
    1830:	3080603c 	addik	r4, r0, 24636
    1834:	88732000 	xor	r3, r19, r4
    1838:	be0301c0 	beqid	r3, 448		// 19f8
    183c:	30a0000f 	addik	r5, r0, 15
    1840:	e8730004 	lwi	r3, r19, 4
    1844:	a463fffc 	andi	r3, r3, -4
    1848:	14d61800 	rsubk	r6, r22, r3
    184c:	16462801 	cmp	r18, r6, r5
    1850:	bc5203fc 	blti	r18, 1020		// 1c4c
    1854:	b0000000 	imm	0
    1858:	f8806048 	swi	r4, r0, 24648
    185c:	b0000000 	imm	0
    1860:	f8806044 	swi	r4, r0, 24644
    1864:	bea60154 	bgeid	r6, 340		// 19b8
    1868:	308001ff 	addik	r4, r0, 511
    186c:	16432003 	cmpu	r18, r3, r4
    1870:	be520468 	bltid	r18, 1128		// 1cd8
    1874:	64830009 	bsrli	r4, r3, 9
    1878:	64630003 	bsrli	r3, r3, 3
    187c:	64830403 	bslli	r4, r3, 3
    1880:	64a30202 	bsrai	r5, r3, 2
    1884:	b0000000 	imm	0
    1888:	e9206038 	lwi	r9, r0, 24632
    188c:	b0000000 	imm	0
    1890:	3084603c 	addik	r4, r4, 24636
    1894:	30600001 	addik	r3, r0, 1
    1898:	e8c40000 	lwi	r6, r4, 0
    189c:	44632c00 	bsll	r3, r3, r5
    18a0:	30a4fff8 	addik	r5, r4, -8
    18a4:	80634800 	or	r3, r3, r9
    18a8:	f8b3000c 	swi	r5, r19, 12
    18ac:	f8d30008 	swi	r6, r19, 8
    18b0:	b0000000 	imm	0
    18b4:	f8606038 	swi	r3, r0, 24632
    18b8:	11230000 	addk	r9, r3, r0
    18bc:	fa640000 	swi	r19, r4, 0
    18c0:	fa66000c 	swi	r19, r6, 12
    18c4:	64870202 	bsrai	r4, r7, 2
    18c8:	30a00001 	addik	r5, r0, 1
    18cc:	44a52400 	bsll	r5, r5, r4
    18d0:	16451803 	cmpu	r18, r5, r3
    18d4:	be520148 	bltid	r18, 328		// 1a1c
    18d8:	84851800 	and	r4, r5, r3
    18dc:	be240030 	bneid	r4, 48		// 190c
    18e0:	65470403 	bslli	r10, r7, 3
    18e4:	10a52800 	addk	r5, r5, r5
    18e8:	a4e7fffc 	andi	r7, r7, -4
    18ec:	84851800 	and	r4, r5, r3
    18f0:	be240018 	bneid	r4, 24		// 1908
    18f4:	30e70004 	addik	r7, r7, 4
    18f8:	10a52800 	addk	r5, r5, r5
    18fc:	84851800 	and	r4, r5, r3
    1900:	be04fff8 	beqid	r4, -8		// 18f8
    1904:	30e70004 	addik	r7, r7, 4
    1908:	65470403 	bslli	r10, r7, 3
    190c:	b0000000 	imm	0
    1910:	314a6034 	addik	r10, r10, 24628
    1914:	10ca0000 	addk	r6, r10, r0
    1918:	11670000 	addk	r11, r7, r0
    191c:	3100000f 	addik	r8, r0, 15
    1920:	ea66000c 	lwi	r19, r6, 12
    1924:	88669800 	xor	r3, r6, r19
    1928:	bc230020 	bnei	r3, 32		// 1948
    192c:	b8100368 	brid	872		// 1c94
    1930:	316b0001 	addik	r11, r11, 1
    1934:	bea40374 	bgeid	r4, 884		// 1ca8
    1938:	10731800 	addk	r3, r19, r3
    193c:	ea73000c 	lwi	r19, r19, 12
    1940:	88669800 	xor	r3, r6, r19
    1944:	bc03034c 	beqi	r3, 844		// 1c90
    1948:	e8730004 	lwi	r3, r19, 4
    194c:	a463fffc 	andi	r3, r3, -4
    1950:	14961800 	rsubk	r4, r22, r3
    1954:	16444001 	cmp	r18, r4, r8
    1958:	bcb2ffdc 	bgei	r18, -36		// 1934
    195c:	e8b3000c 	lwi	r5, r19, 12
    1960:	e8d30008 	lwi	r6, r19, 8
    1964:	a0f60001 	ori	r7, r22, 1
    1968:	f8f30004 	swi	r7, r19, 4
    196c:	f8a6000c 	swi	r5, r6, 12
    1970:	f8c50008 	swi	r6, r5, 8
    1974:	b0000000 	imm	0
    1978:	30a0603c 	addik	r5, r0, 24636
    197c:	12d3b000 	addk	r22, r19, r22
    1980:	b0000000 	imm	0
    1984:	fac06048 	swi	r22, r0, 24648
    1988:	b0000000 	imm	0
    198c:	fac06044 	swi	r22, r0, 24644
    1990:	f8b6000c 	swi	r5, r22, 12
    1994:	f8b60008 	swi	r5, r22, 8
    1998:	a0c40001 	ori	r6, r4, 1
    199c:	f8d60004 	swi	r6, r22, 4
    19a0:	d8839800 	sw	r4, r3, r19
    19a4:	b0000000 	imm	0
    19a8:	b9f405c8 	brlid	r15, 1480	// 1f70 <__malloc_unlock>
    19ac:	10b70000 	addk	r5, r23, r0
    19b0:	b810fd74 	brid	-652		// 1724
    19b4:	30730008 	addik	r3, r19, 8
    19b8:	10731800 	addk	r3, r19, r3
    19bc:	e8830004 	lwi	r4, r3, 4
    19c0:	10b70000 	addk	r5, r23, r0
    19c4:	a0840001 	ori	r4, r4, 1
    19c8:	b0000000 	imm	0
    19cc:	b9f405a4 	brlid	r15, 1444	// 1f70 <__malloc_unlock>
    19d0:	f8830004 	swi	r4, r3, 4
    19d4:	b810fd50 	brid	-688		// 1724
    19d8:	30730008 	addik	r3, r19, 8
    19dc:	64760006 	bsrli	r3, r22, 6
    19e0:	30e30039 	addik	r7, r3, 57
    19e4:	31030038 	addik	r8, r3, 56
    19e8:	b810fde4 	brid	-540		// 17cc
    19ec:	64a70403 	bslli	r5, r7, 3
    19f0:	b810fce4 	brid	-796		// 16d4
    19f4:	30760008 	addik	r3, r22, 8
    19f8:	b0000000 	imm	0
    19fc:	e9206038 	lwi	r9, r0, 24632
    1a00:	64870202 	bsrai	r4, r7, 2
    1a04:	30a00001 	addik	r5, r0, 1
    1a08:	10690000 	addk	r3, r9, r0
    1a0c:	44a52400 	bsll	r5, r5, r4
    1a10:	16451803 	cmpu	r18, r5, r3
    1a14:	beb2fec8 	bgeid	r18, -312		// 18dc
    1a18:	84851800 	and	r4, r5, r3
    1a1c:	b0000000 	imm	0
    1a20:	ea60603c 	lwi	r19, r0, 24636
    1a24:	3080000f 	addik	r4, r0, 15
    1a28:	eb330004 	lwi	r25, r19, 4
    1a2c:	a739fffc 	andi	r25, r25, -4
    1a30:	1476c800 	rsubk	r3, r22, r25
    1a34:	16432001 	cmp	r18, r3, r4
    1a38:	bcb2000c 	bgei	r18, 12		// 1a44
    1a3c:	1656c803 	cmpu	r18, r22, r25
    1a40:	bcb201b8 	bgei	r18, 440		// 1bf8
    1a44:	b0000000 	imm	0
    1a48:	e860602c 	lwi	r3, r0, 24620	// 602c <__malloc_sbrk_base>
    1a4c:	b0000000 	imm	0
    1a50:	eb006588 	lwi	r24, r0, 25992	// 6588 <__malloc_top_pad>
    1a54:	a863ffff 	xori	r3, r3, -1
    1a58:	be0303d8 	beqid	r3, 984		// 1e30
    1a5c:	1316c000 	addk	r24, r22, r24
    1a60:	3318008f 	addik	r24, r24, 143
    1a64:	a718ff80 	andi	r24, r24, -128
    1a68:	10d80000 	addk	r6, r24, r0
    1a6c:	b0000000 	imm	0
    1a70:	b9f40508 	brlid	r15, 1288	// 1f78 <_sbrk_r>
    1a74:	10b70000 	addk	r5, r23, r0
    1a78:	13430000 	addk	r26, r3, r0
    1a7c:	a863ffff 	xori	r3, r3, -1
    1a80:	be030318 	beqid	r3, 792		// 1d98
    1a84:	1073c800 	addk	r3, r19, r25
    1a88:	1643d003 	cmpu	r18, r3, r26
    1a8c:	be5202fc 	bltid	r18, 764		// 1d88
    1a90:	8883d000 	xor	r4, r3, r26
    1a94:	b0000000 	imm	0
    1a98:	e8a06558 	lwi	r5, r0, 25944	// 6558 <__malloc_current_mallinfo>
    1a9c:	b0000000 	imm	0
    1aa0:	33606034 	addik	r27, r0, 24628	// 6034 <__malloc_av_>
    1aa4:	10b82800 	addk	r5, r24, r5
    1aa8:	b0000000 	imm	0
    1aac:	f8a06558 	swi	r5, r0, 25944	// 6558 <__malloc_current_mallinfo>
    1ab0:	be0403c8 	beqid	r4, 968		// 1e78
    1ab4:	a483007f 	andi	r4, r3, 127
    1ab8:	b0000000 	imm	0
    1abc:	e880602c 	lwi	r4, r0, 24620	// 602c <__malloc_sbrk_base>
    1ac0:	a884ffff 	xori	r4, r4, -1
    1ac4:	bc040404 	beqi	r4, 1028		// 1ec8
    1ac8:	1463d000 	rsubk	r3, r3, r26
    1acc:	10632800 	addk	r3, r3, r5
    1ad0:	b0000000 	imm	0
    1ad4:	f8606558 	swi	r3, r0, 25944	// 6558 <__malloc_current_mallinfo>
    1ad8:	a49a0007 	andi	r4, r26, 7
    1adc:	be04001c 	beqid	r4, 28		// 1af8
    1ae0:	30600080 	addik	r3, r0, 128	// 80 <_exit>
    1ae4:	30e00008 	addik	r7, r0, 8	// 8 <_vector_sw_exception>
    1ae8:	14643800 	rsubk	r3, r4, r7
    1aec:	30a00088 	addik	r5, r0, 136
    1af0:	135a1800 	addk	r26, r26, r3
    1af4:	14642800 	rsubk	r3, r4, r5
    1af8:	131ac000 	addk	r24, r26, r24
    1afc:	a718007f 	andi	r24, r24, 127
    1b00:	17181800 	rsubk	r24, r24, r3
    1b04:	10d80000 	addk	r6, r24, r0
    1b08:	b0000000 	imm	0
    1b0c:	b9f4046c 	brlid	r15, 1132	// 1f78 <_sbrk_r>
    1b10:	10b70000 	addk	r5, r23, r0
    1b14:	a883ffff 	xori	r4, r3, -1
    1b18:	bc0403a4 	beqi	r4, 932		// 1ebc
    1b1c:	147a1800 	rsubk	r3, r26, r3
    1b20:	1063c000 	addk	r3, r3, r24
    1b24:	a0630001 	ori	r3, r3, 1
    1b28:	b0000000 	imm	0
    1b2c:	fb40603c 	swi	r26, r0, 24636
    1b30:	f87a0004 	swi	r3, r26, 4
    1b34:	b0000000 	imm	0
    1b38:	e8606558 	lwi	r3, r0, 25944	// 6558 <__malloc_current_mallinfo>
    1b3c:	8b73d800 	xor	r27, r19, r27
    1b40:	10b81800 	addk	r5, r24, r3
    1b44:	b0000000 	imm	0
    1b48:	f8a06558 	swi	r5, r0, 25944	// 6558 <__malloc_current_mallinfo>
    1b4c:	be1b0040 	beqid	r27, 64		// 1b8c
    1b50:	30c0000f 	addik	r6, r0, 15
    1b54:	16593003 	cmpu	r18, r25, r6
    1b58:	beb20358 	bgeid	r18, 856		// 1eb0
    1b5c:	30e00005 	addik	r7, r0, 5
    1b60:	e8930004 	lwi	r4, r19, 4
    1b64:	3079fff4 	addik	r3, r25, -12
    1b68:	a463fff8 	andi	r3, r3, -8
    1b6c:	a4840001 	andi	r4, r4, 1
    1b70:	80841800 	or	r4, r4, r3
    1b74:	f8930004 	swi	r4, r19, 4
    1b78:	10931800 	addk	r4, r19, r3
    1b7c:	f8e40004 	swi	r7, r4, 4
    1b80:	16433003 	cmpu	r18, r3, r6
    1b84:	be52039c 	bltid	r18, 924		// 1f20
    1b88:	f8e40008 	swi	r7, r4, 8
    1b8c:	b0000000 	imm	0
    1b90:	ea60603c 	lwi	r19, r0, 24636
    1b94:	b0000000 	imm	0
    1b98:	e8606584 	lwi	r3, r0, 25988	// 6584 <__malloc_max_sbrked_mem>
    1b9c:	16451803 	cmpu	r18, r5, r3
    1ba0:	bcb2000c 	bgei	r18, 12		// 1bac
    1ba4:	b0000000 	imm	0
    1ba8:	f8a06584 	swi	r5, r0, 25988	// 6584 <__malloc_max_sbrked_mem>
    1bac:	e8930004 	lwi	r4, r19, 4
    1bb0:	b0000000 	imm	0
    1bb4:	e8606580 	lwi	r3, r0, 25984	// 6580 <__malloc_max_total_mem>
    1bb8:	16451803 	cmpu	r18, r5, r3
    1bbc:	beb20010 	bgeid	r18, 16		// 1bcc
    1bc0:	a484fffc 	andi	r4, r4, -4
    1bc4:	b0000000 	imm	0
    1bc8:	f8a06580 	swi	r5, r0, 25984	// 6580 <__malloc_max_total_mem>
    1bcc:	14762000 	rsubk	r3, r22, r4
    1bd0:	30a0000f 	addik	r5, r0, 15
    1bd4:	16432801 	cmp	r18, r3, r5
    1bd8:	bc520018 	blti	r18, 24		// 1bf0
    1bdc:	b0000000 	imm	0
    1be0:	b9f40390 	brlid	r15, 912	// 1f70 <__malloc_unlock>
    1be4:	10b70000 	addk	r5, r23, r0
    1be8:	b810fb3c 	brid	-1220		// 1724
    1bec:	10600000 	addk	r3, r0, r0
    1bf0:	16562003 	cmpu	r18, r22, r4
    1bf4:	bc52ffe8 	blti	r18, -24		// 1bdc
    1bf8:	a0960001 	ori	r4, r22, 1
    1bfc:	f8930004 	swi	r4, r19, 4
    1c00:	12d3b000 	addk	r22, r19, r22
    1c04:	10b70000 	addk	r5, r23, r0
    1c08:	a0630001 	ori	r3, r3, 1
    1c0c:	b0000000 	imm	0
    1c10:	fac0603c 	swi	r22, r0, 24636
    1c14:	b0000000 	imm	0
    1c18:	b9f40358 	brlid	r15, 856	// 1f70 <__malloc_unlock>
    1c1c:	f8760004 	swi	r3, r22, 4
    1c20:	b810fb04 	brid	-1276		// 1724
    1c24:	30730008 	addik	r3, r19, 8
    1c28:	e8d3000c 	lwi	r6, r19, 12
    1c2c:	b810fad0 	brid	-1328		// 16fc
    1c30:	e8f30008 	lwi	r7, r19, 8
    1c34:	ea63000c 	lwi	r19, r3, 12
    1c38:	88639800 	xor	r3, r3, r19
    1c3c:	be03fbe8 	beqid	r3, -1048		// 1824
    1c40:	30e70002 	addik	r7, r7, 2
    1c44:	b810faac 	brid	-1364		// 16f0
    1c48:	e8730004 	lwi	r3, r19, 4
    1c4c:	a0b60001 	ori	r5, r22, 1
    1c50:	f8b30004 	swi	r5, r19, 4
    1c54:	12d3b000 	addk	r22, r19, r22
    1c58:	b0000000 	imm	0
    1c5c:	fac06048 	swi	r22, r0, 24648
    1c60:	b0000000 	imm	0
    1c64:	fac06044 	swi	r22, r0, 24644
    1c68:	a0e60001 	ori	r7, r6, 1
    1c6c:	f896000c 	swi	r4, r22, 12
    1c70:	f8960008 	swi	r4, r22, 8
    1c74:	f8f60004 	swi	r7, r22, 4
    1c78:	d8c39800 	sw	r6, r3, r19
    1c7c:	b0000000 	imm	0
    1c80:	b9f402f0 	brlid	r15, 752	// 1f70 <__malloc_unlock>
    1c84:	10b70000 	addk	r5, r23, r0
    1c88:	b810fa9c 	brid	-1380		// 1724
    1c8c:	30730008 	addik	r3, r19, 8
    1c90:	316b0001 	addik	r11, r11, 1
    1c94:	a46b0003 	andi	r3, r11, 3
    1c98:	be23fc88 	bneid	r3, -888		// 1920
    1c9c:	30c60008 	addik	r6, r6, 8
    1ca0:	b8100148 	brid	328		// 1de8
    1ca4:	a4870003 	andi	r4, r7, 3
    1ca8:	e8830004 	lwi	r4, r3, 4
    1cac:	e8d3000c 	lwi	r6, r19, 12
    1cb0:	e8f30008 	lwi	r7, r19, 8
    1cb4:	a0840001 	ori	r4, r4, 1
    1cb8:	f8830004 	swi	r4, r3, 4
    1cbc:	10b70000 	addk	r5, r23, r0
    1cc0:	f8c7000c 	swi	r6, r7, 12
    1cc4:	b0000000 	imm	0
    1cc8:	b9f402a8 	brlid	r15, 680	// 1f70 <__malloc_unlock>
    1ccc:	f8e60008 	swi	r7, r6, 8
    1cd0:	b810fa54 	brid	-1452		// 1724
    1cd4:	30730008 	addik	r3, r19, 8
    1cd8:	30a00004 	addik	r5, r0, 4
    1cdc:	16442803 	cmpu	r18, r4, r5
    1ce0:	bcb200cc 	bgei	r18, 204		// 1dac
    1ce4:	30a00014 	addik	r5, r0, 20
    1ce8:	16442803 	cmpu	r18, r4, r5
    1cec:	be520170 	bltid	r18, 368		// 1e5c
    1cf0:	30a00054 	addik	r5, r0, 84
    1cf4:	30c4005c 	addik	r6, r4, 92
    1cf8:	64c60403 	bslli	r6, r6, 3
    1cfc:	30a4005b 	addik	r5, r4, 91
    1d00:	b0000000 	imm	0
    1d04:	30c66034 	addik	r6, r6, 24628
    1d08:	e8860000 	lwi	r4, r6, 0
    1d0c:	30c6fff8 	addik	r6, r6, -8
    1d10:	89062000 	xor	r8, r6, r4
    1d14:	be080124 	beqid	r8, 292		// 1e38
    1d18:	64a50202 	bsrai	r5, r5, 2
    1d1c:	e8a40004 	lwi	r5, r4, 4
    1d20:	a4a5fffc 	andi	r5, r5, -4
    1d24:	16451803 	cmpu	r18, r5, r3
    1d28:	bcb20010 	bgei	r18, 16		// 1d38
    1d2c:	e8840008 	lwi	r4, r4, 8
    1d30:	88a62000 	xor	r5, r6, r4
    1d34:	bc25ffe8 	bnei	r5, -24		// 1d1c
    1d38:	b0000000 	imm	0
    1d3c:	e9206038 	lwi	r9, r0, 24632
    1d40:	e8c4000c 	lwi	r6, r4, 12
    1d44:	10690000 	addk	r3, r9, r0
    1d48:	f8d3000c 	swi	r6, r19, 12
    1d4c:	f8930008 	swi	r4, r19, 8
    1d50:	fa660008 	swi	r19, r6, 8
    1d54:	b810fb70 	brid	-1168		// 18c4
    1d58:	fa64000c 	swi	r19, r4, 12
    1d5c:	16432003 	cmpu	r18, r3, r4
    1d60:	beb20060 	bgeid	r18, 96		// 1dc0
    1d64:	30800154 	addik	r4, r0, 340
    1d68:	16432003 	cmpu	r18, r3, r4
    1d6c:	be520128 	bltid	r18, 296		// 1e94
    1d70:	30800554 	addik	r4, r0, 1364
    1d74:	6476000f 	bsrli	r3, r22, 15
    1d78:	30e30078 	addik	r7, r3, 120
    1d7c:	31030077 	addik	r8, r3, 119
    1d80:	b810fa4c 	brid	-1460		// 17cc
    1d84:	64a70403 	bslli	r5, r7, 3
    1d88:	b0000000 	imm	0
    1d8c:	33606034 	addik	r27, r0, 24628	// 6034 <__malloc_av_>
    1d90:	8893d800 	xor	r4, r19, r27
    1d94:	bc040144 	beqi	r4, 324		// 1ed8
    1d98:	b0000000 	imm	0
    1d9c:	ea60603c 	lwi	r19, r0, 24636
    1da0:	e8930004 	lwi	r4, r19, 4
    1da4:	b810fe28 	brid	-472		// 1bcc
    1da8:	a484fffc 	andi	r4, r4, -4
    1dac:	64830006 	bsrli	r4, r3, 6
    1db0:	30c40039 	addik	r6, r4, 57
    1db4:	30a40038 	addik	r5, r4, 56
    1db8:	b810ff48 	brid	-184		// 1d00
    1dbc:	64c60403 	bslli	r6, r6, 3
    1dc0:	6476000c 	bsrli	r3, r22, 12
    1dc4:	30e3006f 	addik	r7, r3, 111
    1dc8:	3103006e 	addik	r8, r3, 110
    1dcc:	b810fa00 	brid	-1536		// 17cc
    1dd0:	64a70403 	bslli	r5, r7, 3
    1dd4:	e94a0000 	lwi	r10, r10, 0
    1dd8:	886a1800 	xor	r3, r10, r3
    1ddc:	be230024 	bneid	r3, 36		// 1e00
    1de0:	30e7ffff 	addik	r7, r7, -1
    1de4:	a4870003 	andi	r4, r7, 3
    1de8:	be24ffec 	bneid	r4, -20		// 1dd4
    1dec:	306afff8 	addik	r3, r10, -8
    1df0:	a865ffff 	xori	r3, r5, -1
    1df4:	85234800 	and	r9, r3, r9
    1df8:	b0000000 	imm	0
    1dfc:	f9206038 	swi	r9, r0, 24632
    1e00:	10a52800 	addk	r5, r5, r5
    1e04:	16454803 	cmpu	r18, r5, r9
    1e08:	bc52fc14 	blti	r18, -1004		// 1a1c
    1e0c:	be05fc10 	beqid	r5, -1008		// 1a1c
    1e10:	84654800 	and	r3, r5, r9
    1e14:	bc230014 	bnei	r3, 20		// 1e28
    1e18:	10a52800 	addk	r5, r5, r5
    1e1c:	84654800 	and	r3, r5, r9
    1e20:	be03fff8 	beqid	r3, -8		// 1e18
    1e24:	316b0004 	addik	r11, r11, 4
    1e28:	b810fae0 	brid	-1312		// 1908
    1e2c:	10eb0000 	addk	r7, r11, r0
    1e30:	b810fc38 	brid	-968		// 1a68
    1e34:	33180010 	addik	r24, r24, 16
    1e38:	b0000000 	imm	0
    1e3c:	e9206038 	lwi	r9, r0, 24632
    1e40:	30600001 	addik	r3, r0, 1
    1e44:	44632c00 	bsll	r3, r3, r5
    1e48:	80634800 	or	r3, r3, r9
    1e4c:	b0000000 	imm	0
    1e50:	f8606038 	swi	r3, r0, 24632
    1e54:	b810fef4 	brid	-268		// 1d48
    1e58:	11230000 	addk	r9, r3, r0
    1e5c:	16442803 	cmpu	r18, r4, r5
    1e60:	bc520090 	blti	r18, 144		// 1ef0
    1e64:	6483000c 	bsrli	r4, r3, 12
    1e68:	30c4006f 	addik	r6, r4, 111
    1e6c:	30a4006e 	addik	r5, r4, 110
    1e70:	b810fe90 	brid	-368		// 1d00
    1e74:	64c60403 	bslli	r6, r6, 3
    1e78:	bc24fc40 	bnei	r4, -960		// 1ab8
    1e7c:	b0000000 	imm	0
    1e80:	ea60603c 	lwi	r19, r0, 24636
    1e84:	1079c000 	addk	r3, r25, r24
    1e88:	a0630001 	ori	r3, r3, 1
    1e8c:	b810fd08 	brid	-760		// 1b94
    1e90:	f8730004 	swi	r3, r19, 4
    1e94:	16432003 	cmpu	r18, r3, r4
    1e98:	be520078 	bltid	r18, 120		// 1f10
    1e9c:	64760012 	bsrli	r3, r22, 18
    1ea0:	30e3007d 	addik	r7, r3, 125
    1ea4:	3103007c 	addik	r8, r3, 124
    1ea8:	b810f924 	brid	-1756		// 17cc
    1eac:	64a70403 	bslli	r5, r7, 3
    1eb0:	30e00001 	addik	r7, r0, 1
    1eb4:	b810fd28 	brid	-728		// 1bdc
    1eb8:	f8fa0004 	swi	r7, r26, 4
    1ebc:	13040000 	addk	r24, r4, r0
    1ec0:	b810fc68 	brid	-920		// 1b28
    1ec4:	30600001 	addik	r3, r0, 1
    1ec8:	b0000000 	imm	0
    1ecc:	fb40602c 	swi	r26, r0, 24620	// 602c <__malloc_sbrk_base>
    1ed0:	b810fc0c 	brid	-1012		// 1adc
    1ed4:	a49a0007 	andi	r4, r26, 7
    1ed8:	b0000000 	imm	0
    1edc:	e8a06558 	lwi	r5, r0, 25944	// 6558 <__malloc_current_mallinfo>
    1ee0:	10b82800 	addk	r5, r24, r5
    1ee4:	b0000000 	imm	0
    1ee8:	f8a06558 	swi	r5, r0, 25944	// 6558 <__malloc_current_mallinfo>
    1eec:	b800fbcc 	bri	-1076		// 1ab8
    1ef0:	30a00154 	addik	r5, r0, 340
    1ef4:	16442803 	cmpu	r18, r4, r5
    1ef8:	bc520044 	blti	r18, 68		// 1f3c
    1efc:	6483000f 	bsrli	r4, r3, 15
    1f00:	30c40078 	addik	r6, r4, 120
    1f04:	30a40077 	addik	r5, r4, 119
    1f08:	b810fdf8 	brid	-520		// 1d00
    1f0c:	64c60403 	bslli	r6, r6, 3
    1f10:	30a003f8 	addik	r5, r0, 1016
    1f14:	30e0007f 	addik	r7, r0, 127
    1f18:	b810f8b4 	brid	-1868		// 17cc
    1f1c:	3100007e 	addik	r8, r0, 126
    1f20:	10b70000 	addk	r5, r23, r0
    1f24:	b0000000 	imm	0
    1f28:	b9f403c4 	brlid	r15, 964	// 22ec <_free_r>
    1f2c:	30d30008 	addik	r6, r19, 8
    1f30:	b0000000 	imm	0
    1f34:	e8a06558 	lwi	r5, r0, 25944	// 6558 <__malloc_current_mallinfo>
    1f38:	b800fc54 	bri	-940		// 1b8c
    1f3c:	30a00554 	addik	r5, r0, 1364
    1f40:	16442803 	cmpu	r18, r4, r5
    1f44:	be520018 	bltid	r18, 24		// 1f5c
    1f48:	64830012 	bsrli	r4, r3, 18
    1f4c:	30c4007d 	addik	r6, r4, 125
    1f50:	30a4007c 	addik	r5, r4, 124
    1f54:	b810fdac 	brid	-596		// 1d00
    1f58:	64c60403 	bslli	r6, r6, 3
    1f5c:	30c003f8 	addik	r6, r0, 1016
    1f60:	b810fda0 	brid	-608		// 1d00
    1f64:	30a0007e 	addik	r5, r0, 126

00001f68 <__malloc_lock>:
    1f68:	b60f0008 	rtsd	r15, 8
    1f6c:	80000000 	or	r0, r0, r0

00001f70 <__malloc_unlock>:
    1f70:	b60f0008 	rtsd	r15, 8
    1f74:	80000000 	or	r0, r0, r0

00001f78 <_sbrk_r>:
    1f78:	3021fff8 	addik	r1, r1, -8
    1f7c:	fa610004 	swi	r19, r1, 4
    1f80:	12650000 	addk	r19, r5, r0
    1f84:	f9e10000 	swi	r15, r1, 0
    1f88:	b0000000 	imm	0
    1f8c:	f8006644 	swi	r0, r0, 26180	// 6644 <errno>
    1f90:	b0000000 	imm	0
    1f94:	b9f406d0 	brlid	r15, 1744	// 2664 <sbrk>
    1f98:	10a60000 	addk	r5, r6, r0
    1f9c:	a883ffff 	xori	r4, r3, -1
    1fa0:	be040014 	beqid	r4, 20		// 1fb4
    1fa4:	e9e10000 	lwi	r15, r1, 0
    1fa8:	ea610004 	lwi	r19, r1, 4
    1fac:	b60f0008 	rtsd	r15, 8
    1fb0:	30210008 	addik	r1, r1, 8
    1fb4:	b0000000 	imm	0
    1fb8:	e8806644 	lwi	r4, r0, 26180	// 6644 <errno>
    1fbc:	bc04ffec 	beqi	r4, -20		// 1fa8
    1fc0:	f8930000 	swi	r4, r19, 0
    1fc4:	e9e10000 	lwi	r15, r1, 0
    1fc8:	ea610004 	lwi	r19, r1, 4
    1fcc:	b60f0008 	rtsd	r15, 8
    1fd0:	30210008 	addik	r1, r1, 8

00001fd4 <__call_exitprocs>:
    1fd4:	3021ffb8 	addik	r1, r1, -72
    1fd8:	fb010028 	swi	r24, r1, 40
    1fdc:	b0000000 	imm	0
    1fe0:	eb005f30 	lwi	r24, r0, 24368	// 5f30 <_global_impure_ptr>
    1fe4:	fb21002c 	swi	r25, r1, 44
    1fe8:	fb610034 	swi	r27, r1, 52
    1fec:	fba1003c 	swi	r29, r1, 60
    1ff0:	13650000 	addk	r27, r5, r0
    1ff4:	13a60000 	addk	r29, r6, r0
    1ff8:	b0000000 	imm	0
    1ffc:	3320164c 	addik	r25, r0, 5708	// 164c <free>
    2000:	fae10024 	swi	r23, r1, 36
    2004:	fb410030 	swi	r26, r1, 48
    2008:	f9e10000 	swi	r15, r1, 0
    200c:	fa61001c 	swi	r19, r1, 28
    2010:	fac10020 	swi	r22, r1, 32
    2014:	fb810038 	swi	r28, r1, 56
    2018:	fbc10040 	swi	r30, r1, 64
    201c:	fbe10044 	swi	r31, r1, 68
    2020:	33580048 	addik	r26, r24, 72
    2024:	32e00001 	addik	r23, r0, 1
    2028:	ead80048 	lwi	r22, r24, 72
    202c:	be160080 	beqid	r22, 128		// 20ac
    2030:	13da0000 	addk	r30, r26, r0
    2034:	ea760004 	lwi	r19, r22, 4
    2038:	3273ffff 	addik	r19, r19, -1
    203c:	be530030 	bltid	r19, 48		// 206c
    2040:	eb960088 	lwi	r28, r22, 136
    2044:	bc1d00a0 	beqi	r29, 160		// 20e4
    2048:	be1c0018 	beqid	r28, 24		// 2060
    204c:	30730020 	addik	r3, r19, 32
    2050:	64630402 	bslli	r3, r3, 2
    2054:	c863e000 	lw	r3, r3, r28
    2058:	8863e800 	xor	r3, r3, r29
    205c:	bc030088 	beqi	r3, 136		// 20e4
    2060:	3273ffff 	addik	r19, r19, -1
    2064:	a873ffff 	xori	r3, r19, -1
    2068:	bc23ffdc 	bnei	r3, -36		// 2044
    206c:	be190044 	beqid	r25, 68		// 20b0
    2070:	e9e10000 	lwi	r15, r1, 0
    2074:	e8960004 	lwi	r4, r22, 4
    2078:	be240100 	bneid	r4, 256		// 2178
    207c:	e8760000 	lwi	r3, r22, 0
    2080:	bc0300f8 	beqi	r3, 248		// 2178
    2084:	be1c0014 	beqid	r28, 20		// 2098
    2088:	f87e0000 	swi	r3, r30, 0
    208c:	b000ffff 	imm	-1
    2090:	b9f4f5bc 	brlid	r15, -2628	// 164c <free>
    2094:	10bc0000 	addk	r5, r28, r0
    2098:	b000ffff 	imm	-1
    209c:	b9f4f5b0 	brlid	r15, -2640	// 164c <free>
    20a0:	10b60000 	addk	r5, r22, r0
    20a4:	eade0000 	lwi	r22, r30, 0
    20a8:	bc36ff8c 	bnei	r22, -116		// 2034
    20ac:	e9e10000 	lwi	r15, r1, 0
    20b0:	ea61001c 	lwi	r19, r1, 28
    20b4:	eac10020 	lwi	r22, r1, 32
    20b8:	eae10024 	lwi	r23, r1, 36
    20bc:	eb010028 	lwi	r24, r1, 40
    20c0:	eb21002c 	lwi	r25, r1, 44
    20c4:	eb410030 	lwi	r26, r1, 48
    20c8:	eb610034 	lwi	r27, r1, 52
    20cc:	eb810038 	lwi	r28, r1, 56
    20d0:	eba1003c 	lwi	r29, r1, 60
    20d4:	ebc10040 	lwi	r30, r1, 64
    20d8:	ebe10044 	lwi	r31, r1, 68
    20dc:	b60f0008 	rtsd	r15, 8
    20e0:	30210048 	addik	r1, r1, 72
    20e4:	e8760004 	lwi	r3, r22, 4
    20e8:	64d30402 	bslli	r6, r19, 2
    20ec:	3063ffff 	addik	r3, r3, -1
    20f0:	10b63000 	addk	r5, r22, r6
    20f4:	88639800 	xor	r3, r3, r19
    20f8:	be030078 	beqid	r3, 120		// 2170
    20fc:	e8850008 	lwi	r4, r5, 8
    2100:	f8050008 	swi	r0, r5, 8
    2104:	bc04ff5c 	beqi	r4, -164		// 2060
    2108:	be3c0034 	bneid	r28, 52		// 213c
    210c:	ebf60004 	lwi	r31, r22, 4
    2110:	99fc2000 	brald	r15, r4
    2114:	80000000 	or	r0, r0, r0
    2118:	e8760004 	lwi	r3, r22, 4
    211c:	8863f800 	xor	r3, r3, r31
    2120:	bc23ff08 	bnei	r3, -248		// 2028
    2124:	e87e0000 	lwi	r3, r30, 0
    2128:	8863b000 	xor	r3, r3, r22
    212c:	be03ff38 	beqid	r3, -200		// 2064
    2130:	3273ffff 	addik	r19, r19, -1
    2134:	b810fef8 	brid	-264		// 202c
    2138:	ead80048 	lwi	r22, r24, 72
    213c:	e87c0100 	lwi	r3, r28, 256
    2140:	44f79c00 	bsll	r7, r23, r19
    2144:	84671800 	and	r3, r7, r3
    2148:	bc03ffc8 	beqi	r3, -56		// 2110
    214c:	e87c0104 	lwi	r3, r28, 260
    2150:	c8a6e000 	lw	r5, r6, r28
    2154:	84e71800 	and	r7, r7, r3
    2158:	be270038 	bneid	r7, 56		// 2190
    215c:	10c50000 	addk	r6, r5, r0
    2160:	99fc2000 	brald	r15, r4
    2164:	10bb0000 	addk	r5, r27, r0
    2168:	b810ffb4 	brid	-76		// 211c
    216c:	e8760004 	lwi	r3, r22, 4
    2170:	b810ff94 	brid	-108		// 2104
    2174:	fa760004 	swi	r19, r22, 4
    2178:	13d60000 	addk	r30, r22, r0
    217c:	12c30000 	addk	r22, r3, r0
    2180:	be36feb4 	bneid	r22, -332		// 2034
    2184:	e9e10000 	lwi	r15, r1, 0
    2188:	b810ff2c 	brid	-212		// 20b4
    218c:	ea61001c 	lwi	r19, r1, 28
    2190:	99fc2000 	brald	r15, r4
    2194:	80000000 	or	r0, r0, r0
    2198:	b810ff84 	brid	-124		// 211c
    219c:	e8760004 	lwi	r3, r22, 4

000021a0 <_malloc_trim_r>:
    21a0:	3021ffd8 	addik	r1, r1, -40
    21a4:	fa61001c 	swi	r19, r1, 28
    21a8:	fac10020 	swi	r22, r1, 32
    21ac:	fae10024 	swi	r23, r1, 36
    21b0:	12660000 	addk	r19, r6, r0
    21b4:	f9e10000 	swi	r15, r1, 0
    21b8:	b000ffff 	imm	-1
    21bc:	b9f4fdac 	brlid	r15, -596	// 1f68 <__malloc_lock>
    21c0:	12e50000 	addk	r23, r5, r0
    21c4:	b0000000 	imm	0
    21c8:	e880603c 	lwi	r4, r0, 24636
    21cc:	3060006f 	addik	r3, r0, 111
    21d0:	16731800 	rsubk	r19, r19, r3
    21d4:	eac40004 	lwi	r22, r4, 4
    21d8:	3060007f 	addik	r3, r0, 127
    21dc:	a6d6fffc 	andi	r22, r22, -4
    21e0:	1273b000 	addk	r19, r19, r22
    21e4:	a673ff80 	andi	r19, r19, -128
    21e8:	3273ff80 	addik	r19, r19, -128
    21ec:	16531801 	cmp	r18, r19, r3
    21f0:	beb2002c 	bgeid	r18, 44		// 221c
    21f4:	10b70000 	addk	r5, r23, r0
    21f8:	b000ffff 	imm	-1
    21fc:	b9f4fd7c 	brlid	r15, -644	// 1f78 <_sbrk_r>
    2200:	10c00000 	addk	r6, r0, r0
    2204:	b0000000 	imm	0
    2208:	e880603c 	lwi	r4, r0, 24636
    220c:	1084b000 	addk	r4, r4, r22
    2210:	88632000 	xor	r3, r3, r4
    2214:	be030030 	beqid	r3, 48		// 2244
    2218:	10b70000 	addk	r5, r23, r0
    221c:	b000ffff 	imm	-1
    2220:	b9f4fd50 	brlid	r15, -688	// 1f70 <__malloc_unlock>
    2224:	10b70000 	addk	r5, r23, r0
    2228:	e9e10000 	lwi	r15, r1, 0
    222c:	ea61001c 	lwi	r19, r1, 28
    2230:	eac10020 	lwi	r22, r1, 32
    2234:	eae10024 	lwi	r23, r1, 36
    2238:	10600000 	addk	r3, r0, r0
    223c:	b60f0008 	rtsd	r15, 8
    2240:	30210028 	addik	r1, r1, 40
    2244:	b000ffff 	imm	-1
    2248:	b9f4fd30 	brlid	r15, -720	// 1f78 <_sbrk_r>
    224c:	14d30000 	rsubk	r6, r19, r0
    2250:	a8c3ffff 	xori	r6, r3, -1
    2254:	be060054 	beqid	r6, 84		// 22a8
    2258:	16d3b000 	rsubk	r22, r19, r22
    225c:	b0000000 	imm	0
    2260:	e8606558 	lwi	r3, r0, 25944	// 6558 <__malloc_current_mallinfo>
    2264:	10b70000 	addk	r5, r23, r0
    2268:	16731800 	rsubk	r19, r19, r3
    226c:	b0000000 	imm	0
    2270:	e860603c 	lwi	r3, r0, 24636
    2274:	a2d60001 	ori	r22, r22, 1
    2278:	b0000000 	imm	0
    227c:	fa606558 	swi	r19, r0, 25944	// 6558 <__malloc_current_mallinfo>
    2280:	b000ffff 	imm	-1
    2284:	b9f4fcec 	brlid	r15, -788	// 1f70 <__malloc_unlock>
    2288:	fac30004 	swi	r22, r3, 4
    228c:	e9e10000 	lwi	r15, r1, 0
    2290:	ea61001c 	lwi	r19, r1, 28
    2294:	eac10020 	lwi	r22, r1, 32
    2298:	eae10024 	lwi	r23, r1, 36
    229c:	30600001 	addik	r3, r0, 1
    22a0:	b60f0008 	rtsd	r15, 8
    22a4:	30210028 	addik	r1, r1, 40
    22a8:	b000ffff 	imm	-1
    22ac:	b9f4fccc 	brlid	r15, -820	// 1f78 <_sbrk_r>
    22b0:	10b70000 	addk	r5, r23, r0
    22b4:	b0000000 	imm	0
    22b8:	e8a0603c 	lwi	r5, r0, 24636
    22bc:	30c0000f 	addik	r6, r0, 15
    22c0:	14851800 	rsubk	r4, r5, r3
    22c4:	16443001 	cmp	r18, r4, r6
    22c8:	bcb2ff54 	bgei	r18, -172		// 221c
    22cc:	a0840001 	ori	r4, r4, 1
    22d0:	f8850004 	swi	r4, r5, 4
    22d4:	b0000000 	imm	0
    22d8:	e880602c 	lwi	r4, r0, 24620	// 602c <__malloc_sbrk_base>
    22dc:	14641800 	rsubk	r3, r4, r3
    22e0:	b0000000 	imm	0
    22e4:	f8606558 	swi	r3, r0, 25944	// 6558 <__malloc_current_mallinfo>
    22e8:	b800ff34 	bri	-204		// 221c

000022ec <_free_r>:
    22ec:	bc06013c 	beqi	r6, 316		// 2428
    22f0:	3021ffdc 	addik	r1, r1, -36
    22f4:	fa61001c 	swi	r19, r1, 28
    22f8:	12660000 	addk	r19, r6, r0
    22fc:	fac10020 	swi	r22, r1, 32
    2300:	f9e10000 	swi	r15, r1, 0
    2304:	b000ffff 	imm	-1
    2308:	b9f4fc60 	brlid	r15, -928	// 1f68 <__malloc_lock>
    230c:	12c50000 	addk	r22, r5, r0
    2310:	e8f3fffc 	lwi	r7, r19, -4
    2314:	3093fff8 	addik	r4, r19, -8
    2318:	b0000000 	imm	0
    231c:	e8a0603c 	lwi	r5, r0, 24636
    2320:	a467fffe 	andi	r3, r7, -2
    2324:	11041800 	addk	r8, r4, r3
    2328:	e8c80004 	lwi	r6, r8, 4
    232c:	88a54000 	xor	r5, r5, r8
    2330:	be050144 	beqid	r5, 324		// 2474
    2334:	a4c6fffc 	andi	r6, r6, -4
    2338:	f8c80004 	swi	r6, r8, 4
    233c:	a4e70001 	andi	r7, r7, 1
    2340:	be2700f0 	bneid	r7, 240		// 2430
    2344:	10a83000 	addk	r5, r8, r6
    2348:	e8f3fff8 	lwi	r7, r19, -8
    234c:	e8a50004 	lwi	r5, r5, 4
    2350:	14872000 	rsubk	r4, r7, r4
    2354:	e9240008 	lwi	r9, r4, 8
    2358:	10633800 	addk	r3, r3, r7
    235c:	b0000000 	imm	0
    2360:	30e0603c 	addik	r7, r0, 24636
    2364:	88e93800 	xor	r7, r9, r7
    2368:	be0701ec 	beqid	r7, 492		// 2554
    236c:	a4a50001 	andi	r5, r5, 1
    2370:	e8e4000c 	lwi	r7, r4, 12
    2374:	f8e9000c 	swi	r7, r9, 12
    2378:	be0500c4 	beqid	r5, 196		// 243c
    237c:	f9270008 	swi	r9, r7, 8
    2380:	a0a30001 	ori	r5, r3, 1
    2384:	f8a40004 	swi	r5, r4, 4
    2388:	d8632000 	sw	r3, r3, r4
    238c:	30a001ff 	addik	r5, r0, 511
    2390:	16432803 	cmpu	r18, r3, r5
    2394:	beb20158 	bgeid	r18, 344		// 24ec
    2398:	64a30009 	bsrli	r5, r3, 9
    239c:	30c00004 	addik	r6, r0, 4
    23a0:	16453003 	cmpu	r18, r5, r6
    23a4:	be5201d8 	bltid	r18, 472		// 257c
    23a8:	30c00014 	addik	r6, r0, 20
    23ac:	64a30006 	bsrli	r5, r3, 6
    23b0:	30e50039 	addik	r7, r5, 57
    23b4:	64e70403 	bslli	r7, r7, 3
    23b8:	30c50038 	addik	r6, r5, 56
    23bc:	b0000000 	imm	0
    23c0:	30e76034 	addik	r7, r7, 24628
    23c4:	e8a70000 	lwi	r5, r7, 0
    23c8:	30e7fff8 	addik	r7, r7, -8
    23cc:	89072800 	xor	r8, r7, r5
    23d0:	be0801ec 	beqid	r8, 492		// 25bc
    23d4:	64c60202 	bsrai	r6, r6, 2
    23d8:	e8c50004 	lwi	r6, r5, 4
    23dc:	a4c6fffc 	andi	r6, r6, -4
    23e0:	16461803 	cmpu	r18, r6, r3
    23e4:	bcb201d0 	bgei	r18, 464		// 25b4
    23e8:	e8a50008 	lwi	r5, r5, 8
    23ec:	88c72800 	xor	r6, r7, r5
    23f0:	bc26ffe8 	bnei	r6, -24		// 23d8
    23f4:	e867000c 	lwi	r3, r7, 12
    23f8:	f864000c 	swi	r3, r4, 12
    23fc:	f8e40008 	swi	r7, r4, 8
    2400:	10b60000 	addk	r5, r22, r0
    2404:	f8830008 	swi	r4, r3, 8
    2408:	b000ffff 	imm	-1
    240c:	b9f4fb64 	brlid	r15, -1180	// 1f70 <__malloc_unlock>
    2410:	f887000c 	swi	r4, r7, 12
    2414:	e9e10000 	lwi	r15, r1, 0
    2418:	ea61001c 	lwi	r19, r1, 28
    241c:	eac10020 	lwi	r22, r1, 32
    2420:	b60f0008 	rtsd	r15, 8
    2424:	30210024 	addik	r1, r1, 36
    2428:	b60f0008 	rtsd	r15, 8
    242c:	80000000 	or	r0, r0, r0
    2430:	e8a50004 	lwi	r5, r5, 4
    2434:	a4a50001 	andi	r5, r5, 1
    2438:	bc25ff48 	bnei	r5, -184		// 2380
    243c:	e8a80008 	lwi	r5, r8, 8
    2440:	b0000000 	imm	0
    2444:	30e0603c 	addik	r7, r0, 24636
    2448:	10633000 	addk	r3, r3, r6
    244c:	a1230001 	ori	r9, r3, 1
    2450:	88c53800 	xor	r6, r5, r7
    2454:	bc060190 	beqi	r6, 400		// 25e4
    2458:	e8c8000c 	lwi	r6, r8, 12
    245c:	f8c5000c 	swi	r6, r5, 12
    2460:	f8a60008 	swi	r5, r6, 8
    2464:	f9240004 	swi	r9, r4, 4
    2468:	d8632000 	sw	r3, r3, r4
    246c:	b810ff24 	brid	-220		// 2390
    2470:	30a001ff 	addik	r5, r0, 511
    2474:	a4e70001 	andi	r7, r7, 1
    2478:	be270024 	bneid	r7, 36		// 249c
    247c:	10633000 	addk	r3, r3, r6
    2480:	e8f3fff8 	lwi	r7, r19, -8
    2484:	14872000 	rsubk	r4, r7, r4
    2488:	e8a4000c 	lwi	r5, r4, 12
    248c:	e8c40008 	lwi	r6, r4, 8
    2490:	10633800 	addk	r3, r3, r7
    2494:	f8a6000c 	swi	r5, r6, 12
    2498:	f8c50008 	swi	r6, r5, 8
    249c:	a0c30001 	ori	r6, r3, 1
    24a0:	b0000000 	imm	0
    24a4:	e8a06030 	lwi	r5, r0, 24624	// 6030 <__malloc_trim_threshold>
    24a8:	f8c40004 	swi	r6, r4, 4
    24ac:	b0000000 	imm	0
    24b0:	f880603c 	swi	r4, r0, 24636
    24b4:	16451803 	cmpu	r18, r5, r3
    24b8:	bc520014 	blti	r18, 20		// 24cc
    24bc:	b0000000 	imm	0
    24c0:	e8c06588 	lwi	r6, r0, 25992	// 6588 <__malloc_top_pad>
    24c4:	b9f4fcdc 	brlid	r15, -804	// 21a0 <_malloc_trim_r>
    24c8:	10b60000 	addk	r5, r22, r0
    24cc:	b000ffff 	imm	-1
    24d0:	b9f4faa0 	brlid	r15, -1376	// 1f70 <__malloc_unlock>
    24d4:	10b60000 	addk	r5, r22, r0
    24d8:	e9e10000 	lwi	r15, r1, 0
    24dc:	ea61001c 	lwi	r19, r1, 28
    24e0:	eac10020 	lwi	r22, r1, 32
    24e4:	b60f0008 	rtsd	r15, 8
    24e8:	30210024 	addik	r1, r1, 36
    24ec:	64630003 	bsrli	r3, r3, 3
    24f0:	64a30403 	bslli	r5, r3, 3
    24f4:	64c30202 	bsrai	r6, r3, 2
    24f8:	b0000000 	imm	0
    24fc:	e9006038 	lwi	r8, r0, 24632
    2500:	b0000000 	imm	0
    2504:	30a5603c 	addik	r5, r5, 24636
    2508:	30600001 	addik	r3, r0, 1
    250c:	e8e50000 	lwi	r7, r5, 0
    2510:	44633400 	bsll	r3, r3, r6
    2514:	30c5fff8 	addik	r6, r5, -8
    2518:	80634000 	or	r3, r3, r8
    251c:	f8c4000c 	swi	r6, r4, 12
    2520:	f8e40008 	swi	r7, r4, 8
    2524:	b0000000 	imm	0
    2528:	f8606038 	swi	r3, r0, 24632
    252c:	f8850000 	swi	r4, r5, 0
    2530:	10b60000 	addk	r5, r22, r0
    2534:	b000ffff 	imm	-1
    2538:	b9f4fa38 	brlid	r15, -1480	// 1f70 <__malloc_unlock>
    253c:	f887000c 	swi	r4, r7, 12
    2540:	e9e10000 	lwi	r15, r1, 0
    2544:	ea61001c 	lwi	r19, r1, 28
    2548:	eac10020 	lwi	r22, r1, 32
    254c:	b60f0008 	rtsd	r15, 8
    2550:	30210024 	addik	r1, r1, 36
    2554:	bc250100 	bnei	r5, 256		// 2654
    2558:	e8e80008 	lwi	r7, r8, 8
    255c:	e8a8000c 	lwi	r5, r8, 12
    2560:	10661800 	addk	r3, r6, r3
    2564:	a0c30001 	ori	r6, r3, 1
    2568:	f8a7000c 	swi	r5, r7, 12
    256c:	f8e50008 	swi	r7, r5, 8
    2570:	f8c40004 	swi	r6, r4, 4
    2574:	d8632000 	sw	r3, r3, r4
    2578:	b800ff54 	bri	-172		// 24cc
    257c:	16453003 	cmpu	r18, r5, r6
    2580:	beb20028 	bgeid	r18, 40		// 25a8
    2584:	30e5005c 	addik	r7, r5, 92
    2588:	30c00054 	addik	r6, r0, 84
    258c:	16453003 	cmpu	r18, r5, r6
    2590:	bc520078 	blti	r18, 120		// 2608
    2594:	64a3000c 	bsrli	r5, r3, 12
    2598:	30e5006f 	addik	r7, r5, 111
    259c:	30c5006e 	addik	r6, r5, 110
    25a0:	b810fe1c 	brid	-484		// 23bc
    25a4:	64e70403 	bslli	r7, r7, 3
    25a8:	30c5005b 	addik	r6, r5, 91
    25ac:	b810fe10 	brid	-496		// 23bc
    25b0:	64e70403 	bslli	r7, r7, 3
    25b4:	b810fe40 	brid	-448		// 23f4
    25b8:	10e50000 	addk	r7, r5, r0
    25bc:	30600001 	addik	r3, r0, 1
    25c0:	44c33400 	bsll	r6, r3, r6
    25c4:	b0000000 	imm	0
    25c8:	e8606038 	lwi	r3, r0, 24632
    25cc:	80c61800 	or	r6, r6, r3
    25d0:	b0000000 	imm	0
    25d4:	f8c06038 	swi	r6, r0, 24632
    25d8:	10670000 	addk	r3, r7, r0
    25dc:	b810fe1c 	brid	-484		// 23f8
    25e0:	10e50000 	addk	r7, r5, r0
    25e4:	b0000000 	imm	0
    25e8:	f8806048 	swi	r4, r0, 24648
    25ec:	b0000000 	imm	0
    25f0:	f8806044 	swi	r4, r0, 24644
    25f4:	f8e4000c 	swi	r7, r4, 12
    25f8:	f8e40008 	swi	r7, r4, 8
    25fc:	f9240004 	swi	r9, r4, 4
    2600:	d8632000 	sw	r3, r3, r4
    2604:	b800fec8 	bri	-312		// 24cc
    2608:	30c00154 	addik	r6, r0, 340
    260c:	16453003 	cmpu	r18, r5, r6
    2610:	bc520018 	blti	r18, 24		// 2628
    2614:	64a3000f 	bsrli	r5, r3, 15
    2618:	30e50078 	addik	r7, r5, 120
    261c:	30c50077 	addik	r6, r5, 119
    2620:	b810fd9c 	brid	-612		// 23bc
    2624:	64e70403 	bslli	r7, r7, 3
    2628:	30c00554 	addik	r6, r0, 1364
    262c:	16453003 	cmpu	r18, r5, r6
    2630:	be520018 	bltid	r18, 24		// 2648
    2634:	64a30012 	bsrli	r5, r3, 18
    2638:	30e5007d 	addik	r7, r5, 125
    263c:	30c5007c 	addik	r6, r5, 124
    2640:	b810fd7c 	brid	-644		// 23bc
    2644:	64e70403 	bslli	r7, r7, 3
    2648:	30e003f8 	addik	r7, r0, 1016
    264c:	b810fd70 	brid	-656		// 23bc
    2650:	30c0007e 	addik	r6, r0, 126
    2654:	a0a30001 	ori	r5, r3, 1
    2658:	f8a40004 	swi	r5, r4, 4
    265c:	b810fe70 	brid	-400		// 24cc
    2660:	f8680000 	swi	r3, r8, 0

00002664 <sbrk>:
    2664:	b0000000 	imm	0
    2668:	e860658c 	lwi	r3, r0, 25996	// 658c <heap_ptr>
    266c:	bc030054 	beqi	r3, 84		// 26c0
    2670:	b0000001 	imm	1
    2674:	3080e649 	addik	r4, r0, -6583
    2678:	10a32800 	addk	r5, r3, r5
    267c:	b0000000 	imm	0
    2680:	f8a0658c 	swi	r5, r0, 25996	// 658c <heap_ptr>
    2684:	16452003 	cmpu	r18, r5, r4
    2688:	bc52000c 	blti	r18, 12		// 2694
    268c:	b60f0008 	rtsd	r15, 8
    2690:	80000000 	or	r0, r0, r0
    2694:	3021fffc 	addik	r1, r1, -4
    2698:	f9e10000 	swi	r15, r1, 0
    269c:	b0000000 	imm	0
    26a0:	b9f436c0 	brlid	r15, 14016	// 5d60 <__errno>
    26a4:	80000000 	or	r0, r0, r0
    26a8:	3080000c 	addik	r4, r0, 12
    26ac:	f8830000 	swi	r4, r3, 0
    26b0:	e9e10000 	lwi	r15, r1, 0
    26b4:	3060ffff 	addik	r3, r0, -1
    26b8:	b60f0008 	rtsd	r15, 8
    26bc:	30210004 	addik	r1, r1, 4
    26c0:	b0000000 	imm	0
    26c4:	30606648 	addik	r3, r0, 26184	// 6648 <__bss_end>
    26c8:	b800ffa8 	bri	-88		// 2670

000026cc <_exception_handler>:
    26cc:	98085800 	bra	r11

000026d0 <_program_clean>:
    26d0:	b60f0008 	rtsd	r15, 8
    26d4:	80000000 	or	r0, r0, r0

000026d8 <_program_init>:
    26d8:	b60f0008 	rtsd	r15, 8
    26dc:	80000000 	or	r0, r0, r0

000026e0 <__do_global_ctors_aux>:
    26e0:	b0000000 	imm	0
    26e4:	e8605dcc 	lwi	r3, r0, 24012	// 5dcc <__CTOR_LIST__>
    26e8:	a883ffff 	xori	r4, r3, -1
    26ec:	bc04003c 	beqi	r4, 60		// 2728
    26f0:	3021fff8 	addik	r1, r1, -8
    26f4:	fa610004 	swi	r19, r1, 4
    26f8:	b0000000 	imm	0
    26fc:	32605dcc 	addik	r19, r0, 24012	// 5dcc <__CTOR_LIST__>
    2700:	f9e10000 	swi	r15, r1, 0
    2704:	99fc1800 	brald	r15, r3
    2708:	3273fffc 	addik	r19, r19, -4
    270c:	e8730000 	lwi	r3, r19, 0
    2710:	a883ffff 	xori	r4, r3, -1
    2714:	be24fff0 	bneid	r4, -16		// 2704
    2718:	e9e10000 	lwi	r15, r1, 0
    271c:	ea610004 	lwi	r19, r1, 4
    2720:	b60f0008 	rtsd	r15, 8
    2724:	30210008 	addik	r1, r1, 8
    2728:	b60f0008 	rtsd	r15, 8
    272c:	80000000 	or	r0, r0, r0

00002730 <mmemcpy>:
    2730:	bc070024 	beqi	r7, 36		// 2754
    2734:	10600000 	addk	r3, r0, r0
    2738:	e0860000 	lbui	r4, r6, 0
    273c:	30630001 	addik	r3, r3, 1
    2740:	30a50001 	addik	r5, r5, 1
    2744:	f085ffff 	sbi	r4, r5, -1
    2748:	16471803 	cmpu	r18, r7, r3
    274c:	be52ffec 	bltid	r18, -20		// 2738
    2750:	30c60001 	addik	r6, r6, 1
    2754:	b60f0008 	rtsd	r15, 8
    2758:	80000000 	or	r0, r0, r0

0000275c <verifyResults>:
    275c:	e8e50000 	lwi	r7, r5, 0
    2760:	bc0700f0 	beqi	r7, 240		// 2850
    2764:	3021ffcc 	addik	r1, r1, -52
    2768:	fa610028 	swi	r19, r1, 40
    276c:	fac1002c 	swi	r22, r1, 44
    2770:	fae10030 	swi	r23, r1, 48
    2774:	f9e10000 	swi	r15, r1, 0
    2778:	12c50000 	addk	r22, r5, r0
    277c:	12600000 	addk	r19, r0, r0
    2780:	b8100030 	brid	48		// 27b0
    2784:	32e00001 	addik	r23, r0, 1
    2788:	e8f60000 	lwi	r7, r22, 0
    278c:	e8810024 	lwi	r4, r1, 36
    2790:	f903086c 	swi	r8, r3, 2156
    2794:	e8610020 	lwi	r3, r1, 32
    2798:	f8860008 	swi	r4, r6, 8
    279c:	f8660004 	swi	r3, r6, 4
    27a0:	32730001 	addik	r19, r19, 1
    27a4:	16479803 	cmpu	r18, r7, r19
    27a8:	beb20094 	bgeid	r18, 148		// 283c
    27ac:	e9e10000 	lwi	r15, r1, 0
    27b0:	e8960014 	lwi	r4, r22, 20
    27b4:	30b30018 	addik	r5, r19, 24
    27b8:	44779c00 	bsll	r3, r23, r19
    27bc:	64a50402 	bslli	r5, r5, 2
    27c0:	84632000 	and	r3, r3, r4
    27c4:	30c1001c 	addik	r6, r1, 28
    27c8:	be03ffd8 	beqid	r3, -40		// 27a0
    27cc:	10b62800 	addk	r5, r22, r5
    27d0:	b0000000 	imm	0
    27d4:	b9f4301c 	brlid	r15, 12316	// 57f0 <load_sp>
    27d8:	80000000 	or	r0, r0, r0
    27dc:	6073000c 	muli	r3, r19, 12
    27e0:	e901001c 	lwi	r8, r1, 28
    27e4:	64b30402 	bslli	r5, r19, 2
    27e8:	10b62800 	addk	r5, r22, r5
    27ec:	10f61800 	addk	r7, r22, r3
    27f0:	f8050668 	swi	r0, r5, 1640
    27f4:	e88706ec 	lwi	r4, r7, 1772
    27f8:	10670000 	addk	r3, r7, r0
    27fc:	88844000 	xor	r4, r4, r8
    2800:	b000ffff 	imm	-1
    2804:	a48400ff 	andi	r4, r4, 255
    2808:	be24ff80 	bneid	r4, -128		// 2788
    280c:	30c7086c 	addik	r6, r7, 2156
    2810:	e92706f0 	lwi	r9, r7, 1776
    2814:	e8810020 	lwi	r4, r1, 32
    2818:	88844800 	xor	r4, r4, r9
    281c:	be24ff6c 	bneid	r4, -148		// 2788
    2820:	e8810024 	lwi	r4, r1, 36
    2824:	e8e706f4 	lwi	r7, r7, 1780
    2828:	88843800 	xor	r4, r4, r7
    282c:	be24ff5c 	bneid	r4, -164		// 2788
    2830:	30800001 	addik	r4, r0, 1
    2834:	b810ff54 	brid	-172		// 2788
    2838:	f8850668 	swi	r4, r5, 1640
    283c:	ea610028 	lwi	r19, r1, 40
    2840:	eac1002c 	lwi	r22, r1, 44
    2844:	eae10030 	lwi	r23, r1, 48
    2848:	b60f0008 	rtsd	r15, 8
    284c:	30210034 	addik	r1, r1, 52
    2850:	b60f0008 	rtsd	r15, 8
    2854:	80000000 	or	r0, r0, r0

00002858 <freeDataBanks>:
    2858:	3021ffe0 	addik	r1, r1, -32
    285c:	fa61001c 	swi	r19, r1, 28
    2860:	f9e10000 	swi	r15, r1, 0
    2864:	12650000 	addk	r19, r5, r0
    2868:	e8a50050 	lwi	r5, r5, 80
    286c:	bc050010 	beqi	r5, 16		// 287c
    2870:	b000ffff 	imm	-1
    2874:	b9f4edd8 	brlid	r15, -4648	// 164c <free>
    2878:	80000000 	or	r0, r0, r0
    287c:	e8b30054 	lwi	r5, r19, 84
    2880:	bc050010 	beqi	r5, 16		// 2890
    2884:	b000ffff 	imm	-1
    2888:	b9f4edc4 	brlid	r15, -4668	// 164c <free>
    288c:	80000000 	or	r0, r0, r0
    2890:	e8b30058 	lwi	r5, r19, 88
    2894:	bc050010 	beqi	r5, 16		// 28a4
    2898:	b000ffff 	imm	-1
    289c:	b9f4edb0 	brlid	r15, -4688	// 164c <free>
    28a0:	80000000 	or	r0, r0, r0
    28a4:	e8b3005c 	lwi	r5, r19, 92
    28a8:	bc050010 	beqi	r5, 16		// 28b8
    28ac:	b000ffff 	imm	-1
    28b0:	b9f4ed9c 	brlid	r15, -4708	// 164c <free>
    28b4:	80000000 	or	r0, r0, r0
    28b8:	e8b300e0 	lwi	r5, r19, 224
    28bc:	bc050010 	beqi	r5, 16		// 28cc
    28c0:	b000ffff 	imm	-1
    28c4:	b9f4ed88 	brlid	r15, -4728	// 164c <free>
    28c8:	80000000 	or	r0, r0, r0
    28cc:	e8b300e4 	lwi	r5, r19, 228
    28d0:	bc050010 	beqi	r5, 16		// 28e0
    28d4:	b000ffff 	imm	-1
    28d8:	b9f4ed74 	brlid	r15, -4748	// 164c <free>
    28dc:	80000000 	or	r0, r0, r0
    28e0:	e8b3004c 	lwi	r5, r19, 76
    28e4:	bc050010 	beqi	r5, 16		// 28f4
    28e8:	b000ffff 	imm	-1
    28ec:	b9f4ed60 	brlid	r15, -4768	// 164c <free>
    28f0:	80000000 	or	r0, r0, r0
    28f4:	e8b30048 	lwi	r5, r19, 72
    28f8:	be050018 	beqid	r5, 24		// 2910
    28fc:	e9e10000 	lwi	r15, r1, 0
    2900:	b000ffff 	imm	-1
    2904:	b9f4ed48 	brlid	r15, -4792	// 164c <free>
    2908:	80000000 	or	r0, r0, r0
    290c:	e9e10000 	lwi	r15, r1, 0
    2910:	ea61001c 	lwi	r19, r1, 28
    2914:	b60f0008 	rtsd	r15, 8
    2918:	30210020 	addik	r1, r1, 32

0000291c <qmalloc>:
    291c:	3021fff8 	addik	r1, r1, -8
    2920:	fa610004 	swi	r19, r1, 4
    2924:	12650000 	addk	r19, r5, r0
    2928:	f9e10000 	swi	r15, r1, 0
    292c:	b000ffff 	imm	-1
    2930:	b9f4ecf0 	brlid	r15, -4880	// 1620 <malloc>
    2934:	40a53000 	mul	r5, r5, r6
    2938:	be23000c 	bneid	r3, 12		// 2944
    293c:	e9e10000 	lwi	r15, r1, 0
    2940:	bc930010 	bgti	r19, 16		// 2950
    2944:	ea610004 	lwi	r19, r1, 4
    2948:	b60f0008 	rtsd	r15, 8
    294c:	30210008 	addik	r1, r1, 8
    2950:	b000ffff 	imm	-1
    2954:	b9f4ec8c 	brlid	r15, -4980	// 15e0 <exit>
    2958:	30a00001 	addik	r5, r0, 1

0000295c <reinit_vec>:
    295c:	3021ffd8 	addik	r1, r1, -40
    2960:	fa61001c 	swi	r19, r1, 28
    2964:	fac10020 	swi	r22, r1, 32
    2968:	fae10024 	swi	r23, r1, 36
    296c:	f9e10000 	swi	r15, r1, 0
    2970:	12e50000 	addk	r23, r5, r0
    2974:	12c70000 	addk	r22, r7, r0
    2978:	e8a50044 	lwi	r5, r5, 68
    297c:	b0000000 	imm	0
    2980:	b9f42ee4 	brlid	r15, 12004	// 5864 <random_u32>
    2984:	12660000 	addk	r19, r6, r0
    2988:	bc760030 	blei	r22, 48		// 29b8
    298c:	e8d70048 	lwi	r6, r23, 72
    2990:	10800000 	addk	r4, r0, r0
    2994:	a4a3001f 	andi	r5, r3, 31
    2998:	64a50402 	bslli	r5, r5, 2
    299c:	65040402 	bslli	r8, r4, 2
    29a0:	c8a53000 	lw	r5, r5, r6
    29a4:	30840001 	addik	r4, r4, 1
    29a8:	d8a89800 	sw	r5, r8, r19
    29ac:	16562001 	cmp	r18, r22, r4
    29b0:	be52ffe4 	bltid	r18, -28		// 2994
    29b4:	30630001 	addik	r3, r3, 1
    29b8:	10730000 	addk	r3, r19, r0
    29bc:	e9e10000 	lwi	r15, r1, 0
    29c0:	ea61001c 	lwi	r19, r1, 28
    29c4:	eac10020 	lwi	r22, r1, 32
    29c8:	eae10024 	lwi	r23, r1, 36
    29cc:	b60f0008 	rtsd	r15, 8
    29d0:	30210028 	addik	r1, r1, 40

000029d4 <reinit_ivec_pos>:
    29d4:	3021ffd4 	addik	r1, r1, -44
    29d8:	fa61001c 	swi	r19, r1, 28
    29dc:	fac10020 	swi	r22, r1, 32
    29e0:	fae10024 	swi	r23, r1, 36
    29e4:	fb010028 	swi	r24, r1, 40
    29e8:	f9e10000 	swi	r15, r1, 0
    29ec:	13050000 	addk	r24, r5, r0
    29f0:	12670000 	addk	r19, r7, r0
    29f4:	e8a50044 	lwi	r5, r5, 68
    29f8:	12c60000 	addk	r22, r6, r0
    29fc:	b0000000 	imm	0
    2a00:	b9f42e64 	brlid	r15, 11876	// 5864 <random_u32>
    2a04:	12e80000 	addk	r23, r8, r0
    2a08:	be730040 	bleid	r19, 64		// 2a48
    2a0c:	e9e10000 	lwi	r15, r1, 0
    2a10:	e8d8004c 	lwi	r6, r24, 76
    2a14:	10a00000 	addk	r5, r0, r0
    2a18:	a483001f 	andi	r4, r3, 31
    2a1c:	64840402 	bslli	r4, r4, 2
    2a20:	65250402 	bslli	r9, r5, 2
    2a24:	c8843000 	lw	r4, r4, r6
    2a28:	30a50001 	addik	r5, r5, 1
    2a2c:	84972000 	and	r4, r23, r4
    2a30:	30840001 	addik	r4, r4, 1
    2a34:	d889b000 	sw	r4, r9, r22
    2a38:	16532801 	cmp	r18, r19, r5
    2a3c:	be52ffdc 	bltid	r18, -36		// 2a18
    2a40:	30630001 	addik	r3, r3, 1
    2a44:	e9e10000 	lwi	r15, r1, 0
    2a48:	ea61001c 	lwi	r19, r1, 28
    2a4c:	eac10020 	lwi	r22, r1, 32
    2a50:	eae10024 	lwi	r23, r1, 36
    2a54:	eb010028 	lwi	r24, r1, 40
    2a58:	b60f0008 	rtsd	r15, 8
    2a5c:	3021002c 	addik	r1, r1, 44

00002a60 <reinit_ivec>:
    2a60:	3021ffd4 	addik	r1, r1, -44
    2a64:	fa61001c 	swi	r19, r1, 28
    2a68:	fac10020 	swi	r22, r1, 32
    2a6c:	fae10024 	swi	r23, r1, 36
    2a70:	fb010028 	swi	r24, r1, 40
    2a74:	f9e10000 	swi	r15, r1, 0
    2a78:	13050000 	addk	r24, r5, r0
    2a7c:	12670000 	addk	r19, r7, r0
    2a80:	e8a50044 	lwi	r5, r5, 68
    2a84:	12c60000 	addk	r22, r6, r0
    2a88:	b0000000 	imm	0
    2a8c:	b9f42dd8 	brlid	r15, 11736	// 5864 <random_u32>
    2a90:	12e80000 	addk	r23, r8, r0
    2a94:	be73003c 	bleid	r19, 60		// 2ad0
    2a98:	e9e10000 	lwi	r15, r1, 0
    2a9c:	e8d8004c 	lwi	r6, r24, 76
    2aa0:	10800000 	addk	r4, r0, r0
    2aa4:	a4a3001f 	andi	r5, r3, 31
    2aa8:	64a50402 	bslli	r5, r5, 2
    2aac:	65240402 	bslli	r9, r4, 2
    2ab0:	c8a53000 	lw	r5, r5, r6
    2ab4:	30840001 	addik	r4, r4, 1
    2ab8:	84a5b800 	and	r5, r5, r23
    2abc:	d8a9b000 	sw	r5, r9, r22
    2ac0:	16532001 	cmp	r18, r19, r4
    2ac4:	be52ffe0 	bltid	r18, -32		// 2aa4
    2ac8:	30630001 	addik	r3, r3, 1
    2acc:	e9e10000 	lwi	r15, r1, 0
    2ad0:	ea61001c 	lwi	r19, r1, 28
    2ad4:	eac10020 	lwi	r22, r1, 32
    2ad8:	eae10024 	lwi	r23, r1, 36
    2adc:	eb010028 	lwi	r24, r1, 40
    2ae0:	b60f0008 	rtsd	r15, 8
    2ae4:	3021002c 	addik	r1, r1, 44

00002ae8 <zero_vec>:
    2ae8:	bc660024 	blei	r6, 36		// 2b0c
    2aec:	10600000 	addk	r3, r0, r0
    2af0:	64830402 	bslli	r4, r3, 2
    2af4:	10e00000 	addk	r7, r0, r0
    2af8:	30630001 	addik	r3, r3, 1
    2afc:	d8e42800 	sw	r7, r4, r5
    2b00:	16461801 	cmp	r18, r6, r3
    2b04:	be52fff4 	bltid	r18, -12		// 2af8
    2b08:	64830402 	bslli	r4, r3, 2
    2b0c:	b60f0008 	rtsd	r15, 8
    2b10:	80000000 	or	r0, r0, r0

00002b14 <initParameters_fromPreset>:
    2b14:	3021ffcc 	addik	r1, r1, -52
    2b18:	b000000f 	imm	15
    2b1c:	3060ffff 	addik	r3, r0, -1
    2b20:	fb210030 	swi	r25, r1, 48
    2b24:	132a0000 	addk	r25, r10, r0
    2b28:	f9e10000 	swi	r15, r1, 0
    2b2c:	fa610020 	swi	r19, r1, 32
    2b30:	fac10024 	swi	r22, r1, 36
    2b34:	fb01002c 	swi	r24, r1, 44
    2b38:	fae10028 	swi	r23, r1, 40
    2b3c:	f861001c 	swi	r3, r1, 28
    2b40:	f919000c 	swi	r8, r25, 12
    2b44:	31000001 	addik	r8, r0, 1
    2b48:	f8b90000 	swi	r5, r25, 0
    2b4c:	f8f90008 	swi	r7, r25, 8
    2b50:	e8b90034 	lwi	r5, r25, 52
    2b54:	10e80000 	addk	r7, r8, r0
    2b58:	11400000 	addk	r10, r0, r0
    2b5c:	f9190040 	swi	r8, r25, 64
    2b60:	f8d90004 	swi	r6, r25, 4
    2b64:	f9390010 	swi	r9, r25, 16
    2b68:	30c00100 	addik	r6, r0, 256
    2b6c:	b0000000 	imm	0
    2b70:	b9f42fdc 	brlid	r15, 12252	// 5b4c <rand_intparts_init>
    2b74:	3120000a 	addik	r9, r0, 10
    2b78:	10c30000 	addk	r6, r3, r0
    2b7c:	12630000 	addk	r19, r3, r0
    2b80:	30a00020 	addik	r5, r0, 32	// 20 <_vector_hw_exception>
    2b84:	b0000000 	imm	0
    2b88:	b9f430b4 	brlid	r15, 12468	// 5c3c <fromint_random_f32_vector>
    2b8c:	12c50000 	addk	r22, r5, r0
    2b90:	10b30000 	addk	r5, r19, r0
    2b94:	f8790048 	swi	r3, r25, 72
    2b98:	b0000000 	imm	0
    2b9c:	b9f42d40 	brlid	r15, 11584	// 58dc <rand_fini>
    2ba0:	12600000 	addk	r19, r0, r0
    2ba4:	eb190048 	lwi	r24, r25, 72
    2ba8:	66f30402 	bslli	r23, r19, 2
    2bac:	c8b7c000 	lw	r5, r23, r24
    2bb0:	b000ffff 	imm	-1
    2bb4:	b9f4d73c 	brlid	r15, -10436	// 2f0 <__extendsfdf2>
    2bb8:	80000000 	or	r0, r0, r0
    2bbc:	10a30000 	addk	r5, r3, r0
    2bc0:	a4730001 	andi	r3, r19, 1
    2bc4:	b0007ae1 	imm	31457
    2bc8:	30e047ae 	addik	r7, r0, 18350
    2bcc:	b0003fef 	imm	16367
    2bd0:	3100ae14 	addik	r8, r0, -20972
    2bd4:	be230018 	bneid	r3, 24		// 2bec
    2bd8:	10c40000 	addk	r6, r4, r0
    2bdc:	b000c28f 	imm	-15729
    2be0:	30e05c29 	addik	r7, r0, 23593
    2be4:	b0003ff0 	imm	16368
    2be8:	310028f5 	addik	r8, r0, 10485
    2bec:	b000ffff 	imm	-1
    2bf0:	b9f4db90 	brlid	r15, -9328	// 780 <__subdf3>
    2bf4:	32d6ffff 	addik	r22, r22, -1
    2bf8:	10a40000 	addk	r5, r4, r0
    2bfc:	32730001 	addik	r19, r19, 1
    2c00:	10c50000 	addk	r6, r5, r0
    2c04:	b000ffff 	imm	-1
    2c08:	b9f4e248 	brlid	r15, -7608	// e50 <__truncdfsf2>
    2c0c:	10a30000 	addk	r5, r3, r0
    2c10:	d877c000 	sw	r3, r23, r24
    2c14:	be36ff98 	bneid	r22, -104		// 2bac
    2c18:	66f30402 	bslli	r23, r19, 2
    2c1c:	e8d90034 	lwi	r6, r25, 52
    2c20:	b0000000 	imm	0
    2c24:	b9f42f9c 	brlid	r15, 12188	// 5bc0 <random_u32_vector>
    2c28:	30a00020 	addik	r5, r0, 32	// 20 <_vector_hw_exception>
    2c2c:	e8990028 	lwi	r4, r25, 40
    2c30:	f879004c 	swi	r3, r25, 76
    2c34:	e8d90030 	lwi	r6, r25, 48
    2c38:	30640001 	addik	r3, r4, 1
    2c3c:	64630402 	bslli	r3, r3, 2
    2c40:	64a40403 	bslli	r5, r4, 3
    2c44:	10633000 	addk	r3, r3, r6
    2c48:	f8790020 	swi	r3, r25, 32
    2c4c:	f8990018 	swi	r4, r25, 24
    2c50:	f899001c 	swi	r4, r25, 28
    2c54:	f8b90024 	swi	r5, r25, 36
    2c58:	10790000 	addk	r3, r25, r0
    2c5c:	e9e10000 	lwi	r15, r1, 0
    2c60:	ea610020 	lwi	r19, r1, 32
    2c64:	eac10024 	lwi	r22, r1, 36
    2c68:	eae10028 	lwi	r23, r1, 40
    2c6c:	eb01002c 	lwi	r24, r1, 44
    2c70:	eb210030 	lwi	r25, r1, 48
    2c74:	b60f0008 	rtsd	r15, 8
    2c78:	30210034 	addik	r1, r1, 52

00002c7c <runAll>:
    2c7c:	3021ffc4 	addik	r1, r1, -60
    2c80:	f9e10000 	swi	r15, r1, 0
    2c84:	fa61001c 	swi	r19, r1, 28
    2c88:	fac10020 	swi	r22, r1, 32
    2c8c:	fae10024 	swi	r23, r1, 36
    2c90:	fb010028 	swi	r24, r1, 40
    2c94:	fb21002c 	swi	r25, r1, 44
    2c98:	fb410030 	swi	r26, r1, 48
    2c9c:	fb610034 	swi	r27, r1, 52
    2ca0:	be0501b0 	beqid	r5, 432		// 2e50
    2ca4:	fb810038 	swi	r28, r1, 56
    2ca8:	b0000000 	imm	0
    2cac:	30e05ddc 	addik	r7, r0, 24028	// 5ddc <__rodata_start>
    2cb0:	12650000 	addk	r19, r5, r0
    2cb4:	310000a5 	addik	r8, r0, 165
    2cb8:	30c00004 	addik	r6, r0, 4
    2cbc:	b000ffff 	imm	-1
    2cc0:	b9f4fc5c 	brlid	r15, -932	// 291c <qmalloc>
    2cc4:	30a0000a 	addik	r5, r0, 10
    2cc8:	b0000000 	imm	0
    2ccc:	30e05ddc 	addik	r7, r0, 24028	// 5ddc <__rodata_start>
    2cd0:	310000a8 	addik	r8, r0, 168
    2cd4:	30c00004 	addik	r6, r0, 4
    2cd8:	30a0000a 	addik	r5, r0, 10
    2cdc:	b000ffff 	imm	-1
    2ce0:	b9f4fc3c 	brlid	r15, -964	// 291c <qmalloc>
    2ce4:	f8730050 	swi	r3, r19, 80
    2ce8:	b0000000 	imm	0
    2cec:	30e05ddc 	addik	r7, r0, 24028	// 5ddc <__rodata_start>
    2cf0:	310000ab 	addik	r8, r0, 171
    2cf4:	30c00004 	addik	r6, r0, 4
    2cf8:	30a0000a 	addik	r5, r0, 10
    2cfc:	b000ffff 	imm	-1
    2d00:	b9f4fc1c 	brlid	r15, -996	// 291c <qmalloc>
    2d04:	f8730054 	swi	r3, r19, 84
    2d08:	b0000000 	imm	0
    2d0c:	30e05ddc 	addik	r7, r0, 24028	// 5ddc <__rodata_start>
    2d10:	310000ae 	addik	r8, r0, 174
    2d14:	30c00004 	addik	r6, r0, 4
    2d18:	30a0000a 	addik	r5, r0, 10
    2d1c:	b000ffff 	imm	-1
    2d20:	b9f4fbfc 	brlid	r15, -1028	// 291c <qmalloc>
    2d24:	f8730058 	swi	r3, r19, 88
    2d28:	b0000000 	imm	0
    2d2c:	30e05ddc 	addik	r7, r0, 24028	// 5ddc <__rodata_start>
    2d30:	310000b1 	addik	r8, r0, 177
    2d34:	30c00004 	addik	r6, r0, 4
    2d38:	30a0000a 	addik	r5, r0, 10
    2d3c:	b000ffff 	imm	-1
    2d40:	b9f4fbdc 	brlid	r15, -1060	// 291c <qmalloc>
    2d44:	f873005c 	swi	r3, r19, 92
    2d48:	b0000000 	imm	0
    2d4c:	30e05ddc 	addik	r7, r0, 24028	// 5ddc <__rodata_start>
    2d50:	30c00004 	addik	r6, r0, 4
    2d54:	f87300e0 	swi	r3, r19, 224
    2d58:	310000b4 	addik	r8, r0, 180
    2d5c:	b000ffff 	imm	-1
    2d60:	b9f4fbbc 	brlid	r15, -1092	// 291c <qmalloc>
    2d64:	30a0000a 	addik	r5, r0, 10
    2d68:	e8d30000 	lwi	r6, r19, 0
    2d6c:	f87300e4 	swi	r3, r19, 228
    2d70:	eb330008 	lwi	r25, r19, 8
    2d74:	eb93000c 	lwi	r28, r19, 12
    2d78:	be06007c 	beqid	r6, 124		// 2df4
    2d7c:	eb530010 	lwi	r26, r19, 16
    2d80:	12e00000 	addk	r23, r0, r0
    2d84:	12d70000 	addk	r22, r23, r0
    2d88:	33000001 	addik	r24, r0, 1
    2d8c:	e8930014 	lwi	r4, r19, 20
    2d90:	4478b400 	bsll	r3, r24, r22
    2d94:	84632000 	and	r3, r3, r4
    2d98:	bc03004c 	beqi	r3, 76		// 2de4
    2d9c:	66f70402 	bslli	r23, r23, 2
    2da0:	c877e000 	lw	r3, r23, r28
    2da4:	99fc1800 	brald	r15, r3
    2da8:	10b30000 	addk	r5, r19, r0
    2dac:	c877c800 	lw	r3, r23, r25
    2db0:	99fc1800 	brald	r15, r3
    2db4:	10b30000 	addk	r5, r19, r0
    2db8:	13630000 	addk	r27, r3, r0
    2dbc:	c877d000 	lw	r3, r23, r26
    2dc0:	99fc1800 	brald	r15, r3
    2dc4:	10b30000 	addk	r5, r19, r0
    2dc8:	e89306e8 	lwi	r4, r19, 1768
    2dcc:	30b60018 	addik	r5, r22, 24
    2dd0:	64a50402 	bslli	r5, r5, 2
    2dd4:	5884d800 	fadd	r4, r4, r27
    2dd8:	e8d30000 	lwi	r6, r19, 0
    2ddc:	db659800 	sw	r27, r5, r19
    2de0:	f89306e8 	swi	r4, r19, 1768
    2de4:	32d60001 	addik	r22, r22, 1
    2de8:	1646b003 	cmpu	r18, r6, r22
    2dec:	be52ffa0 	bltid	r18, -96		// 2d8c
    2df0:	12f60000 	addk	r23, r22, r0
    2df4:	b000ffff 	imm	-1
    2df8:	b9f4fa60 	brlid	r15, -1440	// 2858 <freeDataBanks>
    2dfc:	10b30000 	addk	r5, r19, r0
    2e00:	e8730040 	lwi	r3, r19, 64
    2e04:	be030010 	beqid	r3, 16		// 2e14
    2e08:	e9e10000 	lwi	r15, r1, 0
    2e0c:	e8730038 	lwi	r3, r19, 56
    2e10:	bc03002c 	beqi	r3, 44		// 2e3c
    2e14:	ea61001c 	lwi	r19, r1, 28
    2e18:	eac10020 	lwi	r22, r1, 32
    2e1c:	eae10024 	lwi	r23, r1, 36
    2e20:	eb010028 	lwi	r24, r1, 40
    2e24:	eb21002c 	lwi	r25, r1, 44
    2e28:	eb410030 	lwi	r26, r1, 48
    2e2c:	eb610034 	lwi	r27, r1, 52
    2e30:	eb810038 	lwi	r28, r1, 56
    2e34:	b60f0008 	rtsd	r15, 8
    2e38:	3021003c 	addik	r1, r1, 60
    2e3c:	b000ffff 	imm	-1
    2e40:	b9f4f91c 	brlid	r15, -1764	// 275c <verifyResults>
    2e44:	10b30000 	addk	r5, r19, r0
    2e48:	b810ffcc 	brid	-52		// 2e14
    2e4c:	e9e10000 	lwi	r15, r1, 0
    2e50:	b000ffff 	imm	-1
    2e54:	b9f4e78c 	brlid	r15, -6260	// 15e0 <exit>
    2e58:	30a00001 	addik	r5, r0, 1

00002e5c <printResults>:
    2e5c:	b60f0008 	rtsd	r15, 8
    2e60:	80000000 	or	r0, r0, r0

00002e64 <inner_product>:
    2e64:	e8650050 	lwi	r3, r5, 80
    2e68:	e9850030 	lwi	r12, r5, 48
    2e6c:	e925002c 	lwi	r9, r5, 44
    2e70:	e9430000 	lwi	r10, r3, 0
    2e74:	e9630004 	lwi	r11, r3, 4
    2e78:	31000001 	addik	r8, r0, 1
    2e7c:	be6c0044 	bleid	r12, 68		// 2ec0
    2e80:	10600000 	addk	r3, r0, r0
    2e84:	be690030 	bleid	r9, 48		// 2eb4
    2e88:	10800000 	addk	r4, r0, r0
    2e8c:	10c82000 	addk	r6, r8, r4
    2e90:	64a40402 	bslli	r5, r4, 2
    2e94:	64c60402 	bslli	r6, r6, 2
    2e98:	c8e55000 	lw	r7, r5, r10
    2e9c:	c8a65800 	lw	r5, r6, r11
    2ea0:	30840001 	addik	r4, r4, 1
    2ea4:	58a53900 	fmul	r5, r5, r7
    2ea8:	16492001 	cmp	r18, r9, r4
    2eac:	be52ffe0 	bltid	r18, -32		// 2e8c
    2eb0:	58632800 	fadd	r3, r3, r5
    2eb4:	31080001 	addik	r8, r8, 1
    2eb8:	16486001 	cmp	r18, r8, r12
    2ebc:	bcb2ffc8 	bgei	r18, -56		// 2e84
    2ec0:	b60f0008 	rtsd	r15, 8
    2ec4:	80000000 	or	r0, r0, r0

00002ec8 <difference_predictors>:
    2ec8:	e86500e4 	lwi	r3, r5, 228
    2ecc:	e8850050 	lwi	r4, r5, 80
    2ed0:	e9650030 	lwi	r11, r5, 48
    2ed4:	e8630000 	lwi	r3, r3, 0
    2ed8:	e9240000 	lwi	r9, r4, 0
    2edc:	e905002c 	lwi	r8, r5, 44
    2ee0:	be6b0124 	bleid	r11, 292		// 3004
    2ee4:	31400001 	addik	r10, r0, 1
    2ee8:	be680110 	bleid	r8, 272		// 2ff8
    2eec:	10c00000 	addk	r6, r0, r0
    2ef0:	3021ffe8 	addik	r1, r1, -24
    2ef4:	fa610004 	swi	r19, r1, 4
    2ef8:	fac10008 	swi	r22, r1, 8
    2efc:	fae1000c 	swi	r23, r1, 12
    2f00:	fb010010 	swi	r24, r1, 16
    2f04:	fb210014 	swi	r25, r1, 20
    2f08:	60860038 	muli	r4, r6, 56
    2f0c:	64a60402 	bslli	r5, r6, 2
    2f10:	31840010 	addik	r12, r4, 16
    2f14:	ca6c1800 	lw	r19, r12, r3
    2f18:	c8a54800 	lw	r5, r5, r9
    2f1c:	30e40014 	addik	r7, r4, 20
    2f20:	3324001c 	addik	r25, r4, 28
    2f24:	d8ac1800 	sw	r5, r12, r3
    2f28:	58b32880 	frsub	r5, r19, r5
    2f2c:	c9871800 	lw	r12, r7, r3
    2f30:	32640018 	addik	r19, r4, 24
    2f34:	33040020 	addik	r24, r4, 32
    2f38:	32e40024 	addik	r23, r4, 36
    2f3c:	598c2880 	frsub	r12, r12, r5
    2f40:	d8a71800 	sw	r5, r7, r3
    2f44:	c8f31800 	lw	r7, r19, r3
    2f48:	32c40028 	addik	r22, r4, 40
    2f4c:	30c60001 	addik	r6, r6, 1
    2f50:	58e76080 	frsub	r7, r7, r12
    2f54:	d9931800 	sw	r12, r19, r3
    2f58:	c8b91800 	lw	r5, r25, r3
    2f5c:	3264002c 	addik	r19, r4, 44
    2f60:	31840030 	addik	r12, r4, 48
    2f64:	58a53880 	frsub	r5, r5, r7
    2f68:	d8f91800 	sw	r7, r25, r3
    2f6c:	c8f81800 	lw	r7, r24, r3
    2f70:	10832000 	addk	r4, r3, r4
    2f74:	58e72880 	frsub	r7, r7, r5
    2f78:	d8b81800 	sw	r5, r24, r3
    2f7c:	c8b71800 	lw	r5, r23, r3
    2f80:	58a53880 	frsub	r5, r5, r7
    2f84:	d8f71800 	sw	r7, r23, r3
    2f88:	c8f61800 	lw	r7, r22, r3
    2f8c:	58e72880 	frsub	r7, r7, r5
    2f90:	d8b61800 	sw	r5, r22, r3
    2f94:	c8b31800 	lw	r5, r19, r3
    2f98:	58a53880 	frsub	r5, r5, r7
    2f9c:	d8f31800 	sw	r7, r19, r3
    2fa0:	c8ec1800 	lw	r7, r12, r3
    2fa4:	58e72880 	frsub	r7, r7, r5
    2fa8:	f8e40034 	swi	r7, r4, 52
    2fac:	d8ac1800 	sw	r5, r12, r3
    2fb0:	16483001 	cmp	r18, r8, r6
    2fb4:	bc52ff54 	blti	r18, -172		// 2f08
    2fb8:	314a0001 	addik	r10, r10, 1
    2fbc:	164a5801 	cmp	r18, r10, r11
    2fc0:	bc520018 	blti	r18, 24		// 2fd8
    2fc4:	be88ff44 	bgtid	r8, -188		// 2f08
    2fc8:	10c00000 	addk	r6, r0, r0
    2fcc:	314a0001 	addik	r10, r10, 1
    2fd0:	164a5801 	cmp	r18, r10, r11
    2fd4:	bcb2fff0 	bgei	r18, -16		// 2fc4
    2fd8:	e8630000 	lwi	r3, r3, 0
    2fdc:	ea610004 	lwi	r19, r1, 4
    2fe0:	eac10008 	lwi	r22, r1, 8
    2fe4:	eae1000c 	lwi	r23, r1, 12
    2fe8:	eb010010 	lwi	r24, r1, 16
    2fec:	eb210014 	lwi	r25, r1, 20
    2ff0:	b60f0008 	rtsd	r15, 8
    2ff4:	30210018 	addik	r1, r1, 24
    2ff8:	314a0001 	addik	r10, r10, 1
    2ffc:	164a5801 	cmp	r18, r10, r11
    3000:	bcb2fee8 	bgei	r18, -280		// 2ee8
    3004:	b60f0008 	rtsd	r15, 8
    3008:	e8630000 	lwi	r3, r3, 0

0000300c <pic_2d>:
    300c:	3021ffcc 	addik	r1, r1, -52
    3010:	fbc1002c 	swi	r30, r1, 44
    3014:	fa610008 	swi	r19, r1, 8
    3018:	fac1000c 	swi	r22, r1, 12
    301c:	fae10010 	swi	r23, r1, 16
    3020:	fb010014 	swi	r24, r1, 20
    3024:	fb210018 	swi	r25, r1, 24
    3028:	fb41001c 	swi	r26, r1, 28
    302c:	fb610020 	swi	r27, r1, 32
    3030:	fb810024 	swi	r28, r1, 36
    3034:	fba10028 	swi	r29, r1, 40
    3038:	fbe10030 	swi	r31, r1, 48
    303c:	e8650050 	lwi	r3, r5, 80
    3040:	e88500e0 	lwi	r4, r5, 224
    3044:	e9050054 	lwi	r8, r5, 84
    3048:	ebe50030 	lwi	r31, r5, 48
    304c:	eba30000 	lwi	r29, r3, 0
    3050:	eb830004 	lwi	r28, r3, 4
    3054:	e8e30008 	lwi	r7, r3, 8
    3058:	e8c3000c 	lwi	r6, r3, 12
    305c:	ea630010 	lwi	r19, r3, 16
    3060:	e9830014 	lwi	r12, r3, 20
    3064:	eb680000 	lwi	r27, r8, 0
    3068:	eb480004 	lwi	r26, r8, 4
    306c:	eb240004 	lwi	r25, r4, 4
    3070:	eb040008 	lwi	r24, r4, 8
    3074:	eac4000c 	lwi	r22, r4, 12
    3078:	eae5002c 	lwi	r23, r5, 44
    307c:	be7f010c 	bleid	r31, 268		// 3188
    3080:	33c00001 	addik	r30, r0, 1
    3084:	be7700f8 	bleid	r23, 248		// 317c
    3088:	11600000 	addk	r11, r0, r0
    308c:	fbc10004 	swi	r30, r1, 4
    3090:	648b0402 	bslli	r4, r11, 2
    3094:	c8643000 	lw	r3, r4, r6
    3098:	c9043800 	lw	r8, r4, r7
    309c:	c8a49800 	lw	r5, r4, r19
    30a0:	58630300 	fint	r3, r3
    30a4:	a463003f 	andi	r3, r3, 63
    30a8:	64630406 	bslli	r3, r3, 6
    30ac:	59080300 	fint	r8, r8
    30b0:	a508003f 	andi	r8, r8, 63
    30b4:	10634000 	addk	r3, r3, r8
    30b8:	64630402 	bslli	r3, r3, 2
    30bc:	c903c800 	lw	r8, r3, r25
    30c0:	316b0001 	addik	r11, r11, 1
    30c4:	58a54000 	fadd	r5, r5, r8
    30c8:	d8a49800 	sw	r5, r4, r19
    30cc:	c8a46000 	lw	r5, r4, r12
    30d0:	c863c000 	lw	r3, r3, r24
    30d4:	58651800 	fadd	r3, r5, r3
    30d8:	d8646000 	sw	r3, r4, r12
    30dc:	c8a49800 	lw	r5, r4, r19
    30e0:	c8643800 	lw	r3, r4, r7
    30e4:	58632800 	fadd	r3, r3, r5
    30e8:	d8643800 	sw	r3, r4, r7
    30ec:	c8a46000 	lw	r5, r4, r12
    30f0:	c8643000 	lw	r3, r4, r6
    30f4:	58632800 	fadd	r3, r3, r5
    30f8:	d8643000 	sw	r3, r4, r6
    30fc:	c9243800 	lw	r9, r4, r7
    3100:	58630300 	fint	r3, r3
    3104:	a463003f 	andi	r3, r3, 63
    3108:	58a90300 	fint	r5, r9
    310c:	a4a5003f 	andi	r5, r5, 63
    3110:	31450020 	addik	r10, r5, 32
    3114:	654a0402 	bslli	r10, r10, 2
    3118:	cbcae800 	lw	r30, r10, r29
    311c:	31030020 	addik	r8, r3, 32
    3120:	65080402 	bslli	r8, r8, 2
    3124:	593e4800 	fadd	r9, r30, r9
    3128:	c94ad800 	lw	r10, r10, r27
    312c:	cbc8d000 	lw	r30, r8, r26
    3130:	10a55000 	addk	r5, r5, r10
    3134:	d9243800 	sw	r9, r4, r7
    3138:	c9243000 	lw	r9, r4, r6
    313c:	c908e000 	lw	r8, r8, r28
    3140:	1063f000 	addk	r3, r3, r30
    3144:	64630406 	bslli	r3, r3, 6
    3148:	59294000 	fadd	r9, r9, r8
    314c:	10a32800 	addk	r5, r3, r5
    3150:	64a50402 	bslli	r5, r5, 2
    3154:	d9243000 	sw	r9, r4, r6
    3158:	c865b000 	lw	r3, r5, r22
    315c:	b0003f80 	imm	16256
    3160:	30800000 	addik	r4, r0, 0
    3164:	58632000 	fadd	r3, r3, r4
    3168:	d865b000 	sw	r3, r5, r22
    316c:	16575801 	cmp	r18, r23, r11
    3170:	be52ff24 	bltid	r18, -220		// 3094
    3174:	648b0402 	bslli	r4, r11, 2
    3178:	ebc10004 	lwi	r30, r1, 4
    317c:	33de0001 	addik	r30, r30, 1
    3180:	165ef801 	cmp	r18, r30, r31
    3184:	bcb2ff00 	bgei	r18, -256		// 3084
    3188:	e8760000 	lwi	r3, r22, 0
    318c:	e8870000 	lwi	r4, r7, 0
    3190:	e8c60000 	lwi	r6, r6, 0
    3194:	e8b30000 	lwi	r5, r19, 0
    3198:	58632000 	fadd	r3, r3, r4
    319c:	e88c0000 	lwi	r4, r12, 0
    31a0:	ea610008 	lwi	r19, r1, 8
    31a4:	eac1000c 	lwi	r22, r1, 12
    31a8:	eae10010 	lwi	r23, r1, 16
    31ac:	58633000 	fadd	r3, r3, r6
    31b0:	eb010014 	lwi	r24, r1, 20
    31b4:	eb210018 	lwi	r25, r1, 24
    31b8:	eb41001c 	lwi	r26, r1, 28
    31bc:	eb610020 	lwi	r27, r1, 32
    31c0:	58632800 	fadd	r3, r3, r5
    31c4:	eb810024 	lwi	r28, r1, 36
    31c8:	eba10028 	lwi	r29, r1, 40
    31cc:	ebc1002c 	lwi	r30, r1, 44
    31d0:	ebe10030 	lwi	r31, r1, 48
    31d4:	58632000 	fadd	r3, r3, r4
    31d8:	b60f0008 	rtsd	r15, 8
    31dc:	30210034 	addik	r1, r1, 52

000031e0 <pic_1d>:
    31e0:	3021ff94 	addik	r1, r1, -108
    31e4:	f9e10000 	swi	r15, r1, 0
    31e8:	fa610040 	swi	r19, r1, 64
    31ec:	fac10044 	swi	r22, r1, 68
    31f0:	fae10048 	swi	r23, r1, 72
    31f4:	fb01004c 	swi	r24, r1, 76
    31f8:	fb210050 	swi	r25, r1, 80
    31fc:	fb410054 	swi	r26, r1, 84
    3200:	fb610058 	swi	r27, r1, 88
    3204:	fb81005c 	swi	r28, r1, 92
    3208:	fba10060 	swi	r29, r1, 96
    320c:	fbc10064 	swi	r30, r1, 100
    3210:	fbe10068 	swi	r31, r1, 104
    3214:	e8650050 	lwi	r3, r5, 80
    3218:	e8850054 	lwi	r4, r5, 84
    321c:	eb85002c 	lwi	r28, r5, 44
    3220:	eba30000 	lwi	r29, r3, 0
    3224:	eb030004 	lwi	r24, r3, 4
    3228:	eb430008 	lwi	r26, r3, 8
    322c:	ebe3000c 	lwi	r31, r3, 12
    3230:	eb630010 	lwi	r27, r3, 16
    3234:	e9230014 	lwi	r9, r3, 20
    3238:	e9830018 	lwi	r12, r3, 24
    323c:	e943001c 	lwi	r10, r3, 28
    3240:	ebc30020 	lwi	r30, r3, 32
    3244:	eae30024 	lwi	r23, r3, 36
    3248:	e8a50030 	lwi	r5, r5, 48
    324c:	e8640000 	lwi	r3, r4, 0
    3250:	e9640004 	lwi	r11, r4, 4
    3254:	f8a10038 	swi	r5, r1, 56
    3258:	be7c0074 	bleid	r28, 116		// 32cc
    325c:	f861003c 	swi	r3, r1, 60
    3260:	10c00000 	addk	r6, r0, r0
    3264:	b8100020 	brid	32		// 3284
    3268:	11030000 	addk	r8, r3, r0
    326c:	58630280 	flt	r3, r3
    3270:	30c60001 	addik	r6, r6, 1
    3274:	d864d000 	sw	r3, r4, r26
    3278:	165c3001 	cmp	r18, r28, r6
    327c:	beb20054 	bgeid	r18, 84		// 32d0
    3280:	e8610038 	lwi	r3, r1, 56
    3284:	64860402 	bslli	r4, r6, 2
    3288:	b000c2c8 	imm	-15672
    328c:	30e00000 	addik	r7, r0, 0
    3290:	c8a46000 	lw	r5, r4, r12
    3294:	c8644000 	lw	r3, r4, r8
    3298:	58a53900 	fmul	r5, r5, r7
    329c:	d8a46000 	sw	r5, r4, r12
    32a0:	bea3ffcc 	bgeid	r3, -52		// 326c
    32a4:	a4a30001 	andi	r5, r3, 1
    32a8:	90630041 	srl	r3, r3
    32ac:	80a51800 	or	r5, r5, r3
    32b0:	58650280 	flt	r3, r5
    32b4:	30c60001 	addik	r6, r6, 1
    32b8:	58631800 	fadd	r3, r3, r3
    32bc:	d864d000 	sw	r3, r4, r26
    32c0:	165c3001 	cmp	r18, r28, r6
    32c4:	be52ffcc 	bltid	r18, -52		// 3290
    32c8:	64860402 	bslli	r4, r6, 2
    32cc:	e8610038 	lwi	r3, r1, 56
    32d0:	30800001 	addik	r4, r0, 1
    32d4:	be63022c 	bleid	r3, 556		// 3500
    32d8:	f881001c 	swi	r4, r1, 28
    32dc:	be7c020c 	bleid	r28, 524		// 34e8
    32e0:	10a00000 	addk	r5, r0, r0
    32e4:	b810003c 	brid	60		// 3320
    32e8:	e8e1003c 	lwi	r7, r1, 60
    32ec:	58c30280 	flt	r6, r3
    32f0:	b0003fff 	imm	16383
    32f4:	3063ffff 	addik	r3, r3, -1
    32f8:	d8c4f800 	sw	r6, r4, r31
    32fc:	64630402 	bslli	r3, r3, 2
    3300:	c8c3d800 	lw	r6, r3, r27
    3304:	30a50001 	addik	r5, r5, 1
    3308:	d8c44800 	sw	r6, r4, r9
    330c:	c8636000 	lw	r3, r3, r12
    3310:	d8645000 	sw	r3, r4, r10
    3314:	165c2801 	cmp	r18, r28, r5
    3318:	beb20040 	bgeid	r18, 64		// 3358
    331c:	311cffff 	addik	r8, r28, -1
    3320:	64850402 	bslli	r4, r5, 2
    3324:	10600000 	addk	r3, r0, r0
    3328:	d864e800 	sw	r3, r4, r29
    332c:	d864c000 	sw	r3, r4, r24
    3330:	c864d000 	lw	r3, r4, r26
    3334:	58630300 	fint	r3, r3
    3338:	d8643800 	sw	r3, r4, r7
    333c:	bea3ffb0 	bgeid	r3, -80		// 32ec
    3340:	a4c30001 	andi	r6, r3, 1
    3344:	91030041 	srl	r8, r3
    3348:	80c64000 	or	r6, r6, r8
    334c:	58c60280 	flt	r6, r6
    3350:	b810ffa0 	brid	-96		// 32f0
    3354:	58c63000 	fadd	r6, r6, r6
    3358:	10e00000 	addk	r7, r0, r0
    335c:	64870402 	bslli	r4, r7, 2
    3360:	c864f800 	lw	r3, r4, r31
    3364:	c8c4c000 	lw	r6, r4, r24
    3368:	cac45000 	lw	r22, r4, r10
    336c:	ca644800 	lw	r19, r4, r9
    3370:	58c33080 	frsub	r6, r3, r6
    3374:	c8a4e800 	lw	r5, r4, r29
    3378:	b0004f00 	imm	20224
    337c:	30600000 	addik	r3, r0, 0
    3380:	58c6b100 	fmul	r6, r6, r22
    3384:	58c69800 	fadd	r6, r6, r19
    3388:	58c62800 	fadd	r6, r6, r5
    338c:	b0003a83 	imm	14979
    3390:	30a0126f 	addik	r5, r0, 4719
    3394:	58a62800 	fadd	r5, r6, r5
    3398:	d8c4e800 	sw	r6, r4, r29
    339c:	c8c4c000 	lw	r6, r4, r24
    33a0:	58a53000 	fadd	r5, r5, r6
    33a4:	58c32a60 	fcmp.ge	r6, r3, r5
    33a8:	bc260194 	bnei	r6, 404		// 353c
    33ac:	58650300 	fint	r3, r5
    33b0:	be4301a4 	bltid	r3, 420		// 3554
    33b4:	a4c30001 	andi	r6, r3, 1
    33b8:	58c30280 	flt	r6, r3
    33bc:	84634000 	and	r3, r3, r8
    33c0:	30630001 	addik	r3, r3, 1
    33c4:	58a62880 	frsub	r5, r6, r5
    33c8:	30e70001 	addik	r7, r7, 1
    33cc:	5a630280 	flt	r19, r3
    33d0:	d8a4f000 	sw	r5, r4, r30
    33d4:	d8645800 	sw	r3, r4, r11
    33d8:	58d32800 	fadd	r6, r19, r5
    33dc:	d8c4c000 	sw	r6, r4, r24
    33e0:	165c3801 	cmp	r18, r28, r7
    33e4:	be52ff7c 	bltid	r18, -132		// 3360
    33e8:	64870402 	bslli	r4, r7, 2
    33ec:	12c00000 	addk	r22, r0, r0
    33f0:	fb410028 	swi	r26, r1, 40
    33f4:	fb61002c 	swi	r27, r1, 44
    33f8:	134b0000 	addk	r26, r11, r0
    33fc:	13760000 	addk	r27, r22, r0
    3400:	12de0000 	addk	r22, r30, r0
    3404:	13ca0000 	addk	r30, r10, r0
    3408:	fba10020 	swi	r29, r1, 32
    340c:	fb010024 	swi	r24, r1, 36
    3410:	f9210030 	swi	r9, r1, 48
    3414:	f9810034 	swi	r12, r1, 52
    3418:	67bb0402 	bslli	r29, r27, 2
    341c:	c8bdb000 	lw	r5, r29, r22
    3420:	ca7dd000 	lw	r19, r29, r26
    3424:	b000ffff 	imm	-1
    3428:	b9f4cec8 	brlid	r15, -12600	// 2f0 <__extendsfdf2>
    342c:	337b0001 	addik	r27, r27, 1
    3430:	10a40000 	addk	r5, r4, r0
    3434:	10e30000 	addk	r7, r3, r0
    3438:	b0003fff 	imm	16383
    343c:	3273ffff 	addik	r19, r19, -1
    3440:	11050000 	addk	r8, r5, r0
    3444:	30a00000 	addik	r5, r0, 0
    3448:	b0003ff0 	imm	16368
    344c:	30c00000 	addik	r6, r0, 0
    3450:	b000ffff 	imm	-1
    3454:	b9f4d32c 	brlid	r15, -11476	// 780 <__subdf3>
    3458:	66730402 	bslli	r19, r19, 2
    345c:	c8b3b800 	lw	r5, r19, r23
    3460:	13030000 	addk	r24, r3, r0
    3464:	b000ffff 	imm	-1
    3468:	b9f4ce88 	brlid	r15, -12664	// 2f0 <__extendsfdf2>
    346c:	13240000 	addk	r25, r4, r0
    3470:	10a40000 	addk	r5, r4, r0
    3474:	10e30000 	addk	r7, r3, r0
    3478:	10d90000 	addk	r6, r25, r0
    347c:	11050000 	addk	r8, r5, r0
    3480:	b000ffff 	imm	-1
    3484:	b9f4d28c 	brlid	r15, -11636	// 710 <__adddf3>
    3488:	10b80000 	addk	r5, r24, r0
    348c:	10a40000 	addk	r5, r4, r0
    3490:	10c50000 	addk	r6, r5, r0
    3494:	b000ffff 	imm	-1
    3498:	b9f4d9b8 	brlid	r15, -9800	// e50 <__truncdfsf2>
    349c:	10a30000 	addk	r5, r3, r0
    34a0:	d873b800 	sw	r3, r19, r23
    34a4:	32730004 	addik	r19, r19, 4
    34a8:	c873b800 	lw	r3, r19, r23
    34ac:	c89db000 	lw	r4, r29, r22
    34b0:	58632000 	fadd	r3, r3, r4
    34b4:	d873b800 	sw	r3, r19, r23
    34b8:	165cd801 	cmp	r18, r28, r27
    34bc:	be52ff60 	bltid	r18, -160		// 341c
    34c0:	67bb0402 	bslli	r29, r27, 2
    34c4:	115e0000 	addk	r10, r30, r0
    34c8:	117a0000 	addk	r11, r26, r0
    34cc:	eba10020 	lwi	r29, r1, 32
    34d0:	eb010024 	lwi	r24, r1, 36
    34d4:	eb61002c 	lwi	r27, r1, 44
    34d8:	e9210030 	lwi	r9, r1, 48
    34dc:	e9810034 	lwi	r12, r1, 52
    34e0:	13d60000 	addk	r30, r22, r0
    34e4:	eb410028 	lwi	r26, r1, 40
    34e8:	e881001c 	lwi	r4, r1, 28
    34ec:	e8610038 	lwi	r3, r1, 56
    34f0:	30840001 	addik	r4, r4, 1
    34f4:	16441801 	cmp	r18, r4, r3
    34f8:	beb2fde4 	bgeid	r18, -540		// 32dc
    34fc:	f881001c 	swi	r4, r1, 28
    3500:	e8770000 	lwi	r3, r23, 0
    3504:	e9e10000 	lwi	r15, r1, 0
    3508:	ea610040 	lwi	r19, r1, 64
    350c:	eac10044 	lwi	r22, r1, 68
    3510:	eae10048 	lwi	r23, r1, 72
    3514:	eb01004c 	lwi	r24, r1, 76
    3518:	eb210050 	lwi	r25, r1, 80
    351c:	eb410054 	lwi	r26, r1, 84
    3520:	eb610058 	lwi	r27, r1, 88
    3524:	eb81005c 	lwi	r28, r1, 92
    3528:	eba10060 	lwi	r29, r1, 96
    352c:	ebc10064 	lwi	r30, r1, 100
    3530:	ebe10068 	lwi	r31, r1, 104
    3534:	b60f0008 	rtsd	r15, 8
    3538:	3021006c 	addik	r1, r1, 108
    353c:	58632880 	frsub	r3, r3, r5
    3540:	58630300 	fint	r3, r3
    3544:	b0008000 	imm	-32768
    3548:	30630000 	addik	r3, r3, 0
    354c:	bea3fe6c 	bgeid	r3, -404		// 33b8
    3550:	a4c30001 	andi	r6, r3, 1
    3554:	92630041 	srl	r19, r3
    3558:	80c69800 	or	r6, r6, r19
    355c:	58c60280 	flt	r6, r6
    3560:	b810fe5c 	brid	-420		// 33bc
    3564:	58c63000 	fadd	r6, r6, r6

00003568 <lin_recurrence>:
    3568:	3021fff8 	addik	r1, r1, -8
    356c:	fa610004 	swi	r19, r1, 4
    3570:	e8650050 	lwi	r3, r5, 80
    3574:	ea650030 	lwi	r19, r5, 48
    3578:	e8e5002c 	lwi	r7, r5, 44
    357c:	e9030000 	lwi	r8, r3, 0
    3580:	e9430004 	lwi	r10, r3, 4
    3584:	e9230008 	lwi	r9, r3, 8
    3588:	e8880004 	lwi	r4, r8, 4
    358c:	e8680000 	lwi	r3, r8, 0
    3590:	31800001 	addik	r12, r0, 1
    3594:	be730074 	bleid	r19, 116		// 3608
    3598:	58641980 	fdiv	r3, r4, r3
    359c:	be670060 	bleid	r7, 96		// 35fc
    35a0:	10a00000 	addk	r5, r0, r0
    35a4:	64c50402 	bslli	r6, r5, 2
    35a8:	c8865000 	lw	r4, r6, r10
    35ac:	c9664000 	lw	r11, r6, r8
    35b0:	30a50001 	addik	r5, r5, 1
    35b4:	58832100 	fmul	r4, r3, r4
    35b8:	58845800 	fadd	r4, r4, r11
    35bc:	d8864800 	sw	r4, r6, r9
    35c0:	16472801 	cmp	r18, r7, r5
    35c4:	be52ffe0 	bltid	r18, -32		// 35a4
    35c8:	58632080 	frsub	r3, r3, r4
    35cc:	30c00001 	addik	r6, r0, 1
    35d0:	14a63800 	rsubk	r5, r6, r7
    35d4:	30c60001 	addik	r6, r6, 1
    35d8:	64a50402 	bslli	r5, r5, 2
    35dc:	c8855000 	lw	r4, r5, r10
    35e0:	c9654000 	lw	r11, r5, r8
    35e4:	58832100 	fmul	r4, r3, r4
    35e8:	58845800 	fadd	r4, r4, r11
    35ec:	d8854800 	sw	r4, r5, r9
    35f0:	16463801 	cmp	r18, r6, r7
    35f4:	beb2ffdc 	bgeid	r18, -36		// 35d0
    35f8:	58632080 	frsub	r3, r3, r4
    35fc:	318c0001 	addik	r12, r12, 1
    3600:	164c9801 	cmp	r18, r12, r19
    3604:	bcb2ff98 	bgei	r18, -104		// 359c
    3608:	ea610004 	lwi	r19, r1, 4
    360c:	b60f0008 	rtsd	r15, 8
    3610:	30210008 	addik	r1, r1, 8

00003614 <hydro_fragment_init>:
    3614:	3021ffd0 	addik	r1, r1, -48
    3618:	fa61001c 	swi	r19, r1, 28
    361c:	f9e10000 	swi	r15, r1, 0
    3620:	fac10020 	swi	r22, r1, 32
    3624:	fae10024 	swi	r23, r1, 36
    3628:	fb010028 	swi	r24, r1, 40
    362c:	fb21002c 	swi	r25, r1, 44
    3630:	12650000 	addk	r19, r5, r0
    3634:	e8a50028 	lwi	r5, r5, 40
    3638:	30600064 	addik	r3, r0, 100
    363c:	16451803 	cmpu	r18, r5, r3
    3640:	bcb20008 	bgei	r18, 8		// 3648
    3644:	30a5ff9d 	addik	r5, r5, -99
    3648:	f8b3002c 	swi	r5, r19, 44
    364c:	32e00003 	addik	r23, r0, 3
    3650:	12c00000 	addk	r22, r0, r0
    3654:	b0000000 	imm	0
    3658:	30e05e20 	addik	r7, r0, 24096
    365c:	eb330050 	lwi	r25, r19, 80
    3660:	67160402 	bslli	r24, r22, 2
    3664:	30a50015 	addik	r5, r5, 21
    3668:	31000020 	addik	r8, r0, 32	// 20 <_vector_hw_exception>
    366c:	b000ffff 	imm	-1
    3670:	b9f4f2ac 	brlid	r15, -3412	// 291c <qmalloc>
    3674:	30c00004 	addik	r6, r0, 4
    3678:	d878c800 	sw	r3, r24, r25
    367c:	32f7ffff 	addik	r23, r23, -1
    3680:	be170010 	beqid	r23, 16		// 3690
    3684:	32d60001 	addik	r22, r22, 1
    3688:	b810ffcc 	brid	-52		// 3654
    368c:	e8b3002c 	lwi	r5, r19, 44
    3690:	30c00004 	addik	r6, r0, 4
    3694:	10a60000 	addk	r5, r6, r0
    3698:	b0000000 	imm	0
    369c:	30e05e20 	addik	r7, r0, 24096
    36a0:	31000024 	addik	r8, r0, 36
    36a4:	b000ffff 	imm	-1
    36a8:	b9f4f274 	brlid	r15, -3468	// 291c <qmalloc>
    36ac:	ead30050 	lwi	r22, r19, 80
    36b0:	e8930050 	lwi	r4, r19, 80
    36b4:	e8f3002c 	lwi	r7, r19, 44
    36b8:	f876000c 	swi	r3, r22, 12
    36bc:	e8c40000 	lwi	r6, r4, 0
    36c0:	10b30000 	addk	r5, r19, r0
    36c4:	b000ffff 	imm	-1
    36c8:	b9f4f294 	brlid	r15, -3436	// 295c <reinit_vec>
    36cc:	30e7000b 	addik	r7, r7, 11
    36d0:	e8730050 	lwi	r3, r19, 80
    36d4:	e8f3002c 	lwi	r7, r19, 44
    36d8:	10b30000 	addk	r5, r19, r0
    36dc:	e8c30004 	lwi	r6, r3, 4
    36e0:	b000ffff 	imm	-1
    36e4:	b9f4f278 	brlid	r15, -3464	// 295c <reinit_vec>
    36e8:	30e7000b 	addik	r7, r7, 11
    36ec:	e8730050 	lwi	r3, r19, 80
    36f0:	e8f3002c 	lwi	r7, r19, 44
    36f4:	10b30000 	addk	r5, r19, r0
    36f8:	e8c30008 	lwi	r6, r3, 8
    36fc:	b000ffff 	imm	-1
    3700:	b9f4f25c 	brlid	r15, -3492	// 295c <reinit_vec>
    3704:	30e7000b 	addik	r7, r7, 11
    3708:	e8730050 	lwi	r3, r19, 80
    370c:	10b30000 	addk	r5, r19, r0
    3710:	30e00004 	addik	r7, r0, 4
    3714:	b000ffff 	imm	-1
    3718:	b9f4f244 	brlid	r15, -3516	// 295c <reinit_vec>
    371c:	e8c3000c 	lwi	r6, r3, 12
    3720:	e9e10000 	lwi	r15, r1, 0
    3724:	ea61001c 	lwi	r19, r1, 28
    3728:	eac10020 	lwi	r22, r1, 32
    372c:	eae10024 	lwi	r23, r1, 36
    3730:	eb010028 	lwi	r24, r1, 40
    3734:	eb21002c 	lwi	r25, r1, 44
    3738:	b60f0008 	rtsd	r15, 8
    373c:	30210030 	addik	r1, r1, 48

00003740 <cholesky_init>:
    3740:	3021ffd8 	addik	r1, r1, -40
    3744:	f9e10000 	swi	r15, r1, 0
    3748:	fa61001c 	swi	r19, r1, 28
    374c:	fac10020 	swi	r22, r1, 32
    3750:	fae10024 	swi	r23, r1, 36
    3754:	12650000 	addk	r19, r5, r0
    3758:	e8650028 	lwi	r3, r5, 40
    375c:	b0000000 	imm	0
    3760:	30e05e20 	addik	r7, r0, 24096
    3764:	eae50050 	lwi	r23, r5, 80
    3768:	3100005f 	addik	r8, r0, 95
    376c:	30c00004 	addik	r6, r0, 4
    3770:	30a3000a 	addik	r5, r3, 10
    3774:	b000ffff 	imm	-1
    3778:	b9f4f1a4 	brlid	r15, -3676	// 291c <qmalloc>
    377c:	f873002c 	swi	r3, r19, 44
    3780:	e8b3002c 	lwi	r5, r19, 44
    3784:	b0000000 	imm	0
    3788:	30e05e20 	addik	r7, r0, 24096
    378c:	ead30050 	lwi	r22, r19, 80
    3790:	3100005f 	addik	r8, r0, 95
    3794:	30c00004 	addik	r6, r0, 4
    3798:	30a5000a 	addik	r5, r5, 10
    379c:	b000ffff 	imm	-1
    37a0:	b9f4f17c 	brlid	r15, -3716	// 291c <qmalloc>
    37a4:	f8770000 	swi	r3, r23, 0
    37a8:	e8930050 	lwi	r4, r19, 80
    37ac:	f8760004 	swi	r3, r22, 4
    37b0:	e8f30028 	lwi	r7, r19, 40
    37b4:	e8c40000 	lwi	r6, r4, 0
    37b8:	b000ffff 	imm	-1
    37bc:	b9f4f1a0 	brlid	r15, -3680	// 295c <reinit_vec>
    37c0:	10b30000 	addk	r5, r19, r0
    37c4:	e8730050 	lwi	r3, r19, 80
    37c8:	e8f30028 	lwi	r7, r19, 40
    37cc:	10b30000 	addk	r5, r19, r0
    37d0:	b000ffff 	imm	-1
    37d4:	b9f4f188 	brlid	r15, -3704	// 295c <reinit_vec>
    37d8:	e8c30004 	lwi	r6, r3, 4
    37dc:	e9e10000 	lwi	r15, r1, 0
    37e0:	ea61001c 	lwi	r19, r1, 28
    37e4:	eac10020 	lwi	r22, r1, 32
    37e8:	eae10024 	lwi	r23, r1, 36
    37ec:	b60f0008 	rtsd	r15, 8
    37f0:	30210028 	addik	r1, r1, 40

000037f4 <inner_product_init>:
    37f4:	3021ffdc 	addik	r1, r1, -36
    37f8:	f9e10000 	swi	r15, r1, 0
    37fc:	fa61001c 	swi	r19, r1, 28
    3800:	fac10020 	swi	r22, r1, 32
    3804:	e8650028 	lwi	r3, r5, 40
    3808:	12650000 	addk	r19, r5, r0
    380c:	eac50050 	lwi	r22, r5, 80
    3810:	b0000000 	imm	0
    3814:	30e05e20 	addik	r7, r0, 24096
    3818:	10a30000 	addk	r5, r3, r0
    381c:	310000a6 	addik	r8, r0, 166
    3820:	30c00004 	addik	r6, r0, 4
    3824:	b000ffff 	imm	-1
    3828:	b9f4f0f4 	brlid	r15, -3852	// 291c <qmalloc>
    382c:	f873002c 	swi	r3, r19, 44
    3830:	e8930050 	lwi	r4, r19, 80
    3834:	f8760000 	swi	r3, r22, 0
    3838:	e8f30028 	lwi	r7, r19, 40
    383c:	e8c40000 	lwi	r6, r4, 0
    3840:	b000ffff 	imm	-1
    3844:	b9f4f118 	brlid	r15, -3816	// 295c <reinit_vec>
    3848:	10b30000 	addk	r5, r19, r0
    384c:	e8b30028 	lwi	r5, r19, 40
    3850:	e8730030 	lwi	r3, r19, 48
    3854:	b0000000 	imm	0
    3858:	30e05e20 	addik	r7, r0, 24096
    385c:	310000a9 	addik	r8, r0, 169
    3860:	30c00004 	addik	r6, r0, 4
    3864:	10a51800 	addk	r5, r5, r3
    3868:	b000ffff 	imm	-1
    386c:	b9f4f0b0 	brlid	r15, -3920	// 291c <qmalloc>
    3870:	ead30050 	lwi	r22, r19, 80
    3874:	e8930050 	lwi	r4, r19, 80
    3878:	e8f30028 	lwi	r7, r19, 40
    387c:	f8760004 	swi	r3, r22, 4
    3880:	e8730030 	lwi	r3, r19, 48
    3884:	10b30000 	addk	r5, r19, r0
    3888:	e8c40004 	lwi	r6, r4, 4
    388c:	b000ffff 	imm	-1
    3890:	b9f4f0cc 	brlid	r15, -3892	// 295c <reinit_vec>
    3894:	10e71800 	addk	r7, r7, r3
    3898:	e9e10000 	lwi	r15, r1, 0
    389c:	ea61001c 	lwi	r19, r1, 28
    38a0:	eac10020 	lwi	r22, r1, 32
    38a4:	b60f0008 	rtsd	r15, 8
    38a8:	30210024 	addik	r1, r1, 36

000038ac <linear_recurrence_init>:
    38ac:	3021ffc4 	addik	r1, r1, -60
    38b0:	fae10024 	swi	r23, r1, 36
    38b4:	f9e10000 	swi	r15, r1, 0
    38b8:	fa61001c 	swi	r19, r1, 28
    38bc:	fac10020 	swi	r22, r1, 32
    38c0:	fb010028 	swi	r24, r1, 40
    38c4:	fb21002c 	swi	r25, r1, 44
    38c8:	fb410030 	swi	r26, r1, 48
    38cc:	fb610034 	swi	r27, r1, 52
    38d0:	fb810038 	swi	r28, r1, 56
    38d4:	eac50028 	lwi	r22, r5, 40
    38d8:	66d60402 	bslli	r22, r22, 2
    38dc:	be560190 	bltid	r22, 400		// 3a6c
    38e0:	12e50000 	addk	r23, r5, r0
    38e4:	5ad60280 	flt	r22, r22
    38e8:	13400000 	addk	r26, r0, r0
    38ec:	587ab220 	fcmp.eq	r3, r26, r22
    38f0:	be230170 	bneid	r3, 368		// 3a60
    38f4:	33800013 	addik	r28, r0, 19
    38f8:	b0004120 	imm	16672
    38fc:	32600000 	addik	r19, r0, 0
    3900:	b0003727 	imm	14119
    3904:	3360c5ac 	addik	r27, r0, -14932
    3908:	5a73b180 	fdiv	r19, r19, r22
    390c:	58b39900 	fmul	r5, r19, r19
    3910:	339cffff 	addik	r28, r28, -1
    3914:	b000ffff 	imm	-1
    3918:	b9f4c9d8 	brlid	r15, -13864	// 2f0 <__extendsfdf2>
    391c:	58a5b080 	frsub	r5, r5, r22
    3920:	10b30000 	addk	r5, r19, r0
    3924:	13030000 	addk	r24, r3, r0
    3928:	b000ffff 	imm	-1
    392c:	b9f4c9c4 	brlid	r15, -13884	// 2f0 <__extendsfdf2>
    3930:	13240000 	addk	r25, r4, r0
    3934:	10a40000 	addk	r5, r4, r0
    3938:	10e30000 	addk	r7, r3, r0
    393c:	11050000 	addk	r8, r5, r0
    3940:	10a30000 	addk	r5, r3, r0
    3944:	b000ffff 	imm	-1
    3948:	b9f4cdc8 	brlid	r15, -12856	// 710 <__adddf3>
    394c:	10c80000 	addk	r6, r8, r0
    3950:	10a40000 	addk	r5, r4, r0
    3954:	10e30000 	addk	r7, r3, r0
    3958:	10d90000 	addk	r6, r25, r0
    395c:	11050000 	addk	r8, r5, r0
    3960:	b000ffff 	imm	-1
    3964:	b9f4d270 	brlid	r15, -11664	// bd4 <__divdf3>
    3968:	10b80000 	addk	r5, r24, r0
    396c:	10a40000 	addk	r5, r4, r0
    3970:	10c50000 	addk	r6, r5, r0
    3974:	b000ffff 	imm	-1
    3978:	b9f4d4d8 	brlid	r15, -11048	// e50 <__truncdfsf2>
    397c:	10a30000 	addk	r5, r3, r0
    3980:	5a731800 	fadd	r19, r19, r3
    3984:	58b39900 	fmul	r5, r19, r19
    3988:	5865b080 	frsub	r3, r5, r22
    398c:	589a1a60 	fcmp.ge	r4, r26, r3
    3990:	bc24000c 	bnei	r4, 12		// 399c
    3994:	b0008000 	imm	-32768
    3998:	30630000 	addik	r3, r3, 0
    399c:	587b1a30 	fcmp.le	r3, r27, r3
    39a0:	bc23000c 	bnei	r3, 12		// 39ac
    39a4:	be3cff70 	bneid	r28, -144		// 3914
    39a8:	339cffff 	addik	r28, r28, -1
    39ac:	58b30300 	fint	r5, r19
    39b0:	10650000 	addk	r3, r5, r0
    39b4:	b0000000 	imm	0
    39b8:	30e05e20 	addik	r7, r0, 24096
    39bc:	31000106 	addik	r8, r0, 262
    39c0:	30c00004 	addik	r6, r0, 4
    39c4:	f877002c 	swi	r3, r23, 44
    39c8:	b000ffff 	imm	-1
    39cc:	b9f4ef50 	brlid	r15, -4272	// 291c <qmalloc>
    39d0:	ea770050 	lwi	r19, r23, 80
    39d4:	e8970050 	lwi	r4, r23, 80
    39d8:	f8730000 	swi	r3, r19, 0
    39dc:	e8f7002c 	lwi	r7, r23, 44
    39e0:	e8c40000 	lwi	r6, r4, 0
    39e4:	b000ffff 	imm	-1
    39e8:	b9f4ef74 	brlid	r15, -4236	// 295c <reinit_vec>
    39ec:	10b70000 	addk	r5, r23, r0
    39f0:	e8b7002c 	lwi	r5, r23, 44
    39f4:	b0000000 	imm	0
    39f8:	30e05e20 	addik	r7, r0, 24096
    39fc:	31000109 	addik	r8, r0, 265
    3a00:	40a52800 	mul	r5, r5, r5
    3a04:	30c00004 	addik	r6, r0, 4
    3a08:	b000ffff 	imm	-1
    3a0c:	b9f4ef10 	brlid	r15, -4336	// 291c <qmalloc>
    3a10:	ea7700e0 	lwi	r19, r23, 224
    3a14:	e89700e0 	lwi	r4, r23, 224
    3a18:	e8f7002c 	lwi	r7, r23, 44
    3a1c:	f8730000 	swi	r3, r19, 0
    3a20:	10b70000 	addk	r5, r23, r0
    3a24:	40e73800 	mul	r7, r7, r7
    3a28:	b000ffff 	imm	-1
    3a2c:	b9f4ef30 	brlid	r15, -4304	// 295c <reinit_vec>
    3a30:	e8c40000 	lwi	r6, r4, 0
    3a34:	e9e10000 	lwi	r15, r1, 0
    3a38:	ea61001c 	lwi	r19, r1, 28
    3a3c:	eac10020 	lwi	r22, r1, 32
    3a40:	eae10024 	lwi	r23, r1, 36
    3a44:	eb010028 	lwi	r24, r1, 40
    3a48:	eb21002c 	lwi	r25, r1, 44
    3a4c:	eb410030 	lwi	r26, r1, 48
    3a50:	eb610034 	lwi	r27, r1, 52
    3a54:	eb810038 	lwi	r28, r1, 56
    3a58:	b60f0008 	rtsd	r15, 8
    3a5c:	3021003c 	addik	r1, r1, 60
    3a60:	10600000 	addk	r3, r0, r0
    3a64:	b810ff50 	brid	-176		// 39b4
    3a68:	10a30000 	addk	r5, r3, r0
    3a6c:	92d60041 	srl	r22, r22
    3a70:	5ad60280 	flt	r22, r22
    3a74:	b810fe74 	brid	-396		// 38e8
    3a78:	5ad6b000 	fadd	r22, r22, r22

00003a7c <state_fragment_init>:
    3a7c:	3021ffd0 	addik	r1, r1, -48
    3a80:	fa61001c 	swi	r19, r1, 28
    3a84:	fac10020 	swi	r22, r1, 32
    3a88:	fae10024 	swi	r23, r1, 36
    3a8c:	f9e10000 	swi	r15, r1, 0
    3a90:	fb010028 	swi	r24, r1, 40
    3a94:	fb21002c 	swi	r25, r1, 44
    3a98:	12650000 	addk	r19, r5, r0
    3a9c:	e8a50028 	lwi	r5, r5, 40
    3aa0:	32e00004 	addik	r23, r0, 4
    3aa4:	12c00000 	addk	r22, r0, r0
    3aa8:	f8b3002c 	swi	r5, r19, 44
    3aac:	b0000000 	imm	0
    3ab0:	30e05e20 	addik	r7, r0, 24096
    3ab4:	eb330050 	lwi	r25, r19, 80
    3ab8:	67160402 	bslli	r24, r22, 2
    3abc:	30a5000a 	addik	r5, r5, 10
    3ac0:	31000143 	addik	r8, r0, 323
    3ac4:	b000ffff 	imm	-1
    3ac8:	b9f4ee54 	brlid	r15, -4524	// 291c <qmalloc>
    3acc:	30c00004 	addik	r6, r0, 4
    3ad0:	d878c800 	sw	r3, r24, r25
    3ad4:	32f7ffff 	addik	r23, r23, -1
    3ad8:	be170010 	beqid	r23, 16		// 3ae8
    3adc:	32d60001 	addik	r22, r22, 1
    3ae0:	b810ffcc 	brid	-52		// 3aac
    3ae4:	e8b3002c 	lwi	r5, r19, 44
    3ae8:	e8730050 	lwi	r3, r19, 80
    3aec:	e8f3002c 	lwi	r7, r19, 44
    3af0:	10b30000 	addk	r5, r19, r0
    3af4:	e8c30000 	lwi	r6, r3, 0
    3af8:	b000ffff 	imm	-1
    3afc:	b9f4ee60 	brlid	r15, -4512	// 295c <reinit_vec>
    3b00:	30e7000a 	addik	r7, r7, 10
    3b04:	e8730050 	lwi	r3, r19, 80
    3b08:	e8f3002c 	lwi	r7, r19, 44
    3b0c:	10b30000 	addk	r5, r19, r0
    3b10:	e8c30004 	lwi	r6, r3, 4
    3b14:	b000ffff 	imm	-1
    3b18:	b9f4ee44 	brlid	r15, -4540	// 295c <reinit_vec>
    3b1c:	30e7000a 	addik	r7, r7, 10
    3b20:	e8730050 	lwi	r3, r19, 80
    3b24:	e8f3002c 	lwi	r7, r19, 44
    3b28:	10b30000 	addk	r5, r19, r0
    3b2c:	e8c30008 	lwi	r6, r3, 8
    3b30:	b000ffff 	imm	-1
    3b34:	b9f4ee28 	brlid	r15, -4568	// 295c <reinit_vec>
    3b38:	30e7000a 	addik	r7, r7, 10
    3b3c:	e9e10000 	lwi	r15, r1, 0
    3b40:	ea61001c 	lwi	r19, r1, 28
    3b44:	eac10020 	lwi	r22, r1, 32
    3b48:	eae10024 	lwi	r23, r1, 36
    3b4c:	eb010028 	lwi	r24, r1, 40
    3b50:	eb21002c 	lwi	r25, r1, 44
    3b54:	b60f0008 	rtsd	r15, 8
    3b58:	30210030 	addik	r1, r1, 48

00003b5c <integrate_predictors_init>:
    3b5c:	3021ffdc 	addik	r1, r1, -36
    3b60:	f9e10000 	swi	r15, r1, 0
    3b64:	fa61001c 	swi	r19, r1, 28
    3b68:	fac10020 	swi	r22, r1, 32
    3b6c:	e8650028 	lwi	r3, r5, 40
    3b70:	3080000d 	addik	r4, r0, 13
    3b74:	12650000 	addk	r19, r5, r0
    3b78:	48641802 	idivu	r3, r4, r3
    3b7c:	b0000000 	imm	0
    3b80:	30e05e20 	addik	r7, r0, 24096
    3b84:	eac50050 	lwi	r22, r5, 80
    3b88:	31000183 	addik	r8, r0, 387
    3b8c:	30c00004 	addik	r6, r0, 4
    3b90:	30a0001e 	addik	r5, r0, 30
    3b94:	b000ffff 	imm	-1
    3b98:	b9f4ed84 	brlid	r15, -4732	// 291c <qmalloc>
    3b9c:	f873002c 	swi	r3, r19, 44
    3ba0:	e8930050 	lwi	r4, r19, 80
    3ba4:	f8760000 	swi	r3, r22, 0
    3ba8:	10b30000 	addk	r5, r19, r0
    3bac:	e8c40000 	lwi	r6, r4, 0
    3bb0:	b000ffff 	imm	-1
    3bb4:	b9f4eda8 	brlid	r15, -4696	// 295c <reinit_vec>
    3bb8:	30e0001e 	addik	r7, r0, 30
    3bbc:	e8b30028 	lwi	r5, r19, 40
    3bc0:	b0000000 	imm	0
    3bc4:	30e05e20 	addik	r7, r0, 24096
    3bc8:	31000187 	addik	r8, r0, 391
    3bcc:	30c00004 	addik	r6, r0, 4
    3bd0:	b000ffff 	imm	-1
    3bd4:	b9f4ed48 	brlid	r15, -4792	// 291c <qmalloc>
    3bd8:	ead300e4 	lwi	r22, r19, 228
    3bdc:	e89300e4 	lwi	r4, r19, 228
    3be0:	f8760000 	swi	r3, r22, 0
    3be4:	e8f30028 	lwi	r7, r19, 40
    3be8:	10b30000 	addk	r5, r19, r0
    3bec:	b000ffff 	imm	-1
    3bf0:	b9f4ed6c 	brlid	r15, -4756	// 295c <reinit_vec>
    3bf4:	e8c40000 	lwi	r6, r4, 0
    3bf8:	e9e10000 	lwi	r15, r1, 0
    3bfc:	ea61001c 	lwi	r19, r1, 28
    3c00:	eac10020 	lwi	r22, r1, 32
    3c04:	b60f0008 	rtsd	r15, 8
    3c08:	30210024 	addik	r1, r1, 36

00003c0c <integrate_predictors>:
    3c0c:	3021ffc0 	addik	r1, r1, -64
    3c10:	f9e10000 	swi	r15, r1, 0
    3c14:	fb21002c 	swi	r25, r1, 44
    3c18:	fa61001c 	swi	r19, r1, 28
    3c1c:	fac10020 	swi	r22, r1, 32
    3c20:	fae10024 	swi	r23, r1, 36
    3c24:	fb010028 	swi	r24, r1, 40
    3c28:	fb410030 	swi	r26, r1, 48
    3c2c:	fb610034 	swi	r27, r1, 52
    3c30:	fb810038 	swi	r28, r1, 56
    3c34:	fba1003c 	swi	r29, r1, 60
    3c38:	e8850050 	lwi	r4, r5, 80
    3c3c:	e86500e4 	lwi	r3, r5, 228
    3c40:	13250000 	addk	r25, r5, r0
    3c44:	ea640000 	lwi	r19, r4, 0
    3c48:	eae5002c 	lwi	r23, r5, 44
    3c4c:	eac30000 	lwi	r22, r3, 0
    3c50:	10d30000 	addk	r6, r19, r0
    3c54:	30e0001e 	addik	r7, r0, 30
    3c58:	b000ffff 	imm	-1
    3c5c:	b9f4ed00 	brlid	r15, -4864	// 295c <reinit_vec>
    3c60:	eb050030 	lwi	r24, r5, 48
    3c64:	10b90000 	addk	r5, r25, r0
    3c68:	60f7000d 	muli	r7, r23, 13
    3c6c:	10d60000 	addk	r6, r22, r0
    3c70:	b000ffff 	imm	-1
    3c74:	b9f4ece8 	brlid	r15, -4888	// 295c <reinit_vec>
    3c78:	33200001 	addik	r25, r0, 1
    3c7c:	bc7800c0 	blei	r24, 192		// 3d3c
    3c80:	be7700b0 	bleid	r23, 176		// 3d30
    3c84:	10c00000 	addk	r6, r0, r0
    3c88:	61860034 	muli	r12, r6, 52
    3c8c:	e8730070 	lwi	r3, r19, 112
    3c90:	13566000 	addk	r26, r22, r12
    3c94:	e89a0030 	lwi	r4, r26, 48
    3c98:	eb9a002c 	lwi	r28, r26, 44
    3c9c:	e8f3006c 	lwi	r7, r19, 108
    3ca0:	5ba41900 	fmul	r29, r4, r3
    3ca4:	e97a0028 	lwi	r11, r26, 40
    3ca8:	e8b30068 	lwi	r5, r19, 104
    3cac:	e87a0024 	lwi	r3, r26, 36
    3cb0:	e9530064 	lwi	r10, r19, 100
    3cb4:	5b9c3900 	fmul	r28, r28, r7
    3cb8:	e93a0020 	lwi	r9, r26, 32
    3cbc:	e91a001c 	lwi	r8, r26, 28
    3cc0:	e8fa0018 	lwi	r7, r26, 24
    3cc4:	eb7a0014 	lwi	r27, r26, 20
    3cc8:	596b2900 	fmul	r11, r11, r5
    3ccc:	e8ba0010 	lwi	r5, r26, 16
    3cd0:	eb5a0008 	lwi	r26, r26, 8
    3cd4:	30c60001 	addik	r6, r6, 1
    3cd8:	589de000 	fadd	r4, r29, r28
    3cdc:	58635100 	fmul	r3, r3, r10
    3ce0:	e9530060 	lwi	r10, r19, 96
    3ce4:	58845800 	fadd	r4, r4, r11
    3ce8:	59295100 	fmul	r9, r9, r10
    3cec:	e9530000 	lwi	r10, r19, 0
    3cf0:	58841800 	fadd	r4, r4, r3
    3cf4:	e873005c 	lwi	r3, r19, 92
    3cf8:	59081900 	fmul	r8, r8, r3
    3cfc:	58644800 	fadd	r3, r4, r9
    3d00:	e8930058 	lwi	r4, r19, 88
    3d04:	58a5d800 	fadd	r5, r5, r27
    3d08:	58e72100 	fmul	r7, r7, r4
    3d0c:	58634000 	fadd	r3, r3, r8
    3d10:	58a55100 	fmul	r5, r5, r10
    3d14:	58633800 	fadd	r3, r3, r7
    3d18:	58632800 	fadd	r3, r3, r5
    3d1c:	5863d000 	fadd	r3, r3, r26
    3d20:	d86cb000 	sw	r3, r12, r22
    3d24:	16573001 	cmp	r18, r23, r6
    3d28:	be52ff64 	bltid	r18, -156		// 3c8c
    3d2c:	61860034 	muli	r12, r6, 52
    3d30:	33390001 	addik	r25, r25, 1
    3d34:	1659c001 	cmp	r18, r25, r24
    3d38:	bcb2ff48 	bgei	r18, -184		// 3c80
    3d3c:	be770024 	bleid	r23, 36		// 3d60
    3d40:	10600000 	addk	r3, r0, r0
    3d44:	10800000 	addk	r4, r0, r0
    3d48:	60a40034 	muli	r5, r4, 52
    3d4c:	30840001 	addik	r4, r4, 1
    3d50:	c8a5b000 	lw	r5, r5, r22
    3d54:	16572001 	cmp	r18, r23, r4
    3d58:	be52fff0 	bltid	r18, -16		// 3d48
    3d5c:	58632800 	fadd	r3, r3, r5
    3d60:	e9e10000 	lwi	r15, r1, 0
    3d64:	ea61001c 	lwi	r19, r1, 28
    3d68:	eac10020 	lwi	r22, r1, 32
    3d6c:	eae10024 	lwi	r23, r1, 36
    3d70:	eb010028 	lwi	r24, r1, 40
    3d74:	eb21002c 	lwi	r25, r1, 44
    3d78:	eb410030 	lwi	r26, r1, 48
    3d7c:	eb610034 	lwi	r27, r1, 52
    3d80:	eb810038 	lwi	r28, r1, 56
    3d84:	eba1003c 	lwi	r29, r1, 60
    3d88:	b60f0008 	rtsd	r15, 8
    3d8c:	30210040 	addik	r1, r1, 64

00003d90 <difference_predictors_init>:
    3d90:	3021ffdc 	addik	r1, r1, -36
    3d94:	f9e10000 	swi	r15, r1, 0
    3d98:	fa61001c 	swi	r19, r1, 28
    3d9c:	fac10020 	swi	r22, r1, 32
    3da0:	e8650028 	lwi	r3, r5, 40
    3da4:	3080000e 	addik	r4, r0, 14
    3da8:	12650000 	addk	r19, r5, r0
    3dac:	48641802 	idivu	r3, r4, r3
    3db0:	eac50050 	lwi	r22, r5, 80
    3db4:	b0000000 	imm	0
    3db8:	30e05e20 	addik	r7, r0, 24096
    3dbc:	310001c3 	addik	r8, r0, 451
    3dc0:	30c00004 	addik	r6, r0, 4
    3dc4:	10a30000 	addk	r5, r3, r0
    3dc8:	b000ffff 	imm	-1
    3dcc:	b9f4eb50 	brlid	r15, -5296	// 291c <qmalloc>
    3dd0:	f873002c 	swi	r3, r19, 44
    3dd4:	e8930050 	lwi	r4, r19, 80
    3dd8:	f8760000 	swi	r3, r22, 0
    3ddc:	e8f3002c 	lwi	r7, r19, 44
    3de0:	e8c40000 	lwi	r6, r4, 0
    3de4:	b000ffff 	imm	-1
    3de8:	b9f4eb74 	brlid	r15, -5260	// 295c <reinit_vec>
    3dec:	10b30000 	addk	r5, r19, r0
    3df0:	e8b30028 	lwi	r5, r19, 40
    3df4:	b0000000 	imm	0
    3df8:	30e05e20 	addik	r7, r0, 24096
    3dfc:	310001c7 	addik	r8, r0, 455
    3e00:	30c00004 	addik	r6, r0, 4
    3e04:	b000ffff 	imm	-1
    3e08:	b9f4eb14 	brlid	r15, -5356	// 291c <qmalloc>
    3e0c:	ead300e4 	lwi	r22, r19, 228
    3e10:	e89300e4 	lwi	r4, r19, 228
    3e14:	f8760000 	swi	r3, r22, 0
    3e18:	e8f30028 	lwi	r7, r19, 40
    3e1c:	10b30000 	addk	r5, r19, r0
    3e20:	b000ffff 	imm	-1
    3e24:	b9f4eb38 	brlid	r15, -5320	// 295c <reinit_vec>
    3e28:	e8c40000 	lwi	r6, r4, 0
    3e2c:	e9e10000 	lwi	r15, r1, 0
    3e30:	ea61001c 	lwi	r19, r1, 28
    3e34:	eac10020 	lwi	r22, r1, 32
    3e38:	b60f0008 	rtsd	r15, 8
    3e3c:	30210024 	addik	r1, r1, 36

00003e40 <hydro_2d_init>:
    3e40:	3021ffd0 	addik	r1, r1, -48
    3e44:	fa61001c 	swi	r19, r1, 28
    3e48:	fac10020 	swi	r22, r1, 32
    3e4c:	fae10024 	swi	r23, r1, 36
    3e50:	f9e10000 	swi	r15, r1, 0
    3e54:	fb010028 	swi	r24, r1, 40
    3e58:	fb21002c 	swi	r25, r1, 44
    3e5c:	12c50000 	addk	r22, r5, r0
    3e60:	e8a50028 	lwi	r5, r5, 40
    3e64:	30600007 	addik	r3, r0, 7
    3e68:	3260000a 	addik	r19, r0, 10
    3e6c:	48a32802 	idivu	r5, r3, r5
    3e70:	12e00000 	addk	r23, r0, r0
    3e74:	b810000c 	brid	12		// 3e80
    3e78:	f8b6002c 	swi	r5, r22, 44
    3e7c:	e8b6002c 	lwi	r5, r22, 44
    3e80:	60a50007 	muli	r5, r5, 7
    3e84:	b0000000 	imm	0
    3e88:	30e05e20 	addik	r7, r0, 24096
    3e8c:	67170402 	bslli	r24, r23, 2
    3e90:	eb3600e0 	lwi	r25, r22, 224
    3e94:	31000337 	addik	r8, r0, 823
    3e98:	b000ffff 	imm	-1
    3e9c:	b9f4ea80 	brlid	r15, -5504	// 291c <qmalloc>
    3ea0:	30c00004 	addik	r6, r0, 4
    3ea4:	d878c800 	sw	r3, r24, r25
    3ea8:	3273ffff 	addik	r19, r19, -1
    3eac:	be33ffd0 	bneid	r19, -48		// 3e7c
    3eb0:	32f70001 	addik	r23, r23, 1
    3eb4:	e8f6002c 	lwi	r7, r22, 44
    3eb8:	e87600e0 	lwi	r3, r22, 224
    3ebc:	10b60000 	addk	r5, r22, r0
    3ec0:	60e70007 	muli	r7, r7, 7
    3ec4:	b000ffff 	imm	-1
    3ec8:	b9f4ea94 	brlid	r15, -5484	// 295c <reinit_vec>
    3ecc:	e8c30008 	lwi	r6, r3, 8
    3ed0:	e8f6002c 	lwi	r7, r22, 44
    3ed4:	e87600e0 	lwi	r3, r22, 224
    3ed8:	10b60000 	addk	r5, r22, r0
    3edc:	60e70007 	muli	r7, r7, 7
    3ee0:	b000ffff 	imm	-1
    3ee4:	b9f4ea78 	brlid	r15, -5512	// 295c <reinit_vec>
    3ee8:	e8c3000c 	lwi	r6, r3, 12
    3eec:	e8f6002c 	lwi	r7, r22, 44
    3ef0:	e87600e0 	lwi	r3, r22, 224
    3ef4:	10b60000 	addk	r5, r22, r0
    3ef8:	60e70007 	muli	r7, r7, 7
    3efc:	b000ffff 	imm	-1
    3f00:	b9f4ea5c 	brlid	r15, -5540	// 295c <reinit_vec>
    3f04:	e8c30010 	lwi	r6, r3, 16
    3f08:	e8f6002c 	lwi	r7, r22, 44
    3f0c:	e87600e0 	lwi	r3, r22, 224
    3f10:	10b60000 	addk	r5, r22, r0
    3f14:	60e70007 	muli	r7, r7, 7
    3f18:	b000ffff 	imm	-1
    3f1c:	b9f4ea40 	brlid	r15, -5568	// 295c <reinit_vec>
    3f20:	e8c30014 	lwi	r6, r3, 20
    3f24:	e8f6002c 	lwi	r7, r22, 44
    3f28:	e87600e0 	lwi	r3, r22, 224
    3f2c:	10b60000 	addk	r5, r22, r0
    3f30:	60e70007 	muli	r7, r7, 7
    3f34:	b000ffff 	imm	-1
    3f38:	b9f4ea24 	brlid	r15, -5596	// 295c <reinit_vec>
    3f3c:	e8c30020 	lwi	r6, r3, 32
    3f40:	e896002c 	lwi	r4, r22, 44
    3f44:	60840007 	muli	r4, r4, 7
    3f48:	be04003c 	beqid	r4, 60		// 3f84
    3f4c:	e9e10000 	lwi	r15, r1, 0
    3f50:	e87600e0 	lwi	r3, r22, 224
    3f54:	e8c30018 	lwi	r6, r3, 24
    3f58:	e8a3001c 	lwi	r5, r3, 28
    3f5c:	10730000 	addk	r3, r19, r0
    3f60:	64630402 	bslli	r3, r3, 2
    3f64:	10e00000 	addk	r7, r0, r0
    3f68:	d8e33000 	sw	r7, r3, r6
    3f6c:	32730001 	addik	r19, r19, 1
    3f70:	d8e32800 	sw	r7, r3, r5
    3f74:	16449803 	cmpu	r18, r4, r19
    3f78:	be52ffe8 	bltid	r18, -24		// 3f60
    3f7c:	10730000 	addk	r3, r19, r0
    3f80:	e9e10000 	lwi	r15, r1, 0
    3f84:	ea61001c 	lwi	r19, r1, 28
    3f88:	eac10020 	lwi	r22, r1, 32
    3f8c:	eae10024 	lwi	r23, r1, 36
    3f90:	eb010028 	lwi	r24, r1, 40
    3f94:	eb21002c 	lwi	r25, r1, 44
    3f98:	b60f0008 	rtsd	r15, 8
    3f9c:	30210030 	addik	r1, r1, 48

00003fa0 <lin_recurrence_init>:
    3fa0:	3021ffd0 	addik	r1, r1, -48
    3fa4:	fa61001c 	swi	r19, r1, 28
    3fa8:	fac10020 	swi	r22, r1, 32
    3fac:	fae10024 	swi	r23, r1, 36
    3fb0:	f9e10000 	swi	r15, r1, 0
    3fb4:	fb010028 	swi	r24, r1, 40
    3fb8:	fb21002c 	swi	r25, r1, 44
    3fbc:	12650000 	addk	r19, r5, r0
    3fc0:	e8a50028 	lwi	r5, r5, 40
    3fc4:	32e00003 	addik	r23, r0, 3
    3fc8:	12c00000 	addk	r22, r0, r0
    3fcc:	f8b3002c 	swi	r5, r19, 44
    3fd0:	b0000000 	imm	0
    3fd4:	30e05e20 	addik	r7, r0, 24096
    3fd8:	eb330050 	lwi	r25, r19, 80
    3fdc:	67160402 	bslli	r24, r22, 2
    3fe0:	310003be 	addik	r8, r0, 958
    3fe4:	b000ffff 	imm	-1
    3fe8:	b9f4e934 	brlid	r15, -5836	// 291c <qmalloc>
    3fec:	30c00004 	addik	r6, r0, 4
    3ff0:	d878c800 	sw	r3, r24, r25
    3ff4:	32f7ffff 	addik	r23, r23, -1
    3ff8:	be170010 	beqid	r23, 16		// 4008
    3ffc:	32d60001 	addik	r22, r22, 1
    4000:	b810ffd0 	brid	-48		// 3fd0
    4004:	e8b3002c 	lwi	r5, r19, 44
    4008:	e8730050 	lwi	r3, r19, 80
    400c:	e8f3002c 	lwi	r7, r19, 44
    4010:	10b30000 	addk	r5, r19, r0
    4014:	b000ffff 	imm	-1
    4018:	b9f4e944 	brlid	r15, -5820	// 295c <reinit_vec>
    401c:	e8c30000 	lwi	r6, r3, 0
    4020:	e8730050 	lwi	r3, r19, 80
    4024:	e8f3002c 	lwi	r7, r19, 44
    4028:	10b30000 	addk	r5, r19, r0
    402c:	b000ffff 	imm	-1
    4030:	b9f4e92c 	brlid	r15, -5844	// 295c <reinit_vec>
    4034:	e8c30004 	lwi	r6, r3, 4
    4038:	e9e10000 	lwi	r15, r1, 0
    403c:	ea61001c 	lwi	r19, r1, 28
    4040:	eac10020 	lwi	r22, r1, 32
    4044:	eae10024 	lwi	r23, r1, 36
    4048:	eb010028 	lwi	r24, r1, 40
    404c:	eb21002c 	lwi	r25, r1, 44
    4050:	b60f0008 	rtsd	r15, 8
    4054:	30210030 	addik	r1, r1, 48

00004058 <tri_diagonal_init>:
    4058:	3021ffd4 	addik	r1, r1, -44
    405c:	fa61001c 	swi	r19, r1, 28
    4060:	fac10020 	swi	r22, r1, 32
    4064:	fae10024 	swi	r23, r1, 36
    4068:	f9e10000 	swi	r15, r1, 0
    406c:	fb010028 	swi	r24, r1, 40
    4070:	12650000 	addk	r19, r5, r0
    4074:	e8a50028 	lwi	r5, r5, 40
    4078:	32e00003 	addik	r23, r0, 3
    407c:	12c00000 	addk	r22, r0, r0
    4080:	f8b3002c 	swi	r5, r19, 44
    4084:	b0000000 	imm	0
    4088:	30e05e20 	addik	r7, r0, 24096
    408c:	30c00004 	addik	r6, r0, 4
    4090:	310004a3 	addik	r8, r0, 1187
    4094:	b000ffff 	imm	-1
    4098:	b9f4e884 	brlid	r15, -6012	// 291c <qmalloc>
    409c:	eb130050 	lwi	r24, r19, 80
    40a0:	64960402 	bslli	r4, r22, 2
    40a4:	e8b30050 	lwi	r5, r19, 80
    40a8:	d864c000 	sw	r3, r4, r24
    40ac:	e8f3002c 	lwi	r7, r19, 44
    40b0:	c8c42800 	lw	r6, r4, r5
    40b4:	10b30000 	addk	r5, r19, r0
    40b8:	32f7ffff 	addik	r23, r23, -1
    40bc:	b000ffff 	imm	-1
    40c0:	b9f4e89c 	brlid	r15, -5988	// 295c <reinit_vec>
    40c4:	32d60001 	addik	r22, r22, 1
    40c8:	be170010 	beqid	r23, 16		// 40d8
    40cc:	e9e10000 	lwi	r15, r1, 0
    40d0:	b810ffb4 	brid	-76		// 4084
    40d4:	e8b3002c 	lwi	r5, r19, 44
    40d8:	ea61001c 	lwi	r19, r1, 28
    40dc:	eac10020 	lwi	r22, r1, 32
    40e0:	eae10024 	lwi	r23, r1, 36
    40e4:	eb010028 	lwi	r24, r1, 40
    40e8:	b60f0008 	rtsd	r15, 8
    40ec:	3021002c 	addik	r1, r1, 44

000040f0 <hydro_fragment_fini>:
    40f0:	3021ffd8 	addik	r1, r1, -40
    40f4:	fae10024 	swi	r23, r1, 36
    40f8:	12e50000 	addk	r23, r5, r0
    40fc:	fa61001c 	swi	r19, r1, 28
    4100:	fac10020 	swi	r22, r1, 32
    4104:	f9e10000 	swi	r15, r1, 0
    4108:	32c00004 	addik	r22, r0, 4
    410c:	12600000 	addk	r19, r0, r0
    4110:	e8970050 	lwi	r4, r23, 80
    4114:	64730402 	bslli	r3, r19, 2
    4118:	c8a32000 	lw	r5, r3, r4
    411c:	32d6ffff 	addik	r22, r22, -1
    4120:	b000ffff 	imm	-1
    4124:	b9f4d528 	brlid	r15, -10968	// 164c <free>
    4128:	32730001 	addik	r19, r19, 1
    412c:	be36ffe4 	bneid	r22, -28		// 4110
    4130:	e9e10000 	lwi	r15, r1, 0
    4134:	ea61001c 	lwi	r19, r1, 28
    4138:	eac10020 	lwi	r22, r1, 32
    413c:	eae10024 	lwi	r23, r1, 36
    4140:	b60f0008 	rtsd	r15, 8
    4144:	30210028 	addik	r1, r1, 40

00004148 <state_fragment_fini>:
    4148:	3021ffe4 	addik	r1, r1, -28
    414c:	f9e10000 	swi	r15, r1, 0
    4150:	b000ffff 	imm	-1
    4154:	b9f4ff9c 	brlid	r15, -100	// 40f0 <hydro_fragment_fini>
    4158:	80000000 	or	r0, r0, r0
    415c:	e9e10000 	lwi	r15, r1, 0
    4160:	b60f0008 	rtsd	r15, 8
    4164:	3021001c 	addik	r1, r1, 28

00004168 <cholesky_fini>:
    4168:	3021ffe0 	addik	r1, r1, -32
    416c:	f9e10000 	swi	r15, r1, 0
    4170:	fa61001c 	swi	r19, r1, 28
    4174:	e8650050 	lwi	r3, r5, 80
    4178:	12650000 	addk	r19, r5, r0
    417c:	b000ffff 	imm	-1
    4180:	b9f4d4cc 	brlid	r15, -11060	// 164c <free>
    4184:	e8a30000 	lwi	r5, r3, 0
    4188:	e8730050 	lwi	r3, r19, 80
    418c:	b000ffff 	imm	-1
    4190:	b9f4d4bc 	brlid	r15, -11076	// 164c <free>
    4194:	e8a30004 	lwi	r5, r3, 4
    4198:	e9e10000 	lwi	r15, r1, 0
    419c:	ea61001c 	lwi	r19, r1, 28
    41a0:	b60f0008 	rtsd	r15, 8
    41a4:	30210020 	addik	r1, r1, 32

000041a8 <inner_product_fini>:
    41a8:	3021ffe4 	addik	r1, r1, -28
    41ac:	f9e10000 	swi	r15, r1, 0
    41b0:	b000ffff 	imm	-1
    41b4:	b9f4ffb4 	brlid	r15, -76	// 4168 <cholesky_fini>
    41b8:	80000000 	or	r0, r0, r0
    41bc:	e9e10000 	lwi	r15, r1, 0
    41c0:	b60f0008 	rtsd	r15, 8
    41c4:	3021001c 	addik	r1, r1, 28

000041c8 <linear_recurrence_fini>:
    41c8:	3021ffe0 	addik	r1, r1, -32
    41cc:	f9e10000 	swi	r15, r1, 0
    41d0:	fa61001c 	swi	r19, r1, 28
    41d4:	e8650050 	lwi	r3, r5, 80
    41d8:	12650000 	addk	r19, r5, r0
    41dc:	b000ffff 	imm	-1
    41e0:	b9f4d46c 	brlid	r15, -11156	// 164c <free>
    41e4:	e8a30000 	lwi	r5, r3, 0
    41e8:	e87300e0 	lwi	r3, r19, 224
    41ec:	b000ffff 	imm	-1
    41f0:	b9f4d45c 	brlid	r15, -11172	// 164c <free>
    41f4:	e8a30000 	lwi	r5, r3, 0
    41f8:	e9e10000 	lwi	r15, r1, 0
    41fc:	ea61001c 	lwi	r19, r1, 28
    4200:	b60f0008 	rtsd	r15, 8
    4204:	30210020 	addik	r1, r1, 32

00004208 <integrate_predictors_fini>:
    4208:	3021ffe0 	addik	r1, r1, -32
    420c:	f9e10000 	swi	r15, r1, 0
    4210:	fa61001c 	swi	r19, r1, 28
    4214:	e8650050 	lwi	r3, r5, 80
    4218:	12650000 	addk	r19, r5, r0
    421c:	b000ffff 	imm	-1
    4220:	b9f4d42c 	brlid	r15, -11220	// 164c <free>
    4224:	e8a30000 	lwi	r5, r3, 0
    4228:	e87300e4 	lwi	r3, r19, 228
    422c:	b000ffff 	imm	-1
    4230:	b9f4d41c 	brlid	r15, -11236	// 164c <free>
    4234:	e8a30000 	lwi	r5, r3, 0
    4238:	e9e10000 	lwi	r15, r1, 0
    423c:	ea61001c 	lwi	r19, r1, 28
    4240:	b60f0008 	rtsd	r15, 8
    4244:	30210020 	addik	r1, r1, 32

00004248 <difference_predictors_fini>:
    4248:	3021ffe4 	addik	r1, r1, -28
    424c:	f9e10000 	swi	r15, r1, 0
    4250:	b000ffff 	imm	-1
    4254:	b9f4ffb4 	brlid	r15, -76	// 4208 <integrate_predictors_fini>
    4258:	80000000 	or	r0, r0, r0
    425c:	e9e10000 	lwi	r15, r1, 0
    4260:	b60f0008 	rtsd	r15, 8
    4264:	3021001c 	addik	r1, r1, 28

00004268 <pic_2d_fini>:
    4268:	3021ffd8 	addik	r1, r1, -40
    426c:	fae10024 	swi	r23, r1, 36
    4270:	12e50000 	addk	r23, r5, r0
    4274:	fa61001c 	swi	r19, r1, 28
    4278:	fac10020 	swi	r22, r1, 32
    427c:	f9e10000 	swi	r15, r1, 0
    4280:	32c00006 	addik	r22, r0, 6
    4284:	12600000 	addk	r19, r0, r0
    4288:	e8970050 	lwi	r4, r23, 80
    428c:	64730402 	bslli	r3, r19, 2
    4290:	c8a32000 	lw	r5, r3, r4
    4294:	32d6ffff 	addik	r22, r22, -1
    4298:	b000ffff 	imm	-1
    429c:	b9f4d3b0 	brlid	r15, -11344	// 164c <free>
    42a0:	32730001 	addik	r19, r19, 1
    42a4:	bc36ffe4 	bnei	r22, -28		// 4288
    42a8:	e8770054 	lwi	r3, r23, 84
    42ac:	b000ffff 	imm	-1
    42b0:	b9f4d39c 	brlid	r15, -11364	// 164c <free>
    42b4:	e8a30000 	lwi	r5, r3, 0
    42b8:	e8770054 	lwi	r3, r23, 84
    42bc:	b000ffff 	imm	-1
    42c0:	b9f4d38c 	brlid	r15, -11380	// 164c <free>
    42c4:	e8a30004 	lwi	r5, r3, 4
    42c8:	e87700e0 	lwi	r3, r23, 224
    42cc:	b000ffff 	imm	-1
    42d0:	b9f4d37c 	brlid	r15, -11396	// 164c <free>
    42d4:	e8a30004 	lwi	r5, r3, 4
    42d8:	e87700e0 	lwi	r3, r23, 224
    42dc:	b000ffff 	imm	-1
    42e0:	b9f4d36c 	brlid	r15, -11412	// 164c <free>
    42e4:	e8a30008 	lwi	r5, r3, 8
    42e8:	e87700e0 	lwi	r3, r23, 224
    42ec:	b000ffff 	imm	-1
    42f0:	b9f4d35c 	brlid	r15, -11428	// 164c <free>
    42f4:	e8a3000c 	lwi	r5, r3, 12
    42f8:	e9e10000 	lwi	r15, r1, 0
    42fc:	ea61001c 	lwi	r19, r1, 28
    4300:	eac10020 	lwi	r22, r1, 32
    4304:	eae10024 	lwi	r23, r1, 36
    4308:	b60f0008 	rtsd	r15, 8
    430c:	30210028 	addik	r1, r1, 40

00004310 <pic_1d_fini>:
    4310:	3021ffd8 	addik	r1, r1, -40
    4314:	fae10024 	swi	r23, r1, 36
    4318:	12e50000 	addk	r23, r5, r0
    431c:	fa61001c 	swi	r19, r1, 28
    4320:	fac10020 	swi	r22, r1, 32
    4324:	f9e10000 	swi	r15, r1, 0
    4328:	32c0000a 	addik	r22, r0, 10
    432c:	12600000 	addk	r19, r0, r0
    4330:	e8970050 	lwi	r4, r23, 80
    4334:	64730402 	bslli	r3, r19, 2
    4338:	c8a32000 	lw	r5, r3, r4
    433c:	32d6ffff 	addik	r22, r22, -1
    4340:	b000ffff 	imm	-1
    4344:	b9f4d308 	brlid	r15, -11512	// 164c <free>
    4348:	32730001 	addik	r19, r19, 1
    434c:	bc36ffe4 	bnei	r22, -28		// 4330
    4350:	e8770054 	lwi	r3, r23, 84
    4354:	b000ffff 	imm	-1
    4358:	b9f4d2f4 	brlid	r15, -11532	// 164c <free>
    435c:	e8a30000 	lwi	r5, r3, 0
    4360:	e8770054 	lwi	r3, r23, 84
    4364:	b000ffff 	imm	-1
    4368:	b9f4d2e4 	brlid	r15, -11548	// 164c <free>
    436c:	e8a30004 	lwi	r5, r3, 4
    4370:	e9e10000 	lwi	r15, r1, 0
    4374:	ea61001c 	lwi	r19, r1, 28
    4378:	eac10020 	lwi	r22, r1, 32
    437c:	eae10024 	lwi	r23, r1, 36
    4380:	b60f0008 	rtsd	r15, 8
    4384:	30210028 	addik	r1, r1, 40

00004388 <hydro_2d_fini>:
    4388:	3021ffd8 	addik	r1, r1, -40
    438c:	fae10024 	swi	r23, r1, 36
    4390:	12e50000 	addk	r23, r5, r0
    4394:	fa61001c 	swi	r19, r1, 28
    4398:	fac10020 	swi	r22, r1, 32
    439c:	f9e10000 	swi	r15, r1, 0
    43a0:	32c0000a 	addik	r22, r0, 10
    43a4:	12600000 	addk	r19, r0, r0
    43a8:	e89700e0 	lwi	r4, r23, 224
    43ac:	64730402 	bslli	r3, r19, 2
    43b0:	c8a32000 	lw	r5, r3, r4
    43b4:	32d6ffff 	addik	r22, r22, -1
    43b8:	b000ffff 	imm	-1
    43bc:	b9f4d290 	brlid	r15, -11632	// 164c <free>
    43c0:	32730001 	addik	r19, r19, 1
    43c4:	be36ffe4 	bneid	r22, -28		// 43a8
    43c8:	e9e10000 	lwi	r15, r1, 0
    43cc:	ea61001c 	lwi	r19, r1, 28
    43d0:	eac10020 	lwi	r22, r1, 32
    43d4:	eae10024 	lwi	r23, r1, 36
    43d8:	b60f0008 	rtsd	r15, 8
    43dc:	30210028 	addik	r1, r1, 40

000043e0 <lin_recurrence_fini>:
    43e0:	3021ffe0 	addik	r1, r1, -32
    43e4:	f9e10000 	swi	r15, r1, 0
    43e8:	fa61001c 	swi	r19, r1, 28
    43ec:	e8650050 	lwi	r3, r5, 80
    43f0:	12650000 	addk	r19, r5, r0
    43f4:	b000ffff 	imm	-1
    43f8:	b9f4d254 	brlid	r15, -11692	// 164c <free>
    43fc:	e8a30000 	lwi	r5, r3, 0
    4400:	e8730050 	lwi	r3, r19, 80
    4404:	b000ffff 	imm	-1
    4408:	b9f4d244 	brlid	r15, -11708	// 164c <free>
    440c:	e8a30004 	lwi	r5, r3, 4
    4410:	e8730050 	lwi	r3, r19, 80
    4414:	b000ffff 	imm	-1
    4418:	b9f4d234 	brlid	r15, -11724	// 164c <free>
    441c:	e8a30008 	lwi	r5, r3, 8
    4420:	e9e10000 	lwi	r15, r1, 0
    4424:	ea61001c 	lwi	r19, r1, 28
    4428:	b60f0008 	rtsd	r15, 8
    442c:	30210020 	addik	r1, r1, 32

00004430 <tri_diagonal_fini>:
    4430:	3021ffe4 	addik	r1, r1, -28
    4434:	f9e10000 	swi	r15, r1, 0
    4438:	b000ffff 	imm	-1
    443c:	b9f4ffa4 	brlid	r15, -92	// 43e0 <lin_recurrence_fini>
    4440:	80000000 	or	r0, r0, r0
    4444:	e9e10000 	lwi	r15, r1, 0
    4448:	b60f0008 	rtsd	r15, 8
    444c:	3021001c 	addik	r1, r1, 28

00004450 <matmul_fini>:
    4450:	3021ffe0 	addik	r1, r1, -32
    4454:	f9e10000 	swi	r15, r1, 0
    4458:	fa61001c 	swi	r19, r1, 28
    445c:	e86500e0 	lwi	r3, r5, 224
    4460:	12650000 	addk	r19, r5, r0
    4464:	b000ffff 	imm	-1
    4468:	b9f4d1e4 	brlid	r15, -11804	// 164c <free>
    446c:	e8a30000 	lwi	r5, r3, 0
    4470:	e87300e0 	lwi	r3, r19, 224
    4474:	b000ffff 	imm	-1
    4478:	b9f4d1d4 	brlid	r15, -11820	// 164c <free>
    447c:	e8a30004 	lwi	r5, r3, 4
    4480:	e87300e0 	lwi	r3, r19, 224
    4484:	b000ffff 	imm	-1
    4488:	b9f4d1c4 	brlid	r15, -11836	// 164c <free>
    448c:	e8a30008 	lwi	r5, r3, 8
    4490:	e9e10000 	lwi	r15, r1, 0
    4494:	ea61001c 	lwi	r19, r1, 28
    4498:	b60f0008 	rtsd	r15, 8
    449c:	30210020 	addik	r1, r1, 32

000044a0 <hydro_2d_implicit_fini>:
    44a0:	3021ffd8 	addik	r1, r1, -40
    44a4:	fae10024 	swi	r23, r1, 36
    44a8:	12e50000 	addk	r23, r5, r0
    44ac:	fa61001c 	swi	r19, r1, 28
    44b0:	fac10020 	swi	r22, r1, 32
    44b4:	f9e10000 	swi	r15, r1, 0
    44b8:	32c00006 	addik	r22, r0, 6
    44bc:	12600000 	addk	r19, r0, r0
    44c0:	e89700e0 	lwi	r4, r23, 224
    44c4:	64730402 	bslli	r3, r19, 2
    44c8:	c8a32000 	lw	r5, r3, r4
    44cc:	32d6ffff 	addik	r22, r22, -1
    44d0:	b000ffff 	imm	-1
    44d4:	b9f4d178 	brlid	r15, -11912	// 164c <free>
    44d8:	32730001 	addik	r19, r19, 1
    44dc:	be36ffe4 	bneid	r22, -28		// 44c0
    44e0:	e9e10000 	lwi	r15, r1, 0
    44e4:	ea61001c 	lwi	r19, r1, 28
    44e8:	eac10020 	lwi	r22, r1, 32
    44ec:	eae10024 	lwi	r23, r1, 36
    44f0:	b60f0008 	rtsd	r15, 8
    44f4:	30210028 	addik	r1, r1, 40

000044f8 <pic_2d_init>:
    44f8:	3021ffd0 	addik	r1, r1, -48
    44fc:	f9e10000 	swi	r15, r1, 0
    4500:	fa61001c 	swi	r19, r1, 28
    4504:	fac10020 	swi	r22, r1, 32
    4508:	fb010028 	swi	r24, r1, 40
    450c:	fb21002c 	swi	r25, r1, 44
    4510:	fae10024 	swi	r23, r1, 36
    4514:	e8650028 	lwi	r3, r5, 40
    4518:	12c50000 	addk	r22, r5, r0
    451c:	b0000000 	imm	0
    4520:	30e05e20 	addik	r7, r0, 24096
    4524:	3100021e 	addik	r8, r0, 542
    4528:	f865002c 	swi	r3, r5, 44
    452c:	30c00004 	addik	r6, r0, 4
    4530:	30a00064 	addik	r5, r0, 100
    4534:	b000ffff 	imm	-1
    4538:	b9f4e3e4 	brlid	r15, -7196	// 291c <qmalloc>
    453c:	eaf60050 	lwi	r23, r22, 80
    4540:	b0000000 	imm	0
    4544:	30e05e20 	addik	r7, r0, 24096
    4548:	3100021f 	addik	r8, r0, 543
    454c:	ea760050 	lwi	r19, r22, 80
    4550:	30c00004 	addik	r6, r0, 4
    4554:	30a00064 	addik	r5, r0, 100
    4558:	b000ffff 	imm	-1
    455c:	b9f4e3c0 	brlid	r15, -7232	// 291c <qmalloc>
    4560:	f8770000 	swi	r3, r23, 0
    4564:	e8960050 	lwi	r4, r22, 80
    4568:	f8730004 	swi	r3, r19, 4
    456c:	10b60000 	addk	r5, r22, r0
    4570:	e8c40000 	lwi	r6, r4, 0
    4574:	30e00064 	addik	r7, r0, 100
    4578:	b000ffff 	imm	-1
    457c:	b9f4e3e0 	brlid	r15, -7200	// 295c <reinit_vec>
    4580:	32600001 	addik	r19, r0, 1
    4584:	e8760050 	lwi	r3, r22, 80
    4588:	10b60000 	addk	r5, r22, r0
    458c:	30e00064 	addik	r7, r0, 100
    4590:	e8c30004 	lwi	r6, r3, 4
    4594:	b000ffff 	imm	-1
    4598:	b9f4e3c4 	brlid	r15, -7228	// 295c <reinit_vec>
    459c:	32e00003 	addik	r23, r0, 3
    45a0:	b0000000 	imm	0
    45a4:	30e05e20 	addik	r7, r0, 24096
    45a8:	31000224 	addik	r8, r0, 548
    45ac:	30c00004 	addik	r6, r0, 4
    45b0:	30a00064 	addik	r5, r0, 100
    45b4:	b000ffff 	imm	-1
    45b8:	b9f4e364 	brlid	r15, -7324	// 291c <qmalloc>
    45bc:	eb360054 	lwi	r25, r22, 84
    45c0:	b0000000 	imm	0
    45c4:	30e05e20 	addik	r7, r0, 24096
    45c8:	eb160054 	lwi	r24, r22, 84
    45cc:	31000225 	addik	r8, r0, 549
    45d0:	30c00004 	addik	r6, r0, 4
    45d4:	30a00064 	addik	r5, r0, 100
    45d8:	b000ffff 	imm	-1
    45dc:	b9f4e340 	brlid	r15, -7360	// 291c <qmalloc>
    45e0:	f8790000 	swi	r3, r25, 0
    45e4:	e8960054 	lwi	r4, r22, 84
    45e8:	f8780004 	swi	r3, r24, 4
    45ec:	10b60000 	addk	r5, r22, r0
    45f0:	e8c40000 	lwi	r6, r4, 0
    45f4:	11130000 	addk	r8, r19, r0
    45f8:	b000ffff 	imm	-1
    45fc:	b9f4e464 	brlid	r15, -7068	// 2a60 <reinit_ivec>
    4600:	30e00064 	addik	r7, r0, 100
    4604:	e8760054 	lwi	r3, r22, 84
    4608:	10b60000 	addk	r5, r22, r0
    460c:	11130000 	addk	r8, r19, r0
    4610:	e8c30004 	lwi	r6, r3, 4
    4614:	b000ffff 	imm	-1
    4618:	b9f4e448 	brlid	r15, -7096	// 2a60 <reinit_ivec>
    461c:	30e00064 	addik	r7, r0, 100
    4620:	b0000000 	imm	0
    4624:	30e05e20 	addik	r7, r0, 24096
    4628:	3100022d 	addik	r8, r0, 557
    462c:	30c00004 	addik	r6, r0, 4
    4630:	30a01004 	addik	r5, r0, 4100
    4634:	b000ffff 	imm	-1
    4638:	b9f4e2e4 	brlid	r15, -7452	// 291c <qmalloc>
    463c:	eb1600e0 	lwi	r24, r22, 224
    4640:	64930402 	bslli	r4, r19, 2
    4644:	e8d600e0 	lwi	r6, r22, 224
    4648:	d864c000 	sw	r3, r4, r24
    464c:	10b60000 	addk	r5, r22, r0
    4650:	c8c43000 	lw	r6, r4, r6
    4654:	30e01004 	addik	r7, r0, 4100
    4658:	b000ffff 	imm	-1
    465c:	b9f4e300 	brlid	r15, -7424	// 295c <reinit_vec>
    4660:	32f7ffff 	addik	r23, r23, -1
    4664:	be37ffbc 	bneid	r23, -68		// 4620
    4668:	32730001 	addik	r19, r19, 1
    466c:	32600004 	addik	r19, r0, 4
    4670:	32e00002 	addik	r23, r0, 2
    4674:	b0000000 	imm	0
    4678:	30e05e20 	addik	r7, r0, 24096
    467c:	e8b6002c 	lwi	r5, r22, 44
    4680:	eb360050 	lwi	r25, r22, 80
    4684:	67170402 	bslli	r24, r23, 2
    4688:	31000233 	addik	r8, r0, 563
    468c:	b000ffff 	imm	-1
    4690:	b9f4e28c 	brlid	r15, -7540	// 291c <qmalloc>
    4694:	30c00004 	addik	r6, r0, 4
    4698:	d878c800 	sw	r3, r24, r25
    469c:	3273ffff 	addik	r19, r19, -1
    46a0:	be33ffd4 	bneid	r19, -44		// 4674
    46a4:	32f70001 	addik	r23, r23, 1
    46a8:	e8d6002c 	lwi	r6, r22, 44
    46ac:	be060058 	beqid	r6, 88		// 4704
    46b0:	e9e10000 	lwi	r15, r1, 0
    46b4:	e8760050 	lwi	r3, r22, 80
    46b8:	10930000 	addk	r4, r19, r0
    46bc:	b0003f00 	imm	16128
    46c0:	30a00000 	addik	r5, r0, 0
    46c4:	e9430008 	lwi	r10, r3, 8
    46c8:	e923000c 	lwi	r9, r3, 12
    46cc:	e9030010 	lwi	r8, r3, 16
    46d0:	e8e30014 	lwi	r7, r3, 20
    46d4:	10730000 	addk	r3, r19, r0
    46d8:	64630402 	bslli	r3, r3, 2
    46dc:	11600000 	addk	r11, r0, r0
    46e0:	d9635000 	sw	r11, r3, r10
    46e4:	d8a34800 	sw	r5, r3, r9
    46e8:	d9634000 	sw	r11, r3, r8
    46ec:	30840001 	addik	r4, r4, 1
    46f0:	d8a33800 	sw	r5, r3, r7
    46f4:	16462003 	cmpu	r18, r6, r4
    46f8:	be52ffe0 	bltid	r18, -32		// 46d8
    46fc:	10640000 	addk	r3, r4, r0
    4700:	e9e10000 	lwi	r15, r1, 0
    4704:	ea61001c 	lwi	r19, r1, 28
    4708:	eac10020 	lwi	r22, r1, 32
    470c:	eae10024 	lwi	r23, r1, 36
    4710:	eb010028 	lwi	r24, r1, 40
    4714:	eb21002c 	lwi	r25, r1, 44
    4718:	b60f0008 	rtsd	r15, 8
    471c:	30210030 	addik	r1, r1, 48

00004720 <matmul_init>:
    4720:	3021ffd8 	addik	r1, r1, -40
    4724:	f9e10000 	swi	r15, r1, 0
    4728:	fa61001c 	swi	r19, r1, 28
    472c:	fae10024 	swi	r23, r1, 36
    4730:	fac10020 	swi	r22, r1, 32
    4734:	12650000 	addk	r19, r5, r0
    4738:	e8a50028 	lwi	r5, r5, 40
    473c:	30600019 	addik	r3, r0, 25
    4740:	b0000000 	imm	0
    4744:	30e05e20 	addik	r7, r0, 24096
    4748:	48632802 	idivu	r3, r3, r5
    474c:	3100040c 	addik	r8, r0, 1036
    4750:	30c00004 	addik	r6, r0, 4
    4754:	ead300e0 	lwi	r22, r19, 224
    4758:	b000ffff 	imm	-1
    475c:	b9f4e1c0 	brlid	r15, -7744	// 291c <qmalloc>
    4760:	f873002c 	swi	r3, r19, 44
    4764:	e8b30028 	lwi	r5, r19, 40
    4768:	b0000000 	imm	0
    476c:	30e05e20 	addik	r7, r0, 24096
    4770:	3100040d 	addik	r8, r0, 1037
    4774:	30c00004 	addik	r6, r0, 4
    4778:	f8760000 	swi	r3, r22, 0
    477c:	b000ffff 	imm	-1
    4780:	b9f4e19c 	brlid	r15, -7780	// 291c <qmalloc>
    4784:	eaf300e0 	lwi	r23, r19, 224
    4788:	e8930028 	lwi	r4, r19, 40
    478c:	e8b30030 	lwi	r5, r19, 48
    4790:	b0000000 	imm	0
    4794:	30e05e20 	addik	r7, r0, 24096
    4798:	3100040e 	addik	r8, r0, 1038
    479c:	ead300e0 	lwi	r22, r19, 224
    47a0:	10a52000 	addk	r5, r5, r4
    47a4:	30c00004 	addik	r6, r0, 4
    47a8:	b000ffff 	imm	-1
    47ac:	b9f4e170 	brlid	r15, -7824	// 291c <qmalloc>
    47b0:	f8770004 	swi	r3, r23, 4
    47b4:	e89300e0 	lwi	r4, r19, 224
    47b8:	f8760008 	swi	r3, r22, 8
    47bc:	e8d30028 	lwi	r6, r19, 40
    47c0:	b000ffff 	imm	-1
    47c4:	b9f4e324 	brlid	r15, -7388	// 2ae8 <zero_vec>
    47c8:	e8a40000 	lwi	r5, r4, 0
    47cc:	e87300e0 	lwi	r3, r19, 224
    47d0:	e8f30028 	lwi	r7, r19, 40
    47d4:	10b30000 	addk	r5, r19, r0
    47d8:	b000ffff 	imm	-1
    47dc:	b9f4e180 	brlid	r15, -7808	// 295c <reinit_vec>
    47e0:	e8c30004 	lwi	r6, r3, 4
    47e4:	e89300e0 	lwi	r4, r19, 224
    47e8:	e8f30030 	lwi	r7, r19, 48
    47ec:	e8730028 	lwi	r3, r19, 40
    47f0:	10b30000 	addk	r5, r19, r0
    47f4:	e8c40008 	lwi	r6, r4, 8
    47f8:	b000ffff 	imm	-1
    47fc:	b9f4e160 	brlid	r15, -7840	// 295c <reinit_vec>
    4800:	10e71800 	addk	r7, r7, r3
    4804:	e9e10000 	lwi	r15, r1, 0
    4808:	ea61001c 	lwi	r19, r1, 28
    480c:	eac10020 	lwi	r22, r1, 32
    4810:	eae10024 	lwi	r23, r1, 36
    4814:	b60f0008 	rtsd	r15, 8
    4818:	30210028 	addik	r1, r1, 40

0000481c <hydro_2d_implicit_init>:
    481c:	3021ffd4 	addik	r1, r1, -44
    4820:	fa61001c 	swi	r19, r1, 28
    4824:	fac10020 	swi	r22, r1, 32
    4828:	fae10024 	swi	r23, r1, 36
    482c:	f9e10000 	swi	r15, r1, 0
    4830:	fb010028 	swi	r24, r1, 40
    4834:	12650000 	addk	r19, r5, r0
    4838:	e8a50028 	lwi	r5, r5, 40
    483c:	30600006 	addik	r3, r0, 6
    4840:	b0000000 	imm	0
    4844:	30e05e20 	addik	r7, r0, 24096
    4848:	48632802 	idivu	r3, r3, r5
    484c:	30c00004 	addik	r6, r0, 4
    4850:	31000453 	addik	r8, r0, 1107
    4854:	eb1300e0 	lwi	r24, r19, 224
    4858:	32e00005 	addik	r23, r0, 5
    485c:	32c00001 	addik	r22, r0, 1
    4860:	10a51800 	addk	r5, r5, r3
    4864:	b000ffff 	imm	-1
    4868:	b9f4e0b4 	brlid	r15, -8012	// 291c <qmalloc>
    486c:	f873002c 	swi	r3, r19, 44
    4870:	e89300e0 	lwi	r4, r19, 224
    4874:	f8780000 	swi	r3, r24, 0
    4878:	e8d30028 	lwi	r6, r19, 40
    487c:	b000ffff 	imm	-1
    4880:	b9f4e268 	brlid	r15, -7576	// 2ae8 <zero_vec>
    4884:	e8a40000 	lwi	r5, r4, 0
    4888:	b0000000 	imm	0
    488c:	30e05e20 	addik	r7, r0, 24096
    4890:	e8b30028 	lwi	r5, r19, 40
    4894:	30c00004 	addik	r6, r0, 4
    4898:	31000459 	addik	r8, r0, 1113
    489c:	b000ffff 	imm	-1
    48a0:	b9f4e07c 	brlid	r15, -8068	// 291c <qmalloc>
    48a4:	eb1300e0 	lwi	r24, r19, 224
    48a8:	64960402 	bslli	r4, r22, 2
    48ac:	e8b300e0 	lwi	r5, r19, 224
    48b0:	d864c000 	sw	r3, r4, r24
    48b4:	e8f30028 	lwi	r7, r19, 40
    48b8:	c8c42800 	lw	r6, r4, r5
    48bc:	10b30000 	addk	r5, r19, r0
    48c0:	32f7ffff 	addik	r23, r23, -1
    48c4:	b000ffff 	imm	-1
    48c8:	b9f4e094 	brlid	r15, -8044	// 295c <reinit_vec>
    48cc:	32d60001 	addik	r22, r22, 1
    48d0:	be37ffb8 	bneid	r23, -72		// 4888
    48d4:	e9e10000 	lwi	r15, r1, 0
    48d8:	ea61001c 	lwi	r19, r1, 28
    48dc:	eac10020 	lwi	r22, r1, 32
    48e0:	eae10024 	lwi	r23, r1, 36
    48e4:	eb010028 	lwi	r24, r1, 40
    48e8:	b60f0008 	rtsd	r15, 8
    48ec:	3021002c 	addik	r1, r1, 44

000048f0 <pic_1d_init>:
    48f0:	3021ffd4 	addik	r1, r1, -44
    48f4:	fa61001c 	swi	r19, r1, 28
    48f8:	fac10020 	swi	r22, r1, 32
    48fc:	fae10024 	swi	r23, r1, 36
    4900:	f9e10000 	swi	r15, r1, 0
    4904:	fb010028 	swi	r24, r1, 40
    4908:	12650000 	addk	r19, r5, r0
    490c:	e8a50028 	lwi	r5, r5, 40
    4910:	32e0000a 	addik	r23, r0, 10
    4914:	12c00000 	addk	r22, r0, r0
    4918:	30a5ffff 	addik	r5, r5, -1
    491c:	90650041 	srl	r3, r5
    4920:	80a51800 	or	r5, r5, r3
    4924:	64650002 	bsrli	r3, r5, 2
    4928:	80a51800 	or	r5, r5, r3
    492c:	64650004 	bsrli	r3, r5, 4
    4930:	80a51800 	or	r5, r5, r3
    4934:	64650008 	bsrli	r3, r5, 8
    4938:	80a51800 	or	r5, r5, r3
    493c:	64650010 	bsrli	r3, r5, 16
    4940:	80a51800 	or	r5, r5, r3
    4944:	30a50001 	addik	r5, r5, 1
    4948:	90a50041 	srl	r5, r5
    494c:	b810000c 	brid	12		// 4958
    4950:	f8b3002c 	swi	r5, r19, 44
    4954:	e8b3002c 	lwi	r5, r19, 44
    4958:	b0000000 	imm	0
    495c:	30e05e20 	addik	r7, r0, 24096
    4960:	30c00004 	addik	r6, r0, 4
    4964:	310002bb 	addik	r8, r0, 699
    4968:	b000ffff 	imm	-1
    496c:	b9f4dfb0 	brlid	r15, -8272	// 291c <qmalloc>
    4970:	eb130050 	lwi	r24, r19, 80
    4974:	64960402 	bslli	r4, r22, 2
    4978:	e8b30050 	lwi	r5, r19, 80
    497c:	d864c000 	sw	r3, r4, r24
    4980:	e8d3002c 	lwi	r6, r19, 44
    4984:	c8a42800 	lw	r5, r4, r5
    4988:	32f7ffff 	addik	r23, r23, -1
    498c:	b000ffff 	imm	-1
    4990:	b9f4e158 	brlid	r15, -7848	// 2ae8 <zero_vec>
    4994:	32d60001 	addik	r22, r22, 1
    4998:	be37ffbc 	bneid	r23, -68		// 4954
    499c:	310002c1 	addik	r8, r0, 705
    49a0:	e8b3002c 	lwi	r5, r19, 44
    49a4:	b0000000 	imm	0
    49a8:	30e05e20 	addik	r7, r0, 24096
    49ac:	30c00004 	addik	r6, r0, 4
    49b0:	b000ffff 	imm	-1
    49b4:	b9f4df68 	brlid	r15, -8344	// 291c <qmalloc>
    49b8:	ead30054 	lwi	r22, r19, 84
    49bc:	e8b3002c 	lwi	r5, r19, 44
    49c0:	b0000000 	imm	0
    49c4:	30e05e20 	addik	r7, r0, 24096
    49c8:	310002c1 	addik	r8, r0, 705
    49cc:	30c00004 	addik	r6, r0, 4
    49d0:	f8760000 	swi	r3, r22, 0
    49d4:	b000ffff 	imm	-1
    49d8:	b9f4df44 	brlid	r15, -8380	// 291c <qmalloc>
    49dc:	ead30054 	lwi	r22, r19, 84
    49e0:	e8930050 	lwi	r4, r19, 80
    49e4:	e8f3002c 	lwi	r7, r19, 44
    49e8:	10b30000 	addk	r5, r19, r0
    49ec:	e8c40018 	lwi	r6, r4, 24
    49f0:	b000ffff 	imm	-1
    49f4:	b9f4df68 	brlid	r15, -8344	// 295c <reinit_vec>
    49f8:	f8760004 	swi	r3, r22, 4
    49fc:	e913002c 	lwi	r8, r19, 44
    4a00:	e8730054 	lwi	r3, r19, 84
    4a04:	10b30000 	addk	r5, r19, r0
    4a08:	10e80000 	addk	r7, r8, r0
    4a0c:	e8c30000 	lwi	r6, r3, 0
    4a10:	b000ffff 	imm	-1
    4a14:	b9f4dfc0 	brlid	r15, -8256	// 29d4 <reinit_ivec_pos>
    4a18:	3108ffff 	addik	r8, r8, -1
    4a1c:	e9e10000 	lwi	r15, r1, 0
    4a20:	ea61001c 	lwi	r19, r1, 28
    4a24:	eac10020 	lwi	r22, r1, 32
    4a28:	eae10024 	lwi	r23, r1, 36
    4a2c:	eb010028 	lwi	r24, r1, 40
    4a30:	b60f0008 	rtsd	r15, 8
    4a34:	3021002c 	addik	r1, r1, 44

00004a38 <get_array_feedback.part.0>:
    4a38:	be660040 	bleid	r6, 64		// 4a78
    4a3c:	11200000 	addk	r9, r0, r0
    4a40:	b8100018 	brid	24		// 4a58
    4a44:	10800000 	addk	r4, r0, r0
    4a48:	30840001 	addik	r4, r4, 1
    4a4c:	16462001 	cmp	r18, r6, r4
    4a50:	beb20028 	bgeid	r18, 40		// 4a78
    4a54:	59294000 	fadd	r9, r9, r8
    4a58:	65040402 	bslli	r8, r4, 2
    4a5c:	a4e40001 	andi	r7, r4, 1
    4a60:	c9082800 	lw	r8, r8, r5
    4a64:	bc27ffe4 	bnei	r7, -28		// 4a48
    4a68:	30840001 	addik	r4, r4, 1
    4a6c:	16462001 	cmp	r18, r6, r4
    4a70:	be52ffe8 	bltid	r18, -24		// 4a58
    4a74:	59284880 	frsub	r9, r8, r9
    4a78:	58660280 	flt	r3, r6
    4a7c:	b60f0008 	rtsd	r15, 8
    4a80:	58634980 	fdiv	r3, r3, r9

00004a84 <hydro_fragment>:
    4a84:	3021ffd4 	addik	r1, r1, -44
    4a88:	fae10024 	swi	r23, r1, 36
    4a8c:	f9e10000 	swi	r15, r1, 0
    4a90:	fa61001c 	swi	r19, r1, 28
    4a94:	fac10020 	swi	r22, r1, 32
    4a98:	fb010028 	swi	r24, r1, 40
    4a9c:	e8650050 	lwi	r3, r5, 80
    4aa0:	eb050030 	lwi	r24, r5, 48
    4aa4:	e8c5002c 	lwi	r6, r5, 44
    4aa8:	e883000c 	lwi	r4, r3, 12
    4aac:	e8a30000 	lwi	r5, r3, 0
    4ab0:	eac30004 	lwi	r22, r3, 4
    4ab4:	ea630008 	lwi	r19, r3, 8
    4ab8:	e9840000 	lwi	r12, r4, 0
    4abc:	e9640004 	lwi	r11, r4, 4
    4ac0:	e9440008 	lwi	r10, r4, 8
    4ac4:	be180058 	beqid	r24, 88		// 4b1c
    4ac8:	32e00001 	addik	r23, r0, 1
    4acc:	be060044 	beqid	r6, 68		// 4b10
    4ad0:	10800000 	addk	r4, r0, r0
    4ad4:	64e40402 	bslli	r7, r4, 2
    4ad8:	11133800 	addk	r8, r19, r7
    4adc:	e8680028 	lwi	r3, r8, 40
    4ae0:	e908002c 	lwi	r8, r8, 44
    4ae4:	c927b000 	lw	r9, r7, r22
    4ae8:	586b1900 	fmul	r3, r11, r3
    4aec:	30840001 	addik	r4, r4, 1
    4af0:	590a4100 	fmul	r8, r10, r8
    4af4:	58634000 	fadd	r3, r3, r8
    4af8:	58634900 	fmul	r3, r3, r9
    4afc:	58636000 	fadd	r3, r3, r12
    4b00:	d8672800 	sw	r3, r7, r5
    4b04:	16462003 	cmpu	r18, r6, r4
    4b08:	be52ffd0 	bltid	r18, -48		// 4ad8
    4b0c:	64e40402 	bslli	r7, r4, 2
    4b10:	32f70001 	addik	r23, r23, 1
    4b14:	1657c003 	cmpu	r18, r23, r24
    4b18:	bcb2ffb4 	bgei	r18, -76		// 4acc
    4b1c:	be060018 	beqid	r6, 24		// 4b34
    4b20:	12600000 	addk	r19, r0, r0
    4b24:	b000ffff 	imm	-1
    4b28:	b9f4ff10 	brlid	r15, -240	// 4a38 <get_array_feedback.part.0>
    4b2c:	80000000 	or	r0, r0, r0
    4b30:	5a639800 	fadd	r19, r3, r19
    4b34:	10730000 	addk	r3, r19, r0
    4b38:	e9e10000 	lwi	r15, r1, 0
    4b3c:	ea61001c 	lwi	r19, r1, 28
    4b40:	eac10020 	lwi	r22, r1, 32
    4b44:	eae10024 	lwi	r23, r1, 36
    4b48:	eb010028 	lwi	r24, r1, 40
    4b4c:	b60f0008 	rtsd	r15, 8
    4b50:	3021002c 	addik	r1, r1, 44

00004b54 <cholesky>:
    4b54:	3021ffd0 	addik	r1, r1, -48
    4b58:	f9e10000 	swi	r15, r1, 0
    4b5c:	fa61001c 	swi	r19, r1, 28
    4b60:	fac10020 	swi	r22, r1, 32
    4b64:	fae10024 	swi	r23, r1, 36
    4b68:	fb010028 	swi	r24, r1, 40
    4b6c:	fb21002c 	swi	r25, r1, 44
    4b70:	e8650050 	lwi	r3, r5, 80
    4b74:	eae50030 	lwi	r23, r5, 48
    4b78:	e8c5002c 	lwi	r6, r5, 44
    4b7c:	e9630004 	lwi	r11, r3, 4
    4b80:	be170094 	beqid	r23, 148		// 4c14
    4b84:	e8a30000 	lwi	r5, r3, 0
    4b88:	93060041 	srl	r24, r6
    4b8c:	32c00001 	addik	r22, r0, 1
    4b90:	12780000 	addk	r19, r24, r0
    4b94:	10e00000 	addk	r7, r0, r0
    4b98:	11879800 	addk	r12, r7, r19
    4b9c:	30e70001 	addik	r7, r7, 1
    4ba0:	92730041 	srl	r19, r19
    4ba4:	164c3803 	cmpu	r18, r12, r7
    4ba8:	beb20054 	bgeid	r18, 84		// 4bfc
    4bac:	312cffff 	addik	r9, r12, -1
    4bb0:	64870402 	bslli	r4, r7, 2
    4bb4:	10652000 	addk	r3, r5, r4
    4bb8:	e903fffc 	lwi	r8, r3, -4
    4bbc:	cb245800 	lw	r25, r4, r11
    4bc0:	31440004 	addik	r10, r4, 4
    4bc4:	c8642800 	lw	r3, r4, r5
    4bc8:	5908c900 	fmul	r8, r8, r25
    4bcc:	c88a5800 	lw	r4, r10, r11
    4bd0:	c94a2800 	lw	r10, r10, r5
    4bd4:	31290001 	addik	r9, r9, 1
    4bd8:	30e70002 	addik	r7, r7, 2
    4bdc:	58845100 	fmul	r4, r4, r10
    4be0:	65490402 	bslli	r10, r9, 2
    4be4:	58681880 	frsub	r3, r8, r3
    4be8:	58641880 	frsub	r3, r4, r3
    4bec:	d86a2800 	sw	r3, r10, r5
    4bf0:	164c3803 	cmpu	r18, r12, r7
    4bf4:	be52ffc0 	bltid	r18, -64		// 4bb4
    4bf8:	64870402 	bslli	r4, r7, 2
    4bfc:	be33ff9c 	bneid	r19, -100		// 4b98
    4c00:	10ec0000 	addk	r7, r12, r0
    4c04:	32d60001 	addik	r22, r22, 1
    4c08:	1656b803 	cmpu	r18, r22, r23
    4c0c:	beb2ff88 	bgeid	r18, -120		// 4b94
    4c10:	12780000 	addk	r19, r24, r0
    4c14:	be060014 	beqid	r6, 20		// 4c28
    4c18:	10600000 	addk	r3, r0, r0
    4c1c:	b000ffff 	imm	-1
    4c20:	b9f4fe18 	brlid	r15, -488	// 4a38 <get_array_feedback.part.0>
    4c24:	80000000 	or	r0, r0, r0
    4c28:	e9e10000 	lwi	r15, r1, 0
    4c2c:	ea61001c 	lwi	r19, r1, 28
    4c30:	eac10020 	lwi	r22, r1, 32
    4c34:	eae10024 	lwi	r23, r1, 36
    4c38:	eb010028 	lwi	r24, r1, 40
    4c3c:	eb21002c 	lwi	r25, r1, 44
    4c40:	b60f0008 	rtsd	r15, 8
    4c44:	30210030 	addik	r1, r1, 48

00004c48 <state_fragment>:
    4c48:	3021ffc4 	addik	r1, r1, -60
    4c4c:	f9e10000 	swi	r15, r1, 0
    4c50:	fa61001c 	swi	r19, r1, 28
    4c54:	fac10020 	swi	r22, r1, 32
    4c58:	fae10024 	swi	r23, r1, 36
    4c5c:	fb010028 	swi	r24, r1, 40
    4c60:	fb21002c 	swi	r25, r1, 44
    4c64:	fb410030 	swi	r26, r1, 48
    4c68:	fb610034 	swi	r27, r1, 52
    4c6c:	fb810038 	swi	r28, r1, 56
    4c70:	e8650050 	lwi	r3, r5, 80
    4c74:	eae50030 	lwi	r23, r5, 48
    4c78:	e8c5002c 	lwi	r6, r5, 44
    4c7c:	e9430000 	lwi	r10, r3, 0
    4c80:	e9830004 	lwi	r12, r3, 4
    4c84:	ea630008 	lwi	r19, r3, 8
    4c88:	be7700b0 	bleid	r23, 176		// 4d38
    4c8c:	e8a3000c 	lwi	r5, r3, 12
    4c90:	b0003e99 	imm	16025
    4c94:	30e0999a 	addik	r7, r0, -26214
    4c98:	b0003e80 	imm	16000
    4c9c:	31600000 	addik	r11, r0, 0
    4ca0:	32c00001 	addik	r22, r0, 1
    4ca4:	be660088 	bleid	r6, 136		// 4d2c
    4ca8:	11200000 	addk	r9, r0, r0
    4cac:	65090402 	bslli	r8, r9, 2
    4cb0:	132a4000 	addk	r25, r10, r8
    4cb4:	e8790010 	lwi	r3, r25, 16
    4cb8:	eb190004 	lwi	r24, r25, 4
    4cbc:	eb990014 	lwi	r28, r25, 20
    4cc0:	58633900 	fmul	r3, r3, r7
    4cc4:	eb790008 	lwi	r27, r25, 8
    4cc8:	eb590018 	lwi	r26, r25, 24
    4ccc:	c8886000 	lw	r4, r8, r12
    4cd0:	eb39000c 	lwi	r25, r25, 12
    4cd4:	5b183900 	fmul	r24, r24, r7
    4cd8:	31290001 	addik	r9, r9, 1
    4cdc:	5863e000 	fadd	r3, r3, r28
    4ce0:	5b18d800 	fadd	r24, r24, r27
    4ce4:	58633900 	fmul	r3, r3, r7
    4ce8:	5b183900 	fmul	r24, r24, r7
    4cec:	5863d000 	fadd	r3, r3, r26
    4cf0:	58843900 	fmul	r4, r4, r7
    4cf4:	5b18c800 	fadd	r24, r24, r25
    4cf8:	cb289800 	lw	r25, r8, r19
    4cfc:	58635900 	fmul	r3, r3, r11
    4d00:	5884c800 	fadd	r4, r4, r25
    4d04:	5863c000 	fadd	r3, r3, r24
    4d08:	cb085000 	lw	r24, r8, r10
    4d0c:	58843900 	fmul	r4, r4, r7
    4d10:	58635900 	fmul	r3, r3, r11
    4d14:	5884c000 	fadd	r4, r4, r24
    4d18:	58632000 	fadd	r3, r3, r4
    4d1c:	d8682800 	sw	r3, r8, r5
    4d20:	16464801 	cmp	r18, r6, r9
    4d24:	be52ff8c 	bltid	r18, -116		// 4cb0
    4d28:	65090402 	bslli	r8, r9, 2
    4d2c:	32d60001 	addik	r22, r22, 1
    4d30:	1656b801 	cmp	r18, r22, r23
    4d34:	bcb2ff70 	bgei	r18, -144		// 4ca4
    4d38:	be060018 	beqid	r6, 24		// 4d50
    4d3c:	12600000 	addk	r19, r0, r0
    4d40:	b000ffff 	imm	-1
    4d44:	b9f4fcf4 	brlid	r15, -780	// 4a38 <get_array_feedback.part.0>
    4d48:	80000000 	or	r0, r0, r0
    4d4c:	5a639800 	fadd	r19, r3, r19
    4d50:	10730000 	addk	r3, r19, r0
    4d54:	e9e10000 	lwi	r15, r1, 0
    4d58:	ea61001c 	lwi	r19, r1, 28
    4d5c:	eac10020 	lwi	r22, r1, 32
    4d60:	eae10024 	lwi	r23, r1, 36
    4d64:	eb010028 	lwi	r24, r1, 40
    4d68:	eb21002c 	lwi	r25, r1, 44
    4d6c:	eb410030 	lwi	r26, r1, 48
    4d70:	eb610034 	lwi	r27, r1, 52
    4d74:	eb810038 	lwi	r28, r1, 56
    4d78:	b60f0008 	rtsd	r15, 8
    4d7c:	3021003c 	addik	r1, r1, 60

00004d80 <hydro_2d>:
    4d80:	3021ff94 	addik	r1, r1, -108
    4d84:	f9e10000 	swi	r15, r1, 0
    4d88:	fa610040 	swi	r19, r1, 64
    4d8c:	fac10044 	swi	r22, r1, 68
    4d90:	fae10048 	swi	r23, r1, 72
    4d94:	fb01004c 	swi	r24, r1, 76
    4d98:	fb210050 	swi	r25, r1, 80
    4d9c:	fb410054 	swi	r26, r1, 84
    4da0:	fb610058 	swi	r27, r1, 88
    4da4:	fb81005c 	swi	r28, r1, 92
    4da8:	fba10060 	swi	r29, r1, 96
    4dac:	fbc10064 	swi	r30, r1, 100
    4db0:	fbe10068 	swi	r31, r1, 104
    4db4:	30600001 	addik	r3, r0, 1
    4db8:	e8850030 	lwi	r4, r5, 48
    4dbc:	f861002c 	swi	r3, r1, 44
    4dc0:	f8610028 	swi	r3, r1, 40
    4dc4:	e86500e0 	lwi	r3, r5, 224
    4dc8:	f881003c 	swi	r4, r1, 60
    4dcc:	ebe5002c 	lwi	r31, r5, 44
    4dd0:	eac30000 	lwi	r22, r3, 0
    4dd4:	e9830004 	lwi	r12, r3, 4
    4dd8:	eb230008 	lwi	r25, r3, 8
    4ddc:	eb63000c 	lwi	r27, r3, 12
    4de0:	eb830010 	lwi	r28, r3, 16
    4de4:	e8a30014 	lwi	r5, r3, 20
    4de8:	eba30018 	lwi	r29, r3, 24
    4dec:	ebc3001c 	lwi	r30, r3, 28
    4df0:	be64031c 	bleid	r4, 796		// 510c
    4df4:	ea630020 	lwi	r19, r3, 32
    4df8:	107e0000 	addk	r3, r30, r0
    4dfc:	109f0000 	addk	r4, r31, r0
    4e00:	13dd0000 	addk	r30, r29, r0
    4e04:	13fc0000 	addk	r31, r28, r0
    4e08:	13a30000 	addk	r29, r3, r0
    4e0c:	13840000 	addk	r28, r4, r0
    4e10:	33400005 	addik	r26, r0, 5
    4e14:	31600001 	addik	r11, r0, 1
    4e18:	fbc1001c 	swi	r30, r1, 28
    4e1c:	e9410028 	lwi	r10, r1, 40
    4e20:	165c5001 	cmp	r18, r28, r10
    4e24:	beb200e8 	bgeid	r18, 232		// 4f0c
    4e28:	33cb0001 	addik	r30, r11, 1
    4e2c:	316bffff 	addik	r11, r11, -1
    4e30:	42fcf000 	mul	r23, r28, r30
    4e34:	31200001 	addik	r9, r0, 1
    4e38:	416be000 	mul	r11, r11, r28
    4e3c:	171cb800 	rsubk	r24, r28, r23
    4e40:	fa610024 	swi	r19, r1, 36
    4e44:	10f74800 	addk	r7, r23, r9
    4e48:	b0003fff 	imm	16383
    4e4c:	30e7ffff 	addik	r7, r7, -1
    4e50:	64e70402 	bslli	r7, r7, 2
    4e54:	c8c7d800 	lw	r6, r7, r27
    4e58:	c907c800 	lw	r8, r7, r25
    4e5c:	10784800 	addk	r3, r24, r9
    4e60:	b0003fff 	imm	16383
    4e64:	3063ffff 	addik	r3, r3, -1
    4e68:	59083000 	fadd	r8, r8, r6
    4e6c:	64630402 	bslli	r3, r3, 2
    4e70:	c8c3c800 	lw	r6, r3, r25
    4e74:	30830004 	addik	r4, r3, 4
    4e78:	c9432800 	lw	r10, r3, r5
    4e7c:	ca642800 	lw	r19, r4, r5
    4e80:	59064080 	frsub	r8, r6, r8
    4e84:	c8c3d800 	lw	r6, r3, r27
    4e88:	c8e7f800 	lw	r7, r7, r31
    4e8c:	594a9800 	fadd	r10, r10, r19
    4e90:	58c64080 	frsub	r6, r6, r8
    4e94:	f9410020 	swi	r10, r1, 32
    4e98:	ea610020 	lwi	r19, r1, 32
    4e9c:	c943f800 	lw	r10, r3, r31
    4ea0:	110b4800 	addk	r8, r11, r9
    4ea4:	65080402 	bslli	r8, r8, 2
    4ea8:	58e75000 	fadd	r7, r7, r10
    4eac:	31290001 	addik	r9, r9, 1
    4eb0:	58c69900 	fmul	r6, r6, r19
    4eb4:	58c73180 	fdiv	r6, r7, r6
    4eb8:	d8c4b000 	sw	r6, r4, r22
    4ebc:	c8e3c800 	lw	r7, r3, r25
    4ec0:	c8c3d800 	lw	r6, r3, r27
    4ec4:	c944c800 	lw	r10, r4, r25
    4ec8:	ca64d800 	lw	r19, r4, r27
    4ecc:	58c73000 	fadd	r6, r7, r6
    4ed0:	c8e82800 	lw	r7, r8, r5
    4ed4:	c9042800 	lw	r8, r4, r5
    4ed8:	c863f800 	lw	r3, r3, r31
    4edc:	58e74000 	fadd	r7, r7, r8
    4ee0:	c904f800 	lw	r8, r4, r31
    4ee4:	58ca3080 	frsub	r6, r10, r6
    4ee8:	58681800 	fadd	r3, r8, r3
    4eec:	58d33080 	frsub	r6, r19, r6
    4ef0:	58e63900 	fmul	r7, r6, r7
    4ef4:	58e33980 	fdiv	r7, r3, r7
    4ef8:	d8e46000 	sw	r7, r4, r12
    4efc:	165c4801 	cmp	r18, r28, r9
    4f00:	be52ff48 	bltid	r18, -184		// 4e48
    4f04:	10f74800 	addk	r7, r23, r9
    4f08:	ea610024 	lwi	r19, r1, 36
    4f0c:	335affff 	addik	r26, r26, -1
    4f10:	be3aff0c 	bneid	r26, -244		// 4e1c
    4f14:	117e0000 	addk	r11, r30, r0
    4f18:	ebc1001c 	lwi	r30, r1, 28
    4f1c:	33400005 	addik	r26, r0, 5
    4f20:	fb410020 	swi	r26, r1, 32
    4f24:	30600001 	addik	r3, r0, 1
    4f28:	fb210030 	swi	r25, r1, 48
    4f2c:	fb610034 	swi	r27, r1, 52
    4f30:	fbe10038 	swi	r31, r1, 56
    4f34:	e8c10028 	lwi	r6, r1, 40
    4f38:	30830001 	addik	r4, r3, 1
    4f3c:	165c3001 	cmp	r18, r28, r6
    4f40:	beb20120 	bgeid	r18, 288		// 5060
    4f44:	f8810024 	swi	r4, r1, 36
    4f48:	eb010024 	lwi	r24, r1, 36
    4f4c:	3343ffff 	addik	r26, r3, -1
    4f50:	435ae000 	mul	r26, r26, r28
    4f54:	31600001 	addik	r11, r0, 1
    4f58:	437cc000 	mul	r27, r28, r24
    4f5c:	fb41001c 	swi	r26, r1, 28
    4f60:	17fcd800 	rsubk	r31, r28, r27
    4f64:	107f5800 	addk	r3, r31, r11
    4f68:	64630402 	bslli	r3, r3, 2
    4f6c:	3143fffc 	addik	r10, r3, -4
    4f70:	32e30004 	addik	r23, r3, 4
    4f74:	c8839800 	lw	r4, r3, r19
    4f78:	c8d79800 	lw	r6, r23, r19
    4f7c:	c90a9800 	lw	r8, r10, r19
    4f80:	eb41001c 	lwi	r26, r1, 28
    4f84:	58c62080 	frsub	r6, r6, r4
    4f88:	cb23b000 	lw	r25, r3, r22
    4f8c:	113a5800 	addk	r9, r26, r11
    4f90:	cb4ab000 	lw	r26, r10, r22
    4f94:	10fb5800 	addk	r7, r27, r11
    4f98:	59082080 	frsub	r8, r8, r4
    4f9c:	65290402 	bslli	r9, r9, 2
    4fa0:	64e70402 	bslli	r7, r7, 2
    4fa4:	316b0001 	addik	r11, r11, 1
    4fa8:	58c6c900 	fmul	r6, r6, r25
    4fac:	b0003b86 	imm	15238
    4fb0:	3320594b 	addik	r25, r0, 22859
    4fb4:	5908d100 	fmul	r8, r8, r26
    4fb8:	cb499800 	lw	r26, r9, r19
    4fbc:	5b1a2080 	frsub	r24, r26, r4
    4fc0:	cb479800 	lw	r26, r7, r19
    4fc4:	59083080 	frsub	r8, r8, r6
    4fc8:	c8c36000 	lw	r6, r3, r12
    4fcc:	589a2080 	frsub	r4, r26, r4
    4fd0:	5b183100 	fmul	r24, r24, r6
    4fd4:	c8c76000 	lw	r6, r7, r12
    4fd8:	58843100 	fmul	r4, r4, r6
    4fdc:	5b184080 	frsub	r24, r24, r8
    4fe0:	c903e800 	lw	r8, r3, r29
    4fe4:	5b182000 	fadd	r24, r24, r4
    4fe8:	5b18c900 	fmul	r24, r24, r25
    4fec:	5b08c000 	fadd	r24, r8, r24
    4ff0:	db03e800 	sw	r24, r3, r29
    4ff4:	c8c32800 	lw	r6, r3, r5
    4ff8:	c88a2800 	lw	r4, r10, r5
    4ffc:	caf72800 	lw	r23, r23, r5
    5000:	c94ab000 	lw	r10, r10, r22
    5004:	58843080 	frsub	r4, r4, r6
    5008:	c9092800 	lw	r8, r9, r5
    500c:	cb03b000 	lw	r24, r3, r22
    5010:	c9272800 	lw	r9, r7, r5
    5014:	cb436000 	lw	r26, r3, r12
    5018:	5af73080 	frsub	r23, r23, r6
    501c:	c8e76000 	lw	r7, r7, r12
    5020:	58845100 	fmul	r4, r4, r10
    5024:	c943f000 	lw	r10, r3, r30
    5028:	59083080 	frsub	r8, r8, r6
    502c:	5af7c100 	fmul	r23, r23, r24
    5030:	5908d100 	fmul	r8, r8, r26
    5034:	5ae4b880 	frsub	r23, r4, r23
    5038:	58c93080 	frsub	r6, r9, r6
    503c:	5ae8b880 	frsub	r23, r8, r23
    5040:	58e63900 	fmul	r7, r6, r7
    5044:	58f73800 	fadd	r7, r23, r7
    5048:	5b27c900 	fmul	r25, r7, r25
    504c:	5b2ac800 	fadd	r25, r10, r25
    5050:	db23f000 	sw	r25, r3, r30
    5054:	165c5801 	cmp	r18, r28, r11
    5058:	be52ff10 	bltid	r18, -240		// 4f68
    505c:	107f5800 	addk	r3, r31, r11
    5060:	eb010020 	lwi	r24, r1, 32
    5064:	e8610024 	lwi	r3, r1, 36
    5068:	3318ffff 	addik	r24, r24, -1
    506c:	be38fec8 	bneid	r24, -312		// 4f34
    5070:	fb010020 	swi	r24, r1, 32
    5074:	eb210030 	lwi	r25, r1, 48
    5078:	eb610034 	lwi	r27, r1, 52
    507c:	ebe10038 	lwi	r31, r1, 56
    5080:	eae10028 	lwi	r23, r1, 40
    5084:	31000005 	addik	r8, r0, 5
    5088:	31200001 	addik	r9, r0, 1
    508c:	165cb801 	cmp	r18, r28, r23
    5090:	bcb20054 	bgei	r18, 84		// 50e4
    5094:	417c4800 	mul	r11, r28, r9
    5098:	30800001 	addik	r4, r0, 1
    509c:	106b2000 	addk	r3, r11, r4
    50a0:	64630402 	bslli	r3, r3, 2
    50a4:	b0003b72 	imm	15218
    50a8:	33007bb3 	addik	r24, r0, 31667
    50ac:	c8c3e800 	lw	r6, r3, r29
    50b0:	c9432800 	lw	r10, r3, r5
    50b4:	30840001 	addik	r4, r4, 1
    50b8:	58c6c100 	fmul	r6, r6, r24
    50bc:	594a3000 	fadd	r10, r10, r6
    50c0:	d9432800 	sw	r10, r3, r5
    50c4:	c8e3f000 	lw	r7, r3, r30
    50c8:	c8c39800 	lw	r6, r3, r19
    50cc:	58e7c100 	fmul	r7, r7, r24
    50d0:	58c63800 	fadd	r6, r6, r7
    50d4:	d8c39800 	sw	r6, r3, r19
    50d8:	165c2001 	cmp	r18, r28, r4
    50dc:	be52ffc4 	bltid	r18, -60		// 50a0
    50e0:	106b2000 	addk	r3, r11, r4
    50e4:	3108ffff 	addik	r8, r8, -1
    50e8:	be28ffa4 	bneid	r8, -92		// 508c
    50ec:	31290001 	addik	r9, r9, 1
    50f0:	e8e1002c 	lwi	r7, r1, 44
    50f4:	e901003c 	lwi	r8, r1, 60
    50f8:	30e70001 	addik	r7, r7, 1
    50fc:	16474001 	cmp	r18, r7, r8
    5100:	beb2fd10 	bgeid	r18, -752		// 4e10
    5104:	f8e1002c 	swi	r7, r1, 44
    5108:	13fc0000 	addk	r31, r28, r0
    510c:	62df0006 	muli	r22, r31, 6
    5110:	be160030 	beqid	r22, 48		// 5140
    5114:	12e00000 	addk	r23, r0, r0
    5118:	b000ffff 	imm	-1
    511c:	b9f4f91c 	brlid	r15, -1764	// 4a38 <get_array_feedback.part.0>
    5120:	10d60000 	addk	r6, r22, r0
    5124:	13030000 	addk	r24, r3, r0
    5128:	10d60000 	addk	r6, r22, r0
    512c:	10b30000 	addk	r5, r19, r0
    5130:	b000ffff 	imm	-1
    5134:	b9f4f904 	brlid	r15, -1788	// 4a38 <get_array_feedback.part.0>
    5138:	5af8b800 	fadd	r23, r24, r23
    513c:	5af71800 	fadd	r23, r23, r3
    5140:	10770000 	addk	r3, r23, r0
    5144:	e9e10000 	lwi	r15, r1, 0
    5148:	ea610040 	lwi	r19, r1, 64
    514c:	eac10044 	lwi	r22, r1, 68
    5150:	eae10048 	lwi	r23, r1, 72
    5154:	eb01004c 	lwi	r24, r1, 76
    5158:	eb210050 	lwi	r25, r1, 80
    515c:	eb410054 	lwi	r26, r1, 84
    5160:	eb610058 	lwi	r27, r1, 88
    5164:	eb81005c 	lwi	r28, r1, 92
    5168:	eba10060 	lwi	r29, r1, 96
    516c:	ebc10064 	lwi	r30, r1, 100
    5170:	ebe10068 	lwi	r31, r1, 104
    5174:	b60f0008 	rtsd	r15, 8
    5178:	3021006c 	addik	r1, r1, 108

0000517c <matmul>:
    517c:	3021ffcc 	addik	r1, r1, -52
    5180:	f9e10000 	swi	r15, r1, 0
    5184:	fa61001c 	swi	r19, r1, 28
    5188:	fac10020 	swi	r22, r1, 32
    518c:	fae10024 	swi	r23, r1, 36
    5190:	fb010028 	swi	r24, r1, 40
    5194:	fb21002c 	swi	r25, r1, 44
    5198:	fb410030 	swi	r26, r1, 48
    519c:	e86500e0 	lwi	r3, r5, 224
    51a0:	eb250030 	lwi	r25, r5, 48
    51a4:	e925002c 	lwi	r9, r5, 44
    51a8:	eae30004 	lwi	r23, r3, 4
    51ac:	e8a30000 	lwi	r5, r3, 0
    51b0:	e9830008 	lwi	r12, r3, 8
    51b4:	be790098 	bleid	r25, 152		// 524c
    51b8:	31600001 	addik	r11, r0, 1
    51bc:	33000019 	addik	r24, r0, 25
    51c0:	11400000 	addk	r10, r0, r0
    51c4:	42ca4800 	mul	r22, r10, r9
    51c8:	32600019 	addik	r19, r0, 25
    51cc:	11000000 	addk	r8, r0, r0
    51d0:	bc690054 	blei	r9, 84		// 5224
    51d4:	10f64000 	addk	r7, r22, r8
    51d8:	64e70402 	bslli	r7, r7, 2
    51dc:	10c00000 	addk	r6, r0, r0
    51e0:	10f73800 	addk	r7, r23, r7
    51e4:	60660019 	muli	r3, r6, 25
    51e8:	eb470000 	lwi	r26, r7, 0
    51ec:	10835800 	addk	r4, r3, r11
    51f0:	10845000 	addk	r4, r4, r10
    51f4:	64840402 	bslli	r4, r4, 2
    51f8:	c8846000 	lw	r4, r4, r12
    51fc:	10634000 	addk	r3, r3, r8
    5200:	64630402 	bslli	r3, r3, 2
    5204:	5b44d100 	fmul	r26, r4, r26
    5208:	c8832800 	lw	r4, r3, r5
    520c:	30c60001 	addik	r6, r6, 1
    5210:	5884d000 	fadd	r4, r4, r26
    5214:	d8832800 	sw	r4, r3, r5
    5218:	16493001 	cmp	r18, r9, r6
    521c:	be52ffcc 	bltid	r18, -52		// 51e8
    5220:	60660019 	muli	r3, r6, 25
    5224:	3273ffff 	addik	r19, r19, -1
    5228:	be33ffa8 	bneid	r19, -88		// 51d0
    522c:	31080001 	addik	r8, r8, 1
    5230:	3318ffff 	addik	r24, r24, -1
    5234:	be38ff90 	bneid	r24, -112		// 51c4
    5238:	314a0001 	addik	r10, r10, 1
    523c:	316b0001 	addik	r11, r11, 1
    5240:	164bc801 	cmp	r18, r11, r25
    5244:	beb2ff7c 	bgeid	r18, -132		// 51c0
    5248:	33000019 	addik	r24, r0, 25
    524c:	60c90019 	muli	r6, r9, 25
    5250:	be060014 	beqid	r6, 20		// 5264
    5254:	10600000 	addk	r3, r0, r0
    5258:	b000ffff 	imm	-1
    525c:	b9f4f7dc 	brlid	r15, -2084	// 4a38 <get_array_feedback.part.0>
    5260:	80000000 	or	r0, r0, r0
    5264:	e9e10000 	lwi	r15, r1, 0
    5268:	ea61001c 	lwi	r19, r1, 28
    526c:	eac10020 	lwi	r22, r1, 32
    5270:	eae10024 	lwi	r23, r1, 36
    5274:	eb010028 	lwi	r24, r1, 40
    5278:	eb21002c 	lwi	r25, r1, 44
    527c:	eb410030 	lwi	r26, r1, 48
    5280:	b60f0008 	rtsd	r15, 8
    5284:	30210034 	addik	r1, r1, 52

00005288 <hydro_2d_implicit>:
    5288:	3021ff90 	addik	r1, r1, -112
    528c:	f9e10000 	swi	r15, r1, 0
    5290:	fa610044 	swi	r19, r1, 68
    5294:	fac10048 	swi	r22, r1, 72
    5298:	fae1004c 	swi	r23, r1, 76
    529c:	fb010050 	swi	r24, r1, 80
    52a0:	fb210054 	swi	r25, r1, 84
    52a4:	fb410058 	swi	r26, r1, 88
    52a8:	fb61005c 	swi	r27, r1, 92
    52ac:	fb810060 	swi	r28, r1, 96
    52b0:	fba10064 	swi	r29, r1, 100
    52b4:	fbc10068 	swi	r30, r1, 104
    52b8:	fbe1006c 	swi	r31, r1, 108
    52bc:	30600001 	addik	r3, r0, 1
    52c0:	e8850030 	lwi	r4, r5, 48
    52c4:	f861003c 	swi	r3, r1, 60
    52c8:	f8610038 	swi	r3, r1, 56
    52cc:	e86500e0 	lwi	r3, r5, 224
    52d0:	e8a5002c 	lwi	r5, r5, 44
    52d4:	f8810040 	swi	r4, r1, 64
    52d8:	eae30000 	lwi	r23, r3, 0
    52dc:	f8a1001c 	swi	r5, r1, 28
    52e0:	ebe30004 	lwi	r31, r3, 4
    52e4:	eb630008 	lwi	r27, r3, 8
    52e8:	eb83000c 	lwi	r28, r3, 12
    52ec:	eba30010 	lwi	r29, r3, 16
    52f0:	be6401cc 	bleid	r4, 460		// 54bc
    52f4:	ebc30014 	lwi	r30, r3, 20
    52f8:	107d0000 	addk	r3, r29, r0
    52fc:	133e0000 	addk	r25, r30, r0
    5300:	13bc0000 	addk	r29, r28, r0
    5304:	13db0000 	addk	r30, r27, r0
    5308:	13830000 	addk	r28, r3, r0
    530c:	e881001c 	lwi	r4, r1, 28
    5310:	30a00005 	addik	r5, r0, 5
    5314:	f8a1002c 	swi	r5, r1, 44
    5318:	10842000 	addk	r4, r4, r4
    531c:	f8810034 	swi	r4, r1, 52
    5320:	10990000 	addk	r4, r25, r0
    5324:	133d0000 	addk	r25, r29, r0
    5328:	13bc0000 	addk	r29, r28, r0
    532c:	13840000 	addk	r28, r4, r0
    5330:	30600001 	addik	r3, r0, 1
    5334:	30a30001 	addik	r5, r3, 1
    5338:	f8a10030 	swi	r5, r1, 48
    533c:	e881001c 	lwi	r4, r1, 28
    5340:	e8a10038 	lwi	r5, r1, 56
    5344:	16442801 	cmp	r18, r4, r5
    5348:	beb20138 	bgeid	r18, 312		// 5480
    534c:	e8810034 	lwi	r4, r1, 52
    5350:	e8a1001c 	lwi	r5, r1, 28
    5354:	32c00001 	addik	r22, r0, 1
    5358:	40651800 	mul	r3, r5, r3
    535c:	f8610020 	swi	r3, r1, 32
    5360:	14651800 	rsubk	r3, r5, r3
    5364:	10841800 	addk	r4, r4, r3
    5368:	f8610024 	swi	r3, r1, 36
    536c:	107c0000 	addk	r3, r28, r0
    5370:	139d0000 	addk	r28, r29, r0
    5374:	f8810028 	swi	r4, r1, 40
    5378:	13a30000 	addk	r29, r3, r0
    537c:	e8a10020 	lwi	r5, r1, 32
    5380:	e8810028 	lwi	r4, r1, 40
    5384:	1265b000 	addk	r19, r5, r22
    5388:	e8a10024 	lwi	r5, r1, 36
    538c:	1064b000 	addk	r3, r4, r22
    5390:	66730402 	bslli	r19, r19, 2
    5394:	64630402 	bslli	r3, r3, 2
    5398:	1085b000 	addk	r4, r5, r22
    539c:	64840402 	bslli	r4, r4, 2
    53a0:	c8c3b800 	lw	r6, r3, r23
    53a4:	c8e4b800 	lw	r7, r4, r23
    53a8:	c873f800 	lw	r3, r19, r31
    53ac:	c8b3c800 	lw	r5, r19, r25
    53b0:	10979800 	addk	r4, r23, r19
    53b4:	58661900 	fmul	r3, r6, r3
    53b8:	cb53f000 	lw	r26, r19, r30
    53bc:	e8c40004 	lwi	r6, r4, 4
    53c0:	c913e000 	lw	r8, r19, r28
    53c4:	e884fffc 	lwi	r4, r4, -4
    53c8:	58a72900 	fmul	r5, r7, r5
    53cc:	c8f3e800 	lw	r7, r19, r29
    53d0:	cb13b800 	lw	r24, r19, r23
    53d4:	32d60001 	addik	r22, r22, 1
    53d8:	58c6d100 	fmul	r6, r6, r26
    53dc:	58a32800 	fadd	r5, r3, r5
    53e0:	58644100 	fmul	r3, r4, r8
    53e4:	58a53000 	fadd	r5, r5, r6
    53e8:	58a51800 	fadd	r5, r5, r3
    53ec:	58a53800 	fadd	r5, r5, r7
    53f0:	b000ffff 	imm	-1
    53f4:	b9f4aefc 	brlid	r15, -20740	// 2f0 <__extendsfdf2>
    53f8:	58b82880 	frsub	r5, r24, r5
    53fc:	10a40000 	addk	r5, r4, r0
    5400:	b0006666 	imm	26214
    5404:	30e06666 	addik	r7, r0, 26214
    5408:	b0003fc6 	imm	16326
    540c:	31006666 	addik	r8, r0, 26214
    5410:	10c50000 	addk	r6, r5, r0
    5414:	b000ffff 	imm	-1
    5418:	b9f4b3e4 	brlid	r15, -19484	// 7fc <__muldf3>
    541c:	10a30000 	addk	r5, r3, r0
    5420:	10b80000 	addk	r5, r24, r0
    5424:	13430000 	addk	r26, r3, r0
    5428:	b000ffff 	imm	-1
    542c:	b9f4aec4 	brlid	r15, -20796	// 2f0 <__extendsfdf2>
    5430:	13640000 	addk	r27, r4, r0
    5434:	10a40000 	addk	r5, r4, r0
    5438:	10e30000 	addk	r7, r3, r0
    543c:	10db0000 	addk	r6, r27, r0
    5440:	11050000 	addk	r8, r5, r0
    5444:	b000ffff 	imm	-1
    5448:	b9f4b2c8 	brlid	r15, -19768	// 710 <__adddf3>
    544c:	10ba0000 	addk	r5, r26, r0
    5450:	10a40000 	addk	r5, r4, r0
    5454:	10c50000 	addk	r6, r5, r0
    5458:	b000ffff 	imm	-1
    545c:	b9f4b9f4 	brlid	r15, -17932	// e50 <__truncdfsf2>
    5460:	10a30000 	addk	r5, r3, r0
    5464:	d873b800 	sw	r3, r19, r23
    5468:	e861001c 	lwi	r3, r1, 28
    546c:	1643b001 	cmp	r18, r3, r22
    5470:	be52ff0c 	bltid	r18, -244		// 537c
    5474:	107d0000 	addk	r3, r29, r0
    5478:	13bc0000 	addk	r29, r28, r0
    547c:	13830000 	addk	r28, r3, r0
    5480:	e881002c 	lwi	r4, r1, 44
    5484:	e8610030 	lwi	r3, r1, 48
    5488:	3084ffff 	addik	r4, r4, -1
    548c:	be24fea8 	bneid	r4, -344		// 5334
    5490:	f881002c 	swi	r4, r1, 44
    5494:	107c0000 	addk	r3, r28, r0
    5498:	139d0000 	addk	r28, r29, r0
    549c:	13b90000 	addk	r29, r25, r0
    54a0:	13230000 	addk	r25, r3, r0
    54a4:	e861003c 	lwi	r3, r1, 60
    54a8:	e8810040 	lwi	r4, r1, 64
    54ac:	30630001 	addik	r3, r3, 1
    54b0:	16432001 	cmp	r18, r3, r4
    54b4:	beb2fe58 	bgeid	r18, -424		// 530c
    54b8:	f861003c 	swi	r3, r1, 60
    54bc:	e8a1001c 	lwi	r5, r1, 28
    54c0:	be050018 	beqid	r5, 24		// 54d8
    54c4:	10600000 	addk	r3, r0, r0
    54c8:	10c50000 	addk	r6, r5, r0
    54cc:	b000ffff 	imm	-1
    54d0:	b9f4f568 	brlid	r15, -2712	// 4a38 <get_array_feedback.part.0>
    54d4:	10b70000 	addk	r5, r23, r0
    54d8:	e9e10000 	lwi	r15, r1, 0
    54dc:	ea610044 	lwi	r19, r1, 68
    54e0:	eac10048 	lwi	r22, r1, 72
    54e4:	eae1004c 	lwi	r23, r1, 76
    54e8:	eb010050 	lwi	r24, r1, 80
    54ec:	eb210054 	lwi	r25, r1, 84
    54f0:	eb410058 	lwi	r26, r1, 88
    54f4:	eb61005c 	lwi	r27, r1, 92
    54f8:	eb810060 	lwi	r28, r1, 96
    54fc:	eba10064 	lwi	r29, r1, 100
    5500:	ebc10068 	lwi	r30, r1, 104
    5504:	ebe1006c 	lwi	r31, r1, 108
    5508:	b60f0008 	rtsd	r15, 8
    550c:	30210070 	addik	r1, r1, 112

00005510 <tri_diagonal>:
    5510:	3021ffdc 	addik	r1, r1, -36
    5514:	f9e10000 	swi	r15, r1, 0
    5518:	fa61001c 	swi	r19, r1, 28
    551c:	fac10020 	swi	r22, r1, 32
    5520:	e8650050 	lwi	r3, r5, 80
    5524:	ea650030 	lwi	r19, r5, 48
    5528:	e8c5002c 	lwi	r6, r5, 44
    552c:	e9630004 	lwi	r11, r3, 4
    5530:	e8a30000 	lwi	r5, r3, 0
    5534:	be730058 	bleid	r19, 88		// 558c
    5538:	e9430008 	lwi	r10, r3, 8
    553c:	31800001 	addik	r12, r0, 1
    5540:	12cc0000 	addk	r22, r12, r0
    5544:	1646b001 	cmp	r18, r6, r22
    5548:	beb20038 	bgeid	r18, 56		// 5580
    554c:	30e00001 	addik	r7, r0, 1
    5550:	64870402 	bslli	r4, r7, 2
    5554:	11052000 	addk	r8, r5, r4
    5558:	e928fffc 	lwi	r9, r8, -4
    555c:	c8645800 	lw	r3, r4, r11
    5560:	c9045000 	lw	r8, r4, r10
    5564:	30e70001 	addik	r7, r7, 1
    5568:	58691880 	frsub	r3, r9, r3
    556c:	58634100 	fmul	r3, r3, r8
    5570:	d8642800 	sw	r3, r4, r5
    5574:	16463801 	cmp	r18, r6, r7
    5578:	be52ffdc 	bltid	r18, -36		// 5554
    557c:	64870402 	bslli	r4, r7, 2
    5580:	318c0001 	addik	r12, r12, 1
    5584:	164c9801 	cmp	r18, r12, r19
    5588:	bcb2ffbc 	bgei	r18, -68		// 5544
    558c:	be060014 	beqid	r6, 20		// 55a0
    5590:	10600000 	addk	r3, r0, r0
    5594:	b000ffff 	imm	-1
    5598:	b9f4f4a0 	brlid	r15, -2912	// 4a38 <get_array_feedback.part.0>
    559c:	80000000 	or	r0, r0, r0
    55a0:	e9e10000 	lwi	r15, r1, 0
    55a4:	ea61001c 	lwi	r19, r1, 28
    55a8:	eac10020 	lwi	r22, r1, 32
    55ac:	b60f0008 	rtsd	r15, 8
    55b0:	30210024 	addik	r1, r1, 36

000055b4 <linear_recurrence>:
    55b4:	3021ffd4 	addik	r1, r1, -44
    55b8:	f9e10000 	swi	r15, r1, 0
    55bc:	fa61001c 	swi	r19, r1, 28
    55c0:	fac10020 	swi	r22, r1, 32
    55c4:	fae10024 	swi	r23, r1, 36
    55c8:	fb010028 	swi	r24, r1, 40
    55cc:	e8c500e0 	lwi	r6, r5, 224
    55d0:	ea65002c 	lwi	r19, r5, 44
    55d4:	e8850050 	lwi	r4, r5, 80
    55d8:	eae60000 	lwi	r23, r6, 0
    55dc:	eb050030 	lwi	r24, r5, 48
    55e0:	40f39800 	mul	r7, r19, r19
    55e4:	10d70000 	addk	r6, r23, r0
    55e8:	b000ffff 	imm	-1
    55ec:	b9f4d370 	brlid	r15, -11408	// 295c <reinit_vec>
    55f0:	eac40000 	lwi	r22, r4, 0
    55f4:	bc780074 	blei	r24, 116		// 5668
    55f8:	31000001 	addik	r8, r0, 1
    55fc:	11280000 	addk	r9, r8, r0
    5600:	16534801 	cmp	r18, r19, r9
    5604:	beb20058 	bgeid	r18, 88		// 565c
    5608:	30c00001 	addik	r6, r0, 1
    560c:	64e60402 	bslli	r7, r6, 2
    5610:	10a00000 	addk	r5, r0, r0
    5614:	10f63800 	addk	r7, r22, r7
    5618:	40932800 	mul	r4, r19, r5
    561c:	14653000 	rsubk	r3, r5, r6
    5620:	10843000 	addk	r4, r4, r6
    5624:	b0003fff 	imm	16383
    5628:	3063ffff 	addik	r3, r3, -1
    562c:	64840402 	bslli	r4, r4, 2
    5630:	64630402 	bslli	r3, r3, 2
    5634:	c884b800 	lw	r4, r4, r23
    5638:	c863b000 	lw	r3, r3, r22
    563c:	30a50001 	addik	r5, r5, 1
    5640:	58641900 	fmul	r3, r4, r3
    5644:	16462801 	cmp	r18, r6, r5
    5648:	be52ffd0 	bltid	r18, -48		// 5618
    564c:	f8670000 	swi	r3, r7, 0
    5650:	30c60001 	addik	r6, r6, 1
    5654:	16533001 	cmp	r18, r19, r6
    5658:	bc52ffb4 	blti	r18, -76		// 560c
    565c:	31080001 	addik	r8, r8, 1
    5660:	1648c001 	cmp	r18, r8, r24
    5664:	bcb2ff9c 	bgei	r18, -100		// 5600
    5668:	be130018 	beqid	r19, 24		// 5680
    566c:	10600000 	addk	r3, r0, r0
    5670:	10d30000 	addk	r6, r19, r0
    5674:	b000ffff 	imm	-1
    5678:	b9f4f3c0 	brlid	r15, -3136	// 4a38 <get_array_feedback.part.0>
    567c:	10b60000 	addk	r5, r22, r0
    5680:	e9e10000 	lwi	r15, r1, 0
    5684:	ea61001c 	lwi	r19, r1, 28
    5688:	eac10020 	lwi	r22, r1, 32
    568c:	eae10024 	lwi	r23, r1, 36
    5690:	eb010028 	lwi	r24, r1, 40
    5694:	b60f0008 	rtsd	r15, 8
    5698:	3021002c 	addik	r1, r1, 44

0000569c <main>:
    569c:	3021f5f8 	addik	r1, r1, -2568
    56a0:	f9e10000 	swi	r15, r1, 0
    56a4:	b0000000 	imm	0
    56a8:	b9f405b4 	brlid	r15, 1460	// 5c5c <init_preset_0>
    56ac:	30a1001c 	addik	r5, r1, 28
    56b0:	b0000000 	imm	0
    56b4:	3120643c 	addik	r9, r0, 25660	// 643c <kernelFini>
    56b8:	b0000000 	imm	0
    56bc:	310064b4 	addik	r8, r0, 25780	// 64b4 <kernelInit>
    56c0:	b0000000 	imm	0
    56c4:	30e06478 	addik	r7, r0, 25720	// 6478 <kernels>
    56c8:	b0000000 	imm	0
    56cc:	30c064f0 	addik	r6, r0, 25840	// 64f0 <kernelnames>
    56d0:	3141001c 	addik	r10, r1, 28
    56d4:	b000ffff 	imm	-1
    56d8:	b9f4d43c 	brlid	r15, -11204	// 2b14 <initParameters_fromPreset>
    56dc:	30a0000e 	addik	r5, r0, 14
    56e0:	b000ffff 	imm	-1
    56e4:	b9f4d598 	brlid	r15, -10856	// 2c7c <runAll>
    56e8:	30a1001c 	addik	r5, r1, 28
    56ec:	b000ffff 	imm	-1
    56f0:	b9f4d76c 	brlid	r15, -10388	// 2e5c <printResults>
    56f4:	30a1001c 	addik	r5, r1, 28
    56f8:	e9e10000 	lwi	r15, r1, 0
    56fc:	10600000 	addk	r3, r0, r0
    5700:	b60f0008 	rtsd	r15, 8
    5704:	30210a08 	addik	r1, r1, 2568

00005708 <isaac>:
    5708:	3021fff0 	addik	r1, r1, -16
    570c:	fa610004 	swi	r19, r1, 4
    5710:	ea65080c 	lwi	r19, r5, 2060
    5714:	e8650808 	lwi	r3, r5, 2056
    5718:	e8850804 	lwi	r4, r5, 2052
    571c:	32730001 	addik	r19, r19, 1
    5720:	fac10008 	swi	r22, r1, 8
    5724:	fae1000c 	swi	r23, r1, 12
    5728:	31600100 	addik	r11, r0, 256
    572c:	11200000 	addk	r9, r0, r0
    5730:	31050404 	addik	r8, r5, 1028
    5734:	31850004 	addik	r12, r5, 4
    5738:	10e39800 	addk	r7, r3, r19
    573c:	a4c90003 	andi	r6, r9, 3
    5740:	65490402 	bslli	r10, r9, 2
    5744:	a8660002 	xori	r3, r6, 2
    5748:	aae60003 	xori	r23, r6, 3
    574c:	caca4000 	lw	r22, r10, r8
    5750:	be030094 	beqid	r3, 148		// 57e4
    5754:	a8c60001 	xori	r6, r6, 1
    5758:	be170084 	beqid	r23, 132		// 57dc
    575c:	6464040d 	bslli	r3, r4, 13
    5760:	bc060070 	beqi	r6, 112		// 57d0
    5764:	88832000 	xor	r4, r3, r4
    5768:	30c90080 	addik	r6, r9, 128
    576c:	a4c600ff 	andi	r6, r6, 255
    5770:	64c60402 	bslli	r6, r6, 2
    5774:	a47603fc 	andi	r3, r22, 1020
    5778:	c8c64000 	lw	r6, r6, r8
    577c:	c8634000 	lw	r3, r3, r8
    5780:	316bffff 	addik	r11, r11, -1
    5784:	10843000 	addk	r4, r4, r6
    5788:	10641800 	addk	r3, r4, r3
    578c:	10633800 	addk	r3, r3, r7
    5790:	64c3420a 	bsefi	r6, r3, 8, 10
    5794:	64c60402 	bslli	r6, r6, 2
    5798:	d86a4000 	sw	r3, r10, r8
    579c:	c8664000 	lw	r3, r6, r8
    57a0:	10f61800 	addk	r7, r22, r3
    57a4:	d8ea6000 	sw	r7, r10, r12
    57a8:	be2bff94 	bneid	r11, -108		// 573c
    57ac:	31290001 	addik	r9, r9, 1
    57b0:	fa65080c 	swi	r19, r5, 2060
    57b4:	eac10008 	lwi	r22, r1, 8
    57b8:	ea610004 	lwi	r19, r1, 4
    57bc:	eae1000c 	lwi	r23, r1, 12
    57c0:	f8850804 	swi	r4, r5, 2052
    57c4:	f8e50808 	swi	r7, r5, 2056
    57c8:	b60f0008 	rtsd	r15, 8
    57cc:	30210010 	addik	r1, r1, 16
    57d0:	64640006 	bsrli	r3, r4, 6
    57d4:	b810ff94 	brid	-108		// 5768
    57d8:	88832000 	xor	r4, r3, r4
    57dc:	b810ff88 	brid	-120		// 5764
    57e0:	64640010 	bsrli	r3, r4, 16
    57e4:	64640402 	bslli	r3, r4, 2
    57e8:	b810ff80 	brid	-128		// 5768
    57ec:	88832000 	xor	r4, r3, r4

000057f0 <load_sp>:
    57f0:	10600000 	addk	r3, r0, r0
    57f4:	88651c00 	pcmpeq	r3, r5, r3
    57f8:	bc23004c 	bnei	r3, 76		// 5844
    57fc:	88661c00 	pcmpeq	r3, r6, r3
    5800:	bc230044 	bnei	r3, 68		// 5844
    5804:	e8850000 	lwi	r4, r5, 0
    5808:	f0660000 	sbi	r3, r6, 0
    580c:	f8660004 	swi	r3, r6, 4
    5810:	64644217 	bsefi	r3, r4, 8, 23
    5814:	b000007f 	imm	127
    5818:	a4a4ffff 	andi	r5, r4, -1
    581c:	f8a60008 	swi	r5, r6, 8
    5820:	a8e300ff 	xori	r7, r3, 255
    5824:	be070020 	beqid	r7, 32		// 5844
    5828:	f4660002 	shi	r3, r6, 2
    582c:	bc230020 	bnei	r3, 32		// 584c
    5830:	bc250014 	bnei	r5, 20		// 5844
    5834:	6484001f 	bsrli	r4, r4, 31
    5838:	30600001 	addik	r3, r0, 1
    583c:	b60f0008 	rtsd	r15, 8
    5840:	f0860000 	sbi	r4, r6, 0
    5844:	b60f0008 	rtsd	r15, 8
    5848:	10600000 	addk	r3, r0, r0
    584c:	b0000080 	imm	128
    5850:	a0a50000 	ori	r5, r5, 0
    5854:	3063ff81 	addik	r3, r3, -127
    5858:	f8a60008 	swi	r5, r6, 8
    585c:	b810ffd8 	brid	-40		// 5834
    5860:	f4660002 	shi	r3, r6, 2

00005864 <random_u32>:
    5864:	3021ffe0 	addik	r1, r1, -32
    5868:	fa61001c 	swi	r19, r1, 28
    586c:	f9e10000 	swi	r15, r1, 0
    5870:	be050058 	beqid	r5, 88		// 58c8
    5874:	12650000 	addk	r19, r5, r0
    5878:	e8650000 	lwi	r3, r5, 0
    587c:	e8850814 	lwi	r4, r5, 2068
    5880:	30630001 	addik	r3, r3, 1
    5884:	16432003 	cmpu	r18, r3, r4
    5888:	be520028 	bltid	r18, 40		// 58b0
    588c:	f8650000 	swi	r3, r5, 0
    5890:	a46300ff 	andi	r3, r3, 255
    5894:	30630001 	addik	r3, r3, 1
    5898:	64630402 	bslli	r3, r3, 2
    589c:	e9e10000 	lwi	r15, r1, 0
    58a0:	c8639800 	lw	r3, r3, r19
    58a4:	ea61001c 	lwi	r19, r1, 28
    58a8:	b60f0008 	rtsd	r15, 8
    58ac:	30210020 	addik	r1, r1, 32
    58b0:	b000ffff 	imm	-1
    58b4:	b9f4fe54 	brlid	r15, -428	// 5708 <isaac>
    58b8:	80000000 	or	r0, r0, r0
    58bc:	10600000 	addk	r3, r0, r0
    58c0:	b810ffd4 	brid	-44		// 5894
    58c4:	f8130000 	swi	r0, r19, 0
    58c8:	10650000 	addk	r3, r5, r0
    58cc:	e9e10000 	lwi	r15, r1, 0
    58d0:	ea61001c 	lwi	r19, r1, 28
    58d4:	b60f0008 	rtsd	r15, 8
    58d8:	30210020 	addik	r1, r1, 32

000058dc <rand_fini>:
    58dc:	3021ffe4 	addik	r1, r1, -28
    58e0:	f9e10000 	swi	r15, r1, 0
    58e4:	b000ffff 	imm	-1
    58e8:	b9f4bd64 	brlid	r15, -17052	// 164c <free>
    58ec:	80000000 	or	r0, r0, r0
    58f0:	e9e10000 	lwi	r15, r1, 0
    58f4:	b60f0008 	rtsd	r15, 8
    58f8:	3021001c 	addik	r1, r1, 28

000058fc <rand_init>:
    58fc:	3021ffc8 	addik	r1, r1, -56
    5900:	fb010028 	swi	r24, r1, 40
    5904:	fb21002c 	swi	r25, r1, 44
    5908:	13070000 	addk	r24, r7, r0
    590c:	13280000 	addk	r25, r8, r0
    5910:	fb410030 	swi	r26, r1, 48
    5914:	fb610034 	swi	r27, r1, 52
    5918:	13490000 	addk	r26, r9, r0
    591c:	136a0000 	addk	r27, r10, r0
    5920:	fac10020 	swi	r22, r1, 32
    5924:	12c50000 	addk	r22, r5, r0
    5928:	30a00834 	addik	r5, r0, 2100
    592c:	f9e10000 	swi	r15, r1, 0
    5930:	fa61001c 	swi	r19, r1, 28
    5934:	fae10024 	swi	r23, r1, 36
    5938:	b000ffff 	imm	-1
    593c:	b9f4bce4 	brlid	r15, -17180	// 1620 <malloc>
    5940:	62e600ff 	muli	r23, r6, 255
    5944:	10f80000 	addk	r7, r24, r0
    5948:	11190000 	addk	r8, r25, r0
    594c:	10ba0000 	addk	r5, r26, r0
    5950:	10db0000 	addk	r6, r27, r0
    5954:	fae30814 	swi	r23, r3, 2068
    5958:	b000ffff 	imm	-1
    595c:	b9f4ae24 	brlid	r15, -20956	// 780 <__subdf3>
    5960:	12630000 	addk	r19, r3, r0
    5964:	10a40000 	addk	r5, r4, r0
    5968:	10c50000 	addk	r6, r5, r0
    596c:	b000ffff 	imm	-1
    5970:	b9f4b4e0 	brlid	r15, -19232	// e50 <__truncdfsf2>
    5974:	10a30000 	addk	r5, r3, r0
    5978:	10b80000 	addk	r5, r24, r0
    597c:	10d90000 	addk	r6, r25, r0
    5980:	f8730818 	swi	r3, r19, 2072
    5984:	b000ffff 	imm	-1
    5988:	b9f4b4c8 	brlid	r15, -19256	// e50 <__truncdfsf2>
    598c:	33130404 	addik	r24, r19, 1028
    5990:	be370010 	bneid	r23, 16		// 59a0
    5994:	f873081c 	swi	r3, r19, 2076
    5998:	3060ffff 	addik	r3, r0, -1
    599c:	f8730814 	swi	r3, r19, 2068
    59a0:	11760000 	addk	r11, r22, r0
    59a4:	10f60000 	addk	r7, r22, r0
    59a8:	10d60000 	addk	r6, r22, r0
    59ac:	10960000 	addk	r4, r22, r0
    59b0:	10760000 	addk	r3, r22, r0
    59b4:	11360000 	addk	r9, r22, r0
    59b8:	11160000 	addk	r8, r22, r0
    59bc:	f813080c 	swi	r0, r19, 2060
    59c0:	f8130808 	swi	r0, r19, 2056
    59c4:	f8130804 	swi	r0, r19, 2052
    59c8:	fad30810 	swi	r22, r19, 2064
    59cc:	f8130000 	swi	r0, r19, 0
    59d0:	31800004 	addik	r12, r0, 4
    59d4:	6548040b 	bslli	r10, r8, 11
    59d8:	64a90002 	bsrli	r5, r9, 2
    59dc:	894ab000 	xor	r10, r10, r22
    59e0:	11084800 	addk	r8, r8, r9
    59e4:	106a1800 	addk	r3, r10, r3
    59e8:	89054000 	xor	r8, r5, r8
    59ec:	10882000 	addk	r4, r8, r4
    59f0:	66c30408 	bslli	r22, r3, 8
    59f4:	64a40010 	bsrli	r5, r4, 16
    59f8:	11234800 	addk	r9, r3, r9
    59fc:	89364800 	xor	r9, r22, r9
    5a00:	10632000 	addk	r3, r3, r4
    5a04:	10c93000 	addk	r6, r9, r6
    5a08:	88651800 	xor	r3, r5, r3
    5a0c:	10e33800 	addk	r7, r3, r7
    5a10:	66c6040a 	bslli	r22, r6, 10
    5a14:	64a70004 	bsrli	r5, r7, 4
    5a18:	10843000 	addk	r4, r4, r6
    5a1c:	88962000 	xor	r4, r22, r4
    5a20:	10c63800 	addk	r6, r6, r7
    5a24:	11645800 	addk	r11, r4, r11
    5a28:	88c53000 	xor	r6, r5, r6
    5a2c:	114a3000 	addk	r10, r10, r6
    5a30:	66cb0408 	bslli	r22, r11, 8
    5a34:	64aa0009 	bsrli	r5, r10, 9
    5a38:	10e75800 	addk	r7, r7, r11
    5a3c:	88f63800 	xor	r7, r22, r7
    5a40:	116b5000 	addk	r11, r11, r10
    5a44:	11083800 	addk	r8, r8, r7
    5a48:	89655800 	xor	r11, r5, r11
    5a4c:	318cffff 	addik	r12, r12, -1
    5a50:	11295800 	addk	r9, r9, r11
    5a54:	be2cff80 	bneid	r12, -128		// 59d4
    5a58:	12ca4000 	addk	r22, r10, r8
    5a5c:	32e00020 	addik	r23, r0, 32	// 20 <_vector_hw_exception>
    5a60:	6548040b 	bslli	r10, r8, 11
    5a64:	67290002 	bsrli	r25, r9, 2
    5a68:	64ac0402 	bslli	r5, r12, 2
    5a6c:	894ab000 	xor	r10, r10, r22
    5a70:	106a1800 	addk	r3, r10, r3
    5a74:	11084800 	addk	r8, r8, r9
    5a78:	66c30408 	bslli	r22, r3, 8
    5a7c:	89194000 	xor	r8, r25, r8
    5a80:	10882000 	addk	r4, r8, r4
    5a84:	11234800 	addk	r9, r3, r9
    5a88:	89364800 	xor	r9, r22, r9
    5a8c:	66c40010 	bsrli	r22, r4, 16
    5a90:	10c93000 	addk	r6, r9, r6
    5a94:	10632000 	addk	r3, r3, r4
    5a98:	88761800 	xor	r3, r22, r3
    5a9c:	66c6040a 	bslli	r22, r6, 10
    5aa0:	10e33800 	addk	r7, r3, r7
    5aa4:	10843000 	addk	r4, r4, r6
    5aa8:	88962000 	xor	r4, r22, r4
    5aac:	66c70004 	bsrli	r22, r7, 4
    5ab0:	11645800 	addk	r11, r4, r11
    5ab4:	10c63800 	addk	r6, r6, r7
    5ab8:	88d63000 	xor	r6, r22, r6
    5abc:	66cb0408 	bslli	r22, r11, 8
    5ac0:	114a3000 	addk	r10, r10, r6
    5ac4:	10e75800 	addk	r7, r7, r11
    5ac8:	88f63800 	xor	r7, r22, r7
    5acc:	66ca0009 	bsrli	r22, r10, 9
    5ad0:	11083800 	addk	r8, r8, r7
    5ad4:	116b5000 	addk	r11, r11, r10
    5ad8:	89765800 	xor	r11, r22, r11
    5adc:	12ca4000 	addk	r22, r10, r8
    5ae0:	dac5c000 	sw	r22, r5, r24
    5ae4:	11295800 	addk	r9, r9, r11
    5ae8:	10b82800 	addk	r5, r24, r5
    5aec:	f9050004 	swi	r8, r5, 4
    5af0:	f9250008 	swi	r9, r5, 8
    5af4:	f865000c 	swi	r3, r5, 12
    5af8:	f8850010 	swi	r4, r5, 16
    5afc:	f8c50014 	swi	r6, r5, 20
    5b00:	f8e50018 	swi	r7, r5, 24
    5b04:	f965001c 	swi	r11, r5, 28
    5b08:	32f7ffff 	addik	r23, r23, -1
    5b0c:	be37ff54 	bneid	r23, -172		// 5a60
    5b10:	318c0008 	addik	r12, r12, 8
    5b14:	b000ffff 	imm	-1
    5b18:	b9f4fbf0 	brlid	r15, -1040	// 5708 <isaac>
    5b1c:	10b30000 	addk	r5, r19, r0
    5b20:	10730000 	addk	r3, r19, r0
    5b24:	e9e10000 	lwi	r15, r1, 0
    5b28:	ea61001c 	lwi	r19, r1, 28
    5b2c:	eac10020 	lwi	r22, r1, 32
    5b30:	eae10024 	lwi	r23, r1, 36
    5b34:	eb010028 	lwi	r24, r1, 40
    5b38:	eb21002c 	lwi	r25, r1, 44
    5b3c:	eb410030 	lwi	r26, r1, 48
    5b40:	eb610034 	lwi	r27, r1, 52
    5b44:	b60f0008 	rtsd	r15, 8
    5b48:	30210038 	addik	r1, r1, 56

00005b4c <rand_intparts_init>:
    5b4c:	3021ffd4 	addik	r1, r1, -44
    5b50:	fa61001c 	swi	r19, r1, 28
    5b54:	fac10020 	swi	r22, r1, 32
    5b58:	fae10024 	swi	r23, r1, 36
    5b5c:	fb010028 	swi	r24, r1, 40
    5b60:	12e80000 	addk	r23, r8, r0
    5b64:	13070000 	addk	r24, r7, r0
    5b68:	12c90000 	addk	r22, r9, r0
    5b6c:	126a0000 	addk	r19, r10, r0
    5b70:	11200000 	addk	r9, r0, r0
    5b74:	11400000 	addk	r10, r0, r0
    5b78:	10e90000 	addk	r7, r9, r0
    5b7c:	f9e10000 	swi	r15, r1, 0
    5b80:	b000ffff 	imm	-1
    5b84:	b9f4fd78 	brlid	r15, -648	// 58fc <rand_init>
    5b88:	110a0000 	addk	r8, r10, r0
    5b8c:	e8a10048 	lwi	r5, r1, 72
    5b90:	fb030820 	swi	r24, r3, 2080
    5b94:	fae30824 	swi	r23, r3, 2084
    5b98:	f6c30828 	shi	r22, r3, 2088
    5b9c:	fa63082c 	swi	r19, r3, 2092
    5ba0:	f8a30830 	swi	r5, r3, 2096
    5ba4:	e9e10000 	lwi	r15, r1, 0
    5ba8:	ea61001c 	lwi	r19, r1, 28
    5bac:	eac10020 	lwi	r22, r1, 32
    5bb0:	eae10024 	lwi	r23, r1, 36
    5bb4:	eb010028 	lwi	r24, r1, 40
    5bb8:	b60f0008 	rtsd	r15, 8
    5bbc:	3021002c 	addik	r1, r1, 44

00005bc0 <random_u32_vector>:
    5bc0:	3021ffd8 	addik	r1, r1, -40
    5bc4:	fac10024 	swi	r22, r1, 36
    5bc8:	b0002000 	imm	8192
    5bcc:	31200000 	addik	r9, r0, 0
    5bd0:	b0004202 	imm	16898
    5bd4:	3140a05f 	addik	r10, r0, -24481
    5bd8:	b0002000 	imm	8192
    5bdc:	30e00000 	addik	r7, r0, 0
    5be0:	b000c202 	imm	-15870
    5be4:	3100a05f 	addik	r8, r0, -24481
    5be8:	12c50000 	addk	r22, r5, r0
    5bec:	10a60000 	addk	r5, r6, r0
    5bf0:	30c00100 	addik	r6, r0, 256
    5bf4:	f9e10000 	swi	r15, r1, 0
    5bf8:	b000ffff 	imm	-1
    5bfc:	b9f4fd00 	brlid	r15, -768	// 58fc <rand_init>
    5c00:	fa610020 	swi	r19, r1, 32
    5c04:	12630000 	addk	r19, r3, r0
    5c08:	b000ffff 	imm	-1
    5c0c:	b9f4ba14 	brlid	r15, -17900	// 1620 <malloc>
    5c10:	64b60402 	bslli	r5, r22, 2
    5c14:	10b30000 	addk	r5, r19, r0
    5c18:	b000ffff 	imm	-1
    5c1c:	b9f4ba30 	brlid	r15, -17872	// 164c <free>
    5c20:	f861001c 	swi	r3, r1, 28
    5c24:	e861001c 	lwi	r3, r1, 28
    5c28:	e9e10000 	lwi	r15, r1, 0
    5c2c:	ea610020 	lwi	r19, r1, 32
    5c30:	eac10024 	lwi	r22, r1, 36
    5c34:	b60f0008 	rtsd	r15, 8
    5c38:	30210028 	addik	r1, r1, 40

00005c3c <fromint_random_f32_vector>:
    5c3c:	3021fffc 	addik	r1, r1, -4
    5c40:	f9e10000 	swi	r15, r1, 0
    5c44:	b000ffff 	imm	-1
    5c48:	b9f4b9d8 	brlid	r15, -17960	// 1620 <malloc>
    5c4c:	64a50402 	bslli	r5, r5, 2
    5c50:	e9e10000 	lwi	r15, r1, 0
    5c54:	b60f0008 	rtsd	r15, 8
    5c58:	30210004 	addik	r1, r1, 4

00005c5c <init_preset_0>:
    5c5c:	3021ffe4 	addik	r1, r1, -28
    5c60:	f9e10000 	swi	r15, r1, 0
    5c64:	3060000e 	addik	r3, r0, 14
    5c68:	f8650000 	swi	r3, r5, 0
    5c6c:	b0000464 	imm	1124
    5c70:	30605ca3 	addik	r3, r0, 23715
    5c74:	b0000000 	imm	0
    5c78:	30c06590 	addik	r6, r0, 26000	// 6590 <ref_data_index>
    5c7c:	30e00180 	addik	r7, r0, 384
    5c80:	f8650034 	swi	r3, r5, 52
    5c84:	30601000 	addik	r3, r0, 4096	// 1000 <_STACK_SIZE>
    5c88:	f8650014 	swi	r3, r5, 20
    5c8c:	30600010 	addik	r3, r0, 16	// 10 <_vector_interrupt>
    5c90:	f8650028 	swi	r3, r5, 40
    5c94:	30600001 	addik	r3, r0, 1
    5c98:	f8650030 	swi	r3, r5, 48
    5c9c:	b000ffff 	imm	-1
    5ca0:	b9f4ca90 	brlid	r15, -13680	// 2730 <mmemcpy>
    5ca4:	30a506ec 	addik	r5, r5, 1772
    5ca8:	e9e10000 	lwi	r15, r1, 0
    5cac:	b60f0008 	rtsd	r15, 8
    5cb0:	3021001c 	addik	r1, r1, 28

00005cb4 <__interrupt_handler>:
    5cb4:	3021ffac 	addik	r1, r1, -84
    5cb8:	f9e10000 	swi	r15, r1, 0
    5cbc:	f8210020 	swi	r1, r1, 32
    5cc0:	f8610024 	swi	r3, r1, 36
    5cc4:	f8810028 	swi	r4, r1, 40
    5cc8:	f8a1002c 	swi	r5, r1, 44
    5ccc:	f8c10030 	swi	r6, r1, 48
    5cd0:	f8e10034 	swi	r7, r1, 52
    5cd4:	f9010038 	swi	r8, r1, 56
    5cd8:	f921003c 	swi	r9, r1, 60
    5cdc:	f9410040 	swi	r10, r1, 64
    5ce0:	b0000000 	imm	0
    5ce4:	3060652c 	addik	r3, r0, 25900	// 652c <MB_InterruptVectorTable>
    5ce8:	f9610044 	swi	r11, r1, 68
    5cec:	f9810048 	swi	r12, r1, 72
    5cf0:	fa21004c 	swi	r17, r1, 76
    5cf4:	95608001 	mfs	r11, rmsr
    5cf8:	e8830000 	lwi	r4, r3, 0
    5cfc:	e8a30004 	lwi	r5, r3, 4
    5d00:	fa410050 	swi	r18, r1, 80
    5d04:	f961001c 	swi	r11, r1, 28
    5d08:	99fc2000 	brald	r15, r4
    5d0c:	80000000 	or	r0, r0, r0
    5d10:	e9e10000 	lwi	r15, r1, 0
    5d14:	e961001c 	lwi	r11, r1, 28
    5d18:	e8210020 	lwi	r1, r1, 32
    5d1c:	940bc001 	mts	rmsr, r11
    5d20:	e8610024 	lwi	r3, r1, 36
    5d24:	e8810028 	lwi	r4, r1, 40
    5d28:	e8a1002c 	lwi	r5, r1, 44
    5d2c:	e8c10030 	lwi	r6, r1, 48
    5d30:	e8e10034 	lwi	r7, r1, 52
    5d34:	e9010038 	lwi	r8, r1, 56
    5d38:	e921003c 	lwi	r9, r1, 60
    5d3c:	e9410040 	lwi	r10, r1, 64
    5d40:	e9610044 	lwi	r11, r1, 68
    5d44:	e9810048 	lwi	r12, r1, 72
    5d48:	ea21004c 	lwi	r17, r1, 76
    5d4c:	ea410050 	lwi	r18, r1, 80
    5d50:	b62e0000 	rtid	r14, 0
    5d54:	30210054 	addik	r1, r1, 84

00005d58 <XNullHandler>:
    5d58:	b60f0008 	rtsd	r15, 8
    5d5c:	80000000 	or	r0, r0, r0

00005d60 <__errno>:
    5d60:	b0000000 	imm	0
    5d64:	e8605f38 	lwi	r3, r0, 24376	// 5f38 <_SDA2_BASE_>
    5d68:	b60f0008 	rtsd	r15, 8
    5d6c:	80000000 	or	r0, r0, r0

Disassembly of section .init:

00005d70 <__init>:
    5d70:	3021fff0 	addik	r1, r1, -16
    5d74:	d9e00800 	sw	r15, r0, r1
    5d78:	3160ffff 	addik	r11, r0, -1
    5d7c:	940bc802 	mts	rshr, r11
    5d80:	31600000 	addik	r11, r0, 0
    5d84:	940bc800 	mts	rslr, r11
    5d88:	b000ffff 	imm	-1
    5d8c:	b9f4a46c 	brlid	r15, -23444	// 1f8 <frame_dummy>
    5d90:	80000000 	or	r0, r0, r0
    5d94:	b000ffff 	imm	-1
    5d98:	b9f4c948 	brlid	r15, -14008	// 26e0 <__do_global_ctors_aux>
    5d9c:	80000000 	or	r0, r0, r0
    5da0:	c9e00800 	lw	r15, r0, r1
    5da4:	b60f0008 	rtsd	r15, 8
    5da8:	30210010 	addik	r1, r1, 16

Disassembly of section .fini:

00005dac <__fini>:
    5dac:	3021fff0 	addik	r1, r1, -16
    5db0:	d9e00800 	sw	r15, r0, r1
    5db4:	b000ffff 	imm	-1
    5db8:	b9f4a36c 	brlid	r15, -23700	// 124 <__do_global_dtors_aux>
    5dbc:	80000000 	or	r0, r0, r0
    5dc0:	c9e00800 	lw	r15, r0, r1
    5dc4:	b60f0008 	rtsd	r15, 8
    5dc8:	30210010 	addik	r1, r1, 16

Disassembly of section .ctors:

00005dcc <__CTOR_LIST__>:
    5dcc:	ffffffff 	sli	r31, r31, -1

00005dd0 <__CTOR_END__>:
    5dd0:	
Disassembly of section .dtors:

00005dd4 <__DTOR_LIST__>:
    5dd4:	ffffffff 	sli	r31, r31, -1

00005dd8 <__DTOR_END__>:
    5dd8:	
Disassembly of section .rodata:

00005ddc <__rodata_start>:
    5ddc:	64656d2f 	bslefi	r3, r5, 52, 47
    5de0:	6e2f6169 	ncget	r17, rfsl9
    5de4:	2f6f6e75 	rsubic	r27, r15, 28277
    5de8:	2f444448 	rsubic	r26, r4, 17480
    5dec:	6b726f77 		r27, r18, r13
    5df0:	6f72702f 	tncget	r27, rfsl15
    5df4:	7463656a 		r3, r3, r12
    5df8:	69562f73 		r10, r22, r5
    5dfc:	6f646176 	ncget	r27, rfsl6
    5e00:	75637a2f 		r11, r3, r15
    5e04:	2f323031 	rsubic	r25, r18, 12337
    5e08:	682f7773 		r1, r15, r14
    5e0c:	656e7261 	bslefi	r11, r14, 9, 33
    5e10:	682f7373 		r1, r15, r14
    5e14:	656e7261 	bslefi	r11, r14, 9, 33
    5e18:	632e7373 	muli	r25, r14, 29555
    5e1c:	
00005f1c <__thenan_df>:
	...

00005f30 <_global_impure_ptr>:
    5f30:	00005f3c 		r0, r0, r11
    5f34:	Address 0x0000000000005f34 is out of bounds.


Disassembly of section .sdata2:

00005f36 <__sbss2_end-0x2>:
	...

Disassembly of section .data:

00005f38 <_impure_ptr>:
    5f38:	00005f3c 		r0, r0, r11

00005f3c <impure_data>:
	...
    5f5c:	00005f34 		r0, r0, r11
	...

0000602c <__malloc_sbrk_base>:
    602c:	ffffffff 	sli	r31, r31, -1

00006030 <__malloc_trim_threshold>:
    6030:	00020000 	add	r0, r2, r0

00006034 <__malloc_av_>:
	...
    603c:	00006034 		r0, r0, r12
    6040:	00006034 		r0, r0, r12
    6044:	0000603c 		r0, r0, r12
    6048:	0000603c 		r0, r0, r12
    604c:	00006044 		r0, r0, r12
    6050:	00006044 		r0, r0, r12
    6054:	0000604c 		r0, r0, r12
    6058:	0000604c 		r0, r0, r12
    605c:	00006054 		r0, r0, r12
    6060:	00006054 		r0, r0, r12
    6064:	0000605c 		r0, r0, r12
    6068:	0000605c 		r0, r0, r12
    606c:	00006064 		r0, r0, r12
    6070:	00006064 		r0, r0, r12
    6074:	0000606c 		r0, r0, r12
    6078:	0000606c 		r0, r0, r12
    607c:	00006074 		r0, r0, r12
    6080:	00006074 		r0, r0, r12
    6084:	0000607c 		r0, r0, r12
    6088:	0000607c 		r0, r0, r12
    608c:	00006084 		r0, r0, r12
    6090:	00006084 		r0, r0, r12
    6094:	0000608c 		r0, r0, r12
    6098:	0000608c 		r0, r0, r12
    609c:	00006094 		r0, r0, r12
    60a0:	00006094 		r0, r0, r12
    60a4:	0000609c 		r0, r0, r12
    60a8:	0000609c 		r0, r0, r12
    60ac:	000060a4 		r0, r0, r12
    60b0:	000060a4 		r0, r0, r12
    60b4:	000060ac 		r0, r0, r12
    60b8:	000060ac 		r0, r0, r12
    60bc:	000060b4 		r0, r0, r12
    60c0:	000060b4 		r0, r0, r12
    60c4:	000060bc 		r0, r0, r12
    60c8:	000060bc 		r0, r0, r12
    60cc:	000060c4 		r0, r0, r12
    60d0:	000060c4 		r0, r0, r12
    60d4:	000060cc 		r0, r0, r12
    60d8:	000060cc 		r0, r0, r12
    60dc:	000060d4 		r0, r0, r12
    60e0:	000060d4 		r0, r0, r12
    60e4:	000060dc 		r0, r0, r12
    60e8:	000060dc 		r0, r0, r12
    60ec:	000060e4 		r0, r0, r12
    60f0:	000060e4 		r0, r0, r12
    60f4:	000060ec 		r0, r0, r12
    60f8:	000060ec 		r0, r0, r12
    60fc:	000060f4 		r0, r0, r12
    6100:	000060f4 		r0, r0, r12
    6104:	000060fc 		r0, r0, r12
    6108:	000060fc 		r0, r0, r12
    610c:	00006104 		r0, r0, r12
    6110:	00006104 		r0, r0, r12
    6114:	0000610c 		r0, r0, r12
    6118:	0000610c 		r0, r0, r12
    611c:	00006114 		r0, r0, r12
    6120:	00006114 		r0, r0, r12
    6124:	0000611c 		r0, r0, r12
    6128:	0000611c 		r0, r0, r12
    612c:	00006124 		r0, r0, r12
    6130:	00006124 		r0, r0, r12
    6134:	0000612c 		r0, r0, r12
    6138:	0000612c 		r0, r0, r12
    613c:	00006134 		r0, r0, r12
    6140:	00006134 		r0, r0, r12
    6144:	0000613c 		r0, r0, r12
    6148:	0000613c 		r0, r0, r12
    614c:	00006144 		r0, r0, r12
    6150:	00006144 		r0, r0, r12
    6154:	0000614c 		r0, r0, r12
    6158:	0000614c 		r0, r0, r12
    615c:	00006154 		r0, r0, r12
    6160:	00006154 		r0, r0, r12
    6164:	0000615c 		r0, r0, r12
    6168:	0000615c 		r0, r0, r12
    616c:	00006164 		r0, r0, r12
    6170:	00006164 		r0, r0, r12
    6174:	0000616c 		r0, r0, r12
    6178:	0000616c 		r0, r0, r12
    617c:	00006174 		r0, r0, r12
    6180:	00006174 		r0, r0, r12
    6184:	0000617c 		r0, r0, r12
    6188:	0000617c 		r0, r0, r12
    618c:	00006184 		r0, r0, r12
    6190:	00006184 		r0, r0, r12
    6194:	0000618c 		r0, r0, r12
    6198:	0000618c 		r0, r0, r12
    619c:	00006194 		r0, r0, r12
    61a0:	00006194 		r0, r0, r12
    61a4:	0000619c 		r0, r0, r12
    61a8:	0000619c 		r0, r0, r12
    61ac:	000061a4 		r0, r0, r12
    61b0:	000061a4 		r0, r0, r12
    61b4:	000061ac 		r0, r0, r12
    61b8:	000061ac 		r0, r0, r12
    61bc:	000061b4 		r0, r0, r12
    61c0:	000061b4 		r0, r0, r12
    61c4:	000061bc 		r0, r0, r12
    61c8:	000061bc 		r0, r0, r12
    61cc:	000061c4 		r0, r0, r12
    61d0:	000061c4 		r0, r0, r12
    61d4:	000061cc 		r0, r0, r12
    61d8:	000061cc 		r0, r0, r12
    61dc:	000061d4 		r0, r0, r12
    61e0:	000061d4 		r0, r0, r12
    61e4:	000061dc 		r0, r0, r12
    61e8:	000061dc 		r0, r0, r12
    61ec:	000061e4 		r0, r0, r12
    61f0:	000061e4 		r0, r0, r12
    61f4:	000061ec 		r0, r0, r12
    61f8:	000061ec 		r0, r0, r12
    61fc:	000061f4 		r0, r0, r12
    6200:	000061f4 		r0, r0, r12
    6204:	000061fc 		r0, r0, r12
    6208:	000061fc 		r0, r0, r12
    620c:	00006204 		r0, r0, r12
    6210:	00006204 		r0, r0, r12
    6214:	0000620c 		r0, r0, r12
    6218:	0000620c 		r0, r0, r12
    621c:	00006214 		r0, r0, r12
    6220:	00006214 		r0, r0, r12
    6224:	0000621c 		r0, r0, r12
    6228:	0000621c 		r0, r0, r12
    622c:	00006224 		r0, r0, r12
    6230:	00006224 		r0, r0, r12
    6234:	0000622c 		r0, r0, r12
    6238:	0000622c 		r0, r0, r12
    623c:	00006234 		r0, r0, r12
    6240:	00006234 		r0, r0, r12
    6244:	0000623c 		r0, r0, r12
    6248:	0000623c 		r0, r0, r12
    624c:	00006244 		r0, r0, r12
    6250:	00006244 		r0, r0, r12
    6254:	0000624c 		r0, r0, r12
    6258:	0000624c 		r0, r0, r12
    625c:	00006254 		r0, r0, r12
    6260:	00006254 		r0, r0, r12
    6264:	0000625c 		r0, r0, r12
    6268:	0000625c 		r0, r0, r12
    626c:	00006264 		r0, r0, r12
    6270:	00006264 		r0, r0, r12
    6274:	0000626c 		r0, r0, r12
    6278:	0000626c 		r0, r0, r12
    627c:	00006274 		r0, r0, r12
    6280:	00006274 		r0, r0, r12
    6284:	0000627c 		r0, r0, r12
    6288:	0000627c 		r0, r0, r12
    628c:	00006284 		r0, r0, r12
    6290:	00006284 		r0, r0, r12
    6294:	0000628c 		r0, r0, r12
    6298:	0000628c 		r0, r0, r12
    629c:	00006294 		r0, r0, r12
    62a0:	00006294 		r0, r0, r12
    62a4:	0000629c 		r0, r0, r12
    62a8:	0000629c 		r0, r0, r12
    62ac:	000062a4 		r0, r0, r12
    62b0:	000062a4 		r0, r0, r12
    62b4:	000062ac 		r0, r0, r12
    62b8:	000062ac 		r0, r0, r12
    62bc:	000062b4 		r0, r0, r12
    62c0:	000062b4 		r0, r0, r12
    62c4:	000062bc 		r0, r0, r12
    62c8:	000062bc 		r0, r0, r12
    62cc:	000062c4 		r0, r0, r12
    62d0:	000062c4 		r0, r0, r12
    62d4:	000062cc 		r0, r0, r12
    62d8:	000062cc 		r0, r0, r12
    62dc:	000062d4 		r0, r0, r12
    62e0:	000062d4 		r0, r0, r12
    62e4:	000062dc 		r0, r0, r12
    62e8:	000062dc 		r0, r0, r12
    62ec:	000062e4 		r0, r0, r12
    62f0:	000062e4 		r0, r0, r12
    62f4:	000062ec 		r0, r0, r12
    62f8:	000062ec 		r0, r0, r12
    62fc:	000062f4 		r0, r0, r12
    6300:	000062f4 		r0, r0, r12
    6304:	000062fc 		r0, r0, r12
    6308:	000062fc 		r0, r0, r12
    630c:	00006304 		r0, r0, r12
    6310:	00006304 		r0, r0, r12
    6314:	0000630c 		r0, r0, r12
    6318:	0000630c 		r0, r0, r12
    631c:	00006314 		r0, r0, r12
    6320:	00006314 		r0, r0, r12
    6324:	0000631c 		r0, r0, r12
    6328:	0000631c 		r0, r0, r12
    632c:	00006324 		r0, r0, r12
    6330:	00006324 		r0, r0, r12
    6334:	0000632c 		r0, r0, r12
    6338:	0000632c 		r0, r0, r12
    633c:	00006334 		r0, r0, r12
    6340:	00006334 		r0, r0, r12
    6344:	0000633c 		r0, r0, r12
    6348:	0000633c 		r0, r0, r12
    634c:	00006344 		r0, r0, r12
    6350:	00006344 		r0, r0, r12
    6354:	0000634c 		r0, r0, r12
    6358:	0000634c 		r0, r0, r12
    635c:	00006354 		r0, r0, r12
    6360:	00006354 		r0, r0, r12
    6364:	0000635c 		r0, r0, r12
    6368:	0000635c 		r0, r0, r12
    636c:	00006364 		r0, r0, r12
    6370:	00006364 		r0, r0, r12
    6374:	0000636c 		r0, r0, r12
    6378:	0000636c 		r0, r0, r12
    637c:	00006374 		r0, r0, r12
    6380:	00006374 		r0, r0, r12
    6384:	0000637c 		r0, r0, r12
    6388:	0000637c 		r0, r0, r12
    638c:	00006384 		r0, r0, r12
    6390:	00006384 		r0, r0, r12
    6394:	0000638c 		r0, r0, r12
    6398:	0000638c 		r0, r0, r12
    639c:	00006394 		r0, r0, r12
    63a0:	00006394 		r0, r0, r12
    63a4:	0000639c 		r0, r0, r12
    63a8:	0000639c 		r0, r0, r12
    63ac:	000063a4 		r0, r0, r12
    63b0:	000063a4 		r0, r0, r12
    63b4:	000063ac 		r0, r0, r12
    63b8:	000063ac 		r0, r0, r12
    63bc:	000063b4 		r0, r0, r12
    63c0:	000063b4 		r0, r0, r12
    63c4:	000063bc 		r0, r0, r12
    63c8:	000063bc 		r0, r0, r12
    63cc:	000063c4 		r0, r0, r12
    63d0:	000063c4 		r0, r0, r12
    63d4:	000063cc 		r0, r0, r12
    63d8:	000063cc 		r0, r0, r12
    63dc:	000063d4 		r0, r0, r12
    63e0:	000063d4 		r0, r0, r12
    63e4:	000063dc 		r0, r0, r12
    63e8:	000063dc 		r0, r0, r12
    63ec:	000063e4 		r0, r0, r12
    63f0:	000063e4 		r0, r0, r12
    63f4:	000063ec 		r0, r0, r12
    63f8:	000063ec 		r0, r0, r12
    63fc:	000063f4 		r0, r0, r12
    6400:	000063f4 		r0, r0, r12
    6404:	000063fc 		r0, r0, r12
    6408:	000063fc 		r0, r0, r12
    640c:	00006404 		r0, r0, r12
    6410:	00006404 		r0, r0, r12
    6414:	0000640c 		r0, r0, r12
    6418:	0000640c 		r0, r0, r12
    641c:	00006414 		r0, r0, r12
    6420:	00006414 		r0, r0, r12
    6424:	0000641c 		r0, r0, r12
    6428:	0000641c 		r0, r0, r12
    642c:	00006424 		r0, r0, r12
    6430:	00006424 		r0, r0, r12
    6434:	0000642c 		r0, r0, r12
    6438:	0000642c 		r0, r0, r12

0000643c <kernelFini>:
    643c:	000040f0 		r0, r0, r8
    6440:	00004168 		r0, r0, r8
    6444:	000041a8 		r0, r0, r8
    6448:	000041c8 		r0, r0, r8
    644c:	00004148 		r0, r0, r8
    6450:	00004208 		r0, r0, r8
    6454:	00004248 		r0, r0, r8
    6458:	00004268 		r0, r0, r8
    645c:	00004310 		r0, r0, r8
    6460:	00004388 		r0, r0, r8
    6464:	000043e0 		r0, r0, r8
    6468:	00004450 		r0, r0, r8
    646c:	000044a0 		r0, r0, r8
    6470:	00004430 		r0, r0, r8
    6474:	
00006478 <kernels>:
    6478:	00004a84 		r0, r0, r9
    647c:	00004b54 		r0, r0, r9
    6480:	00002e64 		r0, r0, r5
    6484:	000055b4 		r0, r0, r10
    6488:	00004c48 		r0, r0, r9
    648c:	00003c0c 		r0, r0, r7
    6490:	00002ec8 		r0, r0, r5
    6494:	0000300c 		r0, r0, r6
    6498:	000031e0 		r0, r0, r6
    649c:	00004d80 		r0, r0, r9
    64a0:	00003568 		r0, r0, r6
    64a4:	0000517c 		r0, r0, r10
    64a8:	00005288 		r0, r0, r10
    64ac:	00005510 		r0, r0, r10
    64b0:	
000064b4 <kernelInit>:
    64b4:	00003614 		r0, r0, r6
    64b8:	00003740 		r0, r0, r6
    64bc:	000037f4 		r0, r0, r6
    64c0:	000038ac 		r0, r0, r7
    64c4:	00003a7c 		r0, r0, r7
    64c8:	00003b5c 		r0, r0, r7
    64cc:	00003d90 		r0, r0, r7
    64d0:	000044f8 		r0, r0, r8
    64d4:	000048f0 		r0, r0, r9
    64d8:	00003e40 		r0, r0, r7
    64dc:	00003fa0 		r0, r0, r7
    64e0:	00004720 		r0, r0, r8
    64e4:	0000481c 		r0, r0, r9
    64e8:	00004058 		r0, r0, r8
    64ec:	
000064f0 <kernelnames>:
    64f0:	00005e68 		r0, r0, r11
    64f4:	00005e70 		r0, r0, r11
    64f8:	00005e7c 		r0, r0, r11
    64fc:	00005e88 		r0, r0, r11
    6500:	00005e9c 		r0, r0, r11
    6504:	00005ea8 		r0, r0, r11
    6508:	00005ebc 		r0, r0, r11
    650c:	00005ed0 		r0, r0, r11
    6510:	00005ed8 		r0, r0, r11
    6514:	00005ee0 		r0, r0, r11
    6518:	00005eec 		r0, r0, r11
    651c:	00005ef4 		r0, r0, r11
    6520:	00005efc 		r0, r0, r11
    6524:	00005f10 		r0, r0, r11
    6528:	
0000652c <MB_InterruptVectorTable>:
    652c:	00005d58 		r0, r0, r11
    6530:	
Disassembly of section .sdata:

00006534 <__sdata_end-0x4>:
    6534:	
Disassembly of section .bss:

00006538 <__bss_start>:
    6538:	
0000653c <dtor_idx.5045>:
    653c:	
00006540 <object.5055>:
	...

00006558 <__malloc_current_mallinfo>:
	...

00006580 <__malloc_max_total_mem>:
    6580:	
00006584 <__malloc_max_sbrked_mem>:
    6584:	
00006588 <__malloc_top_pad>:
    6588:	
0000658c <heap_ptr>:
    658c:	
00006590 <ref_data_index>:
	...

00006644 <errno>:
    6644:	
Disassembly of section .heap:

00006648 <_heap>:
	...

Disassembly of section .stack:

0001e648 <_stack_end>:
	...

Disassembly of section .debug_frame:

00000000 <.debug_frame>:
   0:	0000000c 		r0, r0, r0
   4:	ffffffff 	sli	r31, r31, -1
   8:	7f010003 		r24, r1, r0
   c:	00010c0f 		r0, r1, r1
  10:	0000001c 		r0, r0, r0
  14:	
Disassembly of section .debug_info:

00000000 <.debug_info>:
       0:	000003c4 		r0, r0, r0
       4:	00000004 		r0, r0, r0
       8:	01040000 	add	r8, r4, r0
       c:	0000034f 		r0, r0, r0
      10:	00010e0c 		r0, r1, r1
      14:	00019900 	addl	r0, r1, r19
      18:	0002f000 	add	r0, r2, r30
      1c:	00004800 	add	r0, r0, r9
      20:	
Disassembly of section .debug_abbrev:

00000000 <.debug_abbrev>:
       0:	25011101 	rsubi	r8, r1, 4353
       4:	030b130e 		r24, r11, r2
       8:	110e1b0e 		r8, r14, r3
       c:	10061201 		r0, r6, r2
      10:	02000017 		r16, r0, r0
      14:	0b0b0024 		r24, r11, r0
      18:	0e030b3e 		r16, r3, r1
      1c:	24030000 	rsubi	r0, r3, 0
      20:	3e0b0b00 	rsubikc	r16, r11, 2816
      24:	0008030b 		r0, r8, r0
      28:	01010400 		r8, r1, r0
      2c:	13011349 		r24, r1, r2
      30:	21050000 	addi	r8, r5, 0
      34:	06000000 	rsub	r16, r0, r0
      38:	13490026 		r26, r9, r0
      3c:	0f070000 	rsubc	r24, r7, r0
      40:	490b0b00 		r8, r11, r1
      44:	08000013 		r0, r0, r0
      48:	0e030034 		r16, r3, r0
      4c:	0b3b0b3a 		r25, r27, r1
      50:	193f1349 		r9, r31, r2
      54:	0000193c 		r0, r0, r3
      58:	03010409 		r24, r1, r0
      5c:	0b0b3e0e 		r24, r11, r7
      60:	3a13490b 	addikc	r16, r19, 18699
      64:	010b3b0b 		r8, r11, r7
      68:	0a000013 		r16, r0, r0
      6c:	0e030028 		r16, r3, r0
      70:	00000b1c 		r0, r0, r1
      74:	4900210b 		r8, r0, r4
      78:	000b2f13 		r0, r11, r5
      7c:	00340c00 		r1, r20, r1
      80:	0b3a0e03 		r25, r26, r1
      84:	1349053b 		r26, r9, r0
      88:	193c193f 		r9, r28, r3
      8c:	040d0000 	rsub	r0, r13, r0
      90:	3e0e0301 	rsubikc	r16, r14, 769
      94:	490b0b0b 		r8, r11, r1
      98:	3b0b3a13 	addikc	r24, r11, 14867
      9c:	00130105 		r0, r19, r0
      a0:	00130e00 		r0, r19, r1
      a4:	193c0e03 		r9, r28, r1
      a8:	160f0000 	rsubk	r16, r15, r0
      ac:	3a0e0300 	addikc	r16, r14, 768
      b0:	490b3b0b 		r8, r11, r7
      b4:	10000013 		r0, r0, r0
      b8:	0b3e0104 		r25, r30, r0
      bc:	13490b0b 		r26, r9, r1
      c0:	053b0b3a 	neg	r9, r27
      c4:	00001301 		r0, r0, r2
      c8:	03001611 		r24, r0, r2
      cc:	3b0b3a0e 	addikc	r24, r11, 14862
      d0:	00134905 		r0, r19, r9
      d4:	01171200 		r8, r23, r2
      d8:	0b3a0b0b 		r25, r26, r1
      dc:	1301053b 		r24, r1, r0
      e0:	0d130000 	rsubc	r8, r19, r0
      e4:	3a080300 	addikc	r16, r8, 768
      e8:	49053b0b 		r8, r5, r7
      ec:	14000013 		r0, r0, r0
      f0:	0b0b0113 		r24, r11, r0
      f4:	053b0b3a 	neg	r9, r27
      f8:	00001301 		r0, r0, r2
      fc:	03000d15 		r24, r0, r1
     100:	3b0b3a0e 	addikc	r24, r11, 14862
     104:	38134905 	addikc	r0, r19, 18693
     108:	1600000b 		r16, r0, r0
     10c:	0e03000d 		r16, r3, r0
     110:	053b0b3a 	neg	r9, r27
     114:	0b0b1349 		r24, r11, r2
     118:	0b0c0b0d 		r24, r12, r1
     11c:	00000b38 		r0, r0, r1
     120:	03000d17 		r24, r0, r1
     124:	3b0b3a08 	addikc	r24, r11, 14856
     128:	0b134905 		r24, r19, r9
     12c:	0c0b0d0b 		r0, r11, r1
     130:	000b380b 		r0, r11, r7
     134:	000d1800 	add	r0, r13, r3
     138:	0b3a0e03 		r25, r26, r1
     13c:	1349053b 		r26, r9, r0
     140:	2e190000 	rsubic	r16, r25, 0
     144:	03193f01 		r24, r25, r7
     148:	3b0b3a0e 	addikc	r24, r11, 14862
     14c:	49192705 		r8, r25, r4
     150:	12011113 		r16, r1, r2
     154:	97184006 		r24, r24, r8
     158:	13011942 		r24, r1, r3
     15c:	051a0000 	rsub	r8, r26, r0
     160:	3a0e0300 	addikc	r16, r14, 768
     164:	49053b0b 		r8, r5, r7
     168:	00170213 		r0, r23, r0
     16c:	00341b00 		r1, r20, r3
     170:	0b3a0803 		r25, r26, r1
     174:	1349053b 		r26, r9, r0
     178:	00001802 		r0, r0, r3
     17c:	0182891c 		r12, r2, r17
     180:	31011101 	addik	r8, r1, 4353
     184:	00130113 		r0, r19, r0
     188:	828a1d00 	pcmplbf	r20, r10, r3
     18c:	18020001 		r0, r2, r0
     190:	00184291 		r0, r24, r8
     194:	82891e00 		r20, r9, r3
     198:	01110001 		r8, r17, r0
     19c:	00001331 		r0, r0, r2
     1a0:	3f002e1f 	rsubikc	r24, r0, 11807
     1a4:	6e193c19 	tecaget	r16, rfsl9
     1a8:	3a0e030e 	addikc	r16, r14, 782
     1ac:	00053b0b 		r0, r5, r7
     1b0:	11010000 	addk	r8, r1, r0
     1b4:	130e2501 		r24, r14, r4
     1b8:	1b0e030b 		r24, r14, r0
     1bc:	1201110e 		r16, r1, r2
     1c0:	00171006 		r0, r23, r2
     1c4:	00240200 		r1, r4, r0
     1c8:	0b3e0b0b 		r25, r30, r1
     1cc:	00000e03 		r0, r0, r1
     1d0:	0b002403 		r24, r0, r4
     1d4:	030b3e0b 		r24, r11, r7
     1d8:	04000008 	neg	r0, r0
     1dc:	13490101 		r26, r9, r0
     1e0:	00001301 		r0, r0, r2
     1e4:	00002105 		r0, r0, r4
     1e8:	00260600 		r1, r6, r0
     1ec:	00001349 		r0, r0, r2
     1f0:	0b000f07 		r24, r0, r1
     1f4:	0013490b 		r0, r19, r9
     1f8:	00340800 	add	r1, r20, r1
     1fc:	0b3a0e03 		r25, r26, r1
     200:	13490b3b 		r26, r9, r1
     204:	193c193f 		r9, r28, r3
     208:	04090000 	rsub	r0, r9, r0
     20c:	3e0e0301 	rsubikc	r16, r14, 769
     210:	490b0b0b 		r8, r11, r1
     214:	3b0b3a13 	addikc	r24, r11, 14867
     218:	0013010b 		r0, r19, r0
     21c:	00280a00 		r1, r8, r1
     220:	0b1c0e03 		r24, r28, r1
     224:	210b0000 	addi	r8, r11, 0
     228:	2f134900 	rsubic	r24, r19, 18688
     22c:	0c00000b 		r0, r0, r0
     230:	0e030034 		r16, r3, r0
     234:	053b0b3a 	neg	r9, r27
     238:	193f1349 		r9, r31, r2
     23c:	0000193c 		r0, r0, r3
     240:	0301040d 		r24, r1, r0
     244:	0b0b3e0e 		r24, r11, r7
     248:	3a13490b 	addikc	r16, r19, 18699
     24c:	01053b0b 		r8, r5, r7
     250:	0e000013 		r16, r0, r0
     254:	0e030013 		r16, r3, r0
     258:	0000193c 		r0, r0, r3
     25c:	0300160f 		r24, r0, r2
     260:	3b0b3a0e 	addikc	r24, r11, 14862
     264:	0013490b 		r0, r19, r9
     268:	01041000 	add	r8, r4, r2
     26c:	0b0b0b3e 		r24, r11, r1
     270:	0b3a1349 		r25, r26, r2
     274:	1301053b 		r24, r1, r0
     278:	16110000 	rsubk	r16, r17, r0
     27c:	3a0e0300 	addikc	r16, r14, 768
     280:	49053b0b 		r8, r5, r7
     284:	12000013 		r16, r0, r0
     288:	0b0b0117 		r24, r11, r0
     28c:	053b0b3a 	neg	r9, r27
     290:	00001301 		r0, r0, r2
     294:	03000d13 		r24, r0, r1
     298:	3b0b3a08 	addikc	r24, r11, 14856
     29c:	00134905 		r0, r19, r9
     2a0:	01131400 		r8, r19, r2
     2a4:	0b3a0b0b 		r25, r26, r1
     2a8:	1301053b 		r24, r1, r0
     2ac:	0d150000 	rsubc	r8, r21, r0
     2b0:	3a0e0300 	addikc	r16, r14, 768
     2b4:	49053b0b 		r8, r5, r7
     2b8:	000b3813 		r0, r11, r7
     2bc:	000d1600 		r0, r13, r2
     2c0:	0b3a0e03 		r25, r26, r1
     2c4:	1349053b 		r26, r9, r0
     2c8:	0b0d0b0b 		r24, r13, r1
     2cc:	0b380b0c 		r25, r24, r1
     2d0:	0d170000 	rsubc	r8, r23, r0
     2d4:	3a080300 	addikc	r16, r8, 768
     2d8:	49053b0b 		r8, r5, r7
     2dc:	0d0b0b13 		r8, r11, r1
     2e0:	380b0c0b 	addikc	r0, r11, 3083
     2e4:	1800000b 		r0, r0, r0
     2e8:	0e03000d 		r16, r3, r0
     2ec:	053b0b3a 	neg	r9, r27
     2f0:	00001349 		r0, r0, r2
     2f4:	3f012e19 	rsubikc	r24, r1, 11801
     2f8:	3a0e0319 	addikc	r16, r14, 793
     2fc:	27053b0b 	rsubi	r24, r5, 15115
     300:	11134919 		r8, r19, r9
     304:	40061201 		r0, r6, r2
     308:	19429718 		r10, r2, r18
     30c:	00001301 		r0, r0, r2
     310:	0300051a 		r24, r0, r0
     314:	3b0b3a0e 	addikc	r24, r11, 14862
     318:	02134905 		r16, r19, r9
     31c:	1b000017 		r24, r0, r0
     320:	08030034 		r0, r3, r0
     324:	053b0b3a 	neg	r9, r27
     328:	18021349 		r0, r2, r2
     32c:	341c0000 	rsubik	r0, r28, 0
     330:	3a080300 	addikc	r16, r8, 768
     334:	49053b0b 		r8, r5, r7
     338:	00170213 		r0, r23, r0
     33c:	82891d00 	pcmplbf	r20, r9, r3
     340:	01110101 		r8, r17, r0
     344:	13011331 		r24, r1, r2
     348:	8a1e0000 	xor	r16, r30, r0
     34c:	02000182 		r16, r0, r0
     350:	18429118 		r2, r2, r18
     354:	891f0000 	xor	r8, r31, r0
     358:	11000182 		r8, r0, r0
     35c:	00133101 		r0, r19, r6
     360:	012e2000 	add	r9, r14, r4
     364:	0b3a0e03 		r25, r26, r1
     368:	1927053b 		r9, r7, r0
     36c:	01111349 		r8, r17, r2
     370:	18400612 		r2, r0, r0
     374:	01194297 		r8, r25, r8
     378:	21000013 	addi	r8, r0, 19
     37c:	08030005 		r0, r3, r0
     380:	053b0b3a 	neg	r9, r27
     384:	17021349 		r24, r2, r2
     388:	34220000 	rsubik	r1, r2, 0
     38c:	3a0e0300 	addikc	r16, r14, 768
     390:	49053b0b 		r8, r5, r7
     394:	00170213 		r0, r23, r0
     398:	010b2300 		r8, r11, r4
     39c:	00001755 		r0, r0, r2
     3a0:	03012e24 		r24, r1, r5
     3a4:	3b0b3a0e 	addikc	r24, r11, 14862
     3a8:	4919270b 		r8, r25, r4
     3ac:	010b2013 		r8, r11, r4
     3b0:	25000013 	rsubi	r8, r0, 19
     3b4:	08030005 		r0, r3, r0
     3b8:	0b3b0b3a 		r25, r27, r1
     3bc:	00001349 		r0, r0, r2
     3c0:	03002e26 		r24, r0, r5
     3c4:	3b0b3a0e 	addikc	r24, r11, 14862
     3c8:	4919270b 		r8, r25, r4
     3cc:	000b2013 		r0, r11, r4
     3d0:	002e2700 		r1, r14, r4
     3d4:	193c193f 		r9, r28, r3
     3d8:	0e030e6e 		r16, r3, r1
     3dc:	053b0b3a 	neg	r9, r27
     3e0:	2e280000 	rsubic	r17, r8, 0
     3e4:	3c193f00 	rsubikc	r0, r25, 16128
     3e8:	030e6e19 		r24, r14, r13
     3ec:	3b0b3a0e 	addikc	r24, r11, 14862
     3f0:	0000000b 		r0, r0, r0
     3f4:	25011101 	rsubi	r8, r1, 4353
     3f8:	030b130e 		r24, r11, r2
     3fc:	110e1b0e 		r8, r14, r3
     400:	10061201 		r0, r6, r2
     404:	02000017 		r16, r0, r0
     408:	0b0b0024 		r24, r11, r0
     40c:	0e030b3e 		r16, r3, r1
     410:	24030000 	rsubi	r0, r3, 0
     414:	3e0b0b00 	rsubikc	r16, r11, 2816
     418:	0008030b 		r0, r8, r0
     41c:	01010400 		r8, r1, r0
     420:	13011349 		r24, r1, r2
     424:	21050000 	addi	r8, r5, 0
     428:	06000000 	rsub	r16, r0, r0
     42c:	13490026 		r26, r9, r0
     430:	0f070000 	rsubc	r24, r7, r0
     434:	490b0b00 		r8, r11, r1
     438:	08000013 		r0, r0, r0
     43c:	0e030034 		r16, r3, r0
     440:	0b3b0b3a 		r25, r27, r1
     444:	193f1349 		r9, r31, r2
     448:	0000193c 		r0, r0, r3
     44c:	03010409 		r24, r1, r0
     450:	0b0b3e0e 		r24, r11, r7
     454:	3a13490b 	addikc	r16, r19, 18699
     458:	010b3b0b 		r8, r11, r7
     45c:	0a000013 		r16, r0, r0
     460:	0e030028 		r16, r3, r0
     464:	00000b1c 		r0, r0, r1
     468:	4900210b 		r8, r0, r4
     46c:	000b2f13 		r0, r11, r5
     470:	00340c00 		r1, r20, r1
     474:	0b3a0e03 		r25, r26, r1
     478:	1349053b 		r26, r9, r0
     47c:	193c193f 		r9, r28, r3
     480:	040d0000 	rsub	r0, r13, r0
     484:	3e0e0301 	rsubikc	r16, r14, 769
     488:	490b0b0b 		r8, r11, r1
     48c:	3b0b3a13 	addikc	r24, r11, 14867
     490:	00130105 		r0, r19, r0
     494:	00130e00 		r0, r19, r1
     498:	193c0e03 		r9, r28, r1
     49c:	160f0000 	rsubk	r16, r15, r0
     4a0:	3a0e0300 	addikc	r16, r14, 768
     4a4:	490b3b0b 		r8, r11, r7
     4a8:	10000013 		r0, r0, r0
     4ac:	0b3e0104 		r25, r30, r0
     4b0:	13490b0b 		r26, r9, r1
     4b4:	053b0b3a 	neg	r9, r27
     4b8:	00001301 		r0, r0, r2
     4bc:	03001611 		r24, r0, r2
     4c0:	3b0b3a0e 	addikc	r24, r11, 14862
     4c4:	00134905 		r0, r19, r9
     4c8:	01171200 		r8, r23, r2
     4cc:	0b3a0b0b 		r25, r26, r1
     4d0:	1301053b 		r24, r1, r0
     4d4:	0d130000 	rsubc	r8, r19, r0
     4d8:	3a080300 	addikc	r16, r8, 768
     4dc:	49053b0b 		r8, r5, r7
     4e0:	14000013 		r0, r0, r0
     4e4:	0b0b0113 		r24, r11, r0
     4e8:	053b0b3a 	neg	r9, r27
     4ec:	00001301 		r0, r0, r2
     4f0:	03000d15 		r24, r0, r1
     4f4:	3b0b3a0e 	addikc	r24, r11, 14862
     4f8:	38134905 	addikc	r0, r19, 18693
     4fc:	1600000b 		r16, r0, r0
     500:	0e03000d 		r16, r3, r0
     504:	053b0b3a 	neg	r9, r27
     508:	0b0b1349 		r24, r11, r2
     50c:	0b0c0b0d 		r24, r12, r1
     510:	00000b38 		r0, r0, r1
     514:	03000d17 		r24, r0, r1
     518:	3b0b3a08 	addikc	r24, r11, 14856
     51c:	0b134905 		r24, r19, r9
     520:	0c0b0d0b 		r0, r11, r1
     524:	000b380b 		r0, r11, r7
     528:	000d1800 	add	r0, r13, r3
     52c:	0b3a0e03 		r25, r26, r1
     530:	1349053b 		r26, r9, r0
     534:	2e190000 	rsubic	r16, r25, 0
     538:	03193f01 		r24, r25, r7
     53c:	3b0b3a0e 	addikc	r24, r11, 14862
     540:	49192705 		r8, r25, r4
     544:	12011113 		r16, r1, r2
     548:	96184006 		r16, r24, r8
     54c:	13011942 		r24, r1, r3
     550:	051a0000 	rsub	r8, r26, r0
     554:	3a0e0300 	addikc	r16, r14, 768
     558:	49053b0b 		r8, r5, r7
     55c:	00170213 		r0, r23, r0
     560:	00341b00 		r1, r20, r3
     564:	0b3a0803 		r25, r26, r1
     568:	1349053b 		r26, r9, r0
     56c:	00001802 		r0, r0, r3
     570:	0300341c 		r24, r0, r6
     574:	3b0b3a08 	addikc	r24, r11, 14856
     578:	00134905 		r0, r19, r9
     57c:	011d1d00 		r8, r29, r3
     580:	01521331 		r10, r18, r2
     584:	0b581755 		r26, r24, r2
     588:	13010559 		r24, r1, r0
     58c:	051e0000 	rsub	r8, r30, r0
     590:	02133100 	addl	r16, r19, r6
     594:	1f000017 		r24, r0, r0
     598:	1755010b 		r26, r21, r0
     59c:	34200000 	rsubik	r1, r0, 0
     5a0:	02133100 	addl	r16, r19, r6
     5a4:	21000017 	addi	r8, r0, 23
     5a8:	1331010b 		r25, r17, r0
     5ac:	00001755 		r0, r0, r2
     5b0:	31003422 	addik	r8, r0, 13346
     5b4:	23000013 	addi	r24, r0, 19
     5b8:	01018289 		r8, r1, r16
     5bc:	13310111 		r25, r17, r0
     5c0:	00001301 		r0, r0, r2
     5c4:	01828a24 		r12, r2, r17
     5c8:	91180200 		r8, r24, r0
     5cc:	00001842 		r0, r0, r3
     5d0:	01828925 		r12, r2, r17
     5d4:	31011100 	addik	r8, r1, 4352
     5d8:	26000013 	rsubi	r16, r0, 19
     5dc:	0e03012e 		r16, r3, r0
     5e0:	053b0b3a 	neg	r9, r27
     5e4:	13491927 		r26, r9, r3
     5e8:	13010b20 		r24, r1, r1
     5ec:	05270000 	rsub	r9, r7, r0
     5f0:	3a080300 	addikc	r16, r8, 768
     5f4:	49053b0b 		r8, r5, r7
     5f8:	28000013 	addic	r0, r0, 19
     5fc:	0e030034 		r16, r3, r0
     600:	053b0b3a 	neg	r9, r27
     604:	00001349 		r0, r0, r2
     608:	00010b29 		r0, r1, r1
     60c:	012e2a00 		r9, r14, r5
     610:	0b3a0e03 		r25, r26, r1
     614:	19270b3b 		r9, r7, r1
     618:	0b201349 		r25, r0, r2
     61c:	00001301 		r0, r0, r2
     620:	0300052b 		r24, r0, r0
     624:	3b0b3a08 	addikc	r24, r11, 14856
     628:	0013490b 		r0, r19, r9
     62c:	002e2c00 		r1, r14, r5
     630:	0b3a0e03 		r25, r26, r1
     634:	19270b3b 		r9, r7, r1
     638:	0b201349 		r25, r0, r2
     63c:	2e2d0000 	rsubic	r17, r13, 0
     640:	3c193f00 	rsubikc	r0, r25, 16128
     644:	030e6e19 		r24, r14, r13
     648:	3b0b3a0e 	addikc	r24, r11, 14862
     64c:	2e000005 	rsubic	r16, r0, 5
     650:	193f002e 		r9, r31, r0
     654:	0e6e193c 		r19, r14, r3
     658:	0b3a0e03 		r25, r26, r1
     65c:	00000b3b 		r0, r0, r1
     660:	01110100 	addl	r8, r17, r0
     664:	0b130e25 		r24, r19, r1
     668:	0e1b0e03 		r16, r27, r1
     66c:	06120111 	neg	r16, r18
     670:	00001710 		r0, r0, r2
     674:	0b002402 		r24, r0, r4
     678:	030b3e0b 		r24, r11, r7
     67c:	0300000e 		r24, r0, r0
     680:	0b0b0024 		r24, r11, r0
     684:	08030b3e 		r0, r3, r1
     688:	01040000 	add	r8, r4, r0
     68c:	01134901 		r8, r19, r9
     690:	05000013 	neg	r8, r0
     694:	00000021 		r0, r0, r0
     698:	49002606 		r8, r0, r4
     69c:	07000013 	neg	r24, r0
     6a0:	0b0b000f 		r24, r11, r0
     6a4:	00001349 		r0, r0, r2
     6a8:	03003408 		r24, r0, r6
     6ac:	3b0b3a0e 	addikc	r24, r11, 14862
     6b0:	3f13490b 	rsubikc	r24, r19, 18699
     6b4:	00193c19 		r0, r25, r7
     6b8:	01040900 	addl	r8, r4, r1
     6bc:	0b3e0e03 		r25, r30, r1
     6c0:	13490b0b 		r26, r9, r1
     6c4:	0b3b0b3a 		r25, r27, r1
     6c8:	00001301 		r0, r0, r2
     6cc:	0300280a 		r24, r0, r5
     6d0:	000b1c0e 		r0, r11, r3
     6d4:	00210b00 		r1, r1, r1
     6d8:	0b2f1349 		r25, r15, r2
     6dc:	340c0000 	rsubik	r0, r12, 0
     6e0:	3a0e0300 	addikc	r16, r14, 768
     6e4:	49053b0b 		r8, r5, r7
     6e8:	3c193f13 	rsubikc	r0, r25, 16147
     6ec:	0d000019 		r8, r0, r0
     6f0:	0e030104 		r16, r3, r0
     6f4:	0b0b0b3e 		r24, r11, r1
     6f8:	0b3a1349 		r25, r26, r2
     6fc:	1301053b 		r24, r1, r0
     700:	130e0000 	addk	r24, r14, r0
     704:	3c0e0300 	rsubikc	r0, r14, 768
     708:	0f000019 		r24, r0, r0
     70c:	0e030016 		r16, r3, r0
     710:	0b3b0b3a 		r25, r27, r1
     714:	00001349 		r0, r0, r2
     718:	3e010410 	rsubikc	r16, r1, 1040
     71c:	490b0b0b 		r8, r11, r1
     720:	3b0b3a13 	addikc	r24, r11, 14867
     724:	00130105 		r0, r19, r0
     728:	00161100 	addl	r0, r22, r2
     72c:	0b3a0e03 		r25, r26, r1
     730:	1349053b 		r26, r9, r0
     734:	17120000 	rsubk	r24, r18, r0
     738:	3a0b0b01 	addikc	r16, r11, 2817
     73c:	01053b0b 		r8, r5, r7
     740:	13000013 		r24, r0, r0
     744:	0803000d 		r0, r3, r0
     748:	053b0b3a 	neg	r9, r27
     74c:	00001349 		r0, r0, r2
     750:	0b011314 		r24, r1, r2
     754:	3b0b3a0b 	addikc	r24, r11, 14859
     758:	00130105 		r0, r19, r0
     75c:	000d1500 		r0, r13, r2
     760:	0b3a0e03 		r25, r26, r1
     764:	1349053b 		r26, r9, r0
     768:	00000b38 		r0, r0, r1
     76c:	03000d16 		r24, r0, r1
     770:	3b0b3a0e 	addikc	r24, r11, 14862
     774:	0b134905 		r24, r19, r9
     778:	0c0b0d0b 		r0, r11, r1
     77c:	000b380b 		r0, r11, r7
     780:	000d1700 		r0, r13, r2
     784:	0b3a0803 		r25, r26, r1
     788:	1349053b 		r26, r9, r0
     78c:	0b0d0b0b 		r24, r13, r1
     790:	0b380b0c 		r25, r24, r1
     794:	0d180000 	rsubc	r8, r24, r0
     798:	3a0e0300 	addikc	r16, r14, 768
     79c:	49053b0b 		r8, r5, r7
     7a0:	19000013 		r8, r0, r0
     7a4:	193f012e 		r9, r31, r0
     7a8:	0b3a0e03 		r25, r26, r1
     7ac:	1927053b 		r9, r7, r0
     7b0:	01111349 		r8, r17, r2
     7b4:	18400612 		r2, r0, r0
     7b8:	01194297 		r8, r25, r8
     7bc:	1a000013 		r16, r0, r0
     7c0:	0e030005 		r16, r3, r0
     7c4:	053b0b3a 	neg	r9, r27
     7c8:	17021349 		r24, r2, r2
     7cc:	341b0000 	rsubik	r0, r27, 0
     7d0:	3a080300 	addikc	r16, r8, 768
     7d4:	49053b0b 		r8, r5, r7
     7d8:	00180213 		r0, r24, r0
     7dc:	00341c00 		r1, r20, r3
     7e0:	0b3a0803 		r25, r26, r1
     7e4:	1349053b 		r26, r9, r0
     7e8:	1d1d0000 	rsubkc	r8, r29, r0
     7ec:	52133101 		r16, r19, r6
     7f0:	58175501 		r0, r23, r10
     7f4:	0105590b 		r8, r5, r11
     7f8:	1e000013 		r16, r0, r0
     7fc:	13310005 		r25, r17, r0
     800:	00001702 		r0, r0, r2
     804:	55010b1f 		r8, r1, r1
     808:	20000017 	addi	r0, r0, 23
     80c:	13310034 		r25, r17, r0
     810:	00001702 		r0, r0, r2
     814:	01828921 		r12, r2, r17
     818:	31011101 	addik	r8, r1, 4353
     81c:	00130113 		r0, r19, r0
     820:	828a2200 		r20, r10, r4
     824:	18020001 		r0, r2, r0
     828:	00184291 		r0, r24, r8
     82c:	82892300 		r20, r9, r4
     830:	01110001 		r8, r17, r0
     834:	00001331 		r0, r0, r2
     838:	03012e24 		r24, r1, r5
     83c:	3b0b3a0e 	addikc	r24, r11, 14862
     840:	49192705 		r8, r25, r4
     844:	010b2013 		r8, r11, r4
     848:	25000013 	rsubi	r8, r0, 19
     84c:	08030005 		r0, r3, r0
     850:	053b0b3a 	neg	r9, r27
     854:	00001349 		r0, r0, r2
     858:	03003426 		r24, r0, r6
     85c:	3b0b3a0e 	addikc	r24, r11, 14862
     860:	00134905 		r0, r19, r9
     864:	012e2700 		r9, r14, r4
     868:	0b3a0e03 		r25, r26, r1
     86c:	19270b3b 		r9, r7, r1
     870:	0b201349 		r25, r0, r2
     874:	00001301 		r0, r0, r2
     878:	03000528 		r24, r0, r0
     87c:	3b0b3a08 	addikc	r24, r11, 14856
     880:	0013490b 		r0, r19, r9
     884:	002e2900 	addl	r1, r14, r5
     888:	0b3a0e03 		r25, r26, r1
     88c:	19270b3b 		r9, r7, r1
     890:	0b201349 		r25, r0, r2
     894:	2e2a0000 	rsubic	r17, r10, 0
     898:	3c193f00 	rsubikc	r0, r25, 16128
     89c:	030e6e19 		r24, r14, r13
     8a0:	3b0b3a0e 	addikc	r24, r11, 14862
     8a4:	2b000005 	addic	r24, r0, 5
     8a8:	193f002e 		r9, r31, r0
     8ac:	0e6e193c 		r19, r14, r3
     8b0:	0b3a0e03 		r25, r26, r1
     8b4:	00000b3b 		r0, r0, r1
     8b8:	01110100 	addl	r8, r17, r0
     8bc:	0b130e25 		r24, r19, r1
     8c0:	0e1b0e03 		r16, r27, r1
     8c4:	06120111 	neg	r16, r18
     8c8:	00001710 		r0, r0, r2
     8cc:	0b002402 		r24, r0, r4
     8d0:	030b3e0b 		r24, r11, r7
     8d4:	0300000e 		r24, r0, r0
     8d8:	0b0b0024 		r24, r11, r0
     8dc:	08030b3e 		r0, r3, r1
     8e0:	01040000 	add	r8, r4, r0
     8e4:	01134901 		r8, r19, r9
     8e8:	05000013 	neg	r8, r0
     8ec:	00000021 		r0, r0, r0
     8f0:	49002606 		r8, r0, r4
     8f4:	07000013 	neg	r24, r0
     8f8:	0b0b000f 		r24, r11, r0
     8fc:	00001349 		r0, r0, r2
     900:	03003408 		r24, r0, r6
     904:	3b0b3a0e 	addikc	r24, r11, 14862
     908:	3f13490b 	rsubikc	r24, r19, 18699
     90c:	00193c19 		r0, r25, r7
     910:	01040900 	addl	r8, r4, r1
     914:	0b3e0e03 		r25, r30, r1
     918:	13490b0b 		r26, r9, r1
     91c:	0b3b0b3a 		r25, r27, r1
     920:	00001301 		r0, r0, r2
     924:	0300280a 		r24, r0, r5
     928:	000b1c0e 		r0, r11, r3
     92c:	00210b00 		r1, r1, r1
     930:	0b2f1349 		r25, r15, r2
     934:	340c0000 	rsubik	r0, r12, 0
     938:	3a0e0300 	addikc	r16, r14, 768
     93c:	49053b0b 		r8, r5, r7
     940:	3c193f13 	rsubikc	r0, r25, 16147
     944:	0d000019 		r8, r0, r0
     948:	0e030104 		r16, r3, r0
     94c:	0b0b0b3e 		r24, r11, r1
     950:	0b3a1349 		r25, r26, r2
     954:	1301053b 		r24, r1, r0
     958:	130e0000 	addk	r24, r14, r0
     95c:	3c0e0300 	rsubikc	r0, r14, 768
     960:	0f000019 		r24, r0, r0
     964:	0e030016 		r16, r3, r0
     968:	0b3b0b3a 		r25, r27, r1
     96c:	00001349 		r0, r0, r2
     970:	3e010410 	rsubikc	r16, r1, 1040
     974:	490b0b0b 		r8, r11, r1
     978:	3b0b3a13 	addikc	r24, r11, 14867
     97c:	00130105 		r0, r19, r0
     980:	00161100 	addl	r0, r22, r2
     984:	0b3a0e03 		r25, r26, r1
     988:	1349053b 		r26, r9, r0
     98c:	17120000 	rsubk	r24, r18, r0
     990:	3a0b0b01 	addikc	r16, r11, 2817
     994:	01053b0b 		r8, r5, r7
     998:	13000013 		r24, r0, r0
     99c:	0803000d 		r0, r3, r0
     9a0:	053b0b3a 	neg	r9, r27
     9a4:	00001349 		r0, r0, r2
     9a8:	0b011314 		r24, r1, r2
     9ac:	3b0b3a0b 	addikc	r24, r11, 14859
     9b0:	00130105 		r0, r19, r0
     9b4:	000d1500 		r0, r13, r2
     9b8:	0b3a0e03 		r25, r26, r1
     9bc:	1349053b 		r26, r9, r0
     9c0:	00000b38 		r0, r0, r1
     9c4:	3f012e16 	rsubikc	r24, r1, 11798
     9c8:	3a0e0319 	addikc	r16, r14, 793
     9cc:	27053b0b 	rsubi	r24, r5, 15115
     9d0:	11134919 		r8, r19, r9
     9d4:	40061201 		r0, r6, r2
     9d8:	19429718 		r10, r2, r18
     9dc:	00001301 		r0, r0, r2
     9e0:	03000517 		r24, r0, r0
     9e4:	3b0b3a0e 	addikc	r24, r11, 14862
     9e8:	02134905 		r16, r19, r9
     9ec:	18000017 		r0, r0, r0
     9f0:	08030005 		r0, r3, r0
     9f4:	053b0b3a 	neg	r9, r27
     9f8:	17021349 		r24, r2, r2
     9fc:	34190000 	rsubik	r0, r25, 0
     a00:	3a080300 	addikc	r16, r8, 768
     a04:	49053b0b 		r8, r5, r7
     a08:	00180213 		r0, r24, r0
     a0c:	82891a00 		r20, r9, r3
     a10:	01110101 		r8, r17, r0
     a14:	00001331 		r0, r0, r2
     a18:	01828a1b 		r12, r2, r17
     a1c:	91180200 		r8, r24, r0
     a20:	00001842 		r0, r0, r3
     a24:	3f002e1c 	rsubikc	r24, r0, 11804
     a28:	6e193c19 	tecaget	r16, rfsl9
     a2c:	3a0e030e 	addikc	r16, r14, 782
     a30:	000b3b0b 		r0, r11, r7
     a34:	11010000 	addk	r8, r1, r0
     a38:	130e2501 		r24, r14, r4
     a3c:	1b0e030b 		r24, r14, r0
     a40:	1201110e 		r16, r1, r2
     a44:	00171006 		r0, r23, r2
     a48:	00240200 		r1, r4, r0
     a4c:	0b3e0b0b 		r25, r30, r1
     a50:	00000e03 		r0, r0, r1
     a54:	0b002403 		r24, r0, r4
     a58:	030b3e0b 		r24, r11, r7
     a5c:	04000008 	neg	r0, r0
     a60:	13490101 		r26, r9, r0
     a64:	00001301 		r0, r0, r2
     a68:	00002105 		r0, r0, r4
     a6c:	00260600 		r1, r6, r0
     a70:	00001349 		r0, r0, r2
     a74:	0b000f07 		r24, r0, r1
     a78:	0013490b 		r0, r19, r9
     a7c:	00340800 	add	r1, r20, r1
     a80:	0b3a0e03 		r25, r26, r1
     a84:	13490b3b 		r26, r9, r1
     a88:	193c193f 		r9, r28, r3
     a8c:	04090000 	rsub	r0, r9, r0
     a90:	3e0e0301 	rsubikc	r16, r14, 769
     a94:	490b0b0b 		r8, r11, r1
     a98:	3b0b3a13 	addikc	r24, r11, 14867
     a9c:	0013010b 		r0, r19, r0
     aa0:	00280a00 		r1, r8, r1
     aa4:	0b1c0e03 		r24, r28, r1
     aa8:	210b0000 	addi	r8, r11, 0
     aac:	2f134900 	rsubic	r24, r19, 18688
     ab0:	0c00000b 		r0, r0, r0
     ab4:	0e030034 		r16, r3, r0
     ab8:	053b0b3a 	neg	r9, r27
     abc:	193f1349 		r9, r31, r2
     ac0:	0000193c 		r0, r0, r3
     ac4:	0301040d 		r24, r1, r0
     ac8:	0b0b3e0e 		r24, r11, r7
     acc:	3a13490b 	addikc	r16, r19, 18699
     ad0:	01053b0b 		r8, r5, r7
     ad4:	0e000013 		r16, r0, r0
     ad8:	0e030013 		r16, r3, r0
     adc:	0000193c 		r0, r0, r3
     ae0:	0300160f 		r24, r0, r2
     ae4:	3b0b3a0e 	addikc	r24, r11, 14862
     ae8:	0013490b 		r0, r19, r9
     aec:	01041000 	add	r8, r4, r2
     af0:	0b0b0b3e 		r24, r11, r1
     af4:	0b3a1349 		r25, r26, r2
     af8:	1301053b 		r24, r1, r0
     afc:	16110000 	rsubk	r16, r17, r0
     b00:	3a0e0300 	addikc	r16, r14, 768
     b04:	49053b0b 		r8, r5, r7
     b08:	12000013 		r16, r0, r0
     b0c:	0b0b0117 		r24, r11, r0
     b10:	053b0b3a 	neg	r9, r27
     b14:	00001301 		r0, r0, r2
     b18:	03000d13 		r24, r0, r1
     b1c:	3b0b3a08 	addikc	r24, r11, 14856
     b20:	00134905 		r0, r19, r9
     b24:	01131400 		r8, r19, r2
     b28:	0b3a0b0b 		r25, r26, r1
     b2c:	1301053b 		r24, r1, r0
     b30:	0d150000 	rsubc	r8, r21, r0
     b34:	3a0e0300 	addikc	r16, r14, 768
     b38:	49053b0b 		r8, r5, r7
     b3c:	000b3813 		r0, r11, r7
     b40:	000d1600 		r0, r13, r2
     b44:	0b3a0e03 		r25, r26, r1
     b48:	1349053b 		r26, r9, r0
     b4c:	0b0d0b0b 		r24, r13, r1
     b50:	0b380b0c 		r25, r24, r1
     b54:	0d170000 	rsubc	r8, r23, r0
     b58:	3a080300 	addikc	r16, r8, 768
     b5c:	49053b0b 		r8, r5, r7
     b60:	0d0b0b13 		r8, r11, r1
     b64:	380b0c0b 	addikc	r0, r11, 3083
     b68:	1800000b 		r0, r0, r0
     b6c:	0e03000d 		r16, r3, r0
     b70:	053b0b3a 	neg	r9, r27
     b74:	00001349 		r0, r0, r2
     b78:	3f012e19 	rsubikc	r24, r1, 11801
     b7c:	3a0e0319 	addikc	r16, r14, 793
     b80:	27053b0b 	rsubi	r24, r5, 15115
     b84:	11134919 		r8, r19, r9
     b88:	40061201 		r0, r6, r2
     b8c:	19429718 		r10, r2, r18
     b90:	00001301 		r0, r0, r2
     b94:	0300051a 		r24, r0, r0
     b98:	3b0b3a0e 	addikc	r24, r11, 14862
     b9c:	02134905 		r16, r19, r9
     ba0:	1b000017 		r24, r0, r0
     ba4:	08030034 		r0, r3, r0
     ba8:	053b0b3a 	neg	r9, r27
     bac:	18021349 		r0, r2, r2
     bb0:	341c0000 	rsubik	r0, r28, 0
     bb4:	3a0e0300 	addikc	r16, r14, 768
     bb8:	49053b0b 		r8, r5, r7
     bbc:	00170213 		r0, r23, r0
     bc0:	82891d00 	pcmplbf	r20, r9, r3
     bc4:	01110101 		r8, r17, r0
     bc8:	13011331 		r24, r1, r2
     bcc:	8a1e0000 	xor	r16, r30, r0
     bd0:	02000182 		r16, r0, r0
     bd4:	18429118 		r2, r2, r18
     bd8:	891f0000 	xor	r8, r31, r0
     bdc:	11000182 		r8, r0, r0
     be0:	00133101 		r0, r19, r6
     be4:	002e2000 	add	r1, r14, r4
     be8:	193c193f 		r9, r28, r3
     bec:	0e030e6e 		r16, r3, r1
     bf0:	053b0b3a 	neg	r9, r27
     bf4:	01000000 	add	r8, r0, r0
     bf8:	0e250111 		r17, r5, r0
     bfc:	0e030b13 		r16, r3, r1
     c00:	17100e1b 		r24, r16, r1
     c04:	24020000 	rsubi	r0, r2, 0
     c08:	3e0b0b00 	rsubikc	r16, r11, 2816
     c0c:	000e030b 		r0, r14, r0
     c10:	00240300 		r1, r4, r0
     c14:	0b3e0b0b 		r25, r30, r1
     c18:	00000803 		r0, r0, r1
     c1c:	49010104 		r8, r1, r0
     c20:	00130113 		r0, r19, r0
     c24:	00210500 		r1, r1, r0
     c28:	26060000 	rsubi	r16, r6, 0
     c2c:	00134900 	addl	r0, r19, r9
     c30:	000f0700 		r0, r15, r0
     c34:	13490b0b 		r26, r9, r1
     c38:	34080000 	rsubik	r0, r8, 0
     c3c:	3a0e0300 	addikc	r16, r14, 768
     c40:	490b3b0b 		r8, r11, r7
     c44:	3c193f13 	rsubikc	r0, r25, 16147
     c48:	09000019 		r8, r0, r0
     c4c:	0e030104 		r16, r3, r0
     c50:	0b0b0b3e 		r24, r11, r1
     c54:	0b3a1349 		r25, r26, r2
     c58:	13010b3b 		r24, r1, r1
     c5c:	280a0000 	addic	r0, r10, 0
     c60:	1c0e0300 		r0, r14, r0
     c64:	0b00000b 		r24, r0, r0
     c68:	13490021 		r26, r9, r0
     c6c:	00000b2f 		r0, r0, r1
     c70:	0300340c 		r24, r0, r6
     c74:	3b0b3a0e 	addikc	r24, r11, 14862
     c78:	3f134905 	rsubikc	r24, r19, 18693
     c7c:	00193c19 		r0, r25, r7
     c80:	01040d00 		r8, r4, r1
     c84:	0b3e0e03 		r25, r30, r1
     c88:	13490b0b 		r26, r9, r1
     c8c:	053b0b3a 	neg	r9, r27
     c90:	00001301 		r0, r0, r2
     c94:	0300130e 		r24, r0, r2
     c98:	00193c0e 		r0, r25, r7
     c9c:	00160f00 		r0, r22, r1
     ca0:	0b3a0e03 		r25, r26, r1
     ca4:	13490b3b 		r26, r9, r1
     ca8:	04100000 	rsub	r0, r16, r0
     cac:	0b0b3e01 		r24, r11, r7
     cb0:	3a13490b 	addikc	r16, r19, 18699
     cb4:	01053b0b 		r8, r5, r7
     cb8:	11000013 		r8, r0, r0
     cbc:	0e030016 		r16, r3, r0
     cc0:	053b0b3a 	neg	r9, r27
     cc4:	00001349 		r0, r0, r2
     cc8:	0b011712 		r24, r1, r2
     ccc:	3b0b3a0b 	addikc	r24, r11, 14859
     cd0:	00130105 		r0, r19, r0
     cd4:	000d1300 		r0, r13, r2
     cd8:	0b3a0803 		r25, r26, r1
     cdc:	1349053b 		r26, r9, r0
     ce0:	13140000 	addk	r24, r20, r0
     ce4:	3a0b0b01 	addikc	r16, r11, 2817
     ce8:	01053b0b 		r8, r5, r7
     cec:	15000013 		r8, r0, r0
     cf0:	0e03000d 		r16, r3, r0
     cf4:	053b0b3a 	neg	r9, r27
     cf8:	0b381349 		r25, r24, r2
     cfc:	34160000 	rsubik	r0, r22, 0
     d00:	3a0e0300 	addikc	r16, r14, 768
     d04:	490b3b0b 		r8, r11, r7
     d08:	02193f13 		r16, r25, r7
     d0c:	00000018 		r0, r0, r0
     d10:	25011101 	rsubi	r8, r1, 4353
     d14:	030b130e 		r24, r11, r2
     d18:	110e1b0e 		r8, r14, r3
     d1c:	10061201 		r0, r6, r2
     d20:	02000017 		r16, r0, r0
     d24:	0b0b0024 		r24, r11, r0
     d28:	0e030b3e 		r16, r3, r1
     d2c:	24030000 	rsubi	r0, r3, 0
     d30:	3e0b0b00 	rsubikc	r16, r11, 2816
     d34:	0008030b 		r0, r8, r0
     d38:	00160400 		r0, r22, r0
     d3c:	0b3a0e03 		r25, r26, r1
     d40:	13490b3b 		r26, r9, r1
     d44:	16050000 	rsubk	r16, r5, r0
     d48:	3a0e0300 	addikc	r16, r14, 768
     d4c:	49053b0b 		r8, r5, r7
     d50:	06000013 	neg	r16, r0
     d54:	0b0b0117 		r24, r11, r0
     d58:	0b3b0b3a 		r25, r27, r1
     d5c:	00001301 		r0, r0, r2
     d60:	03000d07 		r24, r0, r1
     d64:	3b0b3a0e 	addikc	r24, r11, 14862
     d68:	0013490b 		r0, r19, r9
     d6c:	01010800 	add	r8, r1, r1
     d70:	13011349 		r24, r1, r2
     d74:	21090000 	addi	r8, r9, 0
     d78:	2f134900 	rsubic	r24, r19, 18688
     d7c:	0a00000b 		r16, r0, r0
     d80:	0b0b0113 		r24, r11, r0
     d84:	0b3b0b3a 		r25, r27, r1
     d88:	00001301 		r0, r0, r2
     d8c:	03000d0b 		r24, r0, r1
     d90:	3b0b3a0e 	addikc	r24, r11, 14862
     d94:	3813490b 	addikc	r0, r19, 18699
     d98:	0c00000b 		r0, r0, r0
     d9c:	0b0b000f 		r24, r11, r0
     da0:	130d0000 	addk	r24, r13, r0
     da4:	0b0e0301 		r24, r14, r0
     da8:	3b0b3a0b 	addikc	r24, r11, 14859
     dac:	0013010b 		r0, r19, r0
     db0:	000d0e00 		r0, r13, r1
     db4:	0b3a0803 		r25, r26, r1
     db8:	13490b3b 		r26, r9, r1
     dbc:	00000b38 		r0, r0, r1
     dc0:	0b000f0f 		r24, r0, r1
     dc4:	0013490b 		r0, r19, r9
     dc8:	01131000 	add	r8, r19, r2
     dcc:	050b0e03 	neg	r8, r11
     dd0:	0b3b0b3a 		r25, r27, r1
     dd4:	00001301 		r0, r0, r2
     dd8:	03000d11 		r24, r0, r1
     ddc:	3b0b3a0e 	addikc	r24, r11, 14862
     de0:	3813490b 	addikc	r0, r19, 18699
     de4:	12000005 		r16, r0, r0
     de8:	19270015 		r9, r7, r0
     dec:	26130000 	rsubi	r16, r19, 0
     df0:	00134900 	addl	r0, r19, r9
     df4:	01131400 		r8, r19, r2
     df8:	0b0b0e03 		r24, r11, r1
     dfc:	053b0b3a 	neg	r9, r27
     e00:	00001301 		r0, r0, r2
     e04:	03000d15 		r24, r0, r1
     e08:	3b0b3a0e 	addikc	r24, r11, 14862
     e0c:	38134905 	addikc	r0, r19, 18693
     e10:	1600000b 		r16, r0, r0
     e14:	0803000d 		r0, r3, r0
     e18:	053b0b3a 	neg	r9, r27
     e1c:	0b381349 		r25, r24, r2
     e20:	15170000 	rsubk	r8, r23, r0
     e24:	49192701 		r8, r25, r4
     e28:	00130113 		r0, r19, r0
     e2c:	00051800 	add	r0, r5, r3
     e30:	00001349 		r0, r0, r2
     e34:	27011519 	rsubi	r24, r1, 5401
     e38:	00130119 		r0, r19, r0
     e3c:	00341a00 		r1, r20, r3
     e40:	0b3a0e03 		r25, r26, r1
     e44:	1349053b 		r26, r9, r0
     e48:	193c193f 		r9, r28, r3
     e4c:	211b0000 	addi	r8, r27, 0
     e50:	1c000000 	rsubkc	r0, r0, r0
     e54:	0e030034 		r16, r3, r0
     e58:	0b3b0b3a 		r25, r27, r1
     e5c:	193f1349 		r9, r31, r2
     e60:	0000193c 		r0, r0, r3
     e64:	0000261d 		r0, r0, r4
     e68:	01041e00 		r8, r4, r3
     e6c:	0b3e0e03 		r25, r30, r1
     e70:	13490b0b 		r26, r9, r1
     e74:	0b3b0b3a 		r25, r27, r1
     e78:	00001301 		r0, r0, r2
     e7c:	0300281f 		r24, r0, r5
     e80:	000b1c0e 		r0, r11, r3
     e84:	01042000 	add	r8, r4, r4
     e88:	0b3e0e03 		r25, r30, r1
     e8c:	13490b0b 		r26, r9, r1
     e90:	053b0b3a 	neg	r9, r27
     e94:	00001301 		r0, r0, r2
     e98:	03001321 		r24, r0, r2
     e9c:	00193c0e 		r0, r25, r7
     ea0:	01172200 		r8, r23, r4
     ea4:	0b3a0b0b 		r25, r26, r1
     ea8:	1301053b 		r24, r1, r0
     eac:	0d230000 	rsubc	r9, r3, r0
     eb0:	3a080300 	addikc	r16, r8, 768
     eb4:	49053b0b 		r8, r5, r7
     eb8:	24000013 	rsubi	r0, r0, 19
     ebc:	193f012e 		r9, r31, r0
     ec0:	0b3a0e03 		r25, r26, r1
     ec4:	1927053b 		r9, r7, r0
     ec8:	01111349 		r8, r17, r2
     ecc:	18400612 		r2, r0, r0
     ed0:	00194297 		r0, r25, r8
     ed4:	00052500 		r0, r5, r4
     ed8:	0b3a0803 		r25, r26, r1
     edc:	1349053b 		r26, r9, r0
     ee0:	00001702 		r0, r0, r2
     ee4:	03003426 		r24, r0, r6
     ee8:	3b0b3a08 	addikc	r24, r11, 14856
     eec:	00134905 		r0, r19, r9
     ef0:	010b2700 		r8, r11, r4
     ef4:	00001755 		r0, r0, r2
     ef8:	03003428 		r24, r0, r6
     efc:	3b0b3a0e 	addikc	r24, r11, 14862
     f00:	02134905 		r16, r19, r9
     f04:	29000018 	addic	r8, r0, 24
     f08:	0e030034 		r16, r3, r0
     f0c:	053b0b3a 	neg	r9, r27
     f10:	17021349 		r24, r2, r2
     f14:	01000000 	add	r8, r0, r0
     f18:	0e250111 		r17, r5, r0
     f1c:	0e030b13 		r16, r3, r1
     f20:	01110e1b 		r8, r17, r1
     f24:	17100612 		r24, r16, r0
     f28:	24020000 	rsubi	r0, r2, 0
     f2c:	3e0b0b00 	rsubikc	r16, r11, 2816
     f30:	000e030b 		r0, r14, r0
     f34:	00240300 		r1, r4, r0
     f38:	0b3e0b0b 		r25, r30, r1
     f3c:	00000803 		r0, r0, r1
     f40:	49010104 		r8, r1, r0
     f44:	00130113 		r0, r19, r0
     f48:	00210500 		r1, r1, r0
     f4c:	26060000 	rsubi	r16, r6, 0
     f50:	00134900 	addl	r0, r19, r9
     f54:	000f0700 		r0, r15, r0
     f58:	13490b0b 		r26, r9, r1
     f5c:	34080000 	rsubik	r0, r8, 0
     f60:	3a0e0300 	addikc	r16, r14, 768
     f64:	490b3b0b 		r8, r11, r7
     f68:	3c193f13 	rsubikc	r0, r25, 16147
     f6c:	09000019 		r8, r0, r0
     f70:	0e030104 		r16, r3, r0
     f74:	0b0b0b3e 		r24, r11, r1
     f78:	0b3a1349 		r25, r26, r2
     f7c:	13010b3b 		r24, r1, r1
     f80:	280a0000 	addic	r0, r10, 0
     f84:	1c0e0300 		r0, r14, r0
     f88:	0b00000b 		r24, r0, r0
     f8c:	13490021 		r26, r9, r0
     f90:	00000b2f 		r0, r0, r1
     f94:	0300340c 		r24, r0, r6
     f98:	3b0b3a0e 	addikc	r24, r11, 14862
     f9c:	3f134905 	rsubikc	r24, r19, 18693
     fa0:	00193c19 		r0, r25, r7
     fa4:	01040d00 		r8, r4, r1
     fa8:	0b3e0e03 		r25, r30, r1
     fac:	13490b0b 		r26, r9, r1
     fb0:	053b0b3a 	neg	r9, r27
     fb4:	00001301 		r0, r0, r2
     fb8:	0300130e 		r24, r0, r2
     fbc:	00193c0e 		r0, r25, r7
     fc0:	00160f00 		r0, r22, r1
     fc4:	0b3a0e03 		r25, r26, r1
     fc8:	13490b3b 		r26, r9, r1
     fcc:	04100000 	rsub	r0, r16, r0
     fd0:	0b0b3e01 		r24, r11, r7
     fd4:	3a13490b 	addikc	r16, r19, 18699
     fd8:	01053b0b 		r8, r5, r7
     fdc:	11000013 		r8, r0, r0
     fe0:	0e030016 		r16, r3, r0
     fe4:	053b0b3a 	neg	r9, r27
     fe8:	00001349 		r0, r0, r2
     fec:	0b011712 		r24, r1, r2
     ff0:	3b0b3a0b 	addikc	r24, r11, 14859
     ff4:	00130105 		r0, r19, r0
     ff8:	000d1300 		r0, r13, r2
     ffc:	0b3a0803 		r25, r26, r1
    1000:	1349053b 		r26, r9, r0
    1004:	13140000 	addk	r24, r20, r0
    1008:	3a0b0b01 	addikc	r16, r11, 2817
    100c:	01053b0b 		r8, r5, r7
    1010:	15000013 		r8, r0, r0
    1014:	0e03000d 		r16, r3, r0
    1018:	053b0b3a 	neg	r9, r27
    101c:	0b381349 		r25, r24, r2
    1020:	0d160000 	rsubc	r8, r22, r0
    1024:	3a0e0300 	addikc	r16, r14, 768
    1028:	49053b0b 		r8, r5, r7
    102c:	0d0b0b13 		r8, r11, r1
    1030:	380b0c0b 	addikc	r0, r11, 3083
    1034:	1700000b 		r24, r0, r0
    1038:	0803000d 		r0, r3, r0
    103c:	053b0b3a 	neg	r9, r27
    1040:	0b0b1349 		r24, r11, r2
    1044:	0b0c0b0d 		r24, r12, r1
    1048:	00000b38 		r0, r0, r1
    104c:	03000d18 		r24, r0, r1
    1050:	3b0b3a0e 	addikc	r24, r11, 14862
    1054:	00134905 		r0, r19, r9
    1058:	012e1900 	addl	r9, r14, r3
    105c:	0e03193f 		r16, r3, r3
    1060:	053b0b3a 	neg	r9, r27
    1064:	01111927 		r8, r17, r3
    1068:	18400612 		r2, r0, r0
    106c:	01194297 		r8, r25, r8
    1070:	1a000013 		r16, r0, r0
    1074:	08030005 		r0, r3, r0
    1078:	053b0b3a 	neg	r9, r27
    107c:	17021349 		r24, r2, r2
    1080:	051b0000 	rsub	r8, r27, r0
    1084:	3a080300 	addikc	r16, r8, 768
    1088:	49053b0b 		r8, r5, r7
    108c:	00180213 		r0, r24, r0
    1090:	00341c00 		r1, r20, r3
    1094:	0b3a0e03 		r25, r26, r1
    1098:	1349053b 		r26, r9, r0
    109c:	00001702 		r0, r0, r2
    10a0:	0300341d 		r24, r0, r6
    10a4:	3b0b3a08 	addikc	r24, r11, 14856
    10a8:	02134905 		r16, r19, r9
    10ac:	1e000017 		r16, r0, r0
    10b0:	0e030034 		r16, r3, r0
    10b4:	053b0b3a 	neg	r9, r27
    10b8:	00001349 		r0, r0, r2
    10bc:	01110100 	addl	r8, r17, r0
    10c0:	0b130e25 		r24, r19, r1
    10c4:	0e1b0e03 		r16, r27, r1
    10c8:	06120111 	neg	r16, r18
    10cc:	00001710 		r0, r0, r2
    10d0:	0b002402 		r24, r0, r4
    10d4:	030b3e0b 		r24, r11, r7
    10d8:	0300000e 		r24, r0, r0
    10dc:	0b0b0024 		r24, r11, r0
    10e0:	08030b3e 		r0, r3, r1
    10e4:	01040000 	add	r8, r4, r0
    10e8:	01134901 		r8, r19, r9
    10ec:	05000013 	neg	r8, r0
    10f0:	00000021 		r0, r0, r0
    10f4:	49002606 		r8, r0, r4
    10f8:	07000013 	neg	r24, r0
    10fc:	0b0b000f 		r24, r11, r0
    1100:	00001349 		r0, r0, r2
    1104:	03003408 		r24, r0, r6
    1108:	3b0b3a0e 	addikc	r24, r11, 14862
    110c:	3f13490b 	rsubikc	r24, r19, 18699
    1110:	00193c19 		r0, r25, r7
    1114:	01040900 	addl	r8, r4, r1
    1118:	0b3e0e03 		r25, r30, r1
    111c:	13490b0b 		r26, r9, r1
    1120:	0b3b0b3a 		r25, r27, r1
    1124:	00001301 		r0, r0, r2
    1128:	0300280a 		r24, r0, r5
    112c:	000b1c0e 		r0, r11, r3
    1130:	00210b00 		r1, r1, r1
    1134:	0b2f1349 		r25, r15, r2
    1138:	340c0000 	rsubik	r0, r12, 0
    113c:	3a0e0300 	addikc	r16, r14, 768
    1140:	49053b0b 		r8, r5, r7
    1144:	3c193f13 	rsubikc	r0, r25, 16147
    1148:	0d000019 		r8, r0, r0
    114c:	0e030104 		r16, r3, r0
    1150:	0b0b0b3e 		r24, r11, r1
    1154:	0b3a1349 		r25, r26, r2
    1158:	1301053b 		r24, r1, r0
    115c:	130e0000 	addk	r24, r14, r0
    1160:	3c0e0300 	rsubikc	r0, r14, 768
    1164:	0f000019 		r24, r0, r0
    1168:	0e030016 		r16, r3, r0
    116c:	0b3b0b3a 		r25, r27, r1
    1170:	00001349 		r0, r0, r2
    1174:	3e010410 	rsubikc	r16, r1, 1040
    1178:	490b0b0b 		r8, r11, r1
    117c:	3b0b3a13 	addikc	r24, r11, 14867
    1180:	00130105 		r0, r19, r0
    1184:	00161100 	addl	r0, r22, r2
    1188:	0b3a0e03 		r25, r26, r1
    118c:	1349053b 		r26, r9, r0
    1190:	17120000 	rsubk	r24, r18, r0
    1194:	3a0b0b01 	addikc	r16, r11, 2817
    1198:	01053b0b 		r8, r5, r7
    119c:	13000013 		r24, r0, r0
    11a0:	0803000d 		r0, r3, r0
    11a4:	053b0b3a 	neg	r9, r27
    11a8:	00001349 		r0, r0, r2
    11ac:	0b011314 		r24, r1, r2
    11b0:	3b0b3a0b 	addikc	r24, r11, 14859
    11b4:	00130105 		r0, r19, r0
    11b8:	000d1500 		r0, r13, r2
    11bc:	0b3a0e03 		r25, r26, r1
    11c0:	1349053b 		r26, r9, r0
    11c4:	00000b38 		r0, r0, r1
    11c8:	3f012e16 	rsubikc	r24, r1, 11798
    11cc:	3a0e0319 	addikc	r16, r14, 793
    11d0:	27053b0b 	rsubi	r24, r5, 15115
    11d4:	11134919 		r8, r19, r9
    11d8:	40061201 		r0, r6, r2
    11dc:	19429718 		r10, r2, r18
    11e0:	00001301 		r0, r0, r2
    11e4:	03000517 		r24, r0, r0
    11e8:	3b0b3a0e 	addikc	r24, r11, 14862
    11ec:	02134905 		r16, r19, r9
    11f0:	18000017 		r0, r0, r0
    11f4:	08030005 		r0, r3, r0
    11f8:	053b0b3a 	neg	r9, r27
    11fc:	17021349 		r24, r2, r2
    1200:	34190000 	rsubik	r0, r25, 0
    1204:	3a080300 	addikc	r16, r8, 768
    1208:	49053b0b 		r8, r5, r7
    120c:	00180213 		r0, r24, r0
    1210:	82891a00 		r20, r9, r3
    1214:	01110101 		r8, r17, r0
    1218:	00001331 		r0, r0, r2
    121c:	01828a1b 		r12, r2, r17
    1220:	91180200 		r8, r24, r0
    1224:	00001842 		r0, r0, r3
    1228:	3f002e1c 	rsubikc	r24, r0, 11804
    122c:	6e193c19 	tecaget	r16, rfsl9
    1230:	3a0e030e 	addikc	r16, r14, 782
    1234:	000b3b0b 		r0, r11, r7
    1238:	11010000 	addk	r8, r1, r0
    123c:	130e2501 		r24, r14, r4
    1240:	1b0e030b 		r24, r14, r0
    1244:	1201110e 		r16, r1, r2
    1248:	00171006 		r0, r23, r2
    124c:	00240200 		r1, r4, r0
    1250:	0b3e0b0b 		r25, r30, r1
    1254:	00000e03 		r0, r0, r1
    1258:	0b002403 		r24, r0, r4
    125c:	030b3e0b 		r24, r11, r7
    1260:	04000008 	neg	r0, r0
    1264:	13490101 		r26, r9, r0
    1268:	00001301 		r0, r0, r2
    126c:	00002105 		r0, r0, r4
    1270:	00260600 		r1, r6, r0
    1274:	00001349 		r0, r0, r2
    1278:	0b000f07 		r24, r0, r1
    127c:	0013490b 		r0, r19, r9
    1280:	00340800 	add	r1, r20, r1
    1284:	0b3a0e03 		r25, r26, r1
    1288:	13490b3b 		r26, r9, r1
    128c:	193c193f 		r9, r28, r3
    1290:	04090000 	rsub	r0, r9, r0
    1294:	3e0e0301 	rsubikc	r16, r14, 769
    1298:	490b0b0b 		r8, r11, r1
    129c:	3b0b3a13 	addikc	r24, r11, 14867
    12a0:	0013010b 		r0, r19, r0
    12a4:	00280a00 		r1, r8, r1
    12a8:	0b1c0e03 		r24, r28, r1
    12ac:	210b0000 	addi	r8, r11, 0
    12b0:	2f134900 	rsubic	r24, r19, 18688
    12b4:	0c00000b 		r0, r0, r0
    12b8:	0e030034 		r16, r3, r0
    12bc:	053b0b3a 	neg	r9, r27
    12c0:	193f1349 		r9, r31, r2
    12c4:	0000193c 		r0, r0, r3
    12c8:	0301040d 		r24, r1, r0
    12cc:	0b0b3e0e 		r24, r11, r7
    12d0:	3a13490b 	addikc	r16, r19, 18699
    12d4:	01053b0b 		r8, r5, r7
    12d8:	0e000013 		r16, r0, r0
    12dc:	0e030013 		r16, r3, r0
    12e0:	0000193c 		r0, r0, r3
    12e4:	0300160f 		r24, r0, r2
    12e8:	3b0b3a0e 	addikc	r24, r11, 14862
    12ec:	0013490b 		r0, r19, r9
    12f0:	01041000 	add	r8, r4, r2
    12f4:	0b0b0b3e 		r24, r11, r1
    12f8:	0b3a1349 		r25, r26, r2
    12fc:	1301053b 		r24, r1, r0
    1300:	16110000 	rsubk	r16, r17, r0
    1304:	3a0e0300 	addikc	r16, r14, 768
    1308:	49053b0b 		r8, r5, r7
    130c:	12000013 		r16, r0, r0
    1310:	0b0b0117 		r24, r11, r0
    1314:	053b0b3a 	neg	r9, r27
    1318:	00001301 		r0, r0, r2
    131c:	03000d13 		r24, r0, r1
    1320:	3b0b3a08 	addikc	r24, r11, 14856
    1324:	00134905 		r0, r19, r9
    1328:	01131400 		r8, r19, r2
    132c:	0b3a0b0b 		r25, r26, r1
    1330:	1301053b 		r24, r1, r0
    1334:	0d150000 	rsubc	r8, r21, r0
    1338:	3a0e0300 	addikc	r16, r14, 768
    133c:	49053b0b 		r8, r5, r7
    1340:	000b3813 		r0, r11, r7
    1344:	000d1600 		r0, r13, r2
    1348:	0b3a0e03 		r25, r26, r1
    134c:	1349053b 		r26, r9, r0
    1350:	0b0d0b0b 		r24, r13, r1
    1354:	0b380b0c 		r25, r24, r1
    1358:	0d170000 	rsubc	r8, r23, r0
    135c:	3a080300 	addikc	r16, r8, 768
    1360:	49053b0b 		r8, r5, r7
    1364:	0d0b0b13 		r8, r11, r1
    1368:	380b0c0b 	addikc	r0, r11, 3083
    136c:	1800000b 		r0, r0, r0
    1370:	0e03000d 		r16, r3, r0
    1374:	053b0b3a 	neg	r9, r27
    1378:	00001349 		r0, r0, r2
    137c:	3f012e19 	rsubikc	r24, r1, 11801
    1380:	3a0e0319 	addikc	r16, r14, 793
    1384:	270b3b0b 	rsubi	r24, r11, 15115
    1388:	11134919 		r8, r19, r9
    138c:	40061201 		r0, r6, r2
    1390:	19429718 		r10, r2, r18
    1394:	00001301 		r0, r0, r2
    1398:	0300051a 		r24, r0, r0
    139c:	3b0b3a08 	addikc	r24, r11, 14856
    13a0:	0213490b 		r16, r19, r9
    13a4:	1b000017 		r24, r0, r0
    13a8:	08030034 		r0, r3, r0
    13ac:	0b3b0b3a 		r25, r27, r1
    13b0:	00001349 		r0, r0, r2
    13b4:	0300341c 		r24, r0, r6
    13b8:	3b0b3a0e 	addikc	r24, r11, 14862
    13bc:	0213490b 		r16, r19, r9
    13c0:	1d000017 		r8, r0, r0
    13c4:	08030034 		r0, r3, r0
    13c8:	0b3b0b3a 		r25, r27, r1
    13cc:	17021349 		r24, r2, r2
    13d0:	0b1e0000 	addc	r24, r30, r0
    13d4:	00175501 		r0, r23, r10
    13d8:	00341f00 		r1, r20, r3
    13dc:	0b3a0e03 		r25, r26, r1
    13e0:	1349053b 		r26, r9, r0
    13e4:	00001702 		r0, r0, r2
    13e8:	03012e20 		r24, r1, r5
    13ec:	3b0b3a0e 	addikc	r24, r11, 14862
    13f0:	4919270b 		r8, r25, r4
    13f4:	010b2013 		r8, r11, r4
    13f8:	21000013 	addi	r8, r0, 19
    13fc:	08030005 		r0, r3, r0
    1400:	0b3b0b3a 		r25, r27, r1
    1404:	00001349 		r0, r0, r2
    1408:	03012e22 		r24, r1, r5
    140c:	3b0b3a0e 	addikc	r24, r11, 14862
    1410:	4919270b 		r8, r25, r4
    1414:	000b2013 		r0, r11, r4
    1418:	11010000 	addk	r8, r1, r0
    141c:	130e2501 		r24, r14, r4
    1420:	1b0e030b 		r24, r14, r0
    1424:	1201110e 		r16, r1, r2
    1428:	00171006 		r0, r23, r2
    142c:	00240200 		r1, r4, r0
    1430:	0b3e0b0b 		r25, r30, r1
    1434:	00000e03 		r0, r0, r1
    1438:	0b002403 		r24, r0, r4
    143c:	030b3e0b 		r24, r11, r7
    1440:	04000008 	neg	r0, r0
    1444:	13490101 		r26, r9, r0
    1448:	00001301 		r0, r0, r2
    144c:	00002105 		r0, r0, r4
    1450:	00260600 		r1, r6, r0
    1454:	00001349 		r0, r0, r2
    1458:	0b000f07 		r24, r0, r1
    145c:	0013490b 		r0, r19, r9
    1460:	00340800 	add	r1, r20, r1
    1464:	0b3a0e03 		r25, r26, r1
    1468:	13490b3b 		r26, r9, r1
    146c:	193c193f 		r9, r28, r3
    1470:	04090000 	rsub	r0, r9, r0
    1474:	3e0e0301 	rsubikc	r16, r14, 769
    1478:	490b0b0b 		r8, r11, r1
    147c:	3b0b3a13 	addikc	r24, r11, 14867
    1480:	0013010b 		r0, r19, r0
    1484:	00280a00 		r1, r8, r1
    1488:	0b1c0e03 		r24, r28, r1
    148c:	210b0000 	addi	r8, r11, 0
    1490:	2f134900 	rsubic	r24, r19, 18688
    1494:	0c00000b 		r0, r0, r0
    1498:	0e030034 		r16, r3, r0
    149c:	053b0b3a 	neg	r9, r27
    14a0:	193f1349 		r9, r31, r2
    14a4:	0000193c 		r0, r0, r3
    14a8:	0301040d 		r24, r1, r0
    14ac:	0b0b3e0e 		r24, r11, r7
    14b0:	3a13490b 	addikc	r16, r19, 18699
    14b4:	01053b0b 		r8, r5, r7
    14b8:	0e000013 		r16, r0, r0
    14bc:	0e030013 		r16, r3, r0
    14c0:	0000193c 		r0, r0, r3
    14c4:	0300160f 		r24, r0, r2
    14c8:	3b0b3a0e 	addikc	r24, r11, 14862
    14cc:	0013490b 		r0, r19, r9
    14d0:	01041000 	add	r8, r4, r2
    14d4:	0b0b0b3e 		r24, r11, r1
    14d8:	0b3a1349 		r25, r26, r2
    14dc:	1301053b 		r24, r1, r0
    14e0:	16110000 	rsubk	r16, r17, r0
    14e4:	3a0e0300 	addikc	r16, r14, 768
    14e8:	49053b0b 		r8, r5, r7
    14ec:	12000013 		r16, r0, r0
    14f0:	0b0b0117 		r24, r11, r0
    14f4:	053b0b3a 	neg	r9, r27
    14f8:	00001301 		r0, r0, r2
    14fc:	03000d13 		r24, r0, r1
    1500:	3b0b3a08 	addikc	r24, r11, 14856
    1504:	00134905 		r0, r19, r9
    1508:	01131400 		r8, r19, r2
    150c:	0b3a0b0b 		r25, r26, r1
    1510:	1301053b 		r24, r1, r0
    1514:	0d150000 	rsubc	r8, r21, r0
    1518:	3a0e0300 	addikc	r16, r14, 768
    151c:	49053b0b 		r8, r5, r7
    1520:	000b3813 		r0, r11, r7
    1524:	000d1600 		r0, r13, r2
    1528:	0b3a0e03 		r25, r26, r1
    152c:	1349053b 		r26, r9, r0
    1530:	0b0d0b0b 		r24, r13, r1
    1534:	0b380b0c 		r25, r24, r1
    1538:	0d170000 	rsubc	r8, r23, r0
    153c:	3a080300 	addikc	r16, r8, 768
    1540:	49053b0b 		r8, r5, r7
    1544:	0d0b0b13 		r8, r11, r1
    1548:	380b0c0b 	addikc	r0, r11, 3083
    154c:	1800000b 		r0, r0, r0
    1550:	0e03000d 		r16, r3, r0
    1554:	053b0b3a 	neg	r9, r27
    1558:	00001349 		r0, r0, r2
    155c:	3f012e19 	rsubikc	r24, r1, 11801
    1560:	3a0e0319 	addikc	r16, r14, 793
    1564:	27053b0b 	rsubi	r24, r5, 15115
    1568:	12011119 		r16, r1, r2
    156c:	97184006 		r24, r24, r8
    1570:	13011942 		r24, r1, r3
    1574:	051a0000 	rsub	r8, r26, r0
    1578:	3a080300 	addikc	r16, r8, 768
    157c:	49053b0b 		r8, r5, r7
    1580:	00170213 		r0, r23, r0
    1584:	00051b00 		r0, r5, r3
    1588:	0b3a0803 		r25, r26, r1
    158c:	1349053b 		r26, r9, r0
    1590:	00001802 		r0, r0, r3
    1594:	0300341c 		r24, r0, r6
    1598:	3b0b3a0e 	addikc	r24, r11, 14862
    159c:	02134905 		r16, r19, r9
    15a0:	1d000017 		r8, r0, r0
    15a4:	08030034 		r0, r3, r0
    15a8:	053b0b3a 	neg	r9, r27
    15ac:	17021349 		r24, r2, r2
    15b0:	341e0000 	rsubik	r0, r30, 0
    15b4:	3a0e0300 	addikc	r16, r14, 768
    15b8:	49053b0b 		r8, r5, r7
    15bc:	00000013 		r0, r0, r0
    15c0:	25011101 	rsubi	r8, r1, 4353
    15c4:	030b130e 		r24, r11, r2
    15c8:	110e1b0e 		r8, r14, r3
    15cc:	10061201 		r0, r6, r2
    15d0:	02000017 		r16, r0, r0
    15d4:	0b0b0024 		r24, r11, r0
    15d8:	0e030b3e 		r16, r3, r1
    15dc:	24030000 	rsubi	r0, r3, 0
    15e0:	3e0b0b00 	rsubikc	r16, r11, 2816
    15e4:	0008030b 		r0, r8, r0
    15e8:	01010400 		r8, r1, r0
    15ec:	13011349 		r24, r1, r2
    15f0:	21050000 	addi	r8, r5, 0
    15f4:	06000000 	rsub	r16, r0, r0
    15f8:	13490026 		r26, r9, r0
    15fc:	0f070000 	rsubc	r24, r7, r0
    1600:	490b0b00 		r8, r11, r1
    1604:	08000013 		r0, r0, r0
    1608:	0e030034 		r16, r3, r0
    160c:	0b3b0b3a 		r25, r27, r1
    1610:	193f1349 		r9, r31, r2
    1614:	0000193c 		r0, r0, r3
    1618:	03010409 		r24, r1, r0
    161c:	0b0b3e0e 		r24, r11, r7
    1620:	3a13490b 	addikc	r16, r19, 18699
    1624:	010b3b0b 		r8, r11, r7
    1628:	0a000013 		r16, r0, r0
    162c:	0e030028 		r16, r3, r0
    1630:	00000b1c 		r0, r0, r1
    1634:	4900210b 		r8, r0, r4
    1638:	000b2f13 		r0, r11, r5
    163c:	00340c00 		r1, r20, r1
    1640:	0b3a0e03 		r25, r26, r1
    1644:	1349053b 		r26, r9, r0
    1648:	193c193f 		r9, r28, r3
    164c:	040d0000 	rsub	r0, r13, r0
    1650:	3e0e0301 	rsubikc	r16, r14, 769
    1654:	490b0b0b 		r8, r11, r1
    1658:	3b0b3a13 	addikc	r24, r11, 14867
    165c:	00130105 		r0, r19, r0
    1660:	00130e00 		r0, r19, r1
    1664:	193c0e03 		r9, r28, r1
    1668:	160f0000 	rsubk	r16, r15, r0
    166c:	3a0e0300 	addikc	r16, r14, 768
    1670:	490b3b0b 		r8, r11, r7
    1674:	10000013 		r0, r0, r0
    1678:	0b3e0104 		r25, r30, r0
    167c:	13490b0b 		r26, r9, r1
    1680:	053b0b3a 	neg	r9, r27
    1684:	00001301 		r0, r0, r2
    1688:	03001611 		r24, r0, r2
    168c:	3b0b3a0e 	addikc	r24, r11, 14862
    1690:	00134905 		r0, r19, r9
    1694:	01171200 		r8, r23, r2
    1698:	0b3a0b0b 		r25, r26, r1
    169c:	1301053b 		r24, r1, r0
    16a0:	0d130000 	rsubc	r8, r19, r0
    16a4:	3a080300 	addikc	r16, r8, 768
    16a8:	49053b0b 		r8, r5, r7
    16ac:	14000013 		r0, r0, r0
    16b0:	0b0b0113 		r24, r11, r0
    16b4:	053b0b3a 	neg	r9, r27
    16b8:	00001301 		r0, r0, r2
    16bc:	03000d15 		r24, r0, r1
    16c0:	3b0b3a0e 	addikc	r24, r11, 14862
    16c4:	38134905 	addikc	r0, r19, 18693
    16c8:	1600000b 		r16, r0, r0
    16cc:	0e03000d 		r16, r3, r0
    16d0:	053b0b3a 	neg	r9, r27
    16d4:	0b0b1349 		r24, r11, r2
    16d8:	0b0c0b0d 		r24, r12, r1
    16dc:	00000b38 		r0, r0, r1
    16e0:	03000d17 		r24, r0, r1
    16e4:	3b0b3a08 	addikc	r24, r11, 14856
    16e8:	0b134905 		r24, r19, r9
    16ec:	0c0b0d0b 		r0, r11, r1
    16f0:	000b380b 		r0, r11, r7
    16f4:	000d1800 	add	r0, r13, r3
    16f8:	0b3a0e03 		r25, r26, r1
    16fc:	1349053b 		r26, r9, r0
    1700:	2e190000 	rsubic	r16, r25, 0
    1704:	03193f01 		r24, r25, r7
    1708:	3b0b3a0e 	addikc	r24, r11, 14862
    170c:	4919270b 		r8, r25, r4
    1710:	12011113 		r16, r1, r2
    1714:	97184006 		r24, r24, r8
    1718:	13011942 		r24, r1, r3
    171c:	051a0000 	rsub	r8, r26, r0
    1720:	3a080300 	addikc	r16, r8, 768
    1724:	490b3b0b 		r8, r11, r7
    1728:	00170213 		r0, r23, r0
    172c:	00341b00 		r1, r20, r3
    1730:	0b3a0803 		r25, r26, r1
    1734:	13490b3b 		r26, r9, r1
    1738:	341c0000 	rsubik	r0, r28, 0
    173c:	3a0e0300 	addikc	r16, r14, 768
    1740:	490b3b0b 		r8, r11, r7
    1744:	00170213 		r0, r23, r0
    1748:	00341d00 		r1, r20, r3
    174c:	0b3a0e03 		r25, r26, r1
    1750:	13490b3b 		r26, r9, r1
    1754:	00001802 		r0, r0, r3
    1758:	0300341e 		r24, r0, r6
    175c:	3b0b3a08 	addikc	r24, r11, 14856
    1760:	0213490b 		r16, r19, r9
    1764:	1f000017 		r24, r0, r0
    1768:	0111010b 		r8, r17, r0
    176c:	00000612 		r0, r0, r0
    1770:	03003420 		r24, r0, r6
    1774:	3b0b3a0e 	addikc	r24, r11, 14862
    1778:	02134905 		r16, r19, r9
    177c:	21000017 	addi	r8, r0, 23
    1780:	0e03012e 		r16, r3, r0
    1784:	0b3b0b3a 		r25, r27, r1
    1788:	13491927 		r26, r9, r3
    178c:	13010b20 		r24, r1, r1
    1790:	05220000 	rsub	r9, r2, r0
    1794:	3a080300 	addikc	r16, r8, 768
    1798:	490b3b0b 		r8, r11, r7
    179c:	23000013 	addi	r24, r0, 19
    17a0:	0e03012e 		r16, r3, r0
    17a4:	0b3b0b3a 		r25, r27, r1
    17a8:	13491927 		r26, r9, r3
    17ac:	00000b20 		r0, r0, r1
	...

Disassembly of section .debug_loc:

00000000 <.debug_loc>:
       0:	
Disassembly of section .debug_aranges:

00000000 <.debug_aranges>:
   0:	0000001c 		r0, r0, r0
   4:	00000002 		r0, r0, r0
   8:	00040000 	add	r0, r4, r0
   c:	
Disassembly of section .debug_line:

00000000 <.debug_line>:
       0:	000001e4 		r0, r0, r0
       4:	01910004 		r12, r17, r0
       8:	01010000 	add	r8, r1, r0
       c:	0df2f601 		r15, r18, r30
      10:	01010100 	addl	r8, r1, r0
      14:	00000001 		r0, r0, r0
      18:	01000001 		r8, r0, r0
      1c:	2e2f2e2e 	rsubic	r17, r15, 11822
      20:	2e2e2f2e 	rsubic	r17, r14, 12078
      24:	2f2e2e2f 	rsubic	r25, r14, 11823
      28:	2e2f2e2e 	rsubic	r17, r15, 11822
      2c:	6363672f 	muli	r27, r3, 26415
      30:	72702f00 		r19, r16, r5
      34:	732f6a6f 		r25, r15, r13
      38:	672f6b64 	bslefi	r25, r15, 45, 36
      3c:	6d2f756e 	tnecget	r9, rfsl14
      40:	6f726369 	ncget	r27, rfsl9
      44:	7a616c62 		r19, r1, r13
      48:	75622f65 		r11, r2, r5
      4c:	73646c69 		r27, r4, r13
      50:	4145482f 		r10, r5, r9
      54:	696e2f44 		r11, r14, r5
      58:	6c746867 	ncaget	r3, rfsl7
      5c:	30322f79 	addik	r1, r18, 12153
      60:	315f3831 	addik	r10, r31, 14385
      64:	39325f31 	addikc	r9, r18, 24369
      68:	6964722f 		r11, r4, r14
      6c:	7263735f 		r19, r3, r14
      70:	73747069 		r27, r20, r14
      74:	2f2e2e2f 	rsubic	r25, r14, 11823
      78:	6c697562 	tnecget	r3, rfsl2
      7c:	696c2f64 		r11, r12, r5
      80:	74632f6e 		r3, r3, r5
      84:	625f676e 	muli	r18, r31, 26478
      88:	742f646c 		r1, r15, r12
      8c:	65677261 	bslefi	r11, r7, 9, 33
      90:	75625f74 		r11, r2, r11
      94:	2f646c69 	rsubic	r27, r4, 27753
      98:	2f637273 	rsubic	r27, r3, 29299
      9c:	2d636367 	rsubic	r11, r3, 25447
      a0:	74737563 		r3, r19, r14
      a4:	6c2f6d6f 	necaget	r1, rfsl15
      a8:	63676269 	muli	r27, r7, 25193
      ac:	702f0063 		r1, r15, r0
      b0:	2f6a6f72 	rsubic	r27, r10, 28530
      b4:	2f6b6473 	rsubic	r27, r11, 25715
      b8:	2f756e67 	rsubic	r27, r21, 28263
      bc:	7263696d 		r19, r3, r13
      c0:	616c626f 	muli	r11, r12, 25199
      c4:	622f657a 	muli	r17, r15, 25978
      c8:	646c6975 	bslefi	r3, r12, 37, 53
      cc:	45482f73 		r10, r8, r5
      d0:	6e2f4441 	neget	r17, rfsl1
      d4:	74686769 		r3, r8, r12
      d8:	322f796c 	addik	r17, r15, 31084
      dc:	5f383130 		r25, r24, r6
      e0:	325f3131 	addik	r18, r31, 12593
      e4:	64722f39 		r3, r18, r5
      e8:	63735f69 	muli	r27, r19, 24425
      ec:	74706972 		r3, r16, r13
      f0:	2e2e2f73 	rsubic	r17, r14, 12147
      f4:	6975622f 		r11, r21, r12
      f8:	6c2f646c 	necget	r1, rfsl12
      fc:	632f6e69 	muli	r25, r15, 28265
     100:	5f676e74 		r27, r7, r13
     104:	2f646c62 	rsubic	r27, r4, 27746
     108:	67726174 	bslefi	r27, r18, 5, 52
     10c:	625f7465 	muli	r18, r31, 29797
     110:	646c6975 	bslefi	r3, r12, 37, 53
     114:	6372732f 	muli	r27, r18, 29487
     118:	6363672f 	muli	r27, r3, 26415
     11c:	7375632d 		r27, r21, r12
     120:	2f6d6f74 	rsubic	r27, r13, 28532
     124:	6762696c 	bslefi	r27, r2, 37, 44
     128:	2e2f6363 	rsubic	r17, r15, 25443
     12c:	63672f2e 	muli	r27, r7, 12078
     130:	6f632f63 	ecaget	r27, rfsl3
     134:	6769666e 	bslefi	r27, r9, 25, 46
     138:	63696d2f 	muli	r27, r9, 27951
     13c:	6c626f72 	necaget	r3, rfsl2
     140:	00657a61 		r3, r5, r15
     144:	2d706600 	rsubic	r11, r16, 26112
     148:	2e746962 	rsubic	r19, r20, 26978
     14c:	00020063 		r0, r2, r0
     150:	736e6900 		r27, r14, r13
     154:	6f632d6e 	ecaget	r27, rfsl14
     158:	6174736e 	muli	r11, r20, 29550
     15c:	2e73746e 	rsubic	r19, r19, 29806
     160:	00010068 		r0, r1, r0
     164:	2f2e2e00 	rsubic	r25, r14, 11776
     168:	2f636367 	rsubic	r27, r3, 25447
     16c:	666e6f63 	bslefi	r19, r14, 61, 35
     170:	6d2f6769 	necget	r9, rfsl9
     174:	6f726369 	ncget	r27, rfsl9
     178:	7a616c62 		r19, r1, r13
     17c:	696d2f65 		r11, r13, r5
     180:	626f7263 	muli	r19, r15, 29283
     184:	657a616c 	bslefi	r11, r26, 5, 44
     188:	0200682e 		r16, r0, r13
     18c:	70660000 		r3, r6, r0
     190:	7469622d 		r3, r9, r12
     194:	0200682e 		r16, r0, r13
     198:	
Disassembly of section .debug_str:

00000000 <.debug_str>:
   0:	6e5f7066 	tncget	r18, rfsl6
   4:	65626d75 	bslefi	r11, r2, 53, 53
   8:	79745f72 		r11, r20, r11
   c:	43006570 		r24, r0, r12
  10:	5353414c 		r26, r19, r8
  14:	52455a5f 		r18, r5, r11
  18:	696d004f 		r11, r13, r0
  1c:	626f7263 	muli	r19, r15, 29283
  20:	657a616c 	bslefi	r11, r26, 5, 44
  24:	7261685f 		r19, r1, r13
  28:	65725f64 	bsefi	r11, r18, 61, 36
  2c:	5f6f6e67 		r27, r15, r13
  30:	65646f6d 	bslefi	r11, r4, 61, 45
  34:	006b6f5f 		r3, r11, r13
  38:	5f4f4c46 		r26, r15, r9
  3c:	65707974 	bslefi	r11, r16, 37, 52
  40:	4d494c00 	putd	r9, r9
  44:	4745525f 	bsra	r26, r5, r10
  48:	414c435f 		r10, r12, r8
  4c:	53455353 		r26, r5, r10
  50:	414c4300 		r10, r12, r8
  54:	515f5353 		r10, r31, r10
  58:	004e414e 		r2, r14, r8
  5c:	53414c43 		r26, r1, r9
  60:	4e495f53 	ncaputd	r9, r11
  64:	494e4946 		r10, r14, r9
  68:	4e005954 	cagetd	r16, r11
  6c:	45525f4f 		r10, r18, r11
  70:	66005347 	bsefi	r16, r0, 13, 7
  74:	5f747361 		r27, r20, r14
  78:	65746e69 	bslefi	r11, r20, 57, 41
  7c:	70757272 		r3, r21, r14
  80:	5f5f0074 		r26, r31, r0
  84:	65747865 	bslefi	r11, r20, 33, 37
  88:	6673646e 	bslefi	r19, r19, 17, 46
  8c:	00326664 		r1, r18, r12
  90:	79744644 		r11, r20, r8
  94:	73006570 		r24, r0, r12
  98:	74726f68 		r3, r18, r13
  9c:	746e6920 		r3, r14, r13
  a0:	745f5f00 		r2, r31, r11
  a4:	616e6568 	muli	r11, r14, 25960
  a8:	66735f6e 	bsefi	r19, r19, 61, 46
  ac:	63696d00 	muli	r27, r9, 27904
  b0:	6c626f72 	necaget	r3, rfsl2
  b4:	5f657a61 		r27, r5, r15
  b8:	5f786264 		r27, r24, r12
  bc:	6e676572 	necget	r19, rfsl2
  c0:	4c41006f 	eagetd	r2, r0
  c4:	45525f4c 		r10, r18, r11
  c8:	73005347 		r24, r0, r10
  cc:	5f657661 		r27, r5, r14
  d0:	616c6f76 	muli	r11, r12, 28534
  d4:	656c6974 	bslefi	r11, r12, 37, 52
  d8:	6e750073 	get	r19, rfsl3
  dc:	63657073 	muli	r27, r5, 28787
  e0:	7274735f 		r19, r20, r14
  e4:	73676e69 		r27, r7, r13
  e8:	63696d00 	muli	r27, r9, 27904
  ec:	6c626f72 	necaget	r3, rfsl2
  f0:	5f657a61 		r27, r5, r15
  f4:	5f736168 		r27, r19, r12
  f8:	66746962 	bslefi	r19, r20, 37, 34
  fc:	646c6569 	bslefi	r3, r12, 21, 41
 100:	6c616800 	ncaget	r3, rfsl0
 104:	61726666 	muli	r11, r18, 26214
 108:	70797463 		r3, r25, r14
 10c:	702f0065 		r1, r15, r0
 110:	2f6a6f72 	rsubic	r27, r10, 28530
 114:	2f6b6473 	rsubic	r27, r11, 25715
 118:	2f756e67 	rsubic	r27, r21, 28263
 11c:	7263696d 		r19, r3, r13
 120:	616c626f 	muli	r11, r12, 25199
 124:	622f657a 	muli	r17, r15, 25978
 128:	646c6975 	bslefi	r3, r12, 37, 53
 12c:	45482f73 		r10, r8, r5
 130:	6e2f4441 	neget	r17, rfsl1
 134:	74686769 		r3, r8, r12
 138:	322f796c 	addik	r17, r15, 31084
 13c:	5f383130 		r25, r24, r6
 140:	325f3131 	addik	r18, r31, 12593
 144:	64722f39 		r3, r18, r5
 148:	63735f69 	muli	r27, r19, 24425
 14c:	74706972 		r3, r16, r13
 150:	2e2e2f73 	rsubic	r17, r14, 12147
 154:	6975622f 		r11, r21, r12
 158:	6c2f646c 	necget	r1, rfsl12
 15c:	632f6e69 	muli	r25, r15, 28265
 160:	5f676e74 		r27, r7, r13
 164:	2f646c62 	rsubic	r27, r4, 27746
 168:	67726174 	bslefi	r27, r18, 5, 52
 16c:	625f7465 	muli	r18, r31, 29797
 170:	646c6975 	bslefi	r3, r12, 37, 53
 174:	6372732f 	muli	r27, r18, 29487
 178:	6363672f 	muli	r27, r3, 26415
 17c:	7375632d 		r27, r21, r12
 180:	2f6d6f74 	rsubic	r27, r13, 28532
 184:	6762696c 	bslefi	r27, r2, 37, 44
 188:	662f6363 	bslefi	r17, r15, 13, 35
 18c:	69622d70 		r11, r2, r5
 190:	00632e74 		r3, r3, r5
 194:	73746962 		r27, r20, r13
 198:	72702f00 		r19, r16, r5
 19c:	732f6a6f 		r25, r15, r13
 1a0:	672f6b64 	bslefi	r25, r15, 45, 36
 1a4:	6d2f756e 	tnecget	r9, rfsl14
 1a8:	6f726369 	ncget	r27, rfsl9
 1ac:	7a616c62 		r19, r1, r13
 1b0:	75622f65 		r11, r2, r5
 1b4:	73646c69 		r27, r4, r13
 1b8:	4145482f 		r10, r5, r9
 1bc:	696e2f44 		r11, r14, r5
 1c0:	6c746867 	ncaget	r3, rfsl7
 1c4:	30322f79 	addik	r1, r18, 12153
 1c8:	315f3831 	addik	r10, r31, 14385
 1cc:	39325f31 	addikc	r9, r18, 24369
 1d0:	6975622f 		r11, r21, r12
 1d4:	6c2f646c 	necget	r1, rfsl12
 1d8:	632f6e69 	muli	r25, r15, 28265
 1dc:	5f676e74 		r27, r7, r13
 1e0:	2f646c62 	rsubic	r27, r4, 27746
 1e4:	67726174 	bslefi	r27, r18, 5, 52
 1e8:	625f7465 	muli	r18, r31, 29797
 1ec:	646c6975 	bslefi	r3, r12, 37, 53
 1f0:	63696d2f 	muli	r27, r9, 27951
 1f4:	6c626f72 	necaget	r3, rfsl2
 1f8:	2d657a61 	rsubic	r11, r5, 31329
 1fc:	696c6978 		r11, r12, r13
 200:	652d786e 	bslefi	r9, r13, 33, 46
 204:	622f666c 	muli	r17, r15, 26220
 208:	646c6975 	bslefi	r3, r12, 37, 53
 20c:	6975622f 		r11, r21, r12
 210:	632d646c 	muli	r25, r13, 25708
 214:	69662d63 		r11, r6, r5
 218:	2f6c616e 	rsubic	r27, r12, 24942
 21c:	7263696d 		r19, r3, r13
 220:	616c626f 	muli	r11, r12, 25199
 224:	782d657a 		r1, r13, r12
 228:	6e696c69 	necaget	r19, rfsl9
 22c:	6c652d78 	ecaget	r3, rfsl8
 230:	73622f66 		r27, r2, r5
 234:	2f656c2f 	rsubic	r27, r5, 27695
 238:	696c2f6d 		r11, r12, r5
 23c:	63636762 	muli	r27, r3, 26466
 240:	4f4c4600 	nputd	r12, r8
 244:	696e755f 		r11, r14, r14
 248:	745f6e6f 		r2, r31, r13
 24c:	00657079 		r3, r5, r14
 250:	5f677261 		r27, r7, r14
 254:	696d0061 		r11, r13, r0
 258:	626f7263 	muli	r19, r15, 29283
 25c:	657a616c 	bslefi	r11, r26, 5, 44
 260:	7069705f 		r3, r9, r14
 264:	5f5f0065 		r26, r31, r0
 268:	61706e75 	muli	r11, r16, 28277
 26c:	665f6b63 	bslefi	r18, r31, 45, 35
 270:	70697000 		r3, r9, r14
 274:	6e696c65 	necaget	r19, rfsl5
 278:	79745f65 		r11, r20, r11
 27c:	75006570 		r8, r0, r12
 280:	6769736e 	bslefi	r27, r9, 13, 46
 284:	2064656e 	addi	r3, r4, 25966
 288:	72616863 		r19, r1, r13
 28c:	6d5f5f00 	tneaget	r10, rfsl0
 290:	5f656b61 		r27, r5, r13
 294:	69007064 		r8, r0, r14
 298:	7265746e 		r19, r5, r14
 29c:	74707572 		r3, r16, r14
 2a0:	6e61685f 	ncaget	r19, rfsl15
 2a4:	72656c64 		r19, r5, r13
 2a8:	49535500 		r10, r19, r10
 2ac:	65707974 	bslefi	r11, r16, 37, 52
 2b0:	6e6f6c00 	necaget	r19, rfsl0
 2b4:	6f6c2067 	cget	r27, rfsl7
 2b8:	7520676e 		r9, r0, r12
 2bc:	6769736e 	bslefi	r27, r9, 13, 46
 2c0:	2064656e 	addi	r3, r4, 25966
 2c4:	00746e69 		r3, r20, r13
 2c8:	7263696d 		r19, r3, r13
 2cc:	616c626f 	muli	r11, r12, 25199
 2d0:	665f657a 	bslefi	r18, r31, 21, 58
 2d4:	656d6172 	bslefi	r11, r13, 5, 50
 2d8:	666e695f 	bslefi	r19, r14, 37, 31
 2dc:	7563006f 		r11, r3, r0
 2e0:	6e657272 	tncget	r19, rfsl2
 2e4:	72665f74 		r19, r6, r11
 2e8:	5f656d61 		r27, r5, r13
 2ec:	6f666e69 	necaget	r27, rfsl9
 2f0:	63696d00 	muli	r27, r9, 27904
 2f4:	6c626f72 	necaget	r3, rfsl2
 2f8:	5f657a61 		r27, r5, r15
 2fc:	5f736168 		r27, r19, r12
 300:	007a6c63 		r3, r26, r13
 304:	74494855 		r2, r9, r9
 308:	00657079 		r3, r5, r14
 30c:	726f6873 		r19, r15, r13
 310:	6e752074 	cget	r19, rfsl4
 314:	6e676973 	ncaget	r19, rfsl3
 318:	69206465 		r9, r0, r12
 31c:	5500746e 		r8, r0, r14
 320:	79744944 		r11, r20, r9
 324:	6d006570 	necget	r8, rfsl0
 328:	6f726369 	ncget	r27, rfsl9
 32c:	7a616c62 		r19, r1, r13
 330:	65735f65 	bsefi	r11, r19, 61, 37
 334:	6f697463 	tnecget	r27, rfsl3
 338:	68745f6e 		r3, r20, r11
 33c:	68736572 		r3, r19, r12
 340:	00646c6f 		r3, r4, r13
 344:	53414c43 		r26, r1, r9
 348:	4e535f53 	ncaputd	r19, r11
 34c:	47004e41 		r24, r0, r9
 350:	4320554e 		r25, r0, r10
 354:	37203131 	rsubik	r25, r0, 12593
 358:	312e332e 	addik	r9, r14, 13102
 35c:	31303220 	addik	r9, r16, 12832
 360:	32343038 	addik	r17, r20, 12344
 364:	6d2d2035 	cget	r9, rfsl5
 368:	622d6c78 	muli	r17, r13, 27768
 36c:	65727261 	bslefi	r11, r18, 9, 33
 370:	68732d6c 		r3, r19, r5
 374:	20746669 	addi	r3, r20, 26217
 378:	696c6d2d 		r11, r12, r13
 37c:	656c7474 	bslefi	r11, r12, 17, 52
 380:	646e652d 	bslefi	r3, r14, 20, 45
 384:	206e6169 	addi	r3, r14, 24937
 388:	6f6e6d2d 	necaget	r27, rfsl13
 38c:	2d6c782d 	rsubic	r11, r12, 30765
 390:	74666f73 		r3, r6, r13
 394:	6c756d2d 	necaget	r3, rfsl13
 398:	20672d20 	addi	r3, r7, 11552
 39c:	2d20672d 	rsubic	r9, r0, 26413
 3a0:	4f2d2067 	eagetd	r25, r4
 3a4:	4f2d2032 	egetd	r25, r4
 3a8:	4f2d2073 	eagetd	r25, r4
 3ac:	662d2032 	bslrli	r17, r13, 50
 3b0:	6c697562 	tnecget	r3, rfsl2
 3b4:	676e6964 	bslefi	r27, r14, 37, 36
 3b8:	62696c2d 	muli	r19, r9, 27693
 3bc:	20636367 	addi	r3, r3, 25447
 3c0:	6f6e662d 	necget	r27, rfsl13
 3c4:	6174732d 	muli	r11, r20, 29485
 3c8:	702d6b63 		r1, r13, r13
 3cc:	65746f72 	bslefi	r11, r20, 61, 50
 3d0:	726f7463 		r19, r15, r14
 3d4:	76662d20 		r19, r6, r5
 3d8:	62697369 	muli	r19, r9, 29545
 3dc:	74696c69 		r3, r9, r13
 3e0:	69683d79 		r11, r8, r7
 3e4:	6e656464 	necget	r19, rfsl4
 3e8:	74465300 		r2, r6, r10
 3ec:	00657079 		r3, r5, r14
 3f0:	5243494d 		r18, r3, r9
 3f4:	414c424f 		r10, r12, r8
 3f8:	505f455a 		r2, r31, r8
 3fc:	5f455049 		r26, r5, r10
 400:	494d0033 		r10, r13, r0
 404:	424f5243 		r18, r15, r10
 408:	455a414c 	bslrl	r10, r26, r8
 40c:	5049505f 		r2, r9, r10
 410:	00355f45 		r1, r21, r11
 414:	5243494d 		r18, r3, r9
 418:	414c424f 		r10, r12, r8
 41c:	505f455a 		r2, r31, r8
 420:	5f455049 		r26, r5, r10
 424:	696d0038 		r11, r13, r0
 428:	626f7263 	muli	r19, r15, 29283
 42c:	657a616c 	bslefi	r11, r26, 5, 44
 430:	6972705f 		r11, r18, r14
 434:	6f5f746e 	tnecget	r26, rfsl14
 438:	61726570 	muli	r11, r18, 25968
 43c:	705f646e 		r2, r31, r12
 440:	74636e75 		r3, r3, r13
 444:	414c4300 		r10, r12, r8
 448:	4e5f5353 	ncagetd	r18, r10
 44c:	45424d55 	bslll	r10, r2, r9
 450:	696d0052 		r11, r13, r0
 454:	626f7263 	muli	r19, r15, 29283
 458:	657a616c 	bslefi	r11, r26, 5, 44
 45c:	5f6f6e5f 		r27, r15, r13
 460:	61736e75 	muli	r11, r19, 28277
 464:	645f6566 	bslefi	r2, r31, 21, 38
 468:	79616c65 		r11, r1, r13
 46c:	67657200 	bslefi	r27, r5, 8, 0
 470:	616c635f 	muli	r11, r12, 25439
 474:	53007373 		r24, r0, r14
 478:	45525f54 		r10, r18, r11
 47c:	47005347 	bslra	r24, r0, r10
 480:	45525f52 		r10, r18, r11
 484:	66005347 	bsefi	r16, r0, 13, 7
 488:	6c635f70 	tneaget	r3, rfsl0
 48c:	5f737361 		r27, r19, r14
 490:	65707974 	bslefi	r11, r16, 37, 52
 494:	63696d00 	muli	r27, r9, 27904
 498:	6c626f72 	necaget	r3, rfsl2
 49c:	5f657a61 		r27, r5, r15
 4a0:	6e676572 	necget	r19, rfsl2
 4a4:	6f745f6f 	tneaget	r27, rfsl15
 4a8:	616c635f 	muli	r11, r12, 25439
 4ac:	76007373 		r16, r0, r14
 4b0:	65756c61 	bslefi	r11, r21, 49, 33
 4b4:	7761725f 		r27, r1, r14
 4b8:	6e6f6c00 	necaget	r19, rfsl0
 4bc:	6f6c2067 	cget	r27, rfsl7
 4c0:	6920676e 		r9, r0, r12
 4c4:	7700746e 		r24, r0, r14
 4c8:	7364726f 		r27, r4, r14
 4cc:	6e5f6100 	ncget	r18, rfsl0
 4d0:	616d726f 	muli	r11, r13, 29295
 4d4:	78655f6c 		r3, r5, r11
 4d8:	5f5f0070 		r26, r31, r0
 4dc:	64646461 	bslefi	r3, r4, 17, 33
 4e0:	69003366 		r8, r0, r6
 4e4:	7266746e 		r19, r6, r14
 4e8:	5f006361 		r24, r0, r12
 4ec:	6361705f 	muli	r27, r1, 28767
 4f0:	00645f6b 		r3, r4, r11
 4f4:	68745f5f 		r3, r20, r11
 4f8:	6e616e65 	necaget	r19, rfsl5
 4fc:	0066645f 		r3, r6, r12
 500:	657a7369 	bslefi	r11, r26, 13, 41
 504:	69006f72 		r8, r0, r13
 508:	6e616e73 	necaget	r19, rfsl3
 50c:	70665f00 		r3, r6, r11
 510:	5f646461 		r27, r4, r12
 514:	74726170 		r3, r18, r12
 518:	64730073 	bsrli	r3, r19, 51
 51c:	00666669 		r3, r6, r12
 520:	6e697369 	tncget	r19, rfsl9
 524:	5f5f0066 		r26, r31, r0
 528:	64627573 	bslefi	r3, r2, 21, 51
 52c:	61003366 	muli	r8, r0, 13158
 530:	625f6772 	muli	r18, r31, 26482
 534:	665f6200 	bslefi	r18, r31, 8, 0
 538:	74636172 		r3, r3, r12
 53c:	006e6f69 		r3, r14, r13
 540:	6e755f5f 	tneaget	r19, rfsl15
 544:	6b636170 		r27, r3, r12
 548:	6100645f 	muli	r8, r0, 25695
 54c:	6172665f 	muli	r11, r18, 26207
 550:	6f697463 	tnecget	r27, rfsl3
 554:	6674006e 	bsrli	r19, r20, 46
 558:	74636172 		r3, r3, r12
 55c:	006e6f69 		r3, r14, r13
 560:	6f6e5f62 	tneaget	r27, rfsl2
 564:	6c616d72 	necaget	r3, rfsl2
 568:	7078655f 		r3, r24, r12
 56c:	6b616d00 		r27, r1, r13
 570:	6e616e65 	necaget	r19, rfsl5
 574:	5f707000 		r27, r16, r14
 578:	6800686c 		r0, r0, r13
 57c:	00686769 		r3, r8, r12
 580:	685f7070 		r2, r31, r14
 584:	70700068 		r3, r16, r0
 588:	006c685f 		r3, r12, r13
 58c:	6c5f7070 	tncget	r2, rfsl0
 590:	665f006c 	bsrli	r18, r31, 44
 594:	6c756d70 	necaget	r3, rfsl0
 598:	7261705f 		r19, r1, r14
 59c:	72007374 		r16, r0, r14
 5a0:	00307365 		r1, r16, r14
 5a4:	32736572 	addik	r19, r19, 25970
 5a8:	5f737000 		r27, r19, r14
 5ac:	5f5f6868 		r26, r31, r13
 5b0:	6d5f5f00 	tneaget	r10, rfsl0
 5b4:	66646c75 	bslefi	r19, r4, 49, 53
 5b8:	75710033 		r11, r17, r0
 5bc:	6569746f 	bslefi	r11, r9, 17, 47
 5c0:	5f00746e 		r24, r0, r14
 5c4:	7669645f 		r19, r9, r12
 5c8:	00336664 		r1, r19, r12
 5cc:	656d756e 	bslefi	r11, r13, 21, 46
 5d0:	6f746172 	ncget	r27, rfsl2
 5d4:	665f0072 	bsrli	r18, r31, 50
 5d8:	76696470 		r19, r9, r12
 5dc:	7261705f 		r19, r1, r14
 5e0:	64007374 	bslefi	r0, r0, 13, 52
 5e4:	6d6f6e65 	necaget	r11, rfsl5
 5e8:	74616e69 		r3, r1, r13
 5ec:	5f00726f 		r24, r0, r14
 5f0:	6b616d5f 		r27, r1, r13
 5f4:	70665f65 		r3, r6, r11
 5f8:	66667300 	bslefi	r19, r6, 12, 0
 5fc:	00636172 		r3, r3, r12
 600:	72745f5f 		r19, r20, r11
 604:	64636e75 	bslefi	r3, r3, 57, 53
 608:	32667366 	addik	r19, r6, 29542
 60c:	61746800 	muli	r11, r20, 26624
 610:	61685f62 	muli	r11, r8, 24418
 614:	705f6873 		r2, r31, r13
 618:	746e696f 		r3, r14, r13
 61c:	5f007265 		r24, r0, r14
 620:	646e6172 	bslefi	r3, r14, 5, 50
 624:	5f003834 		r24, r0, r7
 628:	72656d65 		r19, r5, r13
 62c:	636e6567 	muli	r27, r14, 25959
 630:	645f0079 	bsrli	r2, r31, 57
 634:	696c7961 		r11, r12, r15
 638:	00746867 		r3, r20, r13
 63c:	706d6f63 		r3, r13, r13
 640:	2078656c 	addi	r3, r24, 25964
 644:	62756f64 	muli	r19, r21, 28516
 648:	5f00656c 		r24, r0, r12
 64c:	64746567 	bslefi	r3, r20, 21, 39
 650:	5f657461 		r27, r5, r14
 654:	00727265 		r3, r18, r14
 658:	7461645f 		r3, r1, r12
 65c:	775f0061 		r26, r31, r0
 660:	6f747263 	tncget	r27, rfsl3
 664:	735f626d 		r26, r31, r12
 668:	65746174 	bslefi	r11, r20, 5, 52
 66c:	63775f00 	muli	r27, r23, 24320
 670:	6f747273 	tncget	r27, rfsl3
 674:	5f73626d 		r27, r19, r12
 678:	74617473 		r3, r1, r14
 67c:	702f0065 		r1, r15, r0
 680:	2f6a6f72 	rsubic	r27, r10, 28530
 684:	2f6b6473 	rsubic	r27, r11, 25715
 688:	2f756e67 	rsubic	r27, r21, 28263
 68c:	7263696d 		r19, r3, r13
 690:	616c626f 	muli	r11, r12, 25199
 694:	622f657a 	muli	r17, r15, 25978
 698:	646c6975 	bslefi	r3, r12, 37, 53
 69c:	45482f73 		r10, r8, r5
 6a0:	6e2f4441 	neget	r17, rfsl1
 6a4:	74686769 		r3, r8, r12
 6a8:	322f796c 	addik	r17, r15, 31084
 6ac:	5f383130 		r25, r24, r6
 6b0:	325f3131 	addik	r18, r31, 12593
 6b4:	64722f39 		r3, r18, r5
 6b8:	63735f69 	muli	r27, r19, 24425
 6bc:	74706972 		r3, r16, r13
 6c0:	2e2e2f73 	rsubic	r17, r14, 12147
 6c4:	6975622f 		r11, r21, r12
 6c8:	6c2f646c 	necget	r1, rfsl12
 6cc:	632f6e69 	muli	r25, r15, 28265
 6d0:	5f676e74 		r27, r7, r13
 6d4:	2f646c62 	rsubic	r27, r4, 27746
 6d8:	67726174 	bslefi	r27, r18, 5, 52
 6dc:	625f7465 	muli	r18, r31, 29797
 6e0:	646c6975 	bslefi	r3, r12, 37, 53
 6e4:	6372732f 	muli	r27, r18, 29487
 6e8:	6363672f 	muli	r27, r3, 26415
 6ec:	7375632d 		r27, r21, r12
 6f0:	2f6d6f74 	rsubic	r27, r13, 28532
 6f4:	6762696c 	bslefi	r27, r2, 37, 44
 6f8:	6c2f6363 	ncget	r1, rfsl3
 6fc:	63676269 	muli	r27, r7, 25193
 700:	632e3263 	muli	r25, r14, 12899
 704:	626c5f00 	muli	r19, r12, 24320
 708:	7a697366 		r19, r9, r14
 70c:	6d5f0065 	get	r10, rfsl5
 710:	6f747262 	tncget	r27, rfsl2
 714:	735f6377 		r26, r31, r12
 718:	65746174 	bslefi	r11, r20, 5, 52
 71c:	7a745f00 		r19, r20, r11
 720:	656d616e 	bslefi	r11, r13, 5, 46
 724:	63775f00 	muli	r27, r23, 24320
 728:	626d6f74 	muli	r19, r13, 28532
 72c:	6174735f 	muli	r11, r20, 29535
 730:	5f006574 		r24, r0, r12
 734:	5f6d745f 		r27, r13, r14
 738:	00636573 		r3, r3, r12
 73c:	6f6c635f 	ncget	r27, rfsl15
 740:	5f006573 		r24, r0, r12
 744:	66756275 	bslefi	r19, r21, 9, 53
 748:	61625f00 	muli	r11, r2, 24320
 74c:	5f006573 		r24, r0, r12
 750:	5f6d745f 		r27, r13, r14
 754:	72756f68 		r19, r21, r13
 758:	735f5f00 		r26, r31, r11
 75c:	6f5f0066 	get	r26, rfsl6
 760:	78655f6e 		r3, r5, r11
 764:	615f7469 	muli	r10, r31, 29801
 768:	00736772 		r3, r19, r12
 76c:	6f6f635f 	ncget	r27, rfsl15
 770:	0065696b 		r3, r5, r13
 774:	67735f5f 	bsefi	r27, r19, 61, 31
 778:	0065756c 		r3, r5, r14
 77c:	72706d5f 		r19, r16, r13
 780:	5f006365 		r24, r0, r12
 784:	67616c66 	bslefi	r27, r1, 49, 38
 788:	695f0073 		r10, r31, r0
 78c:	78635f73 		r3, r3, r11
 790:	775f0061 		r26, r31, r0
 794:	5f007364 		r24, r0, r14
 798:	75736572 		r11, r19, r12
 79c:	6b5f746c 		r26, r31, r14
 7a0:	79735f00 		r11, r19, r11
 7a4:	72655f73 		r19, r5, r11
 7a8:	73696c72 		r27, r9, r13
 7ac:	635f0074 	muli	r26, r31, 116
 7b0:	75627476 		r11, r2, r14
 7b4:	6d5f0066 	get	r10, rfsl6
 7b8:	74727362 		r3, r18, r14
 7bc:	7363776f 		r27, r3, r14
 7c0:	6174735f 	muli	r11, r20, 29535
 7c4:	5f006574 		r24, r0, r12
 7c8:	6c72626d 	ncget	r3, rfsl13
 7cc:	735f6e65 		r26, r31, r13
 7d0:	65746174 	bslefi	r11, r20, 5, 52
 7d4:	6e665f00 	tneaget	r19, rfsl0
 7d8:	73677261 		r27, r7, r14
 7dc:	6e665f00 	tneaget	r19, rfsl0
 7e0:	425f0073 		r18, r31, r0
 7e4:	6e696769 	necget	r19, rfsl9
 7e8:	675f0074 	bsrli	r26, r31, 52
 7ec:	616d6d61 	muli	r11, r13, 28001
 7f0:	6769735f 	bslefi	r27, r9, 13, 31
 7f4:	6d61676e 	necget	r11, rfsl14
 7f8:	65725f00 	bsefi	r11, r18, 60, 0
 7fc:	5f006461 		r24, r0, r12
 800:	006d745f 		r3, r13, r14
 804:	5f6e6f5f 		r27, r14, r13
 808:	74697865 		r3, r9, r15
 80c:	6772615f 	bslefi	r27, r18, 5, 31
 810:	74705f73 		r3, r16, r11
 814:	6d5f0072 	get	r10, rfsl2
 818:	61747362 	muli	r11, r20, 29538
 81c:	5f006574 		r24, r0, r12
 820:	6863775f 		r3, r3, r14
 824:	635f0062 	muli	r26, r31, 98
 828:	656c7476 	bslefi	r11, r12, 17, 54
 82c:	5f5f006e 		r26, r31, r0
 830:	4c494673 	neaputd	r9, r8
 834:	61665f45 	muli	r11, r6, 24389
 838:	6800656b 		r0, r0, r12
 83c:	76687361 		r19, r8, r14
 840:	745f6c61 		r2, r31, r13
 844:	75574400 		r10, r23, r8
 848:	6e6f696e 	ncaget	r19, rfsl14
 84c:	696e5f00 		r11, r14, r11
 850:	0073626f 		r3, r19, r12
 854:	6c635f5f 	tneaget	r3, rfsl15
 858:	61745f7a 	muli	r11, r20, 24442
 85c:	615f0062 	muli	r10, r31, 98
 860:	69786574 		r11, r24, r12
 864:	5f003074 		r24, r0, r6
 868:	6e676973 	ncaget	r19, rfsl3
 86c:	625f6c61 	muli	r18, r31, 27745
 870:	5f006675 		r24, r0, r12
 874:	74637361 		r3, r3, r14
 878:	5f656d69 		r27, r5, r13
 87c:	00667562 		r3, r6, r14
 880:	7365725f 		r27, r5, r14
 884:	00746c75 		r3, r20, r13
 888:	63775f5f 	muli	r27, r23, 24415
 88c:	5f5f0068 		r26, r31, r0
 890:	646c756d 	bslefi	r3, r12, 21, 45
 894:	65003369 	bslrai	r8, r0, 41
 898:	7269766e 		r19, r9, r14
 89c:	77006e6f 		r24, r0, r13
 8a0:	5f746e69 		r27, r20, r13
 8a4:	6e5f0074 	get	r18, rfsl4
 8a8:	00667562 		r3, r6, r14
 8ac:	636f6c5f 	muli	r27, r15, 27743
 8b0:	5f5f006b 		r26, r31, r0
 8b4:	5f006875 		r24, r0, r13
 8b8:	746c756d 		r3, r12, r14
 8bc:	755f5f00 		r10, r31, r11
 8c0:	706f006c 		r3, r15, r0
 8c4:	73657274 		r27, r5, r14
 8c8:	5f007465 		r24, r0, r14
 8cc:	74697277 		r3, r9, r14
 8d0:	5f5f0065 		r26, r31, r0
 8d4:	795f6d74 		r10, r31, r13
 8d8:	00726165 		r3, r18, r12
 8dc:	6f635f5f 	tneaget	r27, rfsl15
 8e0:	00746e75 		r3, r20, r13
 8e4:	73696d5f 		r27, r9, r13
 8e8:	6f5f0063 	get	r26, rfsl3
 8ec:	65736666 	bslefi	r11, r19, 25, 38
 8f0:	706f0074 		r3, r15, r0
 8f4:	646e6974 	bslefi	r3, r14, 37, 52
 8f8:	735f5f00 		r26, r31, r11
 8fc:	61665f66 	muli	r11, r6, 24422
 900:	735f656b 		r26, r31, r12
 904:	6e696474 	necget	r19, rfsl4
 908:	735f5f00 		r26, r31, r11
 90c:	61665f66 	muli	r11, r6, 24422
 910:	735f656b 		r26, r31, r12
 914:	756f6474 		r11, r15, r12
 918:	6f630074 	get	r27, rfsl4
 91c:	656c706d 	bslefi	r11, r12, 1, 45
 920:	6c662078 	cget	r3, rfsl8
 924:	0074616f 		r3, r20, r12
 928:	6769735f 	bslefi	r27, r9, 13, 31
 92c:	5f5f006e 		r26, r31, r0
 930:	6d5f6d74 	necaget	r10, rfsl4
 934:	5f006e6f 		r24, r0, r13
 938:	78657461 		r3, r5, r14
 93c:	73007469 		r24, r0, r14
 940:	706f6275 		r3, r15, r12
 944:	67726174 	bslefi	r27, r18, 5, 52
 948:	735f5f00 		r26, r31, r11
 94c:	69646964 		r11, r4, r13
 950:	0074696e 		r3, r20, r13
 954:	66666f5f 	bslefi	r19, r6, 61, 31
 958:	5f00745f 		r24, r0, r14
 95c:	0068765f 		r3, r8, r14
 960:	74735744 		r3, r19, r10
 964:	74637572 		r3, r3, r14
 968:	765f5f00 		r18, r31, r11
 96c:	665f006c 	bsrli	r18, r31, 44
 970:	6c656572 	necget	r3, rfsl2
 974:	00747369 		r3, r20, r14
 978:	6d69745f 	tnecget	r11, rfsl15
 97c:	6e6f7a65 	tncaget	r19, rfsl5
 980:	6d5f0065 	get	r10, rfsl5
 984:	61747362 	muli	r11, r20, 29538
 988:	745f6574 		r2, r31, r12
 98c:	4f4c5f00 	ncputd	r12, r11
 990:	525f4b43 		r18, r31, r9
 994:	52554345 		r18, r21, r8
 998:	45564953 	bslrl	r10, r22, r9
 99c:	5f00545f 		r24, r0, r10
 9a0:	5f6f7364 		r27, r15, r14
 9a4:	646e6168 	bslefi	r3, r14, 5, 40
 9a8:	5f00656c 		r24, r0, r12
 9ac:	73626f69 		r27, r2, r13
 9b0:	6c665f00 	tneaget	r3, rfsl0
 9b4:	5f6b636f 		r27, r11, r12
 9b8:	5f5f0074 		r26, r31, r0
 9bc:	66756273 	bslefi	r19, r21, 9, 51
 9c0:	6c665f00 	tneaget	r3, rfsl0
 9c4:	32736761 	addik	r19, r19, 26465
 9c8:	465f5f00 		r18, r31, r11
 9cc:	00454c49 		r2, r5, r9
 9d0:	62617468 	muli	r19, r1, 29800
 9d4:	7361685f 		r27, r1, r13
 9d8:	5f5f0068 		r26, r31, r0
 9dc:	4c494673 	neaputd	r9, r8
 9e0:	735f0045 		r26, r31, r0
 9e4:	6e5f7379 	tncget	r18, rfsl9
 9e8:	00727265 		r3, r18, r14
 9ec:	6e61725f 	tncget	r19, rfsl15
 9f0:	656e5f64 	bsefi	r11, r14, 61, 36
 9f4:	5f007478 		r24, r0, r14
 9f8:	656c626d 	bslefi	r11, r12, 9, 45
 9fc:	74735f6e 		r3, r19, r11
 a00:	00657461 		r3, r5, r14
 a04:	636e695f 	muli	r27, r14, 26975
 a08:	6e695f00 	tneaget	r19, rfsl0
 a0c:	635f0064 	muli	r26, r31, 100
 a10:	65727275 	bslefi	r11, r18, 9, 53
 a14:	6c5f746e 	tnecget	r2, rfsl14
 a18:	6c61636f 	ncget	r3, rfsl15
 a1c:	5f5f0065 		r26, r31, r0
 a20:	61656c63 	muli	r11, r5, 27747
 a24:	0070756e 		r3, r16, r14
 a28:	78616d5f 		r3, r1, r13
 a2c:	00736477 		r3, r19, r12
 a30:	30785f5f 	addik	r3, r24, 24415
 a34:	785f5f00 		r2, r31, r11
 a38:	5f5f0031 		r26, r31, r0
 a3c:	5f003278 		r24, r0, r6
 a40:	0033785f 		r1, r19, r15
 a44:	61765f5f 	muli	r11, r22, 24415
 a48:	0065756c 		r3, r5, r14
 a4c:	6565735f 	bslefi	r11, r5, 13, 31
 a50:	665f006b 	bsrli	r18, r31, 43
 a54:	5f736f70 		r27, r19, r13
 a58:	6f6c0074 	get	r27, rfsl4
 a5c:	6420676e 	bslefi	r1, r0, 29, 46
 a60:	6c62756f 	tnecget	r3, rfsl15
 a64:	655f0065 	bsrli	r10, r31, 37
 a68:	6f6e7272 	tncget	r27, rfsl2
 a6c:	6c625f00 	tneaget	r3, rfsl0
 a70:	7a69736b 		r19, r9, r14
 a74:	735f0065 		r26, r31, r0
 a78:	00657a69 		r3, r5, r15
 a7c:	6565735f 	bslefi	r11, r5, 13, 31
 a80:	706f0064 		r3, r15, r0
 a84:	72726574 		r19, r18, r12
 a88:	74735f00 		r3, r19, r11
 a8c:	6b6f7472 		r27, r15, r14
 a90:	73616c5f 		r27, r1, r13
 a94:	665f0074 	bsrli	r18, r31, 52
 a98:	7079746e 		r3, r25, r14
 a9c:	5f007365 		r24, r0, r14
 aa0:	6373696d 	muli	r27, r19, 26989
 aa4:	6565725f 	bslefi	r11, r5, 9, 31
 aa8:	5f00746e 		r24, r0, r14
 aac:	00646461 		r3, r4, r12
 ab0:	4c555f5f 	ncaputd	r21, r11
 ab4:	00676e6f 		r3, r7, r13
 ab8:	62617468 	muli	r19, r1, 29800
 abc:	5f71655f 		r27, r17, r12
 ac0:	6e696f70 	necaget	r19, rfsl0
 ac4:	00726574 		r3, r18, r12
 ac8:	6f6c675f 	necget	r27, rfsl15
 acc:	5f6c6162 		r27, r12, r12
 ad0:	75706d69 		r11, r16, r13
 ad4:	705f6572 		r2, r31, r12
 ad8:	5f007274 		r24, r0, r14
 adc:	72727563 		r19, r18, r14
 ae0:	5f746e65 		r27, r20, r13
 ae4:	65746163 	bslefi	r11, r20, 5, 35
 ae8:	79726f67 		r11, r18, r13
 aec:	69665f00 		r11, r6, r11
 af0:	5f00656c 		r24, r0, r12
 af4:	5f6d745f 		r27, r13, r14
 af8:	79616477 		r11, r1, r12
 afc:	6c675f00 	tneaget	r3, rfsl0
 b00:	5f006575 		r24, r0, r12
 b04:	6134366c 	muli	r9, r20, 13932
 b08:	6675625f 	bslefi	r19, r21, 9, 31
 b0c:	69735f00 		r11, r19, r11
 b10:	75665f67 		r11, r6, r11
 b14:	5f00636e 		r24, r0, r12
 b18:	706f705f 		r3, r15, r14
 b1c:	6e756f63 	necaget	r19, rfsl3
 b20:	61745f74 	muli	r11, r20, 24436
 b24:	5f5f0062 		r26, r31, r0
 b28:	695f6d74 		r10, r31, r13
 b2c:	74736473 		r3, r19, r12
 b30:	6f6c5f00 	tneaget	r27, rfsl0
 b34:	746c6163 		r3, r12, r12
 b38:	5f656d69 		r27, r5, r13
 b3c:	00667562 		r3, r6, r14
 b40:	6d745f5f 	tneaget	r11, rfsl15
 b44:	6e696d5f 	necaget	r19, rfsl15
 b48:	735f5f00 		r26, r31, r11
 b4c:	61665f66 	muli	r11, r6, 24422
 b50:	735f656b 		r26, r31, r12
 b54:	72656474 		r19, r5, r12
 b58:	725f0072 		r18, r31, r0
 b5c:	6f003834 	tcaget	r24, rfsl4
 b60:	706f7470 		r3, r15, r14
 b64:	6d5f0074 	get	r10, rfsl4
 b68:	776f7462 		r27, r15, r14
 b6c:	74735f63 		r3, r19, r11
 b70:	00657461 		r3, r5, r14
 b74:	7335705f 		r25, r21, r14
 b78:	745f5f00 		r2, r31, r11
 b7c:	64795f6d 	bsefi	r3, r25, 61, 45
 b80:	55007961 		r8, r0, r15
 b84:	79744951 		r11, r20, r9
 b88:	5f006570 		r24, r0, r12
 b8c:	5f6d745f 		r27, r13, r14
 b90:	7961646d 		r11, r1, r12
 b94:	61746800 	muli	r11, r20, 26624
 b98:	71655f62 		r11, r5, r11
 b9c:	705f5f00 		r2, r31, r11
 ba0:	5f6b6361 		r27, r11, r12
 ba4:	68730066 		r3, r19, r0
 ba8:	00746669 		r3, r20, r12
 bac:	62776f6c 	muli	r19, r23, 28524
 bb0:	Address 0x0000000000000bb0 is out of bounds.


Disassembly of section .debug_ranges:

00000000 <.debug_ranges>:
   0:	00000060 		r0, r0, r0
   4:	000000a4 		r0, r0, r0
   8:	00000180 		r0, r0, r0
   c:	000001d0 		r0, r0, r0
  10:	000002d4 		r0, r0, r0
  14:	000002dc 		r0, r0, r0
  18:	00000300 		r0, r0, r0
  1c:	00000360 		r0, r0, r0
  20:	00000368 		r0, r0, r0
  24:	00000398 		r0, r0, r0
  28:	000003ac 		r0, r0, r0
  2c:	000003b4 		r0, r0, r0
  30:	000003bc 		r0, r0, r0
  34:	000003d0 		r0, r0, r0
	...
  40:	0000006c 		r0, r0, r0
  44:	00000240 		r0, r0, r0
  48:	00000248 		r0, r0, r0
  4c:	00000250 		r0, r0, r0
  50:	0000028c 		r0, r0, r0
  54:	000002c8 		r0, r0, r0
  58:	000002d0 		r0, r0, r0
  5c:	000002f4 		r0, r0, r0
  60:	000002fc 		r0, r0, r0
  64:	00000300 		r0, r0, r0
  68:	00000308 		r0, r0, r0
  6c:	00000328 		r0, r0, r0
  70:	00000330 		r0, r0, r0
  74:	00000364 		r0, r0, r0
  78:	0000036c 		r0, r0, r0
  7c:	000003d8 		r0, r0, r0
	...
  88:	000000c4 		r0, r0, r0
  8c:	0000019c 		r0, r0, r0
  90:	000001a4 		r0, r0, r0
  94:	000001b0 		r0, r0, r0
  98:	000001c0 		r0, r0, r0
  9c:	000001c8 		r0, r0, r0
  a0:	0000028c 		r0, r0, r0
  a4:	000002c8 		r0, r0, r0
	...
  b0:	0000005c 		r0, r0, r0
  b4:	000000f0 		r0, r0, r0
  b8:	000000f4 		r0, r0, r0
  bc:	00000180 		r0, r0, r0
  c0:	000001ac 		r0, r0, r0
  c4:	000001d4 		r0, r0, r0
  c8:	000001dc 		r0, r0, r0
  cc:	000001e4 		r0, r0, r0
  d0:	000001ec 		r0, r0, r0
  d4:	0000021c 		r0, r0, r0
  d8:	0000022c 		r0, r0, r0
  dc:	00000240 		r0, r0, r0
	...
  e8:	00000004 		r0, r0, r0
  ec:	00000018 		r0, r0, r0
  f0:	0000001c 		r0, r0, r0
  f4:	00000050 		r0, r0, r0
  f8:	00000054 		r0, r0, r0
  fc:	00000058 		r0, r0, r0
 100:	00000060 		r0, r0, r0
 104:	0000006c 		r0, r0, r0
	...
 110:	00000188 		r0, r0, r0
 114:	0000025c 		r0, r0, r0
 118:	00000264 		r0, r0, r0
 11c:	000002a8 		r0, r0, r0
	...
 128:	0000019c 		r0, r0, r0
 12c:	000001dc 		r0, r0, r0
 130:	0000022c 		r0, r0, r0
 134:	0000025c 		r0, r0, r0
	...
