
state_frag_N10.elf:     file format elf64-littleaarch64


Disassembly of section .text:

0000000000000000 <_vector_table>:
       0:	1400024e 	b	938 <_boot>
	...
     200:	14000061 	b	384 <SynchronousInterruptHandler>
	...
     280:	14000082 	b	488 <IRQInterruptHandler>
	...
     300:	140000a1 	b	584 <FIQInterruptHandler>
	...
     380:	14000099 	b	5e4 <SErrorInterruptHandler>

0000000000000384 <SynchronousInterruptHandler>:
     384:	a9bf07e0 	.word	0xa9bf07e0
     388:	a9bf0fe2 	.word	0xa9bf0fe2
     38c:	a9bf17e4 	.word	0xa9bf17e4
     390:	a9bf1fe6 	.word	0xa9bf1fe6
     394:	a9bf27e8 	.word	0xa9bf27e8
     398:	a9bf2fea 	.word	0xa9bf2fea
     39c:	a9bf37ec 	.word	0xa9bf37ec
     3a0:	a9bf3fee 	.word	0xa9bf3fee
     3a4:	a9bf47f0 	.word	0xa9bf47f0
     3a8:	a9bf4ff2 	.word	0xa9bf4ff2
     3ac:	a9bf7bfd 	.word	0xa9bf7bfd
     3b0:	d53e5200 	.word	0xd53e5200
     3b4:	92661400 	.word	0x92661400
     3b8:	d2a38001 	.word	0xd2a38001
     3bc:	eb01001f 	.word	0xeb01001f
     3c0:	540004a1 	.word	0x540004a1
     3c4:	d53e1141 	.word	0xd53e1141
     3c8:	9275f821 	.word	0x9275f821
     3cc:	d51e1141 	.word	0xd51e1141
     3d0:	d5033fdf 	.word	0xd5033fdf
     3d4:	58002a60 	.word	0x58002a60
     3d8:	39400001 	.word	0x39400001
     3dc:	350000e1 	.word	0x350000e1
     3e0:	52800021 	.word	0x52800021
     3e4:	39000001 	.word	0x39000001
     3e8:	58002a00 	.word	0x58002a00
     3ec:	58002a21 	.word	0x58002a21
     3f0:	f9000020 	.word	0xf9000020
     3f4:	14000019 	.word	0x14000019

00000000000003f8 <storefloat>:
     3f8:	580029c1 	.word	0x580029c1
     3fc:	f9400020 	.word	0xf9400020
     400:	ac810400 	.word	0xac810400
     404:	ac810c02 	.word	0xac810c02
     408:	ac811404 	.word	0xac811404
     40c:	ac811c06 	.word	0xac811c06
     410:	ac812408 	.word	0xac812408
     414:	ac812c0a 	.word	0xac812c0a
     418:	ac81340c 	.word	0xac81340c
     41c:	ac813c0e 	.word	0xac813c0e
     420:	ac814410 	.word	0xac814410
     424:	ac814c12 	.word	0xac814c12
     428:	ac815414 	.word	0xac815414
     42c:	ac815c16 	.word	0xac815c16
     430:	ac816418 	.word	0xac816418
     434:	ac816c1a 	.word	0xac816c1a
     438:	ac81741c 	.word	0xac81741c
     43c:	ac817c1e 	.word	0xac817c1e
     440:	d53b4402 	.word	0xd53b4402
     444:	d53b4423 	.word	0xd53b4423
     448:	a8810c02 	.word	0xa8810c02
     44c:	f9000020 	.word	0xf9000020
     450:	14000002 	.word	0x14000002

0000000000000454 <synchronoushandler>:
     454:	94000cc1 	.word	0x94000cc1

0000000000000458 <restorecontext>:
     458:	a8c17bfd 	.word	0xa8c17bfd
     45c:	a8c14ff2 	.word	0xa8c14ff2
     460:	a8c147f0 	.word	0xa8c147f0
     464:	a8c13fee 	.word	0xa8c13fee
     468:	a8c137ec 	.word	0xa8c137ec
     46c:	a8c12fea 	.word	0xa8c12fea
     470:	a8c127e8 	.word	0xa8c127e8
     474:	a8c11fe6 	.word	0xa8c11fe6
     478:	a8c117e4 	.word	0xa8c117e4
     47c:	a8c10fe2 	.word	0xa8c10fe2
     480:	a8c107e0 	.word	0xa8c107e0
     484:	d69f03e0 	.word	0xd69f03e0

0000000000000488 <IRQInterruptHandler>:
     488:	a9bf07e0 	.word	0xa9bf07e0
     48c:	a9bf0fe2 	.word	0xa9bf0fe2
     490:	a9bf17e4 	.word	0xa9bf17e4
     494:	a9bf1fe6 	.word	0xa9bf1fe6
     498:	a9bf27e8 	.word	0xa9bf27e8
     49c:	a9bf2fea 	.word	0xa9bf2fea
     4a0:	a9bf37ec 	.word	0xa9bf37ec
     4a4:	a9bf3fee 	.word	0xa9bf3fee
     4a8:	a9bf47f0 	.word	0xa9bf47f0
     4ac:	a9bf4ff2 	.word	0xa9bf4ff2
     4b0:	a9bf7bfd 	.word	0xa9bf7bfd
     4b4:	d53e1140 	.word	0xd53e1140
     4b8:	d53e4021 	.word	0xd53e4021
     4bc:	d53e4002 	.word	0xd53e4002
     4c0:	a9bf07e0 	.word	0xa9bf07e0
     4c4:	f81f0fe2 	.word	0xf81f0fe2
     4c8:	d53e1141 	.word	0xd53e1141
     4cc:	b2760021 	.word	0xb2760021
     4d0:	d51e1141 	.word	0xd51e1141
     4d4:	d5033fdf 	.word	0xd5033fdf
     4d8:	94000c9c 	.word	0x94000c9c
     4dc:	d53e1140 	.word	0xd53e1140
     4e0:	f2760000 	.word	0xf2760000
     4e4:	540002e1 	.word	0x540002e1
     4e8:	58002241 	.word	0x58002241
     4ec:	f9400020 	.word	0xf9400020
     4f0:	a9ff0c02 	.word	0xa9ff0c02
     4f4:	d51b4402 	.word	0xd51b4402
     4f8:	d51b4423 	.word	0xd51b4423
     4fc:	adff7c1e 	.word	0xadff7c1e
     500:	adff741c 	.word	0xadff741c
     504:	adff6c1a 	.word	0xadff6c1a
     508:	adff6418 	.word	0xadff6418
     50c:	adff5c16 	.word	0xadff5c16
     510:	adff5414 	.word	0xadff5414
     514:	adff4c12 	.word	0xadff4c12
     518:	adff4410 	.word	0xadff4410
     51c:	adff3c0e 	.word	0xadff3c0e
     520:	adff340c 	.word	0xadff340c
     524:	adff2c0a 	.word	0xadff2c0a
     528:	adff2408 	.word	0xadff2408
     52c:	adff1c06 	.word	0xadff1c06
     530:	adff1404 	.word	0xadff1404
     534:	adff0c02 	.word	0xadff0c02
     538:	adff0400 	.word	0xadff0400
     53c:	f9000020 	.word	0xf9000020

0000000000000540 <RestorePrevState>:
     540:	f84107e2 	.word	0xf84107e2
     544:	a8c107e0 	.word	0xa8c107e0
     548:	d51e1140 	.word	0xd51e1140
     54c:	d51e4021 	.word	0xd51e4021
     550:	d51e4002 	.word	0xd51e4002
     554:	a8c17bfd 	.word	0xa8c17bfd
     558:	a8c14ff2 	.word	0xa8c14ff2
     55c:	a8c147f0 	.word	0xa8c147f0
     560:	a8c13fee 	.word	0xa8c13fee
     564:	a8c137ec 	.word	0xa8c137ec
     568:	a8c12fea 	.word	0xa8c12fea
     56c:	a8c127e8 	.word	0xa8c127e8
     570:	a8c11fe6 	.word	0xa8c11fe6
     574:	a8c117e4 	.word	0xa8c117e4
     578:	a8c10fe2 	.word	0xa8c10fe2
     57c:	a8c107e0 	.word	0xa8c107e0
     580:	d69f03e0 	.word	0xd69f03e0

0000000000000584 <FIQInterruptHandler>:
     584:	a9bf07e0 	.word	0xa9bf07e0
     588:	a9bf0fe2 	.word	0xa9bf0fe2
     58c:	a9bf17e4 	.word	0xa9bf17e4
     590:	a9bf1fe6 	.word	0xa9bf1fe6
     594:	a9bf27e8 	.word	0xa9bf27e8
     598:	a9bf2fea 	.word	0xa9bf2fea
     59c:	a9bf37ec 	.word	0xa9bf37ec
     5a0:	a9bf3fee 	.word	0xa9bf3fee
     5a4:	a9bf47f0 	.word	0xa9bf47f0
     5a8:	a9bf4ff2 	.word	0xa9bf4ff2
     5ac:	a9bf7bfd 	.word	0xa9bf7bfd
     5b0:	94000c62 	.word	0x94000c62
     5b4:	a8c17bfd 	.word	0xa8c17bfd
     5b8:	a8c14ff2 	.word	0xa8c14ff2
     5bc:	a8c147f0 	.word	0xa8c147f0
     5c0:	a8c13fee 	.word	0xa8c13fee
     5c4:	a8c137ec 	.word	0xa8c137ec
     5c8:	a8c12fea 	.word	0xa8c12fea
     5cc:	a8c127e8 	.word	0xa8c127e8
     5d0:	a8c11fe6 	.word	0xa8c11fe6
     5d4:	a8c117e4 	.word	0xa8c117e4
     5d8:	a8c10fe2 	.word	0xa8c10fe2
     5dc:	a8c107e0 	.word	0xa8c107e0
     5e0:	d69f03e0 	.word	0xd69f03e0

00000000000005e4 <SErrorInterruptHandler>:
     5e4:	a9bf07e0 	.word	0xa9bf07e0
     5e8:	a9bf0fe2 	.word	0xa9bf0fe2
     5ec:	a9bf17e4 	.word	0xa9bf17e4
     5f0:	a9bf1fe6 	.word	0xa9bf1fe6
     5f4:	a9bf27e8 	.word	0xa9bf27e8
     5f8:	a9bf2fea 	.word	0xa9bf2fea
     5fc:	a9bf37ec 	.word	0xa9bf37ec
     600:	a9bf3fee 	.word	0xa9bf3fee
     604:	a9bf47f0 	.word	0xa9bf47f0
     608:	a9bf4ff2 	.word	0xa9bf4ff2
     60c:	a9bf7bfd 	.word	0xa9bf7bfd
     610:	94000c56 	.word	0x94000c56
     614:	a8c17bfd 	.word	0xa8c17bfd
     618:	a8c14ff2 	.word	0xa8c14ff2
     61c:	a8c147f0 	.word	0xa8c147f0
     620:	a8c13fee 	.word	0xa8c13fee
     624:	a8c137ec 	.word	0xa8c137ec
     628:	a8c12fea 	.word	0xa8c12fea
     62c:	a8c127e8 	.word	0xa8c127e8
     630:	a8c11fe6 	.word	0xa8c11fe6
     634:	a8c117e4 	.word	0xa8c117e4
     638:	a8c10fe2 	.word	0xa8c10fe2
     63c:	a8c107e0 	.word	0xa8c107e0
     640:	d69f03e0 	.word	0xd69f03e0
	...

0000000000000700 <FPUContext>:
	...

0000000000000910 <FPUContextBase>:
	...

0000000000000918 <FPUStatus>:
	...
     920:	00000918 	.word	0x00000918
     924:	00000000 	.word	0x00000000
     928:	00000700 	.word	0x00000700
     92c:	00000000 	.word	0x00000000
     930:	00000910 	.word	0x00000910
     934:	00000000 	.word	0x00000000

0000000000000938 <_boot>:
     938:	d2800000 	mov	x0, #0x0                   	// #0
     93c:	d2800001 	mov	x1, #0x0                   	// #0
     940:	d2800002 	mov	x2, #0x0                   	// #0
     944:	d2800003 	mov	x3, #0x0                   	// #0
     948:	d2800004 	mov	x4, #0x0                   	// #0
     94c:	d2800005 	mov	x5, #0x0                   	// #0
     950:	d2800006 	mov	x6, #0x0                   	// #0
     954:	d2800007 	mov	x7, #0x0                   	// #0
     958:	d2800008 	mov	x8, #0x0                   	// #0
     95c:	d2800009 	mov	x9, #0x0                   	// #0
     960:	d280000a 	mov	x10, #0x0                   	// #0
     964:	d280000b 	mov	x11, #0x0                   	// #0
     968:	d280000c 	mov	x12, #0x0                   	// #0
     96c:	d280000d 	mov	x13, #0x0                   	// #0
     970:	d280000e 	mov	x14, #0x0                   	// #0
     974:	d280000f 	mov	x15, #0x0                   	// #0
     978:	d2800010 	mov	x16, #0x0                   	// #0
     97c:	d2800011 	mov	x17, #0x0                   	// #0
     980:	d2800012 	mov	x18, #0x0                   	// #0
     984:	d2800013 	mov	x19, #0x0                   	// #0
     988:	d2800014 	mov	x20, #0x0                   	// #0
     98c:	d2800015 	mov	x21, #0x0                   	// #0
     990:	d2800016 	mov	x22, #0x0                   	// #0
     994:	d2800017 	mov	x23, #0x0                   	// #0
     998:	d2800018 	mov	x24, #0x0                   	// #0
     99c:	d2800019 	mov	x25, #0x0                   	// #0
     9a0:	d280001a 	mov	x26, #0x0                   	// #0
     9a4:	d280001b 	mov	x27, #0x0                   	// #0
     9a8:	d280001c 	mov	x28, #0x0                   	// #0
     9ac:	d280001d 	mov	x29, #0x0                   	// #0
     9b0:	d280001e 	mov	x30, #0x0                   	// #0

00000000000009b4 <OKToRun>:
     9b4:	d5384240 	mrs	x0, currentel
     9b8:	f100301f 	cmp	x0, #0xc
     9bc:	54000080 	b.eq	9cc <InitEL3>  // b.none
     9c0:	f100101f 	cmp	x0, #0x4
     9c4:	54000780 	b.eq	ab4 <InitEL1>  // b.none
     9c8:	1400003c 	b	ab8 <error>

00000000000009cc <InitEL3>:
     9cc:	58000c21 	ldr	x1, b50 <invalidateCaches_end+0xc>
     9d0:	d51ec001 	msr	vbar_el3, x1
     9d4:	d53800a0 	mrs	x0, mpidr_el1
     9d8:	92401c00 	and	x0, x0, #0xff
     9dc:	2a0003e0 	mov	w0, w0
     9e0:	18000b42 	ldr	w2, b48 <invalidateCaches_end+0x4>
     9e4:	52800103 	mov	w3, #0x8                   	// #8
     9e8:	1b037c00 	mul	w0, w0, w3
     9ec:	0b000042 	add	w2, w2, w0
     9f0:	f9000041 	str	x1, [x2]
     9f4:	58000b22 	ldr	x2, b58 <invalidateCaches_end+0x14>
     9f8:	9100005f 	mov	sp, x2
     9fc:	d2800000 	mov	x0, #0x0                   	// #0
     a00:	b2760000 	orr	x0, x0, #0x400
     a04:	d51e1140 	msr	cptr_el3, x0
     a08:	d5033fdf 	isb
     a0c:	58000aa0 	ldr	x0, b60 <invalidateCaches_end+0x1c>
     a10:	f900001f 	str	xzr, [x0]
     a14:	52800001 	mov	w1, #0x0                   	// #0
     a18:	32150021 	orr	w1, w1, #0x800
     a1c:	32160021 	orr	w1, w1, #0x400
     a20:	321d0021 	orr	w1, w1, #0x8
     a24:	321e0021 	orr	w1, w1, #0x4
     a28:	321f0021 	orr	w1, w1, #0x2
     a2c:	d51e1101 	msr	scr_el3, x1
     a30:	580009c0 	ldr	x0, b68 <invalidateCaches_end+0x24>
     a34:	b2540000 	orr	x0, x0, #0x100000000000
     a38:	d519f200 	msr	s3_1_c15_c2_0, x0
     a3c:	580009a0 	ldr	x0, b70 <invalidateCaches_end+0x2c>
     a40:	d51be000 	msr	cntfrq_el0, x0
     a44:	d539f220 	mrs	x0, s3_1_c15_c2_1
     a48:	b27a0000 	orr	x0, x0, #0x40
     a4c:	d519f220 	msr	s3_1_c15_c2_1, x0
     a50:	d5033fdf 	isb
     a54:	d50e871f 	tlbi	alle3
     a58:	d508751f 	ic	iallu
     a5c:	94000018 	bl	abc <invalidate_dcaches>
     a60:	d5033f9f 	dsb	sy
     a64:	d5033fdf 	isb
     a68:	58000881 	ldr	x1, b78 <invalidateCaches_end+0x34>
     a6c:	d51e2001 	msr	ttbr0_el3, x1
     a70:	58000881 	ldr	x1, b80 <invalidateCaches_end+0x3c>
     a74:	d51ea201 	msr	mair_el3, x1
     a78:	58000881 	ldr	x1, b88 <invalidateCaches_end+0x44>
     a7c:	d51e2041 	msr	tcr_el3, x1
     a80:	d5033fdf 	isb
     a84:	d53b4221 	mrs	x1, daif
     a88:	9277f821 	and	x1, x1, #0xfffffffffffffeff
     a8c:	d51b4221 	msr	daif, x1
     a90:	d2800001 	mov	x1, #0x0                   	// #0
     a94:	b2740021 	orr	x1, x1, #0x1000
     a98:	b27d0021 	orr	x1, x1, #0x8
     a9c:	b27e0021 	orr	x1, x1, #0x4
     aa0:	b2400021 	orr	x1, x1, #0x1
     aa4:	d51e1001 	msr	sctlr_el3, x1
     aa8:	d5033f9f 	dsb	sy
     aac:	d5033fdf 	isb
     ab0:	14000b3a 	b	3798 <_startup>

0000000000000ab4 <InitEL1>:
     ab4:	14000001 	b	ab8 <error>

0000000000000ab8 <error>:
     ab8:	14000000 	b	ab8 <error>

0000000000000abc <invalidate_dcaches>:
     abc:	d5033bbf 	dmb	ish
     ac0:	d5390020 	mrs	x0, clidr_el1
     ac4:	53186802 	ubfx	w2, w0, #24, #3
     ac8:	7100005f 	cmp	w2, #0x0
     acc:	540003c0 	b.eq	b44 <invalidateCaches_end>  // b.none
     ad0:	52800001 	mov	w1, #0x0                   	// #0

0000000000000ad4 <invalidateCaches_flush_level>:
     ad4:	0b010423 	add	w3, w1, w1, lsl #1
     ad8:	1ac32403 	lsr	w3, w0, w3
     adc:	53000863 	ubfx	w3, w3, #0, #3
     ae0:	7100087f 	cmp	w3, #0x2
     ae4:	540002ab 	b.lt	b38 <invalidateCaches_next_level>  // b.tstop
     ae8:	531f7824 	lsl	w4, w1, #1
     aec:	d51a0004 	msr	csselr_el1, x4
     af0:	d5033fdf 	isb
     af4:	d5390004 	mrs	x4, ccsidr_el1
     af8:	53000883 	ubfx	w3, w4, #0, #3
     afc:	11000863 	add	w3, w3, #0x2
     b00:	530d6c85 	ubfx	w5, w4, #13, #15
     b04:	53033084 	ubfx	w4, w4, #3, #10
     b08:	5ac01086 	clz	w6, w4

0000000000000b0c <invalidateCaches_flush_set>:
     b0c:	2a0403e8 	mov	w8, w4

0000000000000b10 <invalidateCaches_flush_way>:
     b10:	531f7827 	lsl	w7, w1, #1
     b14:	1ac320a9 	lsl	w9, w5, w3
     b18:	2a0900e7 	orr	w7, w7, w9
     b1c:	1ac62109 	lsl	w9, w8, w6
     b20:	2a0900e7 	orr	w7, w7, w9
     b24:	d5087e47 	dc	cisw, x7
     b28:	71000508 	subs	w8, w8, #0x1
     b2c:	54ffff2a 	b.ge	b10 <invalidateCaches_flush_way>  // b.tcont
     b30:	710004a5 	subs	w5, w5, #0x1
     b34:	54fffeca 	b.ge	b0c <invalidateCaches_flush_set>  // b.tcont

0000000000000b38 <invalidateCaches_next_level>:
     b38:	11000421 	add	w1, w1, #0x1
     b3c:	6b01005f 	cmp	w2, w1
     b40:	54fffcac 	b.gt	ad4 <invalidateCaches_flush_level>

0000000000000b44 <invalidateCaches_end>:
     b44:	d65f03c0 	ret
     b48:	fd5c0040 	.word	0xfd5c0040
	...
     b58:	00027140 	.word	0x00027140
     b5c:	00000000 	.word	0x00000000
     b60:	00000918 	.word	0x00000918
     b64:	00000000 	.word	0x00000000
     b68:	080ca000 	.word	0x080ca000
     b6c:	00000000 	.word	0x00000000
     b70:	05f5b9f5 	.word	0x05f5b9f5
     b74:	00000000 	.word	0x00000000
     b78:	00007000 	.word	0x00007000
     b7c:	00000000 	.word	0x00000000
     b80:	0400ff44 	.word	0x0400ff44
     b84:	000000bb 	.word	0x000000bb
     b88:	80823518 	.word	0x80823518
     b8c:	00000000 	.word	0x00000000

0000000000000b90 <deregister_tm_clones>:
     b90:	d0000020 	adrp	x0, 6000 <__malloc_av_+0x4c8>
     b94:	910d6000 	add	x0, x0, #0x358
     b98:	d0000021 	adrp	x1, 6000 <__malloc_av_+0x4c8>
     b9c:	910d6021 	add	x1, x1, #0x358
     ba0:	eb00003f 	cmp	x1, x0
     ba4:	540000a0 	b.eq	bb8 <deregister_tm_clones+0x28>  // b.none
     ba8:	90000021 	adrp	x1, 4000 <_malloc_r+0x618>
     bac:	f946e421 	ldr	x1, [x1, #3528]
     bb0:	b4000041 	cbz	x1, bb8 <deregister_tm_clones+0x28>
     bb4:	d61f0020 	br	x1
     bb8:	d65f03c0 	ret
     bbc:	d503201f 	nop

0000000000000bc0 <register_tm_clones>:
     bc0:	d0000020 	adrp	x0, 6000 <__malloc_av_+0x4c8>
     bc4:	910d6000 	add	x0, x0, #0x358
     bc8:	d0000021 	adrp	x1, 6000 <__malloc_av_+0x4c8>
     bcc:	910d6021 	add	x1, x1, #0x358
     bd0:	cb000021 	sub	x1, x1, x0
     bd4:	9343fc21 	asr	x1, x1, #3
     bd8:	8b41fc21 	add	x1, x1, x1, lsr #63
     bdc:	9341fc21 	asr	x1, x1, #1
     be0:	b40000a1 	cbz	x1, bf4 <register_tm_clones+0x34>
     be4:	90000022 	adrp	x2, 4000 <_malloc_r+0x618>
     be8:	f946e842 	ldr	x2, [x2, #3536]
     bec:	b4000042 	cbz	x2, bf4 <register_tm_clones+0x34>
     bf0:	d61f0040 	br	x2
     bf4:	d65f03c0 	ret

0000000000000bf8 <__do_global_dtors_aux>:
     bf8:	a9be7bfd 	stp	x29, x30, [sp, #-32]!
     bfc:	910003fd 	mov	x29, sp
     c00:	f9000bf3 	str	x19, [sp, #16]
     c04:	d0000073 	adrp	x19, e000 <__exidx_end>
     c08:	39420260 	ldrb	w0, [x19, #128]
     c0c:	35000140 	cbnz	w0, c34 <__do_global_dtors_aux+0x3c>
     c10:	97ffffe0 	bl	b90 <deregister_tm_clones>
     c14:	90000020 	adrp	x0, 4000 <_malloc_r+0x618>
     c18:	f946ec00 	ldr	x0, [x0, #3544]
     c1c:	b4000080 	cbz	x0, c2c <__do_global_dtors_aux+0x34>
     c20:	d0000020 	adrp	x0, 6000 <__malloc_av_+0x4c8>
     c24:	910e0000 	add	x0, x0, #0x380
     c28:	d503201f 	nop
     c2c:	52800020 	mov	w0, #0x1                   	// #1
     c30:	39020260 	strb	w0, [x19, #128]
     c34:	f9400bf3 	ldr	x19, [sp, #16]
     c38:	a8c27bfd 	ldp	x29, x30, [sp], #32
     c3c:	d65f03c0 	ret

0000000000000c40 <frame_dummy>:
     c40:	90000020 	adrp	x0, 4000 <_malloc_r+0x618>
     c44:	f946f000 	ldr	x0, [x0, #3552]
     c48:	b4000140 	cbz	x0, c70 <frame_dummy+0x30>
     c4c:	a9bf7bfd 	stp	x29, x30, [sp, #-16]!
     c50:	d0000061 	adrp	x1, e000 <__exidx_end>
     c54:	d0000020 	adrp	x0, 6000 <__malloc_av_+0x4c8>
     c58:	91022021 	add	x1, x1, #0x88
     c5c:	910003fd 	mov	x29, sp
     c60:	910e0000 	add	x0, x0, #0x380
     c64:	d503201f 	nop
     c68:	a8c17bfd 	ldp	x29, x30, [sp], #16
     c6c:	17ffffd5 	b	bc0 <register_tm_clones>
     c70:	17ffffd4 	b	bc0 <register_tm_clones>
     c74:	00000000 	.inst	0x00000000 ; undefined

0000000000000c78 <_mainCRTStartup>:
     c78:	100007c1 	adr	x1, d70 <_cpu_init_hook+0x4>
     c7c:	528002c0 	mov	w0, #0x16                  	// #22
     c80:	d45e0000 	hlt	#0xf000
     c84:	58000760 	ldr	x0, d70 <_cpu_init_hook+0x4>
     c88:	f9400401 	ldr	x1, [x0, #8]
     c8c:	927cec20 	and	x0, x1, #0xfffffffffffffff0
     c90:	9100001f 	mov	sp, x0
     c94:	d280001d 	mov	x29, #0x0                   	// #0
     c98:	a9bf77fd 	stp	x29, x29, [sp, #-16]!
     c9c:	910003fd 	mov	x29, sp
     ca0:	94000033 	bl	d6c <_cpu_init_hook>
     ca4:	580006a0 	ldr	x0, d78 <_cpu_init_hook+0xc>
     ca8:	52800001 	mov	w1, #0x0                   	// #0
     cac:	580006a2 	ldr	x2, d80 <_cpu_init_hook+0x14>
     cb0:	cb000042 	sub	x2, x2, x0
     cb4:	94000d63 	bl	4240 <memset>
     cb8:	94000a9e 	bl	3730 <initialise_monitor_handles>
     cbc:	58000660 	ldr	x0, d88 <_cpu_init_hook+0x1c>
     cc0:	94000af8 	bl	38a0 <atexit>
     cc4:	94000b1d 	bl	3938 <__libc_init_array>
     cc8:	10000681 	adr	x1, d98 <_cpu_init_hook+0x2c>
     ccc:	528002a0 	mov	w0, #0x15                  	// #21
     cd0:	d45e0000 	hlt	#0xf000
     cd4:	58000628 	ldr	x8, d98 <_cpu_init_hook+0x2c>
     cd8:	d2800000 	mov	x0, #0x0                   	// #0
     cdc:	910003e1 	mov	x1, sp
     ce0:	58000582 	ldr	x2, d90 <_cpu_init_hook+0x24>
     ce4:	f81f8c20 	str	x0, [x1, #-8]!
     ce8:	38401503 	ldrb	w3, [x8], #1
     cec:	34000243 	cbz	w3, d34 <_mainCRTStartup+0xbc>
     cf0:	7100807f 	cmp	w3, #0x20
     cf4:	54ffffa0 	b.eq	ce8 <_mainCRTStartup+0x70>  // b.none
     cf8:	52800404 	mov	w4, #0x20                  	// #32
     cfc:	71008869 	subs	w9, w3, #0x22
     d00:	d1000508 	sub	x8, x8, #0x1
     d04:	7a451924 	ccmp	w9, #0x5, #0x4, ne  // ne = any
     d08:	1a840064 	csel	w4, w3, w4, eq  // eq = none
     d0c:	9a881508 	cinc	x8, x8, eq  // eq = none
     d10:	f81f8c28 	str	x8, [x1, #-8]!
     d14:	91000400 	add	x0, x0, #0x1
     d18:	38401503 	ldrb	w3, [x8], #1
     d1c:	340000c3 	cbz	w3, d34 <_mainCRTStartup+0xbc>
     d20:	6b03009f 	cmp	w4, w3
     d24:	54ffffa1 	b.ne	d18 <_mainCRTStartup+0xa0>  // b.any
     d28:	52800004 	mov	w4, #0x0                   	// #0
     d2c:	381ff104 	sturb	w4, [x8, #-1]
     d30:	17ffffee 	b	ce8 <_mainCRTStartup+0x70>
     d34:	91000023 	add	x3, x1, #0x0
     d38:	8b204c24 	add	x4, x1, w0, uxtw #3
     d3c:	eb03009f 	cmp	x4, x3
     d40:	540000e3 	b.cc	d5c <_mainCRTStartup+0xe4>  // b.lo, b.ul, b.last
     d44:	f85f8085 	ldur	x5, [x4, #-8]
     d48:	f9400066 	ldr	x6, [x3]
     d4c:	f81f8c86 	str	x6, [x4, #-8]!
     d50:	f8008465 	str	x5, [x3], #8
     d54:	eb03009f 	cmp	x4, x3
     d58:	54ffff68 	b.hi	d44 <_mainCRTStartup+0xcc>  // b.pmore
     d5c:	927cec24 	and	x4, x1, #0xfffffffffffffff0
     d60:	9100009f 	mov	sp, x4
     d64:	94000fc5 	bl	4c78 <main>
     d68:	14000ad4 	b	38b8 <exit>

0000000000000d6c <_cpu_init_hook>:
     d6c:	d65f03c0 	ret
     d70:	00004fc8 	.word	0x00004fc8
     d74:	00000000 	.word	0x00000000
     d78:	0000e080 	.word	0x0000e080
     d7c:	00000000 	.word	0x00000000
     d80:	0000e140 	.word	0x0000e140
     d84:	00000000 	.word	0x00000000
     d88:	000038f0 	.word	0x000038f0
     d8c:	00000000 	.word	0x00000000
     d90:	00004fe8 	.word	0x00004fe8
     d94:	00000000 	.word	0x00000000
     d98:	00004ff0 	.word	0x00004ff0
     d9c:	00000000 	.word	0x00000000
     da0:	000000ff 	.word	0x000000ff
     da4:	00000000 	.word	0x00000000

0000000000000da8 <mmemset>:
     da8:	12001c21 	and	w1, w1, #0xff
     dac:	b40000c2 	cbz	x2, dc4 <mmemset+0x1c>
     db0:	8b020002 	add	x2, x0, x2
     db4:	d503201f 	nop
     db8:	38001401 	strb	w1, [x0], #1
     dbc:	eb02001f 	cmp	x0, x2
     dc0:	54ffffc1 	b.ne	db8 <mmemset+0x10>  // b.any
     dc4:	d65f03c0 	ret

0000000000000dc8 <mmemcpy>:
     dc8:	b40000e2 	cbz	x2, de4 <mmemcpy+0x1c>
     dcc:	d2800003 	mov	x3, #0x0                   	// #0
     dd0:	38636824 	ldrb	w4, [x1, x3]
     dd4:	38236804 	strb	w4, [x0, x3]
     dd8:	91000463 	add	x3, x3, #0x1
     ddc:	eb03005f 	cmp	x2, x3
     de0:	54ffff81 	b.ne	dd0 <mmemcpy+0x8>  // b.any
     de4:	d65f03c0 	ret

0000000000000de8 <mexit>:
     de8:	a9bf7bfd 	stp	x29, x30, [sp, #-16]!
     dec:	52800020 	mov	w0, #0x1                   	// #1
     df0:	910003fd 	mov	x29, sp
     df4:	94000ab1 	bl	38b8 <exit>

0000000000000df8 <verifyResults>:
     df8:	b9400004 	ldr	w4, [x0]
     dfc:	340006e4 	cbz	w4, ed8 <verifyResults+0xe0>
     e00:	a9bb7bfd 	stp	x29, x30, [sp, #-80]!
     e04:	910003fd 	mov	x29, sp
     e08:	a90153f3 	stp	x19, x20, [sp, #16]
     e0c:	91024014 	add	x20, x0, #0x90
     e10:	a9025bf5 	stp	x21, x22, [sp, #32]
     e14:	52800013 	mov	w19, #0x0                   	// #0
     e18:	f9001bf7 	str	x23, [sp, #48]
     e1c:	aa0003f5 	mov	x21, x0
     e20:	911ca016 	add	x22, x0, #0x728
     e24:	52800037 	mov	w23, #0x1                   	// #1
     e28:	1400000b 	b	e54 <verifyResults+0x5c>
     e2c:	b9404ba0 	ldr	w0, [x29, #72]
     e30:	f94023a1 	ldr	x1, [x29, #64]
     e34:	f9000061 	str	x1, [x3]
     e38:	b9000860 	str	w0, [x3, #8]
     e3c:	b94002a4 	ldr	w4, [x21]
     e40:	11000673 	add	w19, w19, #0x1
     e44:	910032d6 	add	x22, x22, #0xc
     e48:	91001294 	add	x20, x20, #0x4
     e4c:	6b13009f 	cmp	w4, w19
     e50:	540003a9 	b.ls	ec4 <verifyResults+0xcc>  // b.plast
     e54:	b9402aa2 	ldr	w2, [x21, #40]
     e58:	1ad322e3 	lsl	w3, w23, w19
     e5c:	aa1403e0 	mov	x0, x20
     e60:	910103a1 	add	x1, x29, #0x40
     e64:	6a02007f 	tst	w3, w2
     e68:	54fffec0 	b.eq	e40 <verifyResults+0x48>  // b.none
     e6c:	9400092b 	bl	3318 <load_sp>
     e70:	b906129f 	str	wzr, [x20, #1552]
     e74:	93407e61 	sxtw	x1, w19
     e78:	b94043a2 	ldr	w2, [x29, #64]
     e7c:	9105f2c3 	add	x3, x22, #0x17c
     e80:	8b010421 	add	x1, x1, x1, lsl #1
     e84:	12105c42 	and	w2, w2, #0xffff00ff
     e88:	8b010aa1 	add	x1, x21, x1, lsl #2
     e8c:	b9472420 	ldr	w0, [x1, #1828]
     e90:	12105c00 	and	w0, w0, #0xffff00ff
     e94:	6b00005f 	cmp	w2, w0
     e98:	54fffca1 	b.ne	e2c <verifyResults+0x34>  // b.any
     e9c:	b94002c0 	ldr	w0, [x22]
     ea0:	b94047a1 	ldr	w1, [x29, #68]
     ea4:	6b00003f 	cmp	w1, w0
     ea8:	54fffc21 	b.ne	e2c <verifyResults+0x34>  // b.any
     eac:	b94006c0 	ldr	w0, [x22, #4]
     eb0:	b9404ba1 	ldr	w1, [x29, #72]
     eb4:	6b00003f 	cmp	w1, w0
     eb8:	54fffba1 	b.ne	e2c <verifyResults+0x34>  // b.any
     ebc:	b9061297 	str	w23, [x20, #1552]
     ec0:	17ffffdb 	b	e2c <verifyResults+0x34>
     ec4:	a94153f3 	ldp	x19, x20, [sp, #16]
     ec8:	a9425bf5 	ldp	x21, x22, [sp, #32]
     ecc:	f9401bf7 	ldr	x23, [sp, #48]
     ed0:	a8c57bfd 	ldp	x29, x30, [sp], #80
     ed4:	d65f03c0 	ret
     ed8:	d65f03c0 	ret
     edc:	d503201f 	nop

0000000000000ee0 <freeDataBanks>:
     ee0:	a9be7bfd 	stp	x29, x30, [sp, #-32]!
     ee4:	910003fd 	mov	x29, sp
     ee8:	f9000bf3 	str	x19, [sp, #16]
     eec:	aa0003f3 	mov	x19, x0
     ef0:	f9403800 	ldr	x0, [x0, #112]
     ef4:	b4000040 	cbz	x0, efc <freeDataBanks+0x1c>
     ef8:	94000ab8 	bl	39d8 <free>
     efc:	f9403e60 	ldr	x0, [x19, #120]
     f00:	b4000040 	cbz	x0, f08 <freeDataBanks+0x28>
     f04:	94000ab5 	bl	39d8 <free>
     f08:	f9404260 	ldr	x0, [x19, #128]
     f0c:	b4000040 	cbz	x0, f14 <freeDataBanks+0x34>
     f10:	94000ab2 	bl	39d8 <free>
     f14:	f9404660 	ldr	x0, [x19, #136]
     f18:	b4000040 	cbz	x0, f20 <freeDataBanks+0x40>
     f1c:	94000aaf 	bl	39d8 <free>
     f20:	f9408a60 	ldr	x0, [x19, #272]
     f24:	b4000040 	cbz	x0, f2c <freeDataBanks+0x4c>
     f28:	94000aac 	bl	39d8 <free>
     f2c:	f9408e60 	ldr	x0, [x19, #280]
     f30:	b4000040 	cbz	x0, f38 <freeDataBanks+0x58>
     f34:	94000aa9 	bl	39d8 <free>
     f38:	f9403660 	ldr	x0, [x19, #104]
     f3c:	b4000040 	cbz	x0, f44 <freeDataBanks+0x64>
     f40:	94000aa6 	bl	39d8 <free>
     f44:	f9403260 	ldr	x0, [x19, #96]
     f48:	b4000080 	cbz	x0, f58 <freeDataBanks+0x78>
     f4c:	f9400bf3 	ldr	x19, [sp, #16]
     f50:	a8c27bfd 	ldp	x29, x30, [sp], #32
     f54:	14000aa1 	b	39d8 <free>
     f58:	f9400bf3 	ldr	x19, [sp, #16]
     f5c:	a8c27bfd 	ldp	x29, x30, [sp], #32
     f60:	d65f03c0 	ret
     f64:	d503201f 	nop

0000000000000f68 <qmalloc>:
     f68:	a9be7bfd 	stp	x29, x30, [sp, #-32]!
     f6c:	910003fd 	mov	x29, sp
     f70:	f9000bf3 	str	x19, [sp, #16]
     f74:	2a0003f3 	mov	w19, w0
     f78:	1b017c00 	mul	w0, w0, w1
     f7c:	93407c00 	sxtw	x0, w0
     f80:	94000a92 	bl	39c8 <malloc>
     f84:	f100001f 	cmp	x0, #0x0
     f88:	7a400a64 	ccmp	w19, #0x0, #0x4, eq  // eq = none
     f8c:	5400008c 	b.gt	f9c <qmalloc+0x34>
     f90:	f9400bf3 	ldr	x19, [sp, #16]
     f94:	a8c27bfd 	ldp	x29, x30, [sp], #32
     f98:	d65f03c0 	ret
     f9c:	52800020 	mov	w0, #0x1                   	// #1
     fa0:	94000a46 	bl	38b8 <exit>
     fa4:	d503201f 	nop

0000000000000fa8 <reinit_vec>:
     fa8:	a9bd7bfd 	stp	x29, x30, [sp, #-48]!
     fac:	910003fd 	mov	x29, sp
     fb0:	f90013f5 	str	x21, [sp, #32]
     fb4:	aa0003f5 	mov	x21, x0
     fb8:	f9402c00 	ldr	x0, [x0, #88]
     fbc:	a90153f3 	stp	x19, x20, [sp, #16]
     fc0:	2a0203f4 	mov	w20, w2
     fc4:	aa0103f3 	mov	x19, x1
     fc8:	940008ec 	bl	3378 <random_u32>
     fcc:	7100029f 	cmp	w20, #0x0
     fd0:	5400016d 	b.le	ffc <reinit_vec+0x54>
     fd4:	f94032a1 	ldr	x1, [x21, #96]
     fd8:	d2800003 	mov	x3, #0x0                   	// #0
     fdc:	d503201f 	nop
     fe0:	0b030004 	add	w4, w0, w3
     fe4:	92401084 	and	x4, x4, #0x1f
     fe8:	bc647820 	ldr	s0, [x1, x4, lsl #2]
     fec:	bc237a60 	str	s0, [x19, x3, lsl #2]
     ff0:	91000463 	add	x3, x3, #0x1
     ff4:	6b03029f 	cmp	w20, w3
     ff8:	54ffff4c 	b.gt	fe0 <reinit_vec+0x38>
     ffc:	aa1303e0 	mov	x0, x19
    1000:	f94013f5 	ldr	x21, [sp, #32]
    1004:	a94153f3 	ldp	x19, x20, [sp, #16]
    1008:	a8c37bfd 	ldp	x29, x30, [sp], #48
    100c:	d65f03c0 	ret

0000000000001010 <reinit_ivec_pos>:
    1010:	a9bd7bfd 	stp	x29, x30, [sp, #-48]!
    1014:	910003fd 	mov	x29, sp
    1018:	a9025bf5 	stp	x21, x22, [sp, #32]
    101c:	aa0003f6 	mov	x22, x0
    1020:	f9402c00 	ldr	x0, [x0, #88]
    1024:	2a0303f5 	mov	w21, w3
    1028:	a90153f3 	stp	x19, x20, [sp, #16]
    102c:	2a0203f3 	mov	w19, w2
    1030:	aa0103f4 	mov	x20, x1
    1034:	940008d1 	bl	3378 <random_u32>
    1038:	7100027f 	cmp	w19, #0x0
    103c:	5400018d 	b.le	106c <reinit_ivec_pos+0x5c>
    1040:	f94036c1 	ldr	x1, [x22, #104]
    1044:	d2800005 	mov	x5, #0x0                   	// #0
    1048:	0b050004 	add	w4, w0, w5
    104c:	92401084 	and	x4, x4, #0x1f
    1050:	b8647824 	ldr	w4, [x1, x4, lsl #2]
    1054:	0a0402a4 	and	w4, w21, w4
    1058:	11000484 	add	w4, w4, #0x1
    105c:	b8257a84 	str	w4, [x20, x5, lsl #2]
    1060:	910004a5 	add	x5, x5, #0x1
    1064:	6b05027f 	cmp	w19, w5
    1068:	54ffff0c 	b.gt	1048 <reinit_ivec_pos+0x38>
    106c:	a94153f3 	ldp	x19, x20, [sp, #16]
    1070:	a9425bf5 	ldp	x21, x22, [sp, #32]
    1074:	a8c37bfd 	ldp	x29, x30, [sp], #48
    1078:	d65f03c0 	ret
    107c:	d503201f 	nop

0000000000001080 <reinit_ivec>:
    1080:	a9bd7bfd 	stp	x29, x30, [sp, #-48]!
    1084:	910003fd 	mov	x29, sp
    1088:	a9025bf5 	stp	x21, x22, [sp, #32]
    108c:	aa0003f6 	mov	x22, x0
    1090:	f9402c00 	ldr	x0, [x0, #88]
    1094:	2a0303f5 	mov	w21, w3
    1098:	a90153f3 	stp	x19, x20, [sp, #16]
    109c:	2a0203f3 	mov	w19, w2
    10a0:	aa0103f4 	mov	x20, x1
    10a4:	940008b5 	bl	3378 <random_u32>
    10a8:	7100027f 	cmp	w19, #0x0
    10ac:	5400016d 	b.le	10d8 <reinit_ivec+0x58>
    10b0:	f94036c1 	ldr	x1, [x22, #104]
    10b4:	d2800004 	mov	x4, #0x0                   	// #0
    10b8:	0b040005 	add	w5, w0, w4
    10bc:	924010a5 	and	x5, x5, #0x1f
    10c0:	b8657825 	ldr	w5, [x1, x5, lsl #2]
    10c4:	0a1500a5 	and	w5, w5, w21
    10c8:	b8247a85 	str	w5, [x20, x4, lsl #2]
    10cc:	91000484 	add	x4, x4, #0x1
    10d0:	6b04027f 	cmp	w19, w4
    10d4:	54ffff2c 	b.gt	10b8 <reinit_ivec+0x38>
    10d8:	a94153f3 	ldp	x19, x20, [sp, #16]
    10dc:	a9425bf5 	ldp	x21, x22, [sp, #32]
    10e0:	a8c37bfd 	ldp	x29, x30, [sp], #48
    10e4:	d65f03c0 	ret

00000000000010e8 <reinit_ivec_short>:
    10e8:	a9bd7bfd 	stp	x29, x30, [sp, #-48]!
    10ec:	910003fd 	mov	x29, sp
    10f0:	a9025bf5 	stp	x21, x22, [sp, #32]
    10f4:	aa0003f6 	mov	x22, x0
    10f8:	f9402c00 	ldr	x0, [x0, #88]
    10fc:	12003c75 	and	w21, w3, #0xffff
    1100:	a90153f3 	stp	x19, x20, [sp, #16]
    1104:	2a0203f3 	mov	w19, w2
    1108:	aa0103f4 	mov	x20, x1
    110c:	9400089b 	bl	3378 <random_u32>
    1110:	7100027f 	cmp	w19, #0x0
    1114:	5400016d 	b.le	1140 <reinit_ivec_short+0x58>
    1118:	f94036c1 	ldr	x1, [x22, #104]
    111c:	d2800004 	mov	x4, #0x0                   	// #0
    1120:	0b040005 	add	w5, w0, w4
    1124:	924010a5 	and	x5, x5, #0x1f
    1128:	b8657825 	ldr	w5, [x1, x5, lsl #2]
    112c:	0a0502a5 	and	w5, w21, w5
    1130:	78247a85 	strh	w5, [x20, x4, lsl #1]
    1134:	91000484 	add	x4, x4, #0x1
    1138:	6b04027f 	cmp	w19, w4
    113c:	54ffff2c 	b.gt	1120 <reinit_ivec_short+0x38>
    1140:	a94153f3 	ldp	x19, x20, [sp, #16]
    1144:	a9425bf5 	ldp	x21, x22, [sp, #32]
    1148:	a8c37bfd 	ldp	x29, x30, [sp], #48
    114c:	d65f03c0 	ret

0000000000001150 <reinit_ivec_char>:
    1150:	a9bd7bfd 	stp	x29, x30, [sp, #-48]!
    1154:	910003fd 	mov	x29, sp
    1158:	a90153f3 	stp	x19, x20, [sp, #16]
    115c:	aa0003f3 	mov	x19, x0
    1160:	f9402c00 	ldr	x0, [x0, #88]
    1164:	2a0203f4 	mov	w20, w2
    1168:	a9025bf5 	stp	x21, x22, [sp, #32]
    116c:	aa0103f5 	mov	x21, x1
    1170:	12001c76 	and	w22, w3, #0xff
    1174:	94000881 	bl	3378 <random_u32>
    1178:	7100029f 	cmp	w20, #0x0
    117c:	5400018d 	b.le	11ac <reinit_ivec_char+0x5c>
    1180:	d2800004 	mov	x4, #0x0                   	// #0
    1184:	d503201f 	nop
    1188:	0b040005 	add	w5, w0, w4
    118c:	f9403666 	ldr	x6, [x19, #104]
    1190:	924010a5 	and	x5, x5, #0x1f
    1194:	b86578c5 	ldr	w5, [x6, x5, lsl #2]
    1198:	0a0502c5 	and	w5, w22, w5
    119c:	38246aa5 	strb	w5, [x21, x4]
    11a0:	91000484 	add	x4, x4, #0x1
    11a4:	6b04029f 	cmp	w20, w4
    11a8:	54ffff0c 	b.gt	1188 <reinit_ivec_char+0x38>
    11ac:	a94153f3 	ldp	x19, x20, [sp, #16]
    11b0:	a9425bf5 	ldp	x21, x22, [sp, #32]
    11b4:	a8c37bfd 	ldp	x29, x30, [sp], #48
    11b8:	d65f03c0 	ret
    11bc:	d503201f 	nop

00000000000011c0 <zero_vec>:
    11c0:	7100003f 	cmp	w1, #0x0
    11c4:	5400010d 	b.le	11e4 <zero_vec+0x24>
    11c8:	51000421 	sub	w1, w1, #0x1
    11cc:	91001002 	add	x2, x0, #0x4
    11d0:	8b214841 	add	x1, x2, w1, uxtw #2
    11d4:	d503201f 	nop
    11d8:	b800441f 	str	wzr, [x0], #4
    11dc:	eb01001f 	cmp	x0, x1
    11e0:	54ffffc1 	b.ne	11d8 <zero_vec+0x18>  // b.any
    11e4:	d65f03c0 	ret

00000000000011e8 <initParameters_fromPreset>:
    11e8:	a9be7bfd 	stp	x29, x30, [sp, #-32]!
    11ec:	52800027 	mov	w7, #0x1                   	// #1
    11f0:	12bffe06 	mov	w6, #0xfffff               	// #1048575
    11f4:	910003fd 	mov	x29, sp
    11f8:	a90153f3 	stp	x19, x20, [sp, #16]
    11fc:	aa0503f3 	mov	x19, x5
    1200:	52800005 	mov	w5, #0x0                   	// #0
    1204:	b9000260 	str	w0, [x19]
    1208:	b9404a60 	ldr	w0, [x19, #72]
    120c:	a9008a61 	stp	x1, x2, [x19, #8]
    1210:	2a0703e2 	mov	w2, w7
    1214:	a9019263 	stp	x3, x4, [x19, #24]
    1218:	2a0703e3 	mov	w3, w7
    121c:	b9005667 	str	w7, [x19, #84]
    1220:	52800144 	mov	w4, #0xa                   	// #10
    1224:	52802001 	mov	w1, #0x100                 	// #256
    1228:	94000904 	bl	3638 <rand_intparts_init>
    122c:	aa0003e1 	mov	x1, x0
    1230:	aa0003f4 	mov	x20, x0
    1234:	52800400 	mov	w0, #0x20                  	// #32
    1238:	9400092e 	bl	36f0 <fromint_random_f32_vector>
    123c:	f9003260 	str	x0, [x19, #96]
    1240:	aa1403e0 	mov	x0, x20
    1244:	94000895 	bl	3498 <rand_fini>
    1248:	d2800000 	mov	x0, #0x0                   	// #0
    124c:	f0000003 	adrp	x3, 4000 <_malloc_r+0x618>
    1250:	f0000002 	adrp	x2, 4000 <_malloc_r+0x618>
    1254:	f9403261 	ldr	x1, [x19, #96]
    1258:	14000008 	b	1278 <initParameters_fromPreset+0x90>
    125c:	fd46f441 	ldr	d1, [x2, #3560]
    1260:	1e613800 	fsub	d0, d0, d1
    1264:	1e624000 	fcvt	s0, d0
    1268:	bc207820 	str	s0, [x1, x0, lsl #2]
    126c:	91000400 	add	x0, x0, #0x1
    1270:	f100801f 	cmp	x0, #0x20
    1274:	54000160 	b.eq	12a0 <initParameters_fromPreset+0xb8>  // b.none
    1278:	bc607820 	ldr	s0, [x1, x0, lsl #2]
    127c:	1e22c000 	fcvt	d0, s0
    1280:	3707fee0 	tbnz	w0, #0, 125c <initParameters_fromPreset+0x74>
    1284:	fd46f861 	ldr	d1, [x3, #3568]
    1288:	1e613800 	fsub	d0, d0, d1
    128c:	1e624000 	fcvt	s0, d0
    1290:	bc207820 	str	s0, [x1, x0, lsl #2]
    1294:	91000400 	add	x0, x0, #0x1
    1298:	f100801f 	cmp	x0, #0x20
    129c:	54fffee1 	b.ne	1278 <initParameters_fromPreset+0x90>  // b.any
    12a0:	b9404a61 	ldr	w1, [x19, #72]
    12a4:	940008fd 	bl	3698 <random_u32_vector>
    12a8:	f9003660 	str	x0, [x19, #104]
    12ac:	b9403e61 	ldr	w1, [x19, #60]
    12b0:	aa1303e0 	mov	x0, x19
    12b4:	b9404663 	ldr	w3, [x19, #68]
    12b8:	11000422 	add	w2, w1, #0x1
    12bc:	29058661 	stp	w1, w1, [x19, #44]
    12c0:	531d7021 	lsl	w1, w1, #3
    12c4:	b9003a61 	str	w1, [x19, #56]
    12c8:	0b020862 	add	w2, w3, w2, lsl #2
    12cc:	b9003662 	str	w2, [x19, #52]
    12d0:	a94153f3 	ldp	x19, x20, [sp, #16]
    12d4:	a8c27bfd 	ldp	x29, x30, [sp], #32
    12d8:	d65f03c0 	ret
    12dc:	d503201f 	nop

00000000000012e0 <runAll>:
    12e0:	a9bb7bfd 	stp	x29, x30, [sp, #-80]!
    12e4:	910003fd 	mov	x29, sp
    12e8:	a90153b3 	stp	x19, x20, [x29, #16]
    12ec:	b4000bc0 	cbz	x0, 1464 <runAll+0x184>
    12f0:	aa0003f3 	mov	x19, x0
    12f4:	f0000014 	adrp	x20, 4000 <_malloc_r+0x618>
    12f8:	9137e294 	add	x20, x20, #0xdf8
    12fc:	a90363b7 	stp	x23, x24, [x29, #48]
    1300:	528014a3 	mov	w3, #0xa5                  	// #165
    1304:	aa1403e2 	mov	x2, x20
    1308:	52800101 	mov	w1, #0x8                   	// #8
    130c:	f90023b9 	str	x25, [x29, #64]
    1310:	52800140 	mov	w0, #0xa                   	// #10
    1314:	97ffff15 	bl	f68 <qmalloc>
    1318:	f9003a60 	str	x0, [x19, #112]
    131c:	52801503 	mov	w3, #0xa8                  	// #168
    1320:	aa1403e2 	mov	x2, x20
    1324:	52800101 	mov	w1, #0x8                   	// #8
    1328:	52800140 	mov	w0, #0xa                   	// #10
    132c:	97ffff0f 	bl	f68 <qmalloc>
    1330:	f9003e60 	str	x0, [x19, #120]
    1334:	52801563 	mov	w3, #0xab                  	// #171
    1338:	aa1403e2 	mov	x2, x20
    133c:	52800101 	mov	w1, #0x8                   	// #8
    1340:	52800140 	mov	w0, #0xa                   	// #10
    1344:	97ffff09 	bl	f68 <qmalloc>
    1348:	f9004260 	str	x0, [x19, #128]
    134c:	528015c3 	mov	w3, #0xae                  	// #174
    1350:	aa1403e2 	mov	x2, x20
    1354:	52800101 	mov	w1, #0x8                   	// #8
    1358:	52800140 	mov	w0, #0xa                   	// #10
    135c:	97ffff03 	bl	f68 <qmalloc>
    1360:	f9004660 	str	x0, [x19, #136]
    1364:	52801623 	mov	w3, #0xb1                  	// #177
    1368:	aa1403e2 	mov	x2, x20
    136c:	52800101 	mov	w1, #0x8                   	// #8
    1370:	52800140 	mov	w0, #0xa                   	// #10
    1374:	97fffefd 	bl	f68 <qmalloc>
    1378:	f9008a60 	str	x0, [x19, #272]
    137c:	52800101 	mov	w1, #0x8                   	// #8
    1380:	52801683 	mov	w3, #0xb4                  	// #180
    1384:	aa1403e2 	mov	x2, x20
    1388:	52800140 	mov	w0, #0xa                   	// #10
    138c:	97fffef7 	bl	f68 <qmalloc>
    1390:	b9400261 	ldr	w1, [x19]
    1394:	f9008e60 	str	x0, [x19, #280]
    1398:	a9416677 	ldp	x23, x25, [x19, #16]
    139c:	f9401278 	ldr	x24, [x19, #32]
    13a0:	34000401 	cbz	w1, 1420 <runAll+0x140>
    13a4:	a9025bb5 	stp	x21, x22, [x29, #32]
    13a8:	91024275 	add	x21, x19, #0x90
    13ac:	d2800014 	mov	x20, #0x0                   	// #0
    13b0:	52800036 	mov	w22, #0x1                   	// #1
    13b4:	fd0027a8 	str	d8, [x29, #72]
    13b8:	b9402a60 	ldr	w0, [x19, #40]
    13bc:	1ad422c2 	lsl	w2, w22, w20
    13c0:	6a00005f 	tst	w2, w0
    13c4:	54000200 	b.eq	1404 <runAll+0x124>  // b.none
    13c8:	f8747b21 	ldr	x1, [x25, x20, lsl #3]
    13cc:	aa1303e0 	mov	x0, x19
    13d0:	d63f0020 	blr	x1
    13d4:	f8747ae1 	ldr	x1, [x23, x20, lsl #3]
    13d8:	aa1303e0 	mov	x0, x19
    13dc:	d63f0020 	blr	x1
    13e0:	1e204008 	fmov	s8, s0
    13e4:	f8747b01 	ldr	x1, [x24, x20, lsl #3]
    13e8:	aa1303e0 	mov	x0, x19
    13ec:	d63f0020 	blr	x1
    13f0:	b9400261 	ldr	w1, [x19]
    13f4:	bd0002a8 	str	s8, [x21]
    13f8:	bd472261 	ldr	s1, [x19, #1824]
    13fc:	1e282820 	fadd	s0, s1, s8
    1400:	bd072260 	str	s0, [x19, #1824]
    1404:	11000680 	add	w0, w20, #0x1
    1408:	910012b5 	add	x21, x21, #0x4
    140c:	6b00003f 	cmp	w1, w0
    1410:	91000694 	add	x20, x20, #0x1
    1414:	54fffd28 	b.hi	13b8 <runAll+0xd8>  // b.pmore
    1418:	a9425bb5 	ldp	x21, x22, [x29, #32]
    141c:	fd4027a8 	ldr	d8, [x29, #72]
    1420:	aa1303e0 	mov	x0, x19
    1424:	97fffeaf 	bl	ee0 <freeDataBanks>
    1428:	b9405660 	ldr	w0, [x19, #84]
    142c:	34000060 	cbz	w0, 1438 <runAll+0x158>
    1430:	b9404e60 	ldr	w0, [x19, #76]
    1434:	340000c0 	cbz	w0, 144c <runAll+0x16c>
    1438:	a94153b3 	ldp	x19, x20, [x29, #16]
    143c:	a94363b7 	ldp	x23, x24, [x29, #48]
    1440:	f94023b9 	ldr	x25, [x29, #64]
    1444:	a8c57bfd 	ldp	x29, x30, [sp], #80
    1448:	d65f03c0 	ret
    144c:	aa1303e0 	mov	x0, x19
    1450:	f94023b9 	ldr	x25, [x29, #64]
    1454:	a94153b3 	ldp	x19, x20, [x29, #16]
    1458:	a94363b7 	ldp	x23, x24, [x29, #48]
    145c:	a8c57bfd 	ldp	x29, x30, [sp], #80
    1460:	17fffe66 	b	df8 <verifyResults>
    1464:	a9025bb5 	stp	x21, x22, [x29, #32]
    1468:	52800020 	mov	w0, #0x1                   	// #1
    146c:	a90363b7 	stp	x23, x24, [x29, #48]
    1470:	f90023b9 	str	x25, [x29, #64]
    1474:	fd0027a8 	str	d8, [x29, #72]
    1478:	94000910 	bl	38b8 <exit>
    147c:	d503201f 	nop

0000000000001480 <printResults>:
    1480:	d65f03c0 	ret
    1484:	00000000 	.inst	0x00000000 ; undefined

0000000000001488 <inner_product>:
    1488:	29481005 	ldp	w5, w4, [x0, #64]
    148c:	f9403801 	ldr	x1, [x0, #112]
    1490:	7100009f 	cmp	w4, #0x0
    1494:	a9400423 	ldp	x3, x1, [x1]
    1498:	5400030d 	b.le	14f8 <inner_product+0x70>
    149c:	510004a2 	sub	w2, w5, #0x1
    14a0:	51000484 	sub	w4, w4, #0x1
    14a4:	91000442 	add	x2, x2, #0x1
    14a8:	91002020 	add	x0, x1, #0x8
    14ac:	0f000400 	movi	v0.2s, #0x0
    14b0:	91001021 	add	x1, x1, #0x4
    14b4:	8b244804 	add	x4, x0, w4, uxtw #2
    14b8:	d37ef442 	lsl	x2, x2, #2
    14bc:	d503201f 	nop
    14c0:	d2800000 	mov	x0, #0x0                   	// #0
    14c4:	710000bf 	cmp	w5, #0x0
    14c8:	5400010d 	b.le	14e8 <inner_product+0x60>
    14cc:	d503201f 	nop
    14d0:	bc606822 	ldr	s2, [x1, x0]
    14d4:	bc606861 	ldr	s1, [x3, x0]
    14d8:	91001000 	add	x0, x0, #0x4
    14dc:	eb00005f 	cmp	x2, x0
    14e0:	1f010040 	fmadd	s0, s2, s1, s0
    14e4:	54ffff61 	b.ne	14d0 <inner_product+0x48>  // b.any
    14e8:	91001021 	add	x1, x1, #0x4
    14ec:	eb04003f 	cmp	x1, x4
    14f0:	54fffe81 	b.ne	14c0 <inner_product+0x38>  // b.any
    14f4:	d65f03c0 	ret
    14f8:	0f000400 	movi	v0.2s, #0x0
    14fc:	d65f03c0 	ret

0000000000001500 <difference_predictors>:
    1500:	29481006 	ldp	w6, w4, [x0, #64]
    1504:	f9403801 	ldr	x1, [x0, #112]
    1508:	f9408c02 	ldr	x2, [x0, #280]
    150c:	7100009f 	cmp	w4, #0x0
    1510:	f9400027 	ldr	x7, [x1]
    1514:	f9400045 	ldr	x5, [x2]
    1518:	540004ed 	b.le	15b4 <difference_predictors+0xb4>
    151c:	510004c2 	sub	w2, w6, #0x1
    1520:	910120a0 	add	x0, x5, #0x48
    1524:	52800701 	mov	w1, #0x38                  	// #56
    1528:	11000484 	add	w4, w4, #0x1
    152c:	52800023 	mov	w3, #0x1                   	// #1
    1530:	9ba10042 	umaddl	x2, w2, w1, x0
    1534:	d503201f 	nop
    1538:	aa0703e1 	mov	x1, x7
    153c:	910040a0 	add	x0, x5, #0x10
    1540:	710000df 	cmp	w6, #0x0
    1544:	5400032d 	b.le	15a8 <difference_predictors+0xa8>
    1548:	2d401807 	ldp	s7, s6, [x0]
    154c:	bc404431 	ldr	s17, [x1], #4
    1550:	2d411005 	ldp	s5, s4, [x0, #8]
    1554:	1e273a27 	fsub	s7, s17, s7
    1558:	bd402010 	ldr	s16, [x0, #32]
    155c:	2d420803 	ldp	s3, s2, [x0, #16]
    1560:	bd000011 	str	s17, [x0]
    1564:	2d430001 	ldp	s1, s0, [x0, #24]
    1568:	1e2638e6 	fsub	s6, s7, s6
    156c:	9100e000 	add	x0, x0, #0x38
    1570:	eb00005f 	cmp	x2, x0
    1574:	1e2538c5 	fsub	s5, s6, s5
    1578:	2d399807 	stp	s7, s6, [x0, #-52]
    157c:	1e2438a4 	fsub	s4, s5, s4
    1580:	1e233883 	fsub	s3, s4, s3
    1584:	2d3a9005 	stp	s5, s4, [x0, #-44]
    1588:	1e223862 	fsub	s2, s3, s2
    158c:	1e213841 	fsub	s1, s2, s1
    1590:	2d3b8803 	stp	s3, s2, [x0, #-36]
    1594:	1e203820 	fsub	s0, s1, s0
    1598:	2d3c8001 	stp	s1, s0, [x0, #-28]
    159c:	1e303801 	fsub	s1, s0, s16
    15a0:	bc1ec001 	stur	s1, [x0, #-20]
    15a4:	54fffd21 	b.ne	1548 <difference_predictors+0x48>  // b.any
    15a8:	11000463 	add	w3, w3, #0x1
    15ac:	6b03009f 	cmp	w4, w3
    15b0:	54fffc41 	b.ne	1538 <difference_predictors+0x38>  // b.any
    15b4:	bd4000a0 	ldr	s0, [x5]
    15b8:	d65f03c0 	ret
    15bc:	d503201f 	nop

00000000000015c0 <pic_2d>:
    15c0:	a9be7bfd 	stp	x29, x30, [sp, #-32]!
    15c4:	910003fd 	mov	x29, sp
    15c8:	a9470c01 	ldp	x1, x3, [x0, #112]
    15cc:	f9408802 	ldr	x2, [x0, #272]
    15d0:	29484412 	ldp	w18, w17, [x0, #64]
    15d4:	a9402c2a 	ldp	x10, x11, [x1]
    15d8:	7100023f 	cmp	w17, #0x0
    15dc:	a9411025 	ldp	x5, x4, [x1, #16]
    15e0:	a9421827 	ldp	x7, x6, [x1, #32]
    15e4:	a940bc4e 	ldp	x14, x15, [x2, #8]
    15e8:	f9400c48 	ldr	x8, [x2, #24]
    15ec:	a940346c 	ldp	x12, x13, [x3]
    15f0:	5400088d 	b.le	1700 <pic_2d+0x140>
    15f4:	51000649 	sub	w9, w18, #0x1
    15f8:	11000631 	add	w17, w17, #0x1
    15fc:	91000529 	add	x9, x9, #0x1
    1600:	52800030 	mov	w16, #0x1                   	// #1
    1604:	1e2e1003 	fmov	s3, #1.000000000000000000e+00
    1608:	f9000bb3 	str	x19, [x29, #16]
    160c:	d37ef529 	lsl	x9, x9, #2
    1610:	d2800000 	mov	x0, #0x0                   	// #0
    1614:	7100025f 	cmp	w18, #0x0
    1618:	540006cd 	b.le	16f0 <pic_2d+0x130>
    161c:	d503201f 	nop
    1620:	bc6068a1 	ldr	s1, [x5, x0]
    1624:	bc606880 	ldr	s0, [x4, x0]
    1628:	bc6068e2 	ldr	s2, [x7, x0]
    162c:	1e380022 	fcvtzs	w2, s1
    1630:	1e380001 	fcvtzs	w1, s0
    1634:	12001442 	and	w2, w2, #0x3f
    1638:	531a1421 	ubfiz	w1, w1, #6, #6
    163c:	0b020021 	add	w1, w1, w2
    1640:	93407c21 	sxtw	x1, w1
    1644:	bc6179c0 	ldr	s0, [x14, x1, lsl #2]
    1648:	1e202840 	fadd	s0, s2, s0
    164c:	bc2068e0 	str	s0, [x7, x0]
    1650:	bc6179e1 	ldr	s1, [x15, x1, lsl #2]
    1654:	bc6068c0 	ldr	s0, [x6, x0]
    1658:	1e212800 	fadd	s0, s0, s1
    165c:	bc2068c0 	str	s0, [x6, x0]
    1660:	bc6068e1 	ldr	s1, [x7, x0]
    1664:	bc6068a0 	ldr	s0, [x5, x0]
    1668:	1e212800 	fadd	s0, s0, s1
    166c:	bc2068a0 	str	s0, [x5, x0]
    1670:	bc6068c1 	ldr	s1, [x6, x0]
    1674:	bc606880 	ldr	s0, [x4, x0]
    1678:	1e212800 	fadd	s0, s0, s1
    167c:	bc206880 	str	s0, [x4, x0]
    1680:	1e380002 	fcvtzs	w2, s0
    1684:	bc6068a1 	ldr	s1, [x5, x0]
    1688:	1e380023 	fcvtzs	w3, s1
    168c:	12001442 	and	w2, w2, #0x3f
    1690:	93407c5e 	sxtw	x30, w2
    1694:	910083de 	add	x30, x30, #0x20
    1698:	12001463 	and	w3, w3, #0x3f
    169c:	93407c73 	sxtw	x19, w3
    16a0:	b87e79a1 	ldr	w1, [x13, x30, lsl #2]
    16a4:	91008273 	add	x19, x19, #0x20
    16a8:	0b010041 	add	w1, w2, w1
    16ac:	bc737940 	ldr	s0, [x10, x19, lsl #2]
    16b0:	b8737993 	ldr	w19, [x12, x19, lsl #2]
    16b4:	1e212800 	fadd	s0, s0, s1
    16b8:	0b130063 	add	w3, w3, w19
    16bc:	0b011861 	add	w1, w3, w1, lsl #6
    16c0:	93407c21 	sxtw	x1, w1
    16c4:	bc2068a0 	str	s0, [x5, x0]
    16c8:	bc606880 	ldr	s0, [x4, x0]
    16cc:	bc7e7961 	ldr	s1, [x11, x30, lsl #2]
    16d0:	1e212800 	fadd	s0, s0, s1
    16d4:	bc206880 	str	s0, [x4, x0]
    16d8:	91001000 	add	x0, x0, #0x4
    16dc:	bc617900 	ldr	s0, [x8, x1, lsl #2]
    16e0:	eb09001f 	cmp	x0, x9
    16e4:	1e232800 	fadd	s0, s0, s3
    16e8:	bc217900 	str	s0, [x8, x1, lsl #2]
    16ec:	54fff9a1 	b.ne	1620 <pic_2d+0x60>  // b.any
    16f0:	11000610 	add	w16, w16, #0x1
    16f4:	6b11021f 	cmp	w16, w17
    16f8:	54fff8c1 	b.ne	1610 <pic_2d+0x50>  // b.any
    16fc:	f9400bb3 	ldr	x19, [x29, #16]
    1700:	bd4000a4 	ldr	s4, [x5]
    1704:	bd400100 	ldr	s0, [x8]
    1708:	bd400083 	ldr	s3, [x4]
    170c:	bd4000e2 	ldr	s2, [x7]
    1710:	1e242800 	fadd	s0, s0, s4
    1714:	bd4000c1 	ldr	s1, [x6]
    1718:	a8c27bfd 	ldp	x29, x30, [sp], #32
    171c:	1e232800 	fadd	s0, s0, s3
    1720:	1e222800 	fadd	s0, s0, s2
    1724:	1e212800 	fadd	s0, s0, s1
    1728:	d65f03c0 	ret
    172c:	d503201f 	nop

0000000000001730 <pic_1d>:
    1730:	a9be7bfd 	stp	x29, x30, [sp, #-32]!
    1734:	910003fd 	mov	x29, sp
    1738:	a9470801 	ldp	x1, x2, [x0, #112]
    173c:	b9404012 	ldr	w18, [x0, #64]
    1740:	a9401025 	ldp	x5, x4, [x1]
    1744:	7100025f 	cmp	w18, #0x0
    1748:	a941242e 	ldp	x14, x9, [x1, #16]
    174c:	a9422831 	ldp	x17, x10, [x1, #32]
    1750:	a9432c2d 	ldp	x13, x11, [x1, #48]
    1754:	a9440c26 	ldp	x6, x3, [x1, #64]
    1758:	a940304f 	ldp	x15, x12, [x2]
    175c:	f9000bf3 	str	x19, [sp, #16]
    1760:	b9404413 	ldr	w19, [x0, #68]
    1764:	5400020d 	b.le	17a4 <pic_1d+0x74>
    1768:	51000642 	sub	w2, w18, #0x1
    176c:	52b85901 	mov	w1, #0xc2c80000            	// #-1027080192
    1770:	91000442 	add	x2, x2, #0x1
    1774:	d2800000 	mov	x0, #0x0                   	// #0
    1778:	1e270022 	fmov	s2, w1
    177c:	d37ef442 	lsl	x2, x2, #2
    1780:	bc6069a1 	ldr	s1, [x13, x0]
    1784:	b86069e1 	ldr	w1, [x15, x0]
    1788:	1e220821 	fmul	s1, s1, s2
    178c:	1e230020 	ucvtf	s0, w1
    1790:	bc2069a1 	str	s1, [x13, x0]
    1794:	bc2069c0 	str	s0, [x14, x0]
    1798:	91001000 	add	x0, x0, #0x4
    179c:	eb00005f 	cmp	x2, x0
    17a0:	54ffff01 	b.ne	1780 <pic_1d+0x50>  // b.any
    17a4:	7100027f 	cmp	w19, #0x0
    17a8:	540009ad 	b.le	18dc <pic_1d+0x1ac>
    17ac:	51000650 	sub	w16, w18, #0x1
    17b0:	52824de0 	mov	w0, #0x126f                	// #4719
    17b4:	11000673 	add	w19, w19, #0x1
    17b8:	72a75060 	movk	w0, #0x3a83, lsl #16
    17bc:	d37e7e08 	ubfiz	x8, x16, #2, #32
    17c0:	5280003e 	mov	w30, #0x1                   	// #1
    17c4:	91001108 	add	x8, x8, #0x4
    17c8:	1e270005 	fmov	s5, w0
    17cc:	1e6e1006 	fmov	d6, #1.000000000000000000e+00
    17d0:	d2800000 	mov	x0, #0x0                   	// #0
    17d4:	7100025f 	cmp	w18, #0x0
    17d8:	540007cd 	b.le	18d0 <pic_1d+0x1a0>
    17dc:	d503201f 	nop
    17e0:	b82068bf 	str	wzr, [x5, x0]
    17e4:	b820689f 	str	wzr, [x4, x0]
    17e8:	bc6069c0 	ldr	s0, [x14, x0]
    17ec:	9e380001 	fcvtzs	x1, s0
    17f0:	1e230020 	ucvtf	s0, w1
    17f4:	51000422 	sub	w2, w1, #0x1
    17f8:	b82069e1 	str	w1, [x15, x0]
    17fc:	bc206920 	str	s0, [x9, x0]
    1800:	bc627a20 	ldr	s0, [x17, x2, lsl #2]
    1804:	bc206940 	str	s0, [x10, x0]
    1808:	bc6279a0 	ldr	s0, [x13, x2, lsl #2]
    180c:	bc206960 	str	s0, [x11, x0]
    1810:	91001000 	add	x0, x0, #0x4
    1814:	eb00011f 	cmp	x8, x0
    1818:	54fffe41 	b.ne	17e0 <pic_1d+0xb0>  // b.any
    181c:	d2800000 	mov	x0, #0x0                   	// #0
    1820:	bc606880 	ldr	s0, [x4, x0]
    1824:	bc606924 	ldr	s4, [x9, x0]
    1828:	bc606963 	ldr	s3, [x11, x0]
    182c:	bc606942 	ldr	s2, [x10, x0]
    1830:	1e243800 	fsub	s0, s0, s4
    1834:	bc6068a1 	ldr	s1, [x5, x0]
    1838:	1f030800 	fmadd	s0, s0, s3, s2
    183c:	1e212800 	fadd	s0, s0, s1
    1840:	1e252801 	fadd	s1, s0, s5
    1844:	bc2068a0 	str	s0, [x5, x0]
    1848:	bc606880 	ldr	s0, [x4, x0]
    184c:	1e202820 	fadd	s0, s1, s0
    1850:	1e390001 	fcvtzu	w1, s0
    1854:	1e230021 	ucvtf	s1, w1
    1858:	0a100021 	and	w1, w1, w16
    185c:	11000421 	add	w1, w1, #0x1
    1860:	1e213800 	fsub	s0, s0, s1
    1864:	1e220021 	scvtf	s1, w1
    1868:	1e202821 	fadd	s1, s1, s0
    186c:	bc2068c0 	str	s0, [x6, x0]
    1870:	b8206981 	str	w1, [x12, x0]
    1874:	bc206881 	str	s1, [x4, x0]
    1878:	91001000 	add	x0, x0, #0x4
    187c:	eb00011f 	cmp	x8, x0
    1880:	54fffd01 	b.ne	1820 <pic_1d+0xf0>  // b.any
    1884:	d2800001 	mov	x1, #0x0                   	// #0
    1888:	b8616982 	ldr	w2, [x12, x1]
    188c:	bc6168c0 	ldr	s0, [x6, x1]
    1890:	51000447 	sub	w7, w2, #0x1
    1894:	2a0203e2 	mov	w2, w2
    1898:	1e22c000 	fcvt	d0, s0
    189c:	bc677861 	ldr	s1, [x3, x7, lsl #2]
    18a0:	1e6038c0 	fsub	d0, d6, d0
    18a4:	1e22c021 	fcvt	d1, s1
    18a8:	1e612800 	fadd	d0, d0, d1
    18ac:	1e624000 	fcvt	s0, d0
    18b0:	bc277860 	str	s0, [x3, x7, lsl #2]
    18b4:	bc6168c1 	ldr	s1, [x6, x1]
    18b8:	91001021 	add	x1, x1, #0x4
    18bc:	bc627860 	ldr	s0, [x3, x2, lsl #2]
    18c0:	eb00003f 	cmp	x1, x0
    18c4:	1e212800 	fadd	s0, s0, s1
    18c8:	bc227860 	str	s0, [x3, x2, lsl #2]
    18cc:	54fffde1 	b.ne	1888 <pic_1d+0x158>  // b.any
    18d0:	110007de 	add	w30, w30, #0x1
    18d4:	6b1303df 	cmp	w30, w19
    18d8:	54fff7c1 	b.ne	17d0 <pic_1d+0xa0>  // b.any
    18dc:	bd400060 	ldr	s0, [x3]
    18e0:	f9400bf3 	ldr	x19, [sp, #16]
    18e4:	a8c27bfd 	ldp	x29, x30, [sp], #32
    18e8:	d65f03c0 	ret
    18ec:	d503201f 	nop

00000000000018f0 <lin_recurrence>:
    18f0:	f9403803 	ldr	x3, [x0, #112]
    18f4:	29481c08 	ldp	w8, w7, [x0, #64]
    18f8:	a9400861 	ldp	x1, x2, [x3]
    18fc:	710000ff 	cmp	w7, #0x0
    1900:	f9400863 	ldr	x3, [x3, #16]
    1904:	2d400420 	ldp	s0, s1, [x1]
    1908:	1e211800 	fdiv	s0, s0, s1
    190c:	540004cd 	b.le	19a4 <lin_recurrence+0xb4>
    1910:	51000500 	sub	w0, w8, #0x1
    1914:	93407d05 	sxtw	x5, w8
    1918:	cb0000a5 	sub	x5, x5, x0
    191c:	91000400 	add	x0, x0, #0x1
    1920:	92800069 	mov	x9, #0xfffffffffffffffc    	// #-4
    1924:	110004e7 	add	w7, w7, #0x1
    1928:	d37ef4a5 	lsl	x5, x5, #2
    192c:	d37ef404 	lsl	x4, x0, #2
    1930:	8b28c929 	add	x9, x9, w8, sxtw #2
    1934:	d10020a5 	sub	x5, x5, #0x8
    1938:	52800026 	mov	w6, #0x1                   	// #1
    193c:	d503201f 	nop
    1940:	d2800000 	mov	x0, #0x0                   	// #0
    1944:	7100011f 	cmp	w8, #0x0
    1948:	5400028d 	b.le	1998 <lin_recurrence+0xa8>
    194c:	d503201f 	nop
    1950:	bc606841 	ldr	s1, [x2, x0]
    1954:	bc606822 	ldr	s2, [x1, x0]
    1958:	1f000821 	fmadd	s1, s1, s0, s2
    195c:	bc206861 	str	s1, [x3, x0]
    1960:	91001000 	add	x0, x0, #0x4
    1964:	1e203820 	fsub	s0, s1, s0
    1968:	eb00009f 	cmp	x4, x0
    196c:	54ffff21 	b.ne	1950 <lin_recurrence+0x60>  // b.any
    1970:	aa0903e0 	mov	x0, x9
    1974:	d503201f 	nop
    1978:	bc606841 	ldr	s1, [x2, x0]
    197c:	bc606822 	ldr	s2, [x1, x0]
    1980:	1f000821 	fmadd	s1, s1, s0, s2
    1984:	bc206861 	str	s1, [x3, x0]
    1988:	d1001000 	sub	x0, x0, #0x4
    198c:	1e203820 	fsub	s0, s1, s0
    1990:	eb0000bf 	cmp	x5, x0
    1994:	54ffff21 	b.ne	1978 <lin_recurrence+0x88>  // b.any
    1998:	110004c6 	add	w6, w6, #0x1
    199c:	6b0600ff 	cmp	w7, w6
    19a0:	54fffd01 	b.ne	1940 <lin_recurrence+0x50>  // b.any
    19a4:	d65f03c0 	ret

00000000000019a8 <hydro_fragment_init>:
    19a8:	a9bd7bfd 	stp	x29, x30, [sp, #-48]!
    19ac:	910003fd 	mov	x29, sp
    19b0:	a90153f3 	stp	x19, x20, [sp, #16]
    19b4:	aa0003f3 	mov	x19, x0
    19b8:	a9025bf5 	stp	x21, x22, [sp, #32]
    19bc:	b9403c00 	ldr	w0, [x0, #60]
    19c0:	7101901f 	cmp	w0, #0x64
    19c4:	54000049 	b.ls	19cc <hydro_fragment_init+0x24>  // b.plast
    19c8:	51018c00 	sub	w0, w0, #0x63
    19cc:	f0000015 	adrp	x21, 4000 <_malloc_r+0x618>
    19d0:	913902b5 	add	x21, x21, #0xe40
    19d4:	d2800014 	mov	x20, #0x0                   	// #0
    19d8:	b9004260 	str	w0, [x19, #64]
    19dc:	f9403a76 	ldr	x22, [x19, #112]
    19e0:	52800403 	mov	w3, #0x20                  	// #32
    19e4:	aa1503e2 	mov	x2, x21
    19e8:	52800081 	mov	w1, #0x4                   	// #4
    19ec:	11005400 	add	w0, w0, #0x15
    19f0:	97fffd5e 	bl	f68 <qmalloc>
    19f4:	f8346ac0 	str	x0, [x22, x20]
    19f8:	91002294 	add	x20, x20, #0x8
    19fc:	f100629f 	cmp	x20, #0x18
    1a00:	54000060 	b.eq	1a0c <hydro_fragment_init+0x64>  // b.none
    1a04:	b9404260 	ldr	w0, [x19, #64]
    1a08:	17fffff5 	b	19dc <hydro_fragment_init+0x34>
    1a0c:	f9403a74 	ldr	x20, [x19, #112]
    1a10:	52800483 	mov	w3, #0x24                  	// #36
    1a14:	52800081 	mov	w1, #0x4                   	// #4
    1a18:	aa1503e2 	mov	x2, x21
    1a1c:	2a0103e0 	mov	w0, w1
    1a20:	97fffd52 	bl	f68 <qmalloc>
    1a24:	f9403a61 	ldr	x1, [x19, #112]
    1a28:	b9404262 	ldr	w2, [x19, #64]
    1a2c:	f9000e80 	str	x0, [x20, #24]
    1a30:	aa1303e0 	mov	x0, x19
    1a34:	11002c42 	add	w2, w2, #0xb
    1a38:	f9400021 	ldr	x1, [x1]
    1a3c:	97fffd5b 	bl	fa8 <reinit_vec>
    1a40:	f9403a61 	ldr	x1, [x19, #112]
    1a44:	aa1303e0 	mov	x0, x19
    1a48:	b9404262 	ldr	w2, [x19, #64]
    1a4c:	f9400421 	ldr	x1, [x1, #8]
    1a50:	11002c42 	add	w2, w2, #0xb
    1a54:	97fffd55 	bl	fa8 <reinit_vec>
    1a58:	f9403a61 	ldr	x1, [x19, #112]
    1a5c:	aa1303e0 	mov	x0, x19
    1a60:	b9404262 	ldr	w2, [x19, #64]
    1a64:	f9400821 	ldr	x1, [x1, #16]
    1a68:	11002c42 	add	w2, w2, #0xb
    1a6c:	97fffd4f 	bl	fa8 <reinit_vec>
    1a70:	f9403a61 	ldr	x1, [x19, #112]
    1a74:	aa1303e0 	mov	x0, x19
    1a78:	a94153f3 	ldp	x19, x20, [sp, #16]
    1a7c:	52800082 	mov	w2, #0x4                   	// #4
    1a80:	a9425bf5 	ldp	x21, x22, [sp, #32]
    1a84:	f9400c21 	ldr	x1, [x1, #24]
    1a88:	a8c37bfd 	ldp	x29, x30, [sp], #48
    1a8c:	17fffd47 	b	fa8 <reinit_vec>

0000000000001a90 <cholesky_init>:
    1a90:	a9bd7bfd 	stp	x29, x30, [sp, #-48]!
    1a94:	52800be3 	mov	w3, #0x5f                  	// #95
    1a98:	52800081 	mov	w1, #0x4                   	// #4
    1a9c:	910003fd 	mov	x29, sp
    1aa0:	a90153f3 	stp	x19, x20, [sp, #16]
    1aa4:	aa0003f3 	mov	x19, x0
    1aa8:	b9403c00 	ldr	w0, [x0, #60]
    1aac:	f0000014 	adrp	x20, 4000 <_malloc_r+0x618>
    1ab0:	f90013f5 	str	x21, [sp, #32]
    1ab4:	91390294 	add	x20, x20, #0xe40
    1ab8:	b9004260 	str	w0, [x19, #64]
    1abc:	aa1403e2 	mov	x2, x20
    1ac0:	f9403a75 	ldr	x21, [x19, #112]
    1ac4:	11002800 	add	w0, w0, #0xa
    1ac8:	97fffd28 	bl	f68 <qmalloc>
    1acc:	b9404264 	ldr	w4, [x19, #64]
    1ad0:	52800be3 	mov	w3, #0x5f                  	// #95
    1ad4:	f90002a0 	str	x0, [x21]
    1ad8:	aa1403e2 	mov	x2, x20
    1adc:	f9403a75 	ldr	x21, [x19, #112]
    1ae0:	11002880 	add	w0, w4, #0xa
    1ae4:	52800081 	mov	w1, #0x4                   	// #4
    1ae8:	97fffd20 	bl	f68 <qmalloc>
    1aec:	f9403a61 	ldr	x1, [x19, #112]
    1af0:	b9403e62 	ldr	w2, [x19, #60]
    1af4:	f90006a0 	str	x0, [x21, #8]
    1af8:	aa1303e0 	mov	x0, x19
    1afc:	f9400021 	ldr	x1, [x1]
    1b00:	97fffd2a 	bl	fa8 <reinit_vec>
    1b04:	f94013f5 	ldr	x21, [sp, #32]
    1b08:	f9403a61 	ldr	x1, [x19, #112]
    1b0c:	aa1303e0 	mov	x0, x19
    1b10:	b9403e62 	ldr	w2, [x19, #60]
    1b14:	a94153f3 	ldp	x19, x20, [sp, #16]
    1b18:	f9400421 	ldr	x1, [x1, #8]
    1b1c:	a8c37bfd 	ldp	x29, x30, [sp], #48
    1b20:	17fffd22 	b	fa8 <reinit_vec>
    1b24:	d503201f 	nop

0000000000001b28 <inner_product_init>:
    1b28:	a9bd7bfd 	stp	x29, x30, [sp, #-48]!
    1b2c:	528014c3 	mov	w3, #0xa6                  	// #166
    1b30:	52800081 	mov	w1, #0x4                   	// #4
    1b34:	910003fd 	mov	x29, sp
    1b38:	a90153f3 	stp	x19, x20, [sp, #16]
    1b3c:	aa0003f3 	mov	x19, x0
    1b40:	b9403c00 	ldr	w0, [x0, #60]
    1b44:	f0000014 	adrp	x20, 4000 <_malloc_r+0x618>
    1b48:	f90013f5 	str	x21, [sp, #32]
    1b4c:	91390294 	add	x20, x20, #0xe40
    1b50:	b9004260 	str	w0, [x19, #64]
    1b54:	aa1403e2 	mov	x2, x20
    1b58:	f9403a75 	ldr	x21, [x19, #112]
    1b5c:	97fffd03 	bl	f68 <qmalloc>
    1b60:	f9403a61 	ldr	x1, [x19, #112]
    1b64:	b9403e62 	ldr	w2, [x19, #60]
    1b68:	f90002a0 	str	x0, [x21]
    1b6c:	aa1303e0 	mov	x0, x19
    1b70:	f9400021 	ldr	x1, [x1]
    1b74:	97fffd0d 	bl	fa8 <reinit_vec>
    1b78:	f9403a75 	ldr	x21, [x19, #112]
    1b7c:	b9403e64 	ldr	w4, [x19, #60]
    1b80:	aa1403e2 	mov	x2, x20
    1b84:	b9404660 	ldr	w0, [x19, #68]
    1b88:	52800081 	mov	w1, #0x4                   	// #4
    1b8c:	52801523 	mov	w3, #0xa9                  	// #169
    1b90:	0b000080 	add	w0, w4, w0
    1b94:	97fffcf5 	bl	f68 <qmalloc>
    1b98:	f9403a61 	ldr	x1, [x19, #112]
    1b9c:	b9403e63 	ldr	w3, [x19, #60]
    1ba0:	b9404662 	ldr	w2, [x19, #68]
    1ba4:	f90006a0 	str	x0, [x21, #8]
    1ba8:	aa1303e0 	mov	x0, x19
    1bac:	a94153f3 	ldp	x19, x20, [sp, #16]
    1bb0:	0b020062 	add	w2, w3, w2
    1bb4:	f94013f5 	ldr	x21, [sp, #32]
    1bb8:	f9400421 	ldr	x1, [x1, #8]
    1bbc:	a8c37bfd 	ldp	x29, x30, [sp], #48
    1bc0:	17fffcfa 	b	fa8 <reinit_vec>
    1bc4:	d503201f 	nop

0000000000001bc8 <linear_recurrence_init>:
    1bc8:	a9bd7bfd 	stp	x29, x30, [sp, #-48]!
    1bcc:	910003fd 	mov	x29, sp
    1bd0:	a90153f3 	stp	x19, x20, [sp, #16]
    1bd4:	aa0003f3 	mov	x19, x0
    1bd8:	b9403c00 	ldr	w0, [x0, #60]
    1bdc:	f90013f5 	str	x21, [sp, #32]
    1be0:	531e7400 	lsl	w0, w0, #2
    1be4:	1e230003 	ucvtf	s3, w0
    1be8:	1e202068 	fcmp	s3, #0.0
    1bec:	54000740 	b.eq	1cd4 <linear_recurrence_init+0x10c>  // b.none
    1bf0:	1e249001 	fmov	s1, #1.000000000000000000e+01
    1bf4:	5298b581 	mov	w1, #0xc5ac                	// #50604
    1bf8:	72a6e4e1 	movk	w1, #0x3727, lsl #16
    1bfc:	52800020 	mov	w0, #0x1                   	// #1
    1c00:	1e211861 	fdiv	s1, s3, s1
    1c04:	1e270024 	fmov	s4, w1
    1c08:	1f018c20 	fmsub	s0, s1, s1, s3
    1c0c:	d503201f 	nop
    1c10:	1e22c022 	fcvt	d2, s1
    1c14:	1e22c000 	fcvt	d0, s0
    1c18:	11000400 	add	w0, w0, #0x1
    1c1c:	1e622842 	fadd	d2, d2, d2
    1c20:	1e621800 	fdiv	d0, d0, d2
    1c24:	1e624000 	fcvt	s0, d0
    1c28:	1e202821 	fadd	s1, s1, s0
    1c2c:	1f018c20 	fmsub	s0, s1, s1, s3
    1c30:	1e202008 	fcmp	s0, #0.0
    1c34:	1e214002 	fneg	s2, s0
    1c38:	1e20bc42 	fcsel	s2, s2, s0, lt  // lt = tstop
    1c3c:	1e242050 	fcmpe	s2, s4
    1c40:	54000089 	b.ls	1c50 <linear_recurrence_init+0x88>  // b.plast
    1c44:	7100501f 	cmp	w0, #0x14
    1c48:	54fffe41 	b.ne	1c10 <linear_recurrence_init+0x48>  // b.any
    1c4c:	d503201f 	nop
    1c50:	1e380020 	fcvtzs	w0, s1
    1c54:	2a0003e1 	mov	w1, w0
    1c58:	b9004261 	str	w1, [x19, #64]
    1c5c:	f0000014 	adrp	x20, 4000 <_malloc_r+0x618>
    1c60:	f9403a75 	ldr	x21, [x19, #112]
    1c64:	91390294 	add	x20, x20, #0xe40
    1c68:	528020c3 	mov	w3, #0x106                 	// #262
    1c6c:	aa1403e2 	mov	x2, x20
    1c70:	52800081 	mov	w1, #0x4                   	// #4
    1c74:	97fffcbd 	bl	f68 <qmalloc>
    1c78:	f9403a61 	ldr	x1, [x19, #112]
    1c7c:	b9404262 	ldr	w2, [x19, #64]
    1c80:	f90002a0 	str	x0, [x21]
    1c84:	aa1303e0 	mov	x0, x19
    1c88:	f9400021 	ldr	x1, [x1]
    1c8c:	97fffcc7 	bl	fa8 <reinit_vec>
    1c90:	f9408a75 	ldr	x21, [x19, #272]
    1c94:	b9404260 	ldr	w0, [x19, #64]
    1c98:	aa1403e2 	mov	x2, x20
    1c9c:	52800081 	mov	w1, #0x4                   	// #4
    1ca0:	52802123 	mov	w3, #0x109                 	// #265
    1ca4:	1b007c00 	mul	w0, w0, w0
    1ca8:	97fffcb0 	bl	f68 <qmalloc>
    1cac:	b9404262 	ldr	w2, [x19, #64]
    1cb0:	f9408a61 	ldr	x1, [x19, #272]
    1cb4:	f90002a0 	str	x0, [x21]
    1cb8:	aa1303e0 	mov	x0, x19
    1cbc:	a94153f3 	ldp	x19, x20, [sp, #16]
    1cc0:	1b027c42 	mul	w2, w2, w2
    1cc4:	f94013f5 	ldr	x21, [sp, #32]
    1cc8:	f9400021 	ldr	x1, [x1]
    1ccc:	a8c37bfd 	ldp	x29, x30, [sp], #48
    1cd0:	17fffcb6 	b	fa8 <reinit_vec>
    1cd4:	52800001 	mov	w1, #0x0                   	// #0
    1cd8:	52800000 	mov	w0, #0x0                   	// #0
    1cdc:	17ffffdf 	b	1c58 <linear_recurrence_init+0x90>

0000000000001ce0 <state_fragment_init>:
    1ce0:	a9bd7bfd 	stp	x29, x30, [sp, #-48]!
    1ce4:	910003fd 	mov	x29, sp
    1ce8:	a90153f3 	stp	x19, x20, [sp, #16]
    1cec:	aa0003f3 	mov	x19, x0
    1cf0:	a9025bf5 	stp	x21, x22, [sp, #32]
    1cf4:	f0000016 	adrp	x22, 4000 <_malloc_r+0x618>
    1cf8:	b9403c00 	ldr	w0, [x0, #60]
    1cfc:	913902d6 	add	x22, x22, #0xe40
    1d00:	d2800014 	mov	x20, #0x0                   	// #0
    1d04:	b9004260 	str	w0, [x19, #64]
    1d08:	f9403a75 	ldr	x21, [x19, #112]
    1d0c:	52802863 	mov	w3, #0x143                 	// #323
    1d10:	aa1603e2 	mov	x2, x22
    1d14:	52800081 	mov	w1, #0x4                   	// #4
    1d18:	11002800 	add	w0, w0, #0xa
    1d1c:	97fffc93 	bl	f68 <qmalloc>
    1d20:	f8346aa0 	str	x0, [x21, x20]
    1d24:	91002294 	add	x20, x20, #0x8
    1d28:	f100829f 	cmp	x20, #0x20
    1d2c:	54000060 	b.eq	1d38 <state_fragment_init+0x58>  // b.none
    1d30:	b9404260 	ldr	w0, [x19, #64]
    1d34:	17fffff5 	b	1d08 <state_fragment_init+0x28>
    1d38:	f9403a61 	ldr	x1, [x19, #112]
    1d3c:	aa1303e0 	mov	x0, x19
    1d40:	b9404262 	ldr	w2, [x19, #64]
    1d44:	f9400021 	ldr	x1, [x1]
    1d48:	11002842 	add	w2, w2, #0xa
    1d4c:	97fffc97 	bl	fa8 <reinit_vec>
    1d50:	f9403a61 	ldr	x1, [x19, #112]
    1d54:	aa1303e0 	mov	x0, x19
    1d58:	b9404262 	ldr	w2, [x19, #64]
    1d5c:	f9400421 	ldr	x1, [x1, #8]
    1d60:	11002842 	add	w2, w2, #0xa
    1d64:	97fffc91 	bl	fa8 <reinit_vec>
    1d68:	f9403a61 	ldr	x1, [x19, #112]
    1d6c:	aa1303e0 	mov	x0, x19
    1d70:	b9404262 	ldr	w2, [x19, #64]
    1d74:	a94153f3 	ldp	x19, x20, [sp, #16]
    1d78:	11002842 	add	w2, w2, #0xa
    1d7c:	a9425bf5 	ldp	x21, x22, [sp, #32]
    1d80:	f9400821 	ldr	x1, [x1, #16]
    1d84:	a8c37bfd 	ldp	x29, x30, [sp], #48
    1d88:	17fffc88 	b	fa8 <reinit_vec>
    1d8c:	d503201f 	nop

0000000000001d90 <integrate_predictors_init>:
    1d90:	a9bd7bfd 	stp	x29, x30, [sp, #-48]!
    1d94:	529d89e5 	mov	w5, #0xec4f                	// #60495
    1d98:	72a9d885 	movk	w5, #0x4ec4, lsl #16
    1d9c:	52803063 	mov	w3, #0x183                 	// #387
    1da0:	910003fd 	mov	x29, sp
    1da4:	a90153f3 	stp	x19, x20, [sp, #16]
    1da8:	aa0003f3 	mov	x19, x0
    1dac:	f0000014 	adrp	x20, 4000 <_malloc_r+0x618>
    1db0:	91390294 	add	x20, x20, #0xe40
    1db4:	aa1403e2 	mov	x2, x20
    1db8:	52800081 	mov	w1, #0x4                   	// #4
    1dbc:	b9403e64 	ldr	w4, [x19, #60]
    1dc0:	528003c0 	mov	w0, #0x1e                  	// #30
    1dc4:	f90013f5 	str	x21, [sp, #32]
    1dc8:	f9403a75 	ldr	x21, [x19, #112]
    1dcc:	9ba57c84 	umull	x4, w4, w5
    1dd0:	d362fc84 	lsr	x4, x4, #34
    1dd4:	b9004264 	str	w4, [x19, #64]
    1dd8:	97fffc64 	bl	f68 <qmalloc>
    1ddc:	f9403a61 	ldr	x1, [x19, #112]
    1de0:	528003c2 	mov	w2, #0x1e                  	// #30
    1de4:	f90002a0 	str	x0, [x21]
    1de8:	aa1303e0 	mov	x0, x19
    1dec:	f9400021 	ldr	x1, [x1]
    1df0:	97fffc6e 	bl	fa8 <reinit_vec>
    1df4:	f9408e75 	ldr	x21, [x19, #280]
    1df8:	b9403e60 	ldr	w0, [x19, #60]
    1dfc:	aa1403e2 	mov	x2, x20
    1e00:	52800081 	mov	w1, #0x4                   	// #4
    1e04:	528030e3 	mov	w3, #0x187                 	// #391
    1e08:	97fffc58 	bl	f68 <qmalloc>
    1e0c:	f9408e61 	ldr	x1, [x19, #280]
    1e10:	b9403e62 	ldr	w2, [x19, #60]
    1e14:	f90002a0 	str	x0, [x21]
    1e18:	aa1303e0 	mov	x0, x19
    1e1c:	a94153f3 	ldp	x19, x20, [sp, #16]
    1e20:	f94013f5 	ldr	x21, [sp, #32]
    1e24:	f9400021 	ldr	x1, [x1]
    1e28:	a8c37bfd 	ldp	x29, x30, [sp], #48
    1e2c:	17fffc5f 	b	fa8 <reinit_vec>

0000000000001e30 <integrate_predictors>:
    1e30:	a9bc7bfd 	stp	x29, x30, [sp, #-64]!
    1e34:	528003c2 	mov	w2, #0x1e                  	// #30
    1e38:	910003fd 	mov	x29, sp
    1e3c:	f9403803 	ldr	x3, [x0, #112]
    1e40:	f9408c01 	ldr	x1, [x0, #280]
    1e44:	a90153f3 	stp	x19, x20, [sp, #16]
    1e48:	f9400073 	ldr	x19, [x3]
    1e4c:	a9025bf5 	stp	x21, x22, [sp, #32]
    1e50:	29485815 	ldp	w21, w22, [x0, #64]
    1e54:	f9400034 	ldr	x20, [x1]
    1e58:	aa1303e1 	mov	x1, x19
    1e5c:	f9001bf7 	str	x23, [sp, #48]
    1e60:	aa0003f7 	mov	x23, x0
    1e64:	97fffc51 	bl	fa8 <reinit_vec>
    1e68:	528001a2 	mov	w2, #0xd                   	// #13
    1e6c:	aa1403e1 	mov	x1, x20
    1e70:	aa1703e0 	mov	x0, x23
    1e74:	1b027ea2 	mul	w2, w21, w2
    1e78:	97fffc4c 	bl	fa8 <reinit_vec>
    1e7c:	710002df 	cmp	w22, #0x0
    1e80:	5400050d 	b.le	1f20 <integrate_predictors+0xf0>
    1e84:	510006a1 	sub	w1, w21, #0x1
    1e88:	9100d280 	add	x0, x20, #0x34
    1e8c:	52800684 	mov	w4, #0x34                  	// #52
    1e90:	110006c3 	add	w3, w22, #0x1
    1e94:	52800022 	mov	w2, #0x1                   	// #1
    1e98:	9ba40021 	umaddl	x1, w1, w4, x0
    1e9c:	d503201f 	nop
    1ea0:	aa1403e0 	mov	x0, x20
    1ea4:	710002bf 	cmp	w21, #0x0
    1ea8:	5400036d 	b.le	1f14 <integrate_predictors+0xe4>
    1eac:	d503201f 	nop
    1eb0:	2d450c10 	ldp	s16, s3, [x0, #40]
    1eb4:	2d4d8660 	ldp	s0, s1, [x19, #108]
    1eb8:	bd403002 	ldr	s2, [x0, #48]
    1ebc:	2d4c9e66 	ldp	s6, s7, [x19, #100]
    1ec0:	1e230800 	fmul	s0, s0, s3
    1ec4:	1f020021 	fmadd	s1, s1, s2, s0
    1ec8:	bd402400 	ldr	s0, [x0, #36]
    1ecc:	2d43cc12 	ldp	s18, s19, [x0, #28]
    1ed0:	2d4b9664 	ldp	s4, s5, [x19, #92]
    1ed4:	1f1004e7 	fmadd	s7, s7, s16, s1
    1ed8:	2d42c414 	ldp	s20, s17, [x0, #20]
    1edc:	bd401003 	ldr	s3, [x0, #16]
    1ee0:	1f001cc0 	fmadd	s0, s6, s0, s7
    1ee4:	bd405a62 	ldr	s2, [x19, #88]
    1ee8:	bd400261 	ldr	s1, [x19]
    1eec:	1e342863 	fadd	s3, s3, s20
    1ef0:	bd400810 	ldr	s16, [x0, #8]
    1ef4:	1f1300a0 	fmadd	s0, s5, s19, s0
    1ef8:	1f120080 	fmadd	s0, s4, s18, s0
    1efc:	1f110040 	fmadd	s0, s2, s17, s0
    1f00:	1f030020 	fmadd	s0, s1, s3, s0
    1f04:	1e302800 	fadd	s0, s0, s16
    1f08:	bc034400 	str	s0, [x0], #52
    1f0c:	eb00003f 	cmp	x1, x0
    1f10:	54fffd01 	b.ne	1eb0 <integrate_predictors+0x80>  // b.any
    1f14:	11000442 	add	w2, w2, #0x1
    1f18:	6b03005f 	cmp	w2, w3
    1f1c:	54fffc21 	b.ne	1ea0 <integrate_predictors+0x70>  // b.any
    1f20:	710002bf 	cmp	w21, #0x0
    1f24:	5400020d 	b.le	1f64 <integrate_predictors+0x134>
    1f28:	510006a1 	sub	w1, w21, #0x1
    1f2c:	9100d282 	add	x2, x20, #0x34
    1f30:	52800683 	mov	w3, #0x34                  	// #52
    1f34:	0f000400 	movi	v0.2s, #0x0
    1f38:	aa1403e0 	mov	x0, x20
    1f3c:	9ba30821 	umaddl	x1, w1, w3, x2
    1f40:	bc434401 	ldr	s1, [x0], #52
    1f44:	1e212800 	fadd	s0, s0, s1
    1f48:	eb01001f 	cmp	x0, x1
    1f4c:	54ffffa1 	b.ne	1f40 <integrate_predictors+0x110>  // b.any
    1f50:	a94153f3 	ldp	x19, x20, [sp, #16]
    1f54:	a9425bf5 	ldp	x21, x22, [sp, #32]
    1f58:	f9401bf7 	ldr	x23, [sp, #48]
    1f5c:	a8c47bfd 	ldp	x29, x30, [sp], #64
    1f60:	d65f03c0 	ret
    1f64:	0f000400 	movi	v0.2s, #0x0
    1f68:	f9401bf7 	ldr	x23, [sp, #48]
    1f6c:	a94153f3 	ldp	x19, x20, [sp, #16]
    1f70:	a9425bf5 	ldp	x21, x22, [sp, #32]
    1f74:	a8c47bfd 	ldp	x29, x30, [sp], #64
    1f78:	d65f03c0 	ret
    1f7c:	d503201f 	nop

0000000000001f80 <difference_predictors_init>:
    1f80:	a9bd7bfd 	stp	x29, x30, [sp, #-48]!
    1f84:	52849264 	mov	w4, #0x2493                	// #9363
    1f88:	72b24924 	movk	w4, #0x9249, lsl #16
    1f8c:	52803863 	mov	w3, #0x1c3                 	// #451
    1f90:	910003fd 	mov	x29, sp
    1f94:	a90153f3 	stp	x19, x20, [sp, #16]
    1f98:	aa0003f3 	mov	x19, x0
    1f9c:	b9403c00 	ldr	w0, [x0, #60]
    1fa0:	f0000014 	adrp	x20, 4000 <_malloc_r+0x618>
    1fa4:	f90013f5 	str	x21, [sp, #32]
    1fa8:	91390294 	add	x20, x20, #0xe40
    1fac:	f9403a75 	ldr	x21, [x19, #112]
    1fb0:	aa1403e2 	mov	x2, x20
    1fb4:	53017c00 	lsr	w0, w0, #1
    1fb8:	52800081 	mov	w1, #0x4                   	// #4
    1fbc:	9ba47c00 	umull	x0, w0, w4
    1fc0:	d362fc00 	lsr	x0, x0, #34
    1fc4:	b9004260 	str	w0, [x19, #64]
    1fc8:	97fffbe8 	bl	f68 <qmalloc>
    1fcc:	f9403a61 	ldr	x1, [x19, #112]
    1fd0:	b9404262 	ldr	w2, [x19, #64]
    1fd4:	f90002a0 	str	x0, [x21]
    1fd8:	aa1303e0 	mov	x0, x19
    1fdc:	f9400021 	ldr	x1, [x1]
    1fe0:	97fffbf2 	bl	fa8 <reinit_vec>
    1fe4:	f9408e75 	ldr	x21, [x19, #280]
    1fe8:	b9403e60 	ldr	w0, [x19, #60]
    1fec:	aa1403e2 	mov	x2, x20
    1ff0:	52800081 	mov	w1, #0x4                   	// #4
    1ff4:	528038e3 	mov	w3, #0x1c7                 	// #455
    1ff8:	97fffbdc 	bl	f68 <qmalloc>
    1ffc:	f9408e61 	ldr	x1, [x19, #280]
    2000:	b9403e62 	ldr	w2, [x19, #60]
    2004:	f90002a0 	str	x0, [x21]
    2008:	aa1303e0 	mov	x0, x19
    200c:	a94153f3 	ldp	x19, x20, [sp, #16]
    2010:	f94013f5 	ldr	x21, [sp, #32]
    2014:	f9400021 	ldr	x1, [x1]
    2018:	a8c37bfd 	ldp	x29, x30, [sp], #48
    201c:	17fffbe3 	b	fa8 <reinit_vec>

0000000000002020 <hydro_2d_init>:
    2020:	a9bd7bfd 	stp	x29, x30, [sp, #-48]!
    2024:	528924a1 	mov	w1, #0x4925                	// #18725
    2028:	72a49241 	movk	w1, #0x2492, lsl #16
    202c:	910003fd 	mov	x29, sp
    2030:	a90153f3 	stp	x19, x20, [sp, #16]
    2034:	aa0003f4 	mov	x20, x0
    2038:	b9403c00 	ldr	w0, [x0, #60]
    203c:	d2800013 	mov	x19, #0x0                   	// #0
    2040:	a9025bf5 	stp	x21, x22, [sp, #32]
    2044:	d0000016 	adrp	x22, 4000 <_malloc_r+0x618>
    2048:	913902d6 	add	x22, x22, #0xe40
    204c:	9ba17c01 	umull	x1, w0, w1
    2050:	d360fc21 	lsr	x1, x1, #32
    2054:	4b010000 	sub	w0, w0, w1
    2058:	0b400420 	add	w0, w1, w0, lsr #1
    205c:	53027c00 	lsr	w0, w0, #2
    2060:	b9004280 	str	w0, [x20, #64]
    2064:	14000002 	b	206c <hydro_2d_init+0x4c>
    2068:	b9404280 	ldr	w0, [x20, #64]
    206c:	f9408a95 	ldr	x21, [x20, #272]
    2070:	531d7001 	lsl	w1, w0, #3
    2074:	4b000020 	sub	w0, w1, w0
    2078:	528066e3 	mov	w3, #0x337                 	// #823
    207c:	aa1603e2 	mov	x2, x22
    2080:	52800081 	mov	w1, #0x4                   	// #4
    2084:	97fffbb9 	bl	f68 <qmalloc>
    2088:	f8336aa0 	str	x0, [x21, x19]
    208c:	91002273 	add	x19, x19, #0x8
    2090:	f101427f 	cmp	x19, #0x50
    2094:	54fffea1 	b.ne	2068 <hydro_2d_init+0x48>  // b.any
    2098:	f9408a81 	ldr	x1, [x20, #272]
    209c:	aa1403e0 	mov	x0, x20
    20a0:	b9404282 	ldr	w2, [x20, #64]
    20a4:	f9400821 	ldr	x1, [x1, #16]
    20a8:	531d7043 	lsl	w3, w2, #3
    20ac:	4b020062 	sub	w2, w3, w2
    20b0:	97fffbbe 	bl	fa8 <reinit_vec>
    20b4:	f9408a81 	ldr	x1, [x20, #272]
    20b8:	aa1403e0 	mov	x0, x20
    20bc:	b9404282 	ldr	w2, [x20, #64]
    20c0:	f9400c21 	ldr	x1, [x1, #24]
    20c4:	531d7043 	lsl	w3, w2, #3
    20c8:	4b020062 	sub	w2, w3, w2
    20cc:	97fffbb7 	bl	fa8 <reinit_vec>
    20d0:	f9408a81 	ldr	x1, [x20, #272]
    20d4:	aa1403e0 	mov	x0, x20
    20d8:	b9404282 	ldr	w2, [x20, #64]
    20dc:	f9401021 	ldr	x1, [x1, #32]
    20e0:	531d7043 	lsl	w3, w2, #3
    20e4:	4b020062 	sub	w2, w3, w2
    20e8:	97fffbb0 	bl	fa8 <reinit_vec>
    20ec:	f9408a81 	ldr	x1, [x20, #272]
    20f0:	aa1403e0 	mov	x0, x20
    20f4:	b9404282 	ldr	w2, [x20, #64]
    20f8:	f9401421 	ldr	x1, [x1, #40]
    20fc:	531d7043 	lsl	w3, w2, #3
    2100:	4b020062 	sub	w2, w3, w2
    2104:	97fffba9 	bl	fa8 <reinit_vec>
    2108:	f9408a81 	ldr	x1, [x20, #272]
    210c:	aa1403e0 	mov	x0, x20
    2110:	b9404282 	ldr	w2, [x20, #64]
    2114:	f9402021 	ldr	x1, [x1, #64]
    2118:	531d7043 	lsl	w3, w2, #3
    211c:	4b020062 	sub	w2, w3, w2
    2120:	97fffba2 	bl	fa8 <reinit_vec>
    2124:	b9404280 	ldr	w0, [x20, #64]
    2128:	531d7001 	lsl	w1, w0, #3
    212c:	6b000021 	subs	w1, w1, w0
    2130:	54000120 	b.eq	2154 <hydro_2d_init+0x134>  // b.none
    2134:	f9408a82 	ldr	x2, [x20, #272]
    2138:	d2800000 	mov	x0, #0x0                   	// #0
    213c:	a9430843 	ldp	x3, x2, [x2, #48]
    2140:	b820787f 	str	wzr, [x3, x0, lsl #2]
    2144:	b820785f 	str	wzr, [x2, x0, lsl #2]
    2148:	91000400 	add	x0, x0, #0x1
    214c:	6b00003f 	cmp	w1, w0
    2150:	54ffff88 	b.hi	2140 <hydro_2d_init+0x120>  // b.pmore
    2154:	a94153f3 	ldp	x19, x20, [sp, #16]
    2158:	a9425bf5 	ldp	x21, x22, [sp, #32]
    215c:	a8c37bfd 	ldp	x29, x30, [sp], #48
    2160:	d65f03c0 	ret
    2164:	d503201f 	nop

0000000000002168 <lin_recurrence_init>:
    2168:	a9bd7bfd 	stp	x29, x30, [sp, #-48]!
    216c:	910003fd 	mov	x29, sp
    2170:	a90153f3 	stp	x19, x20, [sp, #16]
    2174:	aa0003f3 	mov	x19, x0
    2178:	a9025bf5 	stp	x21, x22, [sp, #32]
    217c:	d0000015 	adrp	x21, 4000 <_malloc_r+0x618>
    2180:	b9403c00 	ldr	w0, [x0, #60]
    2184:	913902b5 	add	x21, x21, #0xe40
    2188:	d2800014 	mov	x20, #0x0                   	// #0
    218c:	b9004260 	str	w0, [x19, #64]
    2190:	f9403a76 	ldr	x22, [x19, #112]
    2194:	528077c3 	mov	w3, #0x3be                 	// #958
    2198:	aa1503e2 	mov	x2, x21
    219c:	52800081 	mov	w1, #0x4                   	// #4
    21a0:	97fffb72 	bl	f68 <qmalloc>
    21a4:	f8346ac0 	str	x0, [x22, x20]
    21a8:	91002294 	add	x20, x20, #0x8
    21ac:	f100629f 	cmp	x20, #0x18
    21b0:	54000060 	b.eq	21bc <lin_recurrence_init+0x54>  // b.none
    21b4:	b9404260 	ldr	w0, [x19, #64]
    21b8:	17fffff6 	b	2190 <lin_recurrence_init+0x28>
    21bc:	f9403a61 	ldr	x1, [x19, #112]
    21c0:	aa1303e0 	mov	x0, x19
    21c4:	b9404262 	ldr	w2, [x19, #64]
    21c8:	f9400021 	ldr	x1, [x1]
    21cc:	97fffb77 	bl	fa8 <reinit_vec>
    21d0:	f9403a61 	ldr	x1, [x19, #112]
    21d4:	aa1303e0 	mov	x0, x19
    21d8:	a9425bf5 	ldp	x21, x22, [sp, #32]
    21dc:	b9404262 	ldr	w2, [x19, #64]
    21e0:	f9400421 	ldr	x1, [x1, #8]
    21e4:	a94153f3 	ldp	x19, x20, [sp, #16]
    21e8:	a8c37bfd 	ldp	x29, x30, [sp], #48
    21ec:	17fffb6f 	b	fa8 <reinit_vec>

00000000000021f0 <tri_diagonal_init>:
    21f0:	a9bd7bfd 	stp	x29, x30, [sp, #-48]!
    21f4:	910003fd 	mov	x29, sp
    21f8:	a90153f3 	stp	x19, x20, [sp, #16]
    21fc:	aa0003f3 	mov	x19, x0
    2200:	a9025bf5 	stp	x21, x22, [sp, #32]
    2204:	d0000015 	adrp	x21, 4000 <_malloc_r+0x618>
    2208:	b9403c00 	ldr	w0, [x0, #60]
    220c:	913902b5 	add	x21, x21, #0xe40
    2210:	d2800014 	mov	x20, #0x0                   	// #0
    2214:	b9004260 	str	w0, [x19, #64]
    2218:	f9403a76 	ldr	x22, [x19, #112]
    221c:	52809463 	mov	w3, #0x4a3                 	// #1187
    2220:	aa1503e2 	mov	x2, x21
    2224:	52800081 	mov	w1, #0x4                   	// #4
    2228:	97fffb50 	bl	f68 <qmalloc>
    222c:	f9403a61 	ldr	x1, [x19, #112]
    2230:	b9404262 	ldr	w2, [x19, #64]
    2234:	f8346ac0 	str	x0, [x22, x20]
    2238:	aa1303e0 	mov	x0, x19
    223c:	f8746821 	ldr	x1, [x1, x20]
    2240:	91002294 	add	x20, x20, #0x8
    2244:	97fffb59 	bl	fa8 <reinit_vec>
    2248:	f100629f 	cmp	x20, #0x18
    224c:	54000060 	b.eq	2258 <tri_diagonal_init+0x68>  // b.none
    2250:	b9404260 	ldr	w0, [x19, #64]
    2254:	17fffff1 	b	2218 <tri_diagonal_init+0x28>
    2258:	a94153f3 	ldp	x19, x20, [sp, #16]
    225c:	a9425bf5 	ldp	x21, x22, [sp, #32]
    2260:	a8c37bfd 	ldp	x29, x30, [sp], #48
    2264:	d65f03c0 	ret

0000000000002268 <hydro_fragment_fini>:
    2268:	a9be7bfd 	stp	x29, x30, [sp, #-32]!
    226c:	910003fd 	mov	x29, sp
    2270:	a90153f3 	stp	x19, x20, [sp, #16]
    2274:	aa0003f4 	mov	x20, x0
    2278:	d2800013 	mov	x19, #0x0                   	// #0
    227c:	f9403a80 	ldr	x0, [x20, #112]
    2280:	f8736800 	ldr	x0, [x0, x19]
    2284:	91002273 	add	x19, x19, #0x8
    2288:	940005d4 	bl	39d8 <free>
    228c:	f100827f 	cmp	x19, #0x20
    2290:	54ffff61 	b.ne	227c <hydro_fragment_fini+0x14>  // b.any
    2294:	a94153f3 	ldp	x19, x20, [sp, #16]
    2298:	a8c27bfd 	ldp	x29, x30, [sp], #32
    229c:	d65f03c0 	ret

00000000000022a0 <state_fragment_fini>:
    22a0:	17fffff2 	b	2268 <hydro_fragment_fini>
    22a4:	d503201f 	nop

00000000000022a8 <cholesky_fini>:
    22a8:	a9be7bfd 	stp	x29, x30, [sp, #-32]!
    22ac:	910003fd 	mov	x29, sp
    22b0:	f9000bf3 	str	x19, [sp, #16]
    22b4:	aa0003f3 	mov	x19, x0
    22b8:	f9403800 	ldr	x0, [x0, #112]
    22bc:	f9400000 	ldr	x0, [x0]
    22c0:	940005c6 	bl	39d8 <free>
    22c4:	f9403a60 	ldr	x0, [x19, #112]
    22c8:	f9400bf3 	ldr	x19, [sp, #16]
    22cc:	a8c27bfd 	ldp	x29, x30, [sp], #32
    22d0:	f9400400 	ldr	x0, [x0, #8]
    22d4:	140005c1 	b	39d8 <free>

00000000000022d8 <inner_product_fini>:
    22d8:	17fffff4 	b	22a8 <cholesky_fini>
    22dc:	d503201f 	nop

00000000000022e0 <linear_recurrence_fini>:
    22e0:	a9be7bfd 	stp	x29, x30, [sp, #-32]!
    22e4:	910003fd 	mov	x29, sp
    22e8:	f9000bf3 	str	x19, [sp, #16]
    22ec:	aa0003f3 	mov	x19, x0
    22f0:	f9403800 	ldr	x0, [x0, #112]
    22f4:	f9400000 	ldr	x0, [x0]
    22f8:	940005b8 	bl	39d8 <free>
    22fc:	f9408a60 	ldr	x0, [x19, #272]
    2300:	f9400bf3 	ldr	x19, [sp, #16]
    2304:	a8c27bfd 	ldp	x29, x30, [sp], #32
    2308:	f9400000 	ldr	x0, [x0]
    230c:	140005b3 	b	39d8 <free>

0000000000002310 <integrate_predictors_fini>:
    2310:	a9be7bfd 	stp	x29, x30, [sp, #-32]!
    2314:	910003fd 	mov	x29, sp
    2318:	f9000bf3 	str	x19, [sp, #16]
    231c:	aa0003f3 	mov	x19, x0
    2320:	f9403800 	ldr	x0, [x0, #112]
    2324:	f9400000 	ldr	x0, [x0]
    2328:	940005ac 	bl	39d8 <free>
    232c:	f9408e60 	ldr	x0, [x19, #280]
    2330:	f9400bf3 	ldr	x19, [sp, #16]
    2334:	a8c27bfd 	ldp	x29, x30, [sp], #32
    2338:	f9400000 	ldr	x0, [x0]
    233c:	140005a7 	b	39d8 <free>

0000000000002340 <difference_predictors_fini>:
    2340:	17fffff4 	b	2310 <integrate_predictors_fini>
    2344:	d503201f 	nop

0000000000002348 <pic_2d_fini>:
    2348:	a9be7bfd 	stp	x29, x30, [sp, #-32]!
    234c:	910003fd 	mov	x29, sp
    2350:	a90153f3 	stp	x19, x20, [sp, #16]
    2354:	aa0003f4 	mov	x20, x0
    2358:	d2800013 	mov	x19, #0x0                   	// #0
    235c:	d503201f 	nop
    2360:	f9403a80 	ldr	x0, [x20, #112]
    2364:	f8736800 	ldr	x0, [x0, x19]
    2368:	91002273 	add	x19, x19, #0x8
    236c:	9400059b 	bl	39d8 <free>
    2370:	f100c27f 	cmp	x19, #0x30
    2374:	54ffff61 	b.ne	2360 <pic_2d_fini+0x18>  // b.any
    2378:	f9403e80 	ldr	x0, [x20, #120]
    237c:	f9400000 	ldr	x0, [x0]
    2380:	94000596 	bl	39d8 <free>
    2384:	f9403e80 	ldr	x0, [x20, #120]
    2388:	f9400400 	ldr	x0, [x0, #8]
    238c:	94000593 	bl	39d8 <free>
    2390:	f9408a80 	ldr	x0, [x20, #272]
    2394:	f9400400 	ldr	x0, [x0, #8]
    2398:	94000590 	bl	39d8 <free>
    239c:	f9408a80 	ldr	x0, [x20, #272]
    23a0:	f9400800 	ldr	x0, [x0, #16]
    23a4:	9400058d 	bl	39d8 <free>
    23a8:	f9408a80 	ldr	x0, [x20, #272]
    23ac:	a94153f3 	ldp	x19, x20, [sp, #16]
    23b0:	f9400c00 	ldr	x0, [x0, #24]
    23b4:	a8c27bfd 	ldp	x29, x30, [sp], #32
    23b8:	14000588 	b	39d8 <free>
    23bc:	d503201f 	nop

00000000000023c0 <pic_1d_fini>:
    23c0:	a9be7bfd 	stp	x29, x30, [sp, #-32]!
    23c4:	910003fd 	mov	x29, sp
    23c8:	a90153f3 	stp	x19, x20, [sp, #16]
    23cc:	aa0003f4 	mov	x20, x0
    23d0:	d2800013 	mov	x19, #0x0                   	// #0
    23d4:	d503201f 	nop
    23d8:	f9403a80 	ldr	x0, [x20, #112]
    23dc:	f8736800 	ldr	x0, [x0, x19]
    23e0:	91002273 	add	x19, x19, #0x8
    23e4:	9400057d 	bl	39d8 <free>
    23e8:	f101427f 	cmp	x19, #0x50
    23ec:	54ffff61 	b.ne	23d8 <pic_1d_fini+0x18>  // b.any
    23f0:	f9403e80 	ldr	x0, [x20, #120]
    23f4:	f9400000 	ldr	x0, [x0]
    23f8:	94000578 	bl	39d8 <free>
    23fc:	f9403e80 	ldr	x0, [x20, #120]
    2400:	a94153f3 	ldp	x19, x20, [sp, #16]
    2404:	f9400400 	ldr	x0, [x0, #8]
    2408:	a8c27bfd 	ldp	x29, x30, [sp], #32
    240c:	14000573 	b	39d8 <free>

0000000000002410 <hydro_2d_fini>:
    2410:	a9be7bfd 	stp	x29, x30, [sp, #-32]!
    2414:	910003fd 	mov	x29, sp
    2418:	a90153f3 	stp	x19, x20, [sp, #16]
    241c:	aa0003f4 	mov	x20, x0
    2420:	d2800013 	mov	x19, #0x0                   	// #0
    2424:	d503201f 	nop
    2428:	f9408a80 	ldr	x0, [x20, #272]
    242c:	f8736800 	ldr	x0, [x0, x19]
    2430:	91002273 	add	x19, x19, #0x8
    2434:	94000569 	bl	39d8 <free>
    2438:	f101427f 	cmp	x19, #0x50
    243c:	54ffff61 	b.ne	2428 <hydro_2d_fini+0x18>  // b.any
    2440:	a94153f3 	ldp	x19, x20, [sp, #16]
    2444:	a8c27bfd 	ldp	x29, x30, [sp], #32
    2448:	d65f03c0 	ret
    244c:	d503201f 	nop

0000000000002450 <lin_recurrence_fini>:
    2450:	a9be7bfd 	stp	x29, x30, [sp, #-32]!
    2454:	910003fd 	mov	x29, sp
    2458:	f9000bf3 	str	x19, [sp, #16]
    245c:	aa0003f3 	mov	x19, x0
    2460:	f9403800 	ldr	x0, [x0, #112]
    2464:	f9400000 	ldr	x0, [x0]
    2468:	9400055c 	bl	39d8 <free>
    246c:	f9403a60 	ldr	x0, [x19, #112]
    2470:	f9400400 	ldr	x0, [x0, #8]
    2474:	94000559 	bl	39d8 <free>
    2478:	f9403a60 	ldr	x0, [x19, #112]
    247c:	f9400bf3 	ldr	x19, [sp, #16]
    2480:	a8c27bfd 	ldp	x29, x30, [sp], #32
    2484:	f9400800 	ldr	x0, [x0, #16]
    2488:	14000554 	b	39d8 <free>
    248c:	d503201f 	nop

0000000000002490 <tri_diagonal_fini>:
    2490:	17fffff0 	b	2450 <lin_recurrence_fini>
    2494:	d503201f 	nop

0000000000002498 <matmul_fini>:
    2498:	a9be7bfd 	stp	x29, x30, [sp, #-32]!
    249c:	910003fd 	mov	x29, sp
    24a0:	f9000bf3 	str	x19, [sp, #16]
    24a4:	aa0003f3 	mov	x19, x0
    24a8:	f9408800 	ldr	x0, [x0, #272]
    24ac:	f9400000 	ldr	x0, [x0]
    24b0:	9400054a 	bl	39d8 <free>
    24b4:	f9408a60 	ldr	x0, [x19, #272]
    24b8:	f9400400 	ldr	x0, [x0, #8]
    24bc:	94000547 	bl	39d8 <free>
    24c0:	f9408a60 	ldr	x0, [x19, #272]
    24c4:	f9400bf3 	ldr	x19, [sp, #16]
    24c8:	a8c27bfd 	ldp	x29, x30, [sp], #32
    24cc:	f9400800 	ldr	x0, [x0, #16]
    24d0:	14000542 	b	39d8 <free>
    24d4:	d503201f 	nop

00000000000024d8 <hydro_2d_implicit_fini>:
    24d8:	a9be7bfd 	stp	x29, x30, [sp, #-32]!
    24dc:	910003fd 	mov	x29, sp
    24e0:	a90153f3 	stp	x19, x20, [sp, #16]
    24e4:	aa0003f4 	mov	x20, x0
    24e8:	d2800013 	mov	x19, #0x0                   	// #0
    24ec:	d503201f 	nop
    24f0:	f9408a80 	ldr	x0, [x20, #272]
    24f4:	f8736800 	ldr	x0, [x0, x19]
    24f8:	91002273 	add	x19, x19, #0x8
    24fc:	94000537 	bl	39d8 <free>
    2500:	f100c27f 	cmp	x19, #0x30
    2504:	54ffff61 	b.ne	24f0 <hydro_2d_implicit_fini+0x18>  // b.any
    2508:	a94153f3 	ldp	x19, x20, [sp, #16]
    250c:	a8c27bfd 	ldp	x29, x30, [sp], #32
    2510:	d65f03c0 	ret
    2514:	d503201f 	nop

0000000000002518 <pic_2d_init>:
    2518:	a9bc7bfd 	stp	x29, x30, [sp, #-64]!
    251c:	528043c3 	mov	w3, #0x21e                 	// #542
    2520:	52800081 	mov	w1, #0x4                   	// #4
    2524:	910003fd 	mov	x29, sp
    2528:	a90153f3 	stp	x19, x20, [sp, #16]
    252c:	aa0003f3 	mov	x19, x0
    2530:	a9025bf5 	stp	x21, x22, [sp, #32]
    2534:	d0000016 	adrp	x22, 4000 <_malloc_r+0x618>
    2538:	a90363f7 	stp	x23, x24, [sp, #48]
    253c:	913902d6 	add	x22, x22, #0xe40
    2540:	b9403c00 	ldr	w0, [x0, #60]
    2544:	aa1603e2 	mov	x2, x22
    2548:	f9403a78 	ldr	x24, [x19, #112]
    254c:	aa1603f5 	mov	x21, x22
    2550:	b9004260 	str	w0, [x19, #64]
    2554:	52800c80 	mov	w0, #0x64                  	// #100
    2558:	d2800114 	mov	x20, #0x8                   	// #8
    255c:	97fffa83 	bl	f68 <qmalloc>
    2560:	f9403a77 	ldr	x23, [x19, #112]
    2564:	f9000300 	str	x0, [x24]
    2568:	528043e3 	mov	w3, #0x21f                 	// #543
    256c:	aa1603e2 	mov	x2, x22
    2570:	52800081 	mov	w1, #0x4                   	// #4
    2574:	52800c80 	mov	w0, #0x64                  	// #100
    2578:	97fffa7c 	bl	f68 <qmalloc>
    257c:	f9403a61 	ldr	x1, [x19, #112]
    2580:	52800c82 	mov	w2, #0x64                  	// #100
    2584:	f90006e0 	str	x0, [x23, #8]
    2588:	aa1303e0 	mov	x0, x19
    258c:	f9400021 	ldr	x1, [x1]
    2590:	97fffa86 	bl	fa8 <reinit_vec>
    2594:	f9403a61 	ldr	x1, [x19, #112]
    2598:	52800c82 	mov	w2, #0x64                  	// #100
    259c:	aa1303e0 	mov	x0, x19
    25a0:	f9400421 	ldr	x1, [x1, #8]
    25a4:	97fffa81 	bl	fa8 <reinit_vec>
    25a8:	f9403e78 	ldr	x24, [x19, #120]
    25ac:	52804483 	mov	w3, #0x224                 	// #548
    25b0:	aa1603e2 	mov	x2, x22
    25b4:	52800081 	mov	w1, #0x4                   	// #4
    25b8:	52800c80 	mov	w0, #0x64                  	// #100
    25bc:	97fffa6b 	bl	f68 <qmalloc>
    25c0:	f9403e77 	ldr	x23, [x19, #120]
    25c4:	f9000300 	str	x0, [x24]
    25c8:	528044a3 	mov	w3, #0x225                 	// #549
    25cc:	aa1603e2 	mov	x2, x22
    25d0:	52800081 	mov	w1, #0x4                   	// #4
    25d4:	52800c80 	mov	w0, #0x64                  	// #100
    25d8:	97fffa64 	bl	f68 <qmalloc>
    25dc:	f9403e61 	ldr	x1, [x19, #120]
    25e0:	52800023 	mov	w3, #0x1                   	// #1
    25e4:	f90006e0 	str	x0, [x23, #8]
    25e8:	52800c82 	mov	w2, #0x64                  	// #100
    25ec:	aa1303e0 	mov	x0, x19
    25f0:	f9400021 	ldr	x1, [x1]
    25f4:	97fffaa3 	bl	1080 <reinit_ivec>
    25f8:	f9403e61 	ldr	x1, [x19, #120]
    25fc:	52800023 	mov	w3, #0x1                   	// #1
    2600:	52800c82 	mov	w2, #0x64                  	// #100
    2604:	aa1303e0 	mov	x0, x19
    2608:	f9400421 	ldr	x1, [x1, #8]
    260c:	97fffa9d 	bl	1080 <reinit_ivec>
    2610:	f9408a76 	ldr	x22, [x19, #272]
    2614:	528045a3 	mov	w3, #0x22d                 	// #557
    2618:	aa1503e2 	mov	x2, x21
    261c:	52800081 	mov	w1, #0x4                   	// #4
    2620:	52820080 	mov	w0, #0x1004                	// #4100
    2624:	97fffa51 	bl	f68 <qmalloc>
    2628:	f9408a61 	ldr	x1, [x19, #272]
    262c:	52820082 	mov	w2, #0x1004                	// #4100
    2630:	f8346ac0 	str	x0, [x22, x20]
    2634:	aa1303e0 	mov	x0, x19
    2638:	f8746821 	ldr	x1, [x1, x20]
    263c:	91002294 	add	x20, x20, #0x8
    2640:	97fffa5a 	bl	fa8 <reinit_vec>
    2644:	f100829f 	cmp	x20, #0x20
    2648:	54fffe41 	b.ne	2610 <pic_2d_init+0xf8>  // b.any
    264c:	d2800214 	mov	x20, #0x10                  	// #16
    2650:	b9404260 	ldr	w0, [x19, #64]
    2654:	52804663 	mov	w3, #0x233                 	// #563
    2658:	f9403a76 	ldr	x22, [x19, #112]
    265c:	aa1503e2 	mov	x2, x21
    2660:	52800081 	mov	w1, #0x4                   	// #4
    2664:	97fffa41 	bl	f68 <qmalloc>
    2668:	f8346ac0 	str	x0, [x22, x20]
    266c:	91002294 	add	x20, x20, #0x8
    2670:	f100c29f 	cmp	x20, #0x30
    2674:	54fffee1 	b.ne	2650 <pic_2d_init+0x138>  // b.any
    2678:	b9404261 	ldr	w1, [x19, #64]
    267c:	340001c1 	cbz	w1, 26b4 <pic_2d_init+0x19c>
    2680:	f9403a62 	ldr	x2, [x19, #112]
    2684:	d2800000 	mov	x0, #0x0                   	// #0
    2688:	1e2c1000 	fmov	s0, #5.000000000000000000e-01
    268c:	a9411045 	ldp	x5, x4, [x2, #16]
    2690:	a9420843 	ldp	x3, x2, [x2, #32]
    2694:	d503201f 	nop
    2698:	b82078bf 	str	wzr, [x5, x0, lsl #2]
    269c:	bc207880 	str	s0, [x4, x0, lsl #2]
    26a0:	b820787f 	str	wzr, [x3, x0, lsl #2]
    26a4:	bc207840 	str	s0, [x2, x0, lsl #2]
    26a8:	91000400 	add	x0, x0, #0x1
    26ac:	6b00003f 	cmp	w1, w0
    26b0:	54ffff48 	b.hi	2698 <pic_2d_init+0x180>  // b.pmore
    26b4:	a94153f3 	ldp	x19, x20, [sp, #16]
    26b8:	a9425bf5 	ldp	x21, x22, [sp, #32]
    26bc:	a94363f7 	ldp	x23, x24, [sp, #48]
    26c0:	a8c47bfd 	ldp	x29, x30, [sp], #64
    26c4:	d65f03c0 	ret

00000000000026c8 <matmul_init>:
    26c8:	a9bd7bfd 	stp	x29, x30, [sp, #-48]!
    26cc:	5290a3e5 	mov	w5, #0x851f                	// #34079
    26d0:	72aa3d65 	movk	w5, #0x51eb, lsl #16
    26d4:	52808183 	mov	w3, #0x40c                 	// #1036
    26d8:	910003fd 	mov	x29, sp
    26dc:	b9403c04 	ldr	w4, [x0, #60]
    26e0:	52800081 	mov	w1, #0x4                   	// #4
    26e4:	a90153f3 	stp	x19, x20, [sp, #16]
    26e8:	aa0003f3 	mov	x19, x0
    26ec:	2a0403e0 	mov	w0, w4
    26f0:	f90013f5 	str	x21, [sp, #32]
    26f4:	d0000014 	adrp	x20, 4000 <_malloc_r+0x618>
    26f8:	91390294 	add	x20, x20, #0xe40
    26fc:	9ba57c84 	umull	x4, w4, w5
    2700:	f9408a75 	ldr	x21, [x19, #272]
    2704:	aa1403e2 	mov	x2, x20
    2708:	d363fc84 	lsr	x4, x4, #35
    270c:	b9004264 	str	w4, [x19, #64]
    2710:	97fffa16 	bl	f68 <qmalloc>
    2714:	f90002a0 	str	x0, [x21]
    2718:	b9403e60 	ldr	w0, [x19, #60]
    271c:	aa1403e2 	mov	x2, x20
    2720:	f9408a75 	ldr	x21, [x19, #272]
    2724:	528081a3 	mov	w3, #0x40d                 	// #1037
    2728:	52800081 	mov	w1, #0x4                   	// #4
    272c:	97fffa0f 	bl	f68 <qmalloc>
    2730:	b9403e64 	ldr	w4, [x19, #60]
    2734:	528081c3 	mov	w3, #0x40e                 	// #1038
    2738:	f90006a0 	str	x0, [x21, #8]
    273c:	aa1403e2 	mov	x2, x20
    2740:	b9404660 	ldr	w0, [x19, #68]
    2744:	52800081 	mov	w1, #0x4                   	// #4
    2748:	f9408a75 	ldr	x21, [x19, #272]
    274c:	0b040000 	add	w0, w0, w4
    2750:	97fffa06 	bl	f68 <qmalloc>
    2754:	f9408a62 	ldr	x2, [x19, #272]
    2758:	b9403e61 	ldr	w1, [x19, #60]
    275c:	f9000aa0 	str	x0, [x21, #16]
    2760:	f9400040 	ldr	x0, [x2]
    2764:	97fffa97 	bl	11c0 <zero_vec>
    2768:	f9408a61 	ldr	x1, [x19, #272]
    276c:	aa1303e0 	mov	x0, x19
    2770:	b9403e62 	ldr	w2, [x19, #60]
    2774:	f9400421 	ldr	x1, [x1, #8]
    2778:	97fffa0c 	bl	fa8 <reinit_vec>
    277c:	f94013f5 	ldr	x21, [sp, #32]
    2780:	f9408a61 	ldr	x1, [x19, #272]
    2784:	aa1303e0 	mov	x0, x19
    2788:	b9403e62 	ldr	w2, [x19, #60]
    278c:	b9404663 	ldr	w3, [x19, #68]
    2790:	f9400821 	ldr	x1, [x1, #16]
    2794:	a94153f3 	ldp	x19, x20, [sp, #16]
    2798:	0b020062 	add	w2, w3, w2
    279c:	a8c37bfd 	ldp	x29, x30, [sp], #48
    27a0:	17fffa02 	b	fa8 <reinit_vec>
    27a4:	d503201f 	nop

00000000000027a8 <hydro_2d_implicit_init>:
    27a8:	a9bd7bfd 	stp	x29, x30, [sp, #-48]!
    27ac:	d0000002 	adrp	x2, 4000 <_malloc_r+0x618>
    27b0:	91390042 	add	x2, x2, #0xe40
    27b4:	52800081 	mov	w1, #0x4                   	// #4
    27b8:	910003fd 	mov	x29, sp
    27bc:	a90153f3 	stp	x19, x20, [sp, #16]
    27c0:	aa0003f3 	mov	x19, x0
    27c4:	52955560 	mov	w0, #0xaaab                	// #43691
    27c8:	a9025bf5 	stp	x21, x22, [sp, #32]
    27cc:	72b55540 	movk	w0, #0xaaaa, lsl #16
    27d0:	aa0203f6 	mov	x22, x2
    27d4:	b9403e64 	ldr	w4, [x19, #60]
    27d8:	52808a63 	mov	w3, #0x453                 	// #1107
    27dc:	f9408a75 	ldr	x21, [x19, #272]
    27e0:	d2800114 	mov	x20, #0x8                   	// #8
    27e4:	9ba07c80 	umull	x0, w4, w0
    27e8:	d362fc00 	lsr	x0, x0, #34
    27ec:	b9004260 	str	w0, [x19, #64]
    27f0:	0b000080 	add	w0, w4, w0
    27f4:	97fff9dd 	bl	f68 <qmalloc>
    27f8:	f9408a62 	ldr	x2, [x19, #272]
    27fc:	b9403e61 	ldr	w1, [x19, #60]
    2800:	f90002a0 	str	x0, [x21]
    2804:	f9400040 	ldr	x0, [x2]
    2808:	97fffa6e 	bl	11c0 <zero_vec>
    280c:	b9403e60 	ldr	w0, [x19, #60]
    2810:	52808b23 	mov	w3, #0x459                 	// #1113
    2814:	f9408a75 	ldr	x21, [x19, #272]
    2818:	aa1603e2 	mov	x2, x22
    281c:	52800081 	mov	w1, #0x4                   	// #4
    2820:	97fff9d2 	bl	f68 <qmalloc>
    2824:	f9408a61 	ldr	x1, [x19, #272]
    2828:	b9403e62 	ldr	w2, [x19, #60]
    282c:	f8346aa0 	str	x0, [x21, x20]
    2830:	aa1303e0 	mov	x0, x19
    2834:	f8746821 	ldr	x1, [x1, x20]
    2838:	91002294 	add	x20, x20, #0x8
    283c:	97fff9db 	bl	fa8 <reinit_vec>
    2840:	f100c29f 	cmp	x20, #0x30
    2844:	54fffe41 	b.ne	280c <hydro_2d_implicit_init+0x64>  // b.any
    2848:	a94153f3 	ldp	x19, x20, [sp, #16]
    284c:	a9425bf5 	ldp	x21, x22, [sp, #32]
    2850:	a8c37bfd 	ldp	x29, x30, [sp], #48
    2854:	d65f03c0 	ret

0000000000002858 <pic_1d_init>:
    2858:	a9bd7bfd 	stp	x29, x30, [sp, #-48]!
    285c:	910003fd 	mov	x29, sp
    2860:	a90153f3 	stp	x19, x20, [sp, #16]
    2864:	aa0003f3 	mov	x19, x0
    2868:	b9403c00 	ldr	w0, [x0, #60]
    286c:	d2800014 	mov	x20, #0x0                   	// #0
    2870:	a9025bf5 	stp	x21, x22, [sp, #32]
    2874:	d0000015 	adrp	x21, 4000 <_malloc_r+0x618>
    2878:	51000400 	sub	w0, w0, #0x1
    287c:	913902b5 	add	x21, x21, #0xe40
    2880:	2a400400 	orr	w0, w0, w0, lsr #1
    2884:	2a400800 	orr	w0, w0, w0, lsr #2
    2888:	2a401000 	orr	w0, w0, w0, lsr #4
    288c:	2a402000 	orr	w0, w0, w0, lsr #8
    2890:	2a404000 	orr	w0, w0, w0, lsr #16
    2894:	11000400 	add	w0, w0, #0x1
    2898:	53017c00 	lsr	w0, w0, #1
    289c:	b9004260 	str	w0, [x19, #64]
    28a0:	f9403a76 	ldr	x22, [x19, #112]
    28a4:	52805763 	mov	w3, #0x2bb                 	// #699
    28a8:	aa1503e2 	mov	x2, x21
    28ac:	52800081 	mov	w1, #0x4                   	// #4
    28b0:	97fff9ae 	bl	f68 <qmalloc>
    28b4:	f9403a62 	ldr	x2, [x19, #112]
    28b8:	b9404261 	ldr	w1, [x19, #64]
    28bc:	f8346ac0 	str	x0, [x22, x20]
    28c0:	f8746840 	ldr	x0, [x2, x20]
    28c4:	91002294 	add	x20, x20, #0x8
    28c8:	97fffa3e 	bl	11c0 <zero_vec>
    28cc:	f101429f 	cmp	x20, #0x50
    28d0:	b9404260 	ldr	w0, [x19, #64]
    28d4:	54fffe61 	b.ne	28a0 <pic_1d_init+0x48>  // b.any
    28d8:	f9403e74 	ldr	x20, [x19, #120]
    28dc:	aa1503e2 	mov	x2, x21
    28e0:	52805823 	mov	w3, #0x2c1                 	// #705
    28e4:	52800081 	mov	w1, #0x4                   	// #4
    28e8:	97fff9a0 	bl	f68 <qmalloc>
    28ec:	f9000280 	str	x0, [x20]
    28f0:	52805823 	mov	w3, #0x2c1                 	// #705
    28f4:	b9404260 	ldr	w0, [x19, #64]
    28f8:	aa1503e2 	mov	x2, x21
    28fc:	f9403e74 	ldr	x20, [x19, #120]
    2900:	52800081 	mov	w1, #0x4                   	// #4
    2904:	97fff999 	bl	f68 <qmalloc>
    2908:	f9403a61 	ldr	x1, [x19, #112]
    290c:	b9404262 	ldr	w2, [x19, #64]
    2910:	f9401821 	ldr	x1, [x1, #48]
    2914:	f9000680 	str	x0, [x20, #8]
    2918:	aa1303e0 	mov	x0, x19
    291c:	97fff9a3 	bl	fa8 <reinit_vec>
    2920:	f9403e61 	ldr	x1, [x19, #120]
    2924:	aa1303e0 	mov	x0, x19
    2928:	b9404262 	ldr	w2, [x19, #64]
    292c:	a94153f3 	ldp	x19, x20, [sp, #16]
    2930:	51000443 	sub	w3, w2, #0x1
    2934:	a9425bf5 	ldp	x21, x22, [sp, #32]
    2938:	f9400021 	ldr	x1, [x1]
    293c:	a8c37bfd 	ldp	x29, x30, [sp], #48
    2940:	17fff9b4 	b	1010 <reinit_ivec_pos>
    2944:	d503201f 	nop

0000000000002948 <get_array_feedback.part.0>:
    2948:	0f000400 	movi	v0.2s, #0x0
    294c:	7100003f 	cmp	w1, #0x0
    2950:	540001ad 	b.le	2984 <get_array_feedback.part.0+0x3c>
    2954:	d2800002 	mov	x2, #0x0                   	// #0
    2958:	14000005 	b	296c <get_array_feedback.part.0+0x24>
    295c:	91000442 	add	x2, x2, #0x1
    2960:	1e212800 	fadd	s0, s0, s1
    2964:	6b02003f 	cmp	w1, w2
    2968:	540000ed 	b.le	2984 <get_array_feedback.part.0+0x3c>
    296c:	bc627801 	ldr	s1, [x0, x2, lsl #2]
    2970:	3707ff62 	tbnz	w2, #0, 295c <get_array_feedback.part.0+0x14>
    2974:	91000442 	add	x2, x2, #0x1
    2978:	1e213800 	fsub	s0, s0, s1
    297c:	6b02003f 	cmp	w1, w2
    2980:	54ffff6c 	b.gt	296c <get_array_feedback.part.0+0x24>
    2984:	1e220021 	scvtf	s1, w1
    2988:	1e211800 	fdiv	s0, s0, s1
    298c:	d65f03c0 	ret

0000000000002990 <hydro_fragment>:
    2990:	f9403802 	ldr	x2, [x0, #112]
    2994:	52800027 	mov	w7, #0x1                   	// #1
    2998:	29482001 	ldp	w1, w8, [x0, #64]
    299c:	a9411043 	ldp	x3, x4, [x2, #16]
    29a0:	a9401840 	ldp	x0, x6, [x2]
    29a4:	2d401085 	ldp	s5, s4, [x4]
    29a8:	bd400883 	ldr	s3, [x4, #8]
    29ac:	34000248 	cbz	w8, 29f4 <hydro_fragment+0x64>
    29b0:	d2800002 	mov	x2, #0x0                   	// #0
    29b4:	340001a1 	cbz	w1, 29e8 <hydro_fragment+0x58>
    29b8:	11002c45 	add	w5, w2, #0xb
    29bc:	11002844 	add	w4, w2, #0xa
    29c0:	bc6278c0 	ldr	s0, [x6, x2, lsl #2]
    29c4:	bc657862 	ldr	s2, [x3, x5, lsl #2]
    29c8:	bc647861 	ldr	s1, [x3, x4, lsl #2]
    29cc:	1e220862 	fmul	s2, s3, s2
    29d0:	1f040821 	fmadd	s1, s1, s4, s2
    29d4:	1f011400 	fmadd	s0, s0, s1, s5
    29d8:	bc227800 	str	s0, [x0, x2, lsl #2]
    29dc:	91000442 	add	x2, x2, #0x1
    29e0:	6b02003f 	cmp	w1, w2
    29e4:	54fffea8 	b.hi	29b8 <hydro_fragment+0x28>  // b.pmore
    29e8:	110004e7 	add	w7, w7, #0x1
    29ec:	6b07011f 	cmp	w8, w7
    29f0:	54fffe02 	b.cs	29b0 <hydro_fragment+0x20>  // b.hs, b.nlast
    29f4:	0f000402 	movi	v2.2s, #0x0
    29f8:	34000101 	cbz	w1, 2a18 <hydro_fragment+0x88>
    29fc:	a9bf7bfd 	stp	x29, x30, [sp, #-16]!
    2a00:	910003fd 	mov	x29, sp
    2a04:	97ffffd1 	bl	2948 <get_array_feedback.part.0>
    2a08:	1e222802 	fadd	s2, s0, s2
    2a0c:	a8c17bfd 	ldp	x29, x30, [sp], #16
    2a10:	1e204040 	fmov	s0, s2
    2a14:	d65f03c0 	ret
    2a18:	1e204040 	fmov	s0, s2
    2a1c:	d65f03c0 	ret

0000000000002a20 <cholesky>:
    2a20:	29482c01 	ldp	w1, w11, [x0, #64]
    2a24:	f9403802 	ldr	x2, [x0, #112]
    2a28:	a9401840 	ldp	x0, x6, [x2]
    2a2c:	340003eb 	cbz	w11, 2aa8 <cholesky+0x88>
    2a30:	53017c2c 	lsr	w12, w1, #1
    2a34:	5280002a 	mov	w10, #0x1                   	// #1
    2a38:	2a0c03e9 	mov	w9, w12
    2a3c:	52800002 	mov	w2, #0x0                   	// #0
    2a40:	0b090048 	add	w8, w2, w9
    2a44:	11000442 	add	w2, w2, #0x1
    2a48:	53017d29 	lsr	w9, w9, #1
    2a4c:	51000503 	sub	w3, w8, #0x1
    2a50:	6b02011f 	cmp	w8, w2
    2a54:	54000209 	b.ls	2a94 <cholesky+0x74>  // b.plast
    2a58:	2a0203e5 	mov	w5, w2
    2a5c:	51000447 	sub	w7, w2, #0x1
    2a60:	11000444 	add	w4, w2, #0x1
    2a64:	11000463 	add	w3, w3, #0x1
    2a68:	11000842 	add	w2, w2, #0x2
    2a6c:	bc6578c1 	ldr	s1, [x6, x5, lsl #2]
    2a70:	6b02011f 	cmp	w8, w2
    2a74:	bc677804 	ldr	s4, [x0, x7, lsl #2]
    2a78:	bc657803 	ldr	s3, [x0, x5, lsl #2]
    2a7c:	bc6478c0 	ldr	s0, [x6, x4, lsl #2]
    2a80:	1f048c21 	fmsub	s1, s1, s4, s3
    2a84:	bc647802 	ldr	s2, [x0, x4, lsl #2]
    2a88:	1f028400 	fmsub	s0, s0, s2, s1
    2a8c:	bc235800 	str	s0, [x0, w3, uxtw #2]
    2a90:	54fffe48 	b.hi	2a58 <cholesky+0x38>  // b.pmore
    2a94:	2a0803e2 	mov	w2, w8
    2a98:	35fffd49 	cbnz	w9, 2a40 <cholesky+0x20>
    2a9c:	1100054a 	add	w10, w10, #0x1
    2aa0:	6b0a017f 	cmp	w11, w10
    2aa4:	54fffca2 	b.cs	2a38 <cholesky+0x18>  // b.hs, b.nlast
    2aa8:	34000041 	cbz	w1, 2ab0 <cholesky+0x90>
    2aac:	17ffffa7 	b	2948 <get_array_feedback.part.0>
    2ab0:	0f000400 	movi	v0.2s, #0x0
    2ab4:	d65f03c0 	ret

0000000000002ab8 <state_fragment>:
    2ab8:	29482001 	ldp	w1, w8, [x0, #64]
    2abc:	f9403802 	ldr	x2, [x0, #112]
    2ac0:	7100011f 	cmp	w8, #0x0
    2ac4:	a9401449 	ldp	x9, x5, [x2]
    2ac8:	a9410046 	ldp	x6, x0, [x2, #16]
    2acc:	540004ad 	b.le	2b60 <state_fragment+0xa8>
    2ad0:	51000424 	sub	w4, w1, #0x1
    2ad4:	52933342 	mov	w2, #0x999a                	// #39322
    2ad8:	91000484 	add	x4, x4, #0x1
    2adc:	11000508 	add	w8, w8, #0x1
    2ae0:	72a7d322 	movk	w2, #0x3e99, lsl #16
    2ae4:	52800027 	mov	w7, #0x1                   	// #1
    2ae8:	d37ef484 	lsl	x4, x4, #2
    2aec:	1e270041 	fmov	s1, w2
    2af0:	1e2a1004 	fmov	s4, #2.500000000000000000e-01
    2af4:	d503201f 	nop
    2af8:	aa0903e2 	mov	x2, x9
    2afc:	d2800003 	mov	x3, #0x0                   	// #0
    2b00:	7100003f 	cmp	w1, #0x0
    2b04:	5400028d 	b.le	2b54 <state_fragment+0x9c>
    2b08:	2d421840 	ldp	s0, s6, [x2, #16]
    2b0c:	2d409443 	ldp	s3, s5, [x2, #4]
    2b10:	1f011800 	fmadd	s0, s0, s1, s6
    2b14:	bd401847 	ldr	s7, [x2, #24]
    2b18:	bc6368a2 	ldr	s2, [x5, x3]
    2b1c:	1f011463 	fmadd	s3, s3, s1, s5
    2b20:	bd400c46 	ldr	s6, [x2, #12]
    2b24:	bc6368c5 	ldr	s5, [x6, x3]
    2b28:	1f011442 	fmadd	s2, s2, s1, s5
    2b2c:	bc404445 	ldr	s5, [x2], #4
    2b30:	1f011c00 	fmadd	s0, s0, s1, s7
    2b34:	1f011863 	fmadd	s3, s3, s1, s6
    2b38:	1f011442 	fmadd	s2, s2, s1, s5
    2b3c:	1f040c00 	fmadd	s0, s0, s4, s3
    2b40:	1f040800 	fmadd	s0, s0, s4, s2
    2b44:	bc236800 	str	s0, [x0, x3]
    2b48:	91001063 	add	x3, x3, #0x4
    2b4c:	eb03009f 	cmp	x4, x3
    2b50:	54fffdc1 	b.ne	2b08 <state_fragment+0x50>  // b.any
    2b54:	110004e7 	add	w7, w7, #0x1
    2b58:	6b0800ff 	cmp	w7, w8
    2b5c:	54fffce1 	b.ne	2af8 <state_fragment+0x40>  // b.any
    2b60:	0f000402 	movi	v2.2s, #0x0
    2b64:	34000101 	cbz	w1, 2b84 <state_fragment+0xcc>
    2b68:	a9bf7bfd 	stp	x29, x30, [sp, #-16]!
    2b6c:	910003fd 	mov	x29, sp
    2b70:	97ffff76 	bl	2948 <get_array_feedback.part.0>
    2b74:	1e222802 	fadd	s2, s0, s2
    2b78:	a8c17bfd 	ldp	x29, x30, [sp], #16
    2b7c:	1e204040 	fmov	s0, s2
    2b80:	d65f03c0 	ret
    2b84:	1e204040 	fmov	s0, s2
    2b88:	d65f03c0 	ret
    2b8c:	d503201f 	nop

0000000000002b90 <hydro_2d>:
    2b90:	a9bc7bfd 	stp	x29, x30, [sp, #-64]!
    2b94:	910003fd 	mov	x29, sp
    2b98:	2948440b 	ldp	w11, w17, [x0, #64]
    2b9c:	f9408801 	ldr	x1, [x0, #272]
    2ba0:	7100023f 	cmp	w17, #0x0
    2ba4:	531f796d 	lsl	w13, w11, #1
    2ba8:	a940102c 	ldp	x12, x4, [x1]
    2bac:	a9411825 	ldp	x5, x6, [x1, #16]
    2bb0:	a9420027 	ldp	x7, x0, [x1, #32]
    2bb4:	a9432829 	ldp	x9, x10, [x1, #48]
    2bb8:	f9402028 	ldr	x8, [x1, #64]
    2bbc:	5400156d 	b.le	2e68 <hydro_2d+0x2d8>
    2bc0:	5100096e 	sub	w14, w11, #0x2
    2bc4:	528b2962 	mov	w2, #0x594b                	// #22859
    2bc8:	528f7661 	mov	w1, #0x7bb3                	// #31667
    2bcc:	910005cf 	add	x15, x14, #0x1
    2bd0:	11000631 	add	w17, w17, #0x1
    2bd4:	531f796d 	lsl	w13, w11, #1
    2bd8:	910009ce 	add	x14, x14, #0x2
    2bdc:	72a770c2 	movk	w2, #0x3b86, lsl #16
    2be0:	72a76e41 	movk	w1, #0x3b72, lsl #16
    2be4:	a90153b3 	stp	x19, x20, [x29, #16]
    2be8:	a9025bb5 	stp	x21, x22, [x29, #32]
    2bec:	52800030 	mov	w16, #0x1                   	// #1
    2bf0:	1e270044 	fmov	s4, w2
    2bf4:	1e270023 	fmov	s3, w1
    2bf8:	f9001bb7 	str	x23, [x29, #48]
    2bfc:	d503201f 	nop
    2c00:	2a0b03f4 	mov	w20, w11
    2c04:	528000be 	mov	w30, #0x5                   	// #5
    2c08:	7100057f 	cmp	w11, #0x1
    2c0c:	5400064d 	b.le	2cd4 <hydro_2d+0x144>
    2c10:	93407e82 	sxtw	x2, w20
    2c14:	4b0b0292 	sub	w18, w20, w11
    2c18:	91000441 	add	x1, x2, #0x1
    2c1c:	0b0d0243 	add	w3, w18, w13
    2c20:	8b0201f3 	add	x19, x15, x2
    2c24:	cb020be2 	neg	x2, x2, lsl #2
    2c28:	8b32c852 	add	x18, x2, w18, sxtw #2
    2c2c:	d37ef421 	lsl	x1, x1, #2
    2c30:	d1001022 	sub	x2, x1, #0x4
    2c34:	937e7c63 	sbfiz	x3, x3, #2, #32
    2c38:	d37ef673 	lsl	x19, x19, #2
    2c3c:	8b120012 	add	x18, x0, x18
    2c40:	bc6368c2 	ldr	s2, [x6, x3]
    2c44:	bc6368a1 	ldr	s1, [x5, x3]
    2c48:	bc6268a0 	ldr	s0, [x5, x2]
    2c4c:	bc6268c6 	ldr	s6, [x6, x2]
    2c50:	1e222821 	fadd	s1, s1, s2
    2c54:	bc626810 	ldr	s16, [x0, x2]
    2c58:	bc616805 	ldr	s5, [x0, x1]
    2c5c:	bc6268e2 	ldr	s2, [x7, x2]
    2c60:	bc6368e7 	ldr	s7, [x7, x3]
    2c64:	91001063 	add	x3, x3, #0x4
    2c68:	1e203820 	fsub	s0, s1, s0
    2c6c:	1e3028a5 	fadd	s5, s5, s16
    2c70:	1e272841 	fadd	s1, s2, s7
    2c74:	1e263800 	fsub	s0, s0, s6
    2c78:	1e250800 	fmul	s0, s0, s5
    2c7c:	1e211800 	fdiv	s0, s0, s1
    2c80:	bc216980 	str	s0, [x12, x1]
    2c84:	bc6268c7 	ldr	s7, [x6, x2]
    2c88:	bc6268a1 	ldr	s1, [x5, x2]
    2c8c:	bc6168a0 	ldr	s0, [x5, x1]
    2c90:	bc6168c6 	ldr	s6, [x6, x1]
    2c94:	1e272821 	fadd	s1, s1, s7
    2c98:	bc616805 	ldr	s5, [x0, x1]
    2c9c:	bc616a50 	ldr	s16, [x18, x1]
    2ca0:	bc6168e2 	ldr	s2, [x7, x1]
    2ca4:	bc6268e7 	ldr	s7, [x7, x2]
    2ca8:	91001042 	add	x2, x2, #0x4
    2cac:	1e203820 	fsub	s0, s1, s0
    2cb0:	1e3028a5 	fadd	s5, s5, s16
    2cb4:	eb02027f 	cmp	x19, x2
    2cb8:	1e272842 	fadd	s2, s2, s7
    2cbc:	1e263800 	fsub	s0, s0, s6
    2cc0:	1e250800 	fmul	s0, s0, s5
    2cc4:	1e221800 	fdiv	s0, s0, s2
    2cc8:	bc216880 	str	s0, [x4, x1]
    2ccc:	91001021 	add	x1, x1, #0x4
    2cd0:	54fffb81 	b.ne	2c40 <hydro_2d+0xb0>  // b.any
    2cd4:	0b0b0294 	add	w20, w20, w11
    2cd8:	710007de 	subs	w30, w30, #0x1
    2cdc:	54fff961 	b.ne	2c08 <hydro_2d+0x78>  // b.any
    2ce0:	528000b5 	mov	w21, #0x5                   	// #5
    2ce4:	7100057f 	cmp	w11, #0x1
    2ce8:	540007ed 	b.le	2de4 <hydro_2d+0x254>
    2cec:	0b1e01a3 	add	w3, w13, w30
    2cf0:	4b0b0062 	sub	w2, w3, w11
    2cf4:	93407c63 	sxtw	x3, w3
    2cf8:	93407c42 	sxtw	x2, w2
    2cfc:	91000461 	add	x1, x3, #0x1
    2d00:	91000442 	add	x2, x2, #0x1
    2d04:	8b0301d6 	add	x22, x14, x3
    2d08:	cb030bf4 	neg	x20, x3, lsl #2
    2d0c:	d37ef421 	lsl	x1, x1, #2
    2d10:	d37ef442 	lsl	x2, x2, #2
    2d14:	8b3eca94 	add	x20, x20, w30, sxtw #2
    2d18:	d1001043 	sub	x3, x2, #0x4
    2d1c:	8b140117 	add	x23, x8, x20
    2d20:	8b030193 	add	x19, x12, x3
    2d24:	8b030112 	add	x18, x8, x3
    2d28:	d37ef6d6 	lsl	x22, x22, #2
    2d2c:	8b030003 	add	x3, x0, x3
    2d30:	8b140014 	add	x20, x0, x20
    2d34:	d503201f 	nop
    2d38:	2d400242 	ldp	s2, s0, [x18]
    2d3c:	91001063 	add	x3, x3, #0x4
    2d40:	bd400a50 	ldr	s16, [x18, #8]
    2d44:	91001252 	add	x18, x18, #0x4
    2d48:	2d401a73 	ldp	s19, s6, [x19]
    2d4c:	1e223802 	fsub	s2, s0, s2
    2d50:	1e303810 	fsub	s16, s0, s16
    2d54:	bc616ae7 	ldr	s7, [x23, x1]
    2d58:	bc626885 	ldr	s5, [x4, x2]
    2d5c:	bc616912 	ldr	s18, [x8, x1]
    2d60:	1e330842 	fmul	s2, s2, s19
    2d64:	1e273807 	fsub	s7, s0, s7
    2d68:	1f3088c2 	fnmsub	s2, s6, s16, s2
    2d6c:	bc616881 	ldr	s1, [x4, x1]
    2d70:	1e323800 	fsub	s0, s0, s18
    2d74:	bc626951 	ldr	s17, [x10, x2]
    2d78:	1f0788a2 	fmsub	s2, s5, s7, s2
    2d7c:	1f000820 	fmadd	s0, s1, s0, s2
    2d80:	1f044400 	fmadd	s0, s0, s4, s17
    2d84:	bc226940 	str	s0, [x10, x2]
    2d88:	2d7f8062 	ldp	s2, s0, [x3, #-4]
    2d8c:	bd400470 	ldr	s16, [x3, #4]
    2d90:	bd400273 	ldr	s19, [x19]
    2d94:	1e223802 	fsub	s2, s0, s2
    2d98:	bc616a87 	ldr	s7, [x20, x1]
    2d9c:	1e303810 	fsub	s16, s0, s16
    2da0:	bc404e66 	ldr	s6, [x19, #4]!
    2da4:	bc626885 	ldr	s5, [x4, x2]
    2da8:	1e273807 	fsub	s7, s0, s7
    2dac:	bc616812 	ldr	s18, [x0, x1]
    2db0:	1e330842 	fmul	s2, s2, s19
    2db4:	bc616881 	ldr	s1, [x4, x1]
    2db8:	1f3088c2 	fnmsub	s2, s6, s16, s2
    2dbc:	bc626931 	ldr	s17, [x9, x2]
    2dc0:	1e323800 	fsub	s0, s0, s18
    2dc4:	91001021 	add	x1, x1, #0x4
    2dc8:	eb0102df 	cmp	x22, x1
    2dcc:	1f0788a2 	fmsub	s2, s5, s7, s2
    2dd0:	1f000820 	fmadd	s0, s1, s0, s2
    2dd4:	1f044400 	fmadd	s0, s0, s4, s17
    2dd8:	bc226920 	str	s0, [x9, x2]
    2ddc:	91001042 	add	x2, x2, #0x4
    2de0:	54fffac1 	b.ne	2d38 <hydro_2d+0x1a8>  // b.any
    2de4:	0b0b03de 	add	w30, w30, w11
    2de8:	710006b5 	subs	w21, w21, #0x1
    2dec:	54fff7c1 	b.ne	2ce4 <hydro_2d+0x154>  // b.any
    2df0:	2a0b03f2 	mov	w18, w11
    2df4:	528000a3 	mov	w3, #0x5                   	// #5
    2df8:	7100057f 	cmp	w11, #0x1
    2dfc:	5400024d 	b.le	2e44 <hydro_2d+0x2b4>
    2e00:	93407e42 	sxtw	x2, w18
    2e04:	91000441 	add	x1, x2, #0x1
    2e08:	8b0201c2 	add	x2, x14, x2
    2e0c:	d37ef421 	lsl	x1, x1, #2
    2e10:	d37ef442 	lsl	x2, x2, #2
    2e14:	d503201f 	nop
    2e18:	bc616940 	ldr	s0, [x10, x1]
    2e1c:	bc616801 	ldr	s1, [x0, x1]
    2e20:	1f030400 	fmadd	s0, s0, s3, s1
    2e24:	bc216800 	str	s0, [x0, x1]
    2e28:	bc616920 	ldr	s0, [x9, x1]
    2e2c:	bc616901 	ldr	s1, [x8, x1]
    2e30:	1f030400 	fmadd	s0, s0, s3, s1
    2e34:	bc216900 	str	s0, [x8, x1]
    2e38:	91001021 	add	x1, x1, #0x4
    2e3c:	eb01005f 	cmp	x2, x1
    2e40:	54fffec1 	b.ne	2e18 <hydro_2d+0x288>  // b.any
    2e44:	0b0b0252 	add	w18, w18, w11
    2e48:	71000463 	subs	w3, w3, #0x1
    2e4c:	54fffd61 	b.ne	2df8 <hydro_2d+0x268>  // b.any
    2e50:	11000610 	add	w16, w16, #0x1
    2e54:	6b11021f 	cmp	w16, w17
    2e58:	54ffed41 	b.ne	2c00 <hydro_2d+0x70>  // b.any
    2e5c:	a94153b3 	ldp	x19, x20, [x29, #16]
    2e60:	a9425bb5 	ldp	x21, x22, [x29, #32]
    2e64:	f9401bb7 	ldr	x23, [x29, #48]
    2e68:	0b0b01a3 	add	w3, w13, w11
    2e6c:	0f000402 	movi	v2.2s, #0x0
    2e70:	531f7863 	lsl	w3, w3, #1
    2e74:	34000103 	cbz	w3, 2e94 <hydro_2d+0x304>
    2e78:	2a0303e1 	mov	w1, w3
    2e7c:	97fffeb3 	bl	2948 <get_array_feedback.part.0>
    2e80:	1e204003 	fmov	s3, s0
    2e84:	aa0803e0 	mov	x0, x8
    2e88:	97fffeb0 	bl	2948 <get_array_feedback.part.0>
    2e8c:	1e222862 	fadd	s2, s3, s2
    2e90:	1e202842 	fadd	s2, s2, s0
    2e94:	1e204040 	fmov	s0, s2
    2e98:	a8c47bfd 	ldp	x29, x30, [sp], #64
    2e9c:	d65f03c0 	ret

0000000000002ea0 <matmul>:
    2ea0:	29480808 	ldp	w8, w2, [x0, #64]
    2ea4:	f9408801 	ldr	x1, [x0, #272]
    2ea8:	7100005f 	cmp	w2, #0x0
    2eac:	a9402420 	ldp	x0, x9, [x1]
    2eb0:	f940082a 	ldr	x10, [x1, #16]
    2eb4:	540004cd 	b.le	2f4c <matmul+0xac>
    2eb8:	51000501 	sub	w1, w8, #0x1
    2ebc:	51000442 	sub	w2, w2, #0x1
    2ec0:	91000421 	add	x1, x1, #0x1
    2ec4:	9101b14b 	add	x11, x10, #0x6c
    2ec8:	8b22496b 	add	x11, x11, w2, uxtw #2
    2ecc:	9101a14a 	add	x10, x10, #0x68
    2ed0:	8b010425 	add	x5, x1, x1, lsl #1
    2ed4:	8b050c25 	add	x5, x1, x5, lsl #3
    2ed8:	d37ef4a5 	lsl	x5, x5, #2
    2edc:	d1019144 	sub	x4, x10, #0x64
    2ee0:	52800327 	mov	w7, #0x19                  	// #25
    2ee4:	510064e6 	sub	w6, w7, #0x19
    2ee8:	aa0003e2 	mov	x2, x0
    2eec:	d503201f 	nop
    2ef0:	7100011f 	cmp	w8, #0x0
    2ef4:	5400016d 	b.le	2f20 <matmul+0x80>
    2ef8:	8b26c923 	add	x3, x9, w6, sxtw #2
    2efc:	d2800001 	mov	x1, #0x0                   	// #0
    2f00:	bc616882 	ldr	s2, [x4, x1]
    2f04:	bd400060 	ldr	s0, [x3]
    2f08:	bc616841 	ldr	s1, [x2, x1]
    2f0c:	1f020400 	fmadd	s0, s0, s2, s1
    2f10:	bc216840 	str	s0, [x2, x1]
    2f14:	91019021 	add	x1, x1, #0x64
    2f18:	eb0100bf 	cmp	x5, x1
    2f1c:	54ffff21 	b.ne	2f00 <matmul+0x60>  // b.any
    2f20:	110004c6 	add	w6, w6, #0x1
    2f24:	91001042 	add	x2, x2, #0x4
    2f28:	6b0700df 	cmp	w6, w7
    2f2c:	54fffe21 	b.ne	2ef0 <matmul+0x50>  // b.any
    2f30:	91001084 	add	x4, x4, #0x4
    2f34:	0b0800c7 	add	w7, w6, w8
    2f38:	eb0a009f 	cmp	x4, x10
    2f3c:	54fffd41 	b.ne	2ee4 <matmul+0x44>  // b.any
    2f40:	9100114a 	add	x10, x10, #0x4
    2f44:	eb0b015f 	cmp	x10, x11
    2f48:	54fffca1 	b.ne	2edc <matmul+0x3c>  // b.any
    2f4c:	52800321 	mov	w1, #0x19                  	// #25
    2f50:	1b017d01 	mul	w1, w8, w1
    2f54:	34000041 	cbz	w1, 2f5c <matmul+0xbc>
    2f58:	17fffe7c 	b	2948 <get_array_feedback.part.0>
    2f5c:	0f000400 	movi	v0.2s, #0x0
    2f60:	d65f03c0 	ret
    2f64:	d503201f 	nop

0000000000002f68 <hydro_2d_implicit>:
    2f68:	f9408802 	ldr	x2, [x0, #272]
    2f6c:	29484401 	ldp	w1, w17, [x0, #64]
    2f70:	a9401c40 	ldp	x0, x7, [x2]
    2f74:	7100023f 	cmp	w17, #0x0
    2f78:	a9412448 	ldp	x8, x9, [x2, #16]
    2f7c:	a9422c4a 	ldp	x10, x11, [x2, #32]
    2f80:	5400072d 	b.le	3064 <hydro_2d_implicit+0xfc>
    2f84:	5100082f 	sub	w15, w1, #0x2
    2f88:	b203e7e2 	mov	x2, #0x6666666666666666    	// #7378697629483820646
    2f8c:	11000631 	add	w17, w17, #0x1
    2f90:	910009ef 	add	x15, x15, #0x2
    2f94:	531f7832 	lsl	w18, w1, #1
    2f98:	f2e7f8c2 	movk	x2, #0x3fc6, lsl #48
    2f9c:	52800030 	mov	w16, #0x1                   	// #1
    2fa0:	9e670047 	fmov	d7, x2
    2fa4:	d503201f 	nop
    2fa8:	2a0103ec 	mov	w12, w1
    2fac:	528000ad 	mov	w13, #0x5                   	// #5
    2fb0:	7100043f 	cmp	w1, #0x1
    2fb4:	540004cd 	b.le	304c <hydro_2d_implicit+0xe4>
    2fb8:	93407d84 	sxtw	x4, w12
    2fbc:	4b010185 	sub	w5, w12, w1
    2fc0:	91000482 	add	x2, x4, #0x1
    2fc4:	0b050246 	add	w6, w18, w5
    2fc8:	cb040bee 	neg	x14, x4, lsl #2
    2fcc:	8b0401e4 	add	x4, x15, x4
    2fd0:	d37ef442 	lsl	x2, x2, #2
    2fd4:	8b26c9c6 	add	x6, x14, w6, sxtw #2
    2fd8:	d1001043 	sub	x3, x2, #0x4
    2fdc:	8b25c9c5 	add	x5, x14, w5, sxtw #2
    2fe0:	8b030003 	add	x3, x0, x3
    2fe4:	d37ef484 	lsl	x4, x4, #2
    2fe8:	8b060006 	add	x6, x0, x6
    2fec:	8b050005 	add	x5, x0, x5
    2ff0:	bc626924 	ldr	s4, [x9, x2]
    2ff4:	bc6268a0 	ldr	s0, [x5, x2]
    2ff8:	bc6268c1 	ldr	s1, [x6, x2]
    2ffc:	bc6268e3 	ldr	s3, [x7, x2]
    3000:	1e240800 	fmul	s0, s0, s4
    3004:	bc626906 	ldr	s6, [x8, x2]
    3008:	bd400862 	ldr	s2, [x3, #8]
    300c:	1f030020 	fmadd	s0, s1, s3, s0
    3010:	bc626945 	ldr	s5, [x10, x2]
    3014:	2d400c61 	ldp	s1, s3, [x3]
    3018:	bc626964 	ldr	s4, [x11, x2]
    301c:	91001042 	add	x2, x2, #0x4
    3020:	1f060040 	fmadd	s0, s2, s6, s0
    3024:	eb02009f 	cmp	x4, x2
    3028:	1e22c062 	fcvt	d2, s3
    302c:	1f050020 	fmadd	s0, s1, s5, s0
    3030:	1e242800 	fadd	s0, s0, s4
    3034:	1e233800 	fsub	s0, s0, s3
    3038:	1e22c000 	fcvt	d0, s0
    303c:	1f470800 	fmadd	d0, d0, d7, d2
    3040:	1e624000 	fcvt	s0, d0
    3044:	bc004c60 	str	s0, [x3, #4]!
    3048:	54fffd41 	b.ne	2ff0 <hydro_2d_implicit+0x88>  // b.any
    304c:	0b01018c 	add	w12, w12, w1
    3050:	710005ad 	subs	w13, w13, #0x1
    3054:	54fffae1 	b.ne	2fb0 <hydro_2d_implicit+0x48>  // b.any
    3058:	11000610 	add	w16, w16, #0x1
    305c:	6b11021f 	cmp	w16, w17
    3060:	54fffa41 	b.ne	2fa8 <hydro_2d_implicit+0x40>  // b.any
    3064:	34000041 	cbz	w1, 306c <hydro_2d_implicit+0x104>
    3068:	17fffe38 	b	2948 <get_array_feedback.part.0>
    306c:	0f000400 	movi	v0.2s, #0x0
    3070:	d65f03c0 	ret
    3074:	d503201f 	nop

0000000000003078 <tri_diagonal>:
    3078:	29482001 	ldp	w1, w8, [x0, #64]
    307c:	f9403802 	ldr	x2, [x0, #112]
    3080:	7100011f 	cmp	w8, #0x0
    3084:	a9401440 	ldp	x0, x5, [x2]
    3088:	f9400846 	ldr	x6, [x2, #16]
    308c:	5400030d 	b.le	30ec <tri_diagonal+0x74>
    3090:	51000824 	sub	w4, w1, #0x2
    3094:	11000508 	add	w8, w8, #0x1
    3098:	91000884 	add	x4, x4, #0x2
    309c:	52800027 	mov	w7, #0x1                   	// #1
    30a0:	d37ef484 	lsl	x4, x4, #2
    30a4:	d503201f 	nop
    30a8:	d2800082 	mov	x2, #0x4                   	// #4
    30ac:	7100043f 	cmp	w1, #0x1
    30b0:	5400018d 	b.le	30e0 <tri_diagonal+0x68>
    30b4:	d503201f 	nop
    30b8:	8b020003 	add	x3, x0, x2
    30bc:	bc6268a0 	ldr	s0, [x5, x2]
    30c0:	bc6268c1 	ldr	s1, [x6, x2]
    30c4:	bc5fc062 	ldur	s2, [x3, #-4]
    30c8:	1e223800 	fsub	s0, s0, s2
    30cc:	1e210800 	fmul	s0, s0, s1
    30d0:	bc226800 	str	s0, [x0, x2]
    30d4:	91001042 	add	x2, x2, #0x4
    30d8:	eb04005f 	cmp	x2, x4
    30dc:	54fffee1 	b.ne	30b8 <tri_diagonal+0x40>  // b.any
    30e0:	110004e7 	add	w7, w7, #0x1
    30e4:	6b0800ff 	cmp	w7, w8
    30e8:	54fffe01 	b.ne	30a8 <tri_diagonal+0x30>  // b.any
    30ec:	34000041 	cbz	w1, 30f4 <tri_diagonal+0x7c>
    30f0:	17fffe16 	b	2948 <get_array_feedback.part.0>
    30f4:	0f000400 	movi	v0.2s, #0x0
    30f8:	d65f03c0 	ret
    30fc:	d503201f 	nop

0000000000003100 <linear_recurrence>:
    3100:	a9bd7bfd 	stp	x29, x30, [sp, #-48]!
    3104:	910003fd 	mov	x29, sp
    3108:	a90153f3 	stp	x19, x20, [sp, #16]
    310c:	a9025bf5 	stp	x21, x22, [sp, #32]
    3110:	29485813 	ldp	w19, w22, [x0, #64]
    3114:	f9408802 	ldr	x2, [x0, #272]
    3118:	f9403803 	ldr	x3, [x0, #112]
    311c:	f9400054 	ldr	x20, [x2]
    3120:	1b137e62 	mul	w2, w19, w19
    3124:	f9400075 	ldr	x21, [x3]
    3128:	aa1403e1 	mov	x1, x20
    312c:	97fff79f 	bl	fa8 <reinit_vec>
    3130:	710002df 	cmp	w22, #0x0
    3134:	540003cd 	b.le	31ac <linear_recurrence+0xac>
    3138:	51000a60 	sub	w0, w19, #0x2
    313c:	910022a4 	add	x4, x21, #0x8
    3140:	92800066 	mov	x6, #0xfffffffffffffffc    	// #-4
    3144:	110006c8 	add	w8, w22, #0x1
    3148:	8b204884 	add	x4, x4, w0, uxtw #2
    314c:	cb150285 	sub	x5, x20, x21
    3150:	cb1500c6 	sub	x6, x6, x21
    3154:	52800027 	mov	w7, #0x1                   	// #1
    3158:	910012a2 	add	x2, x21, #0x4
    315c:	7100067f 	cmp	w19, #0x1
    3160:	5400020d 	b.le	31a0 <linear_recurrence+0xa0>
    3164:	d503201f 	nop
    3168:	928000e3 	mov	x3, #0xfffffffffffffff8    	// #-8
    316c:	8b0200a1 	add	x1, x5, x2
    3170:	d1001040 	sub	x0, x2, #0x4
    3174:	cb060063 	sub	x3, x3, x6
    3178:	bc5fc401 	ldr	s1, [x0], #-4
    317c:	bd400020 	ldr	s0, [x1]
    3180:	8b33c821 	add	x1, x1, w19, sxtw #2
    3184:	eb00007f 	cmp	x3, x0
    3188:	1e210800 	fmul	s0, s0, s1
    318c:	bd000040 	str	s0, [x2]
    3190:	54ffff41 	b.ne	3178 <linear_recurrence+0x78>  // b.any
    3194:	91001042 	add	x2, x2, #0x4
    3198:	eb04005f 	cmp	x2, x4
    319c:	54fffe61 	b.ne	3168 <linear_recurrence+0x68>  // b.any
    31a0:	110004e7 	add	w7, w7, #0x1
    31a4:	6b0800ff 	cmp	w7, w8
    31a8:	54fffd81 	b.ne	3158 <linear_recurrence+0x58>  // b.any
    31ac:	340000f3 	cbz	w19, 31c8 <linear_recurrence+0xc8>
    31b0:	2a1303e1 	mov	w1, w19
    31b4:	aa1503e0 	mov	x0, x21
    31b8:	a94153f3 	ldp	x19, x20, [sp, #16]
    31bc:	a9425bf5 	ldp	x21, x22, [sp, #32]
    31c0:	a8c37bfd 	ldp	x29, x30, [sp], #48
    31c4:	17fffde1 	b	2948 <get_array_feedback.part.0>
    31c8:	0f000400 	movi	v0.2s, #0x0
    31cc:	a94153f3 	ldp	x19, x20, [sp, #16]
    31d0:	a9425bf5 	ldp	x21, x22, [sp, #32]
    31d4:	a8c37bfd 	ldp	x29, x30, [sp], #48
    31d8:	d65f03c0 	ret
    31dc:	00000000 	.inst	0x00000000 ; undefined

00000000000031e0 <isaac>:
    31e0:	b9480c0b 	ldr	w11, [x0, #2060]
    31e4:	d2800003 	mov	x3, #0x0                   	// #0
    31e8:	b9480801 	ldr	w1, [x0, #2056]
    31ec:	91101006 	add	x6, x0, #0x404
    31f0:	1100056b 	add	w11, w11, #0x1
    31f4:	9100100a 	add	x10, x0, #0x4
    31f8:	b9480402 	ldr	w2, [x0, #2052]
    31fc:	0b0b0025 	add	w5, w1, w11
    3200:	14000015 	b	3254 <isaac+0x74>
    3204:	71000c3f 	cmp	w1, #0x3
    3208:	54000380 	b.eq	3278 <isaac+0x98>  // b.none
    320c:	7100043f 	cmp	w1, #0x1
    3210:	1a880122 	csel	w2, w9, w8, eq  // eq = none
    3214:	11020084 	add	w4, w4, #0x80
    3218:	d34224e1 	ubfx	x1, x7, #2, #8
    321c:	92401c84 	and	x4, x4, #0xff
    3220:	b86178c1 	ldr	w1, [x6, x1, lsl #2]
    3224:	b86478c4 	ldr	w4, [x6, x4, lsl #2]
    3228:	0b040042 	add	w2, w2, w4
    322c:	0b010041 	add	w1, w2, w1
    3230:	0b050021 	add	w1, w1, w5
    3234:	b82378c1 	str	w1, [x6, x3, lsl #2]
    3238:	d34a4421 	ubfx	x1, x1, #10, #8
    323c:	b86178c1 	ldr	w1, [x6, x1, lsl #2]
    3240:	0b0100e5 	add	w5, w7, w1
    3244:	b8237945 	str	w5, [x10, x3, lsl #2]
    3248:	91000463 	add	x3, x3, #0x1
    324c:	f104007f 	cmp	x3, #0x100
    3250:	54000180 	b.eq	3280 <isaac+0xa0>  // b.none
    3254:	12000461 	and	w1, w3, #0x3
    3258:	4a023448 	eor	w8, w2, w2, lsl #13
    325c:	4a421849 	eor	w9, w2, w2, lsr #6
    3260:	b86378c7 	ldr	w7, [x6, x3, lsl #2]
    3264:	2a0303e4 	mov	w4, w3
    3268:	7100083f 	cmp	w1, #0x2
    326c:	54fffcc1 	b.ne	3204 <isaac+0x24>  // b.any
    3270:	4a020842 	eor	w2, w2, w2, lsl #2
    3274:	17ffffe8 	b	3214 <isaac+0x34>
    3278:	4a424042 	eor	w2, w2, w2, lsr #16
    327c:	17ffffe6 	b	3214 <isaac+0x34>
    3280:	b9080402 	str	w2, [x0, #2052]
    3284:	b9080805 	str	w5, [x0, #2056]
    3288:	b9080c0b 	str	w11, [x0, #2060]
    328c:	d65f03c0 	ret

0000000000003290 <store_sp>:
    3290:	29408824 	ldp	w4, w2, [x1, #4]
    3294:	12bfe003 	mov	w3, #0xffffff              	// #16777215
    3298:	aa0003e5 	mov	x5, x0
    329c:	52800000 	mov	w0, #0x0                   	// #0
    32a0:	7100009f 	cmp	w4, #0x0
    32a4:	7a430042 	ccmp	w2, w3, #0x2, eq  // eq = none
    32a8:	54000049 	b.ls	32b0 <store_sp+0x20>  // b.plast
    32ac:	d65f03c0 	ret
    32b0:	79c00423 	ldrsh	w3, [x1, #2]
    32b4:	37b80142 	tbnz	w2, #23, 32dc <store_sp+0x4c>
    32b8:	2a030042 	orr	w2, w2, w3
    32bc:	52800000 	mov	w0, #0x0                   	// #0
    32c0:	35ffff62 	cbnz	w2, 32ac <store_sp+0x1c>
    32c4:	39400021 	ldrb	w1, [x1]
    32c8:	52800020 	mov	w0, #0x1                   	// #1
    32cc:	1e270020 	fmov	s0, w1
    32d0:	0f3f5400 	shl	v0.2s, v0.2s, #31
    32d4:	bd0000a0 	str	s0, [x5]
    32d8:	d65f03c0 	ret
    32dc:	1101f864 	add	w4, w3, #0x7e
    32e0:	52800000 	mov	w0, #0x0                   	// #0
    32e4:	1101fc63 	add	w3, w3, #0x7f
    32e8:	7103f49f 	cmp	w4, #0xfd
    32ec:	54fffe08 	b.hi	32ac <store_sp+0x1c>  // b.pmore
    32f0:	39400020 	ldrb	w0, [x1]
    32f4:	53092063 	lsl	w3, w3, #23
    32f8:	32010061 	orr	w1, w3, #0x80000000
    32fc:	12005842 	and	w2, w2, #0x7fffff
    3300:	7100001f 	cmp	w0, #0x0
    3304:	52800020 	mov	w0, #0x1                   	// #1
    3308:	1a831023 	csel	w3, w1, w3, ne  // ne = any
    330c:	2a030041 	orr	w1, w2, w3
    3310:	b90000a1 	str	w1, [x5]
    3314:	d65f03c0 	ret

0000000000003318 <load_sp>:
    3318:	f100001f 	cmp	x0, #0x0
    331c:	fa401824 	ccmp	x1, #0x0, #0x4, ne  // ne = any
    3320:	540001e0 	b.eq	335c <load_sp+0x44>  // b.none
    3324:	b9400002 	ldr	w2, [x0]
    3328:	3900003f 	strb	wzr, [x1]
    332c:	12005843 	and	w3, w2, #0x7fffff
    3330:	29008c3f 	stp	wzr, w3, [x1, #4]
    3334:	d3577840 	ubfx	x0, x2, #23, #8
    3338:	79000420 	strh	w0, [x1, #2]
    333c:	7103fc1f 	cmp	w0, #0xff
    3340:	540000e0 	b.eq	335c <load_sp+0x44>  // b.none
    3344:	35000100 	cbnz	w0, 3364 <load_sp+0x4c>
    3348:	350000a3 	cbnz	w3, 335c <load_sp+0x44>
    334c:	531f7c42 	lsr	w2, w2, #31
    3350:	52800020 	mov	w0, #0x1                   	// #1
    3354:	39000022 	strb	w2, [x1]
    3358:	d65f03c0 	ret
    335c:	52800000 	mov	w0, #0x0                   	// #0
    3360:	d65f03c0 	ret
    3364:	32090063 	orr	w3, w3, #0x800000
    3368:	5101fc00 	sub	w0, w0, #0x7f
    336c:	79000420 	strh	w0, [x1, #2]
    3370:	b9000823 	str	w3, [x1, #8]
    3374:	17fffff6 	b	334c <load_sp+0x34>

0000000000003378 <random_u32>:
    3378:	b40002a0 	cbz	x0, 33cc <random_u32+0x54>
    337c:	b9400001 	ldr	w1, [x0]
    3380:	aa0003ec 	mov	x12, x0
    3384:	b9481402 	ldr	w2, [x0, #2068]
    3388:	11000421 	add	w1, w1, #0x1
    338c:	b9000001 	str	w1, [x0]
    3390:	6b02003f 	cmp	w1, w2
    3394:	540000a8 	b.hi	33a8 <random_u32+0x30>  // b.pmore
    3398:	12001c21 	and	w1, w1, #0xff
    339c:	8b210801 	add	x1, x0, w1, uxtb #2
    33a0:	b9400420 	ldr	w0, [x1, #4]
    33a4:	d65f03c0 	ret
    33a8:	a9bf7bfd 	stp	x29, x30, [sp, #-16]!
    33ac:	910003fd 	mov	x29, sp
    33b0:	97ffff8c 	bl	31e0 <isaac>
    33b4:	52800001 	mov	w1, #0x0                   	// #0
    33b8:	8b210801 	add	x1, x0, w1, uxtb #2
    33bc:	b9400420 	ldr	w0, [x1, #4]
    33c0:	b900019f 	str	wzr, [x12]
    33c4:	a8c17bfd 	ldp	x29, x30, [sp], #16
    33c8:	d65f03c0 	ret
    33cc:	52800000 	mov	w0, #0x0                   	// #0
    33d0:	d65f03c0 	ret
    33d4:	d503201f 	nop

00000000000033d8 <random_u16>:
    33d8:	a9bf7bfd 	stp	x29, x30, [sp, #-16]!
    33dc:	910003fd 	mov	x29, sp
    33e0:	97ffffe6 	bl	3378 <random_u32>
    33e4:	a8c17bfd 	ldp	x29, x30, [sp], #16
    33e8:	d65f03c0 	ret
    33ec:	d503201f 	nop

00000000000033f0 <precise_random_f32>:
    33f0:	a9bd7bfd 	stp	x29, x30, [sp, #-48]!
    33f4:	aa0003ed 	mov	x13, x0
    33f8:	52800021 	mov	w1, #0x1                   	// #1
    33fc:	910003fd 	mov	x29, sp
    3400:	b948200e 	ldr	w14, [x0, #2080]
    3404:	37f8008e 	tbnz	w14, #31, 3414 <precise_random_f32+0x24>
    3408:	97ffffdc 	bl	3378 <random_u32>
    340c:	120001ce 	and	w14, w14, #0x1
    3410:	0a0001c1 	and	w1, w14, w0
    3414:	b94825ae 	ldr	w14, [x13, #2084]
    3418:	390083a1 	strb	w1, [x29, #32]
    341c:	37f800ee 	tbnz	w14, #31, 3438 <precise_random_f32+0x48>
    3420:	aa0d03e0 	mov	x0, x13
    3424:	97ffffd5 	bl	3378 <random_u32>
    3428:	120001ce 	and	w14, w14, #0x1
    342c:	52800021 	mov	w1, #0x1                   	// #1
    3430:	6a0001df 	tst	w14, w0
    3434:	54000040 	b.eq	343c <precise_random_f32+0x4c>  // b.none
    3438:	12800001 	mov	w1, #0xffffffff            	// #-1
    343c:	790047a1 	strh	w1, [x29, #34]
    3440:	aa0d03e0 	mov	x0, x13
    3444:	97ffffcd 	bl	3378 <random_u32>
    3448:	b9002ba0 	str	w0, [x29, #40]
    344c:	aa0d03e0 	mov	x0, x13
    3450:	97ffffca 	bl	3378 <random_u32>
    3454:	795051a4 	ldrh	w4, [x13, #2088]
    3458:	794047a3 	ldrh	w3, [x29, #34]
    345c:	0a040004 	and	w4, w0, w4
    3460:	b94831a1 	ldr	w1, [x13, #2096]
    3464:	b9402ba2 	ldr	w2, [x29, #40]
    3468:	910073a0 	add	x0, x29, #0x1c
    346c:	1b030c83 	madd	w3, w4, w3, w3
    3470:	0a010042 	and	w2, w2, w1
    3474:	32090042 	orr	w2, w2, #0x800000
    3478:	790047a3 	strh	w3, [x29, #34]
    347c:	910083a1 	add	x1, x29, #0x20
    3480:	29048bbf 	stp	wzr, w2, [x29, #36]
    3484:	97ffff83 	bl	3290 <store_sp>
    3488:	bd401fa0 	ldr	s0, [x29, #28]
    348c:	a8c37bfd 	ldp	x29, x30, [sp], #48
    3490:	d65f03c0 	ret
    3494:	d503201f 	nop

0000000000003498 <rand_fini>:
    3498:	14000150 	b	39d8 <free>
    349c:	d503201f 	nop

00000000000034a0 <rand_init>:
    34a0:	a9bd7bfd 	stp	x29, x30, [sp, #-48]!
    34a4:	910003fd 	mov	x29, sp
    34a8:	6d0227e8 	stp	d8, d9, [sp, #32]
    34ac:	1e604009 	fmov	d9, d0
    34b0:	1e604028 	fmov	d8, d1
    34b4:	a90153f3 	stp	x19, x20, [sp, #16]
    34b8:	2a0103f4 	mov	w20, w1
    34bc:	2a0003f3 	mov	w19, w0
    34c0:	d2810680 	mov	x0, #0x834                 	// #2100
    34c4:	94000141 	bl	39c8 <malloc>
    34c8:	1e693901 	fsub	d1, d8, d9
    34cc:	aa0003ec 	mov	x12, x0
    34d0:	1e624129 	fcvt	s9, d9
    34d4:	53185e80 	lsl	w0, w20, #8
    34d8:	91101185 	add	x5, x12, #0x404
    34dc:	4b140000 	sub	w0, w0, w20
    34e0:	1e624021 	fcvt	s1, d1
    34e4:	b9081580 	str	w0, [x12, #2068]
    34e8:	bd081d89 	str	s9, [x12, #2076]
    34ec:	bd081981 	str	s1, [x12, #2072]
    34f0:	35000060 	cbnz	w0, 34fc <rand_init+0x5c>
    34f4:	12800000 	mov	w0, #0xffffffff            	// #-1
    34f8:	b9081580 	str	w0, [x12, #2068]
    34fc:	91200180 	add	x0, x12, #0x800
    3500:	2a1303e6 	mov	w6, w19
    3504:	2a1303e7 	mov	w7, w19
    3508:	2a1303e8 	mov	w8, w19
    350c:	2a1303e2 	mov	w2, w19
    3510:	2a1303e1 	mov	w1, w19
    3514:	f800401f 	stur	xzr, [x0, #4]
    3518:	2a1303e3 	mov	w3, w19
    351c:	2a1303e4 	mov	w4, w19
    3520:	52800089 	mov	w9, #0x4                   	// #4
    3524:	b900019f 	str	wzr, [x12]
    3528:	b9080d9f 	str	wzr, [x12, #2060]
    352c:	b9081193 	str	w19, [x12, #2064]
    3530:	4a042e60 	eor	w0, w19, w4, lsl #11
    3534:	0b030084 	add	w4, w4, w3
    3538:	0b010001 	add	w1, w0, w1
    353c:	4a430884 	eor	w4, w4, w3, lsr #2
    3540:	0b020082 	add	w2, w4, w2
    3544:	0b030023 	add	w3, w1, w3
    3548:	4a012063 	eor	w3, w3, w1, lsl #8
    354c:	0b020021 	add	w1, w1, w2
    3550:	0b080068 	add	w8, w3, w8
    3554:	4a424021 	eor	w1, w1, w2, lsr #16
    3558:	0b070027 	add	w7, w1, w7
    355c:	0b080042 	add	w2, w2, w8
    3560:	4a082842 	eor	w2, w2, w8, lsl #10
    3564:	0b070108 	add	w8, w8, w7
    3568:	0b060046 	add	w6, w2, w6
    356c:	4a471108 	eor	w8, w8, w7, lsr #4
    3570:	0b080000 	add	w0, w0, w8
    3574:	0b0600e7 	add	w7, w7, w6
    3578:	4a0620e7 	eor	w7, w7, w6, lsl #8
    357c:	0b0000c6 	add	w6, w6, w0
    3580:	0b070084 	add	w4, w4, w7
    3584:	4a4024c6 	eor	w6, w6, w0, lsr #9
    3588:	0b060063 	add	w3, w3, w6
    358c:	0b040013 	add	w19, w0, w4
    3590:	71000529 	subs	w9, w9, #0x1
    3594:	54fffce1 	b.ne	3530 <rand_init+0x90>  // b.any
    3598:	911000a9 	add	x9, x5, #0x400
    359c:	d503201f 	nop
    35a0:	4a042e60 	eor	w0, w19, w4, lsl #11
    35a4:	0b030084 	add	w4, w4, w3
    35a8:	0b010001 	add	w1, w0, w1
    35ac:	4a430884 	eor	w4, w4, w3, lsr #2
    35b0:	0b020082 	add	w2, w4, w2
    35b4:	0b030023 	add	w3, w1, w3
    35b8:	4a012063 	eor	w3, w3, w1, lsl #8
    35bc:	0b020021 	add	w1, w1, w2
    35c0:	0b080068 	add	w8, w3, w8
    35c4:	4a424021 	eor	w1, w1, w2, lsr #16
    35c8:	0b070027 	add	w7, w1, w7
    35cc:	0b080042 	add	w2, w2, w8
    35d0:	4a082842 	eor	w2, w2, w8, lsl #10
    35d4:	0b070108 	add	w8, w8, w7
    35d8:	0b060046 	add	w6, w2, w6
    35dc:	4a471108 	eor	w8, w8, w7, lsr #4
    35e0:	0b080000 	add	w0, w0, w8
    35e4:	0b0600e7 	add	w7, w7, w6
    35e8:	4a0620e7 	eor	w7, w7, w6, lsl #8
    35ec:	0b0000c6 	add	w6, w6, w0
    35f0:	0b070084 	add	w4, w4, w7
    35f4:	4a4024c6 	eor	w6, w6, w0, lsr #9
    35f8:	0b060063 	add	w3, w3, w6
    35fc:	0b040013 	add	w19, w0, w4
    3600:	290010b3 	stp	w19, w4, [x5]
    3604:	290104a3 	stp	w3, w1, [x5, #8]
    3608:	290220a2 	stp	w2, w8, [x5, #16]
    360c:	290318a7 	stp	w7, w6, [x5, #24]
    3610:	910080a5 	add	x5, x5, #0x20
    3614:	eb05013f 	cmp	x9, x5
    3618:	54fffc41 	b.ne	35a0 <rand_init+0x100>  // b.any
    361c:	aa0c03e0 	mov	x0, x12
    3620:	97fffef0 	bl	31e0 <isaac>
    3624:	a94153f3 	ldp	x19, x20, [sp, #16]
    3628:	6d4227e8 	ldp	d8, d9, [sp, #32]
    362c:	a8c37bfd 	ldp	x29, x30, [sp], #48
    3630:	d65f03c0 	ret
    3634:	d503201f 	nop

0000000000003638 <rand_intparts_init>:
    3638:	2f00e401 	movi	d1, #0x0
    363c:	a9bc7bfd 	stp	x29, x30, [sp, #-64]!
    3640:	910003fd 	mov	x29, sp
    3644:	a90153f3 	stp	x19, x20, [sp, #16]
    3648:	2a0503f4 	mov	w20, w5
    364c:	1e604020 	fmov	d0, d1
    3650:	a9025bf5 	stp	x21, x22, [sp, #32]
    3654:	f9001bf7 	str	x23, [sp, #48]
    3658:	2a0303f6 	mov	w22, w3
    365c:	2a0403f5 	mov	w21, w4
    3660:	2a0603f3 	mov	w19, w6
    3664:	2a0203f7 	mov	w23, w2
    3668:	97ffff8e 	bl	34a0 <rand_init>
    366c:	b9082017 	str	w23, [x0, #2080]
    3670:	b9082416 	str	w22, [x0, #2084]
    3674:	79105015 	strh	w21, [x0, #2088]
    3678:	b9082c14 	str	w20, [x0, #2092]
    367c:	b9083013 	str	w19, [x0, #2096]
    3680:	a94153f3 	ldp	x19, x20, [sp, #16]
    3684:	a9425bf5 	ldp	x21, x22, [sp, #32]
    3688:	f9401bf7 	ldr	x23, [sp, #48]
    368c:	a8c47bfd 	ldp	x29, x30, [sp], #64
    3690:	d65f03c0 	ret
    3694:	d503201f 	nop

0000000000003698 <random_u32_vector>:
    3698:	a9be7bfd 	stp	x29, x30, [sp, #-32]!
    369c:	b0000003 	adrp	x3, 4000 <_malloc_r+0x618>
    36a0:	b0000002 	adrp	x2, 4000 <_malloc_r+0x618>
    36a4:	910003fd 	mov	x29, sp
    36a8:	fd47b061 	ldr	d1, [x3, #3936]
    36ac:	fd47b440 	ldr	d0, [x2, #3944]
    36b0:	a90153f3 	stp	x19, x20, [sp, #16]
    36b4:	2a0003f3 	mov	w19, w0
    36b8:	2a0103e0 	mov	w0, w1
    36bc:	52802001 	mov	w1, #0x100                 	// #256
    36c0:	97ffff78 	bl	34a0 <rand_init>
    36c4:	aa0003f4 	mov	x20, x0
    36c8:	d37e7e60 	ubfiz	x0, x19, #2, #32
    36cc:	940000bf 	bl	39c8 <malloc>
    36d0:	aa0003f3 	mov	x19, x0
    36d4:	aa1403e0 	mov	x0, x20
    36d8:	940000c0 	bl	39d8 <free>
    36dc:	aa1303e0 	mov	x0, x19
    36e0:	a94153f3 	ldp	x19, x20, [sp, #16]
    36e4:	a8c27bfd 	ldp	x29, x30, [sp], #32
    36e8:	d65f03c0 	ret
    36ec:	d503201f 	nop

00000000000036f0 <fromint_random_f32_vector>:
    36f0:	937e7c00 	sbfiz	x0, x0, #2, #32
    36f4:	140000b5 	b	39c8 <malloc>

00000000000036f8 <init_preset_0>:
    36f8:	d2800024 	mov	x4, #0x1                   	// #1
    36fc:	52800203 	mov	w3, #0x10                  	// #16
    3700:	f2cb9464 	movk	x4, #0x5ca3, lsl #32
    3704:	528001c5 	mov	w5, #0xe                   	// #14
    3708:	f2e08c84 	movk	x4, #0x464, lsl #48
    370c:	b9000005 	str	w5, [x0]
    3710:	b9002803 	str	w3, [x0, #40]
    3714:	d0000001 	adrp	x1, 5000 <CommandLine+0x10>
    3718:	b9003c03 	str	w3, [x0, #60]
    371c:	d2803002 	mov	x2, #0x180                 	// #384
    3720:	f8044004 	stur	x4, [x0, #68]
    3724:	910b4021 	add	x1, x1, #0x2d0
    3728:	911c9000 	add	x0, x0, #0x724
    372c:	17fff5a7 	b	dc8 <mmemcpy>

0000000000003730 <initialise_monitor_handles>:
    3730:	d65f03c0 	ret
    3734:	00000000 	.inst	0x00000000 ; undefined

0000000000003738 <FIQInterrupt>:
    3738:	d0000000 	adrp	x0, 5000 <CommandLine+0x10>
    373c:	910e2000 	add	x0, x0, #0x388
    3740:	a9430001 	ldp	x1, x0, [x0, #48]
    3744:	d61f0020 	br	x1

0000000000003748 <IRQInterrupt>:
    3748:	d0000000 	adrp	x0, 5000 <CommandLine+0x10>
    374c:	910e2000 	add	x0, x0, #0x388
    3750:	a9420001 	ldp	x1, x0, [x0, #32]
    3754:	d61f0020 	br	x1

0000000000003758 <SynchronousInterrupt>:
    3758:	d0000000 	adrp	x0, 5000 <CommandLine+0x10>
    375c:	910e2000 	add	x0, x0, #0x388
    3760:	a9410001 	ldp	x1, x0, [x0, #16]
    3764:	d61f0020 	br	x1

0000000000003768 <SErrorInterrupt>:
    3768:	d0000000 	adrp	x0, 5000 <CommandLine+0x10>
    376c:	910e2000 	add	x0, x0, #0x388
    3770:	a9440001 	ldp	x1, x0, [x0, #64]
    3774:	d61f0020 	br	x1
    3778:	0000e080 	.word	0x0000e080
    377c:	00000000 	.word	0x00000000
    3780:	0000e080 	.word	0x0000e080
    3784:	00000000 	.word	0x00000000
    3788:	0000e080 	.word	0x0000e080
    378c:	00000000 	.word	0x00000000
    3790:	0000e140 	.word	0x0000e140
    3794:	00000000 	.word	0x00000000

0000000000003798 <_startup>:
    3798:	d2800000 	mov	x0, #0x0                   	// #0
    379c:	5800036a 	ldr	x10, 3808 <_startup+0x70>
    37a0:	b940014b 	ldr	w11, [x10]
    37a4:	d53800a2 	mrs	x2, mpidr_el1
    37a8:	d3401c42 	ubfx	x2, x2, #0, #8
    37ac:	52800021 	mov	w1, #0x1                   	// #1
    37b0:	1ac22022 	lsl	w2, w1, w2
    37b4:	6a02016b 	ands	w11, w11, w2
    37b8:	540001a1 	b.ne	37ec <_startup+0x54>  // b.any
    37bc:	58fffde1 	ldr	x1, 3778 <SErrorInterrupt+0x10>
    37c0:	58fffe02 	ldr	x2, 3780 <SErrorInterrupt+0x18>
    37c4:	eb02003f 	cmp	x1, x2
    37c8:	5400006a 	b.ge	37d4 <_startup+0x3c>  // b.tcont
    37cc:	f8008420 	str	x0, [x1], #8
    37d0:	17fffffd 	b	37c4 <_startup+0x2c>
    37d4:	58fffda1 	ldr	x1, 3788 <SErrorInterrupt+0x20>
    37d8:	58fffdc2 	ldr	x2, 3790 <SErrorInterrupt+0x28>
    37dc:	eb02003f 	cmp	x1, x2
    37e0:	5400006a 	b.ge	37ec <_startup+0x54>  // b.tcont
    37e4:	f8008420 	str	x0, [x1], #8
    37e8:	17fffffd 	b	37dc <_startup+0x44>
    37ec:	94000053 	bl	3938 <__libc_init_array>
    37f0:	d2800000 	mov	x0, #0x0                   	// #0
    37f4:	d2800001 	mov	x1, #0x0                   	// #0
    37f8:	94000520 	bl	4c78 <main>
    37fc:	9400003d 	bl	38f0 <__libc_fini_array>
    3800:	9400002e 	bl	38b8 <exit>
    3804:	14000000 	b	3804 <_startup+0x6c>
    3808:	fd5c0090 	.word	0xfd5c0090
    380c:	00000000 	.word	0x00000000

0000000000003810 <Xil_ExceptionNullHandler>:
    3810:	14000000 	b	3810 <Xil_ExceptionNullHandler>
    3814:	d503201f 	nop

0000000000003818 <Xil_SyncAbortHandler>:
    3818:	14000000 	b	3818 <Xil_SyncAbortHandler>
    381c:	d503201f 	nop

0000000000003820 <Xil_SErrorAbortHandler>:
    3820:	14000000 	b	3820 <Xil_SErrorAbortHandler>
    3824:	d503201f 	nop

0000000000003828 <Xil_ExceptionInit>:
    3828:	d65f03c0 	ret
    382c:	d503201f 	nop

0000000000003830 <Xil_ExceptionRegisterHandler>:
    3830:	d37c7c00 	ubfiz	x0, x0, #4, #32
    3834:	d0000003 	adrp	x3, 5000 <CommandLine+0x10>
    3838:	910e2063 	add	x3, x3, #0x388
    383c:	8b000064 	add	x4, x3, x0
    3840:	f8206861 	str	x1, [x3, x0]
    3844:	f9000482 	str	x2, [x4, #8]
    3848:	d65f03c0 	ret
    384c:	d503201f 	nop

0000000000003850 <Xil_GetExceptionRegisterHandler>:
    3850:	d37c7c00 	ubfiz	x0, x0, #4, #32
    3854:	d0000003 	adrp	x3, 5000 <CommandLine+0x10>
    3858:	910e2063 	add	x3, x3, #0x388
    385c:	8b000064 	add	x4, x3, x0
    3860:	f8606860 	ldr	x0, [x3, x0]
    3864:	f9000020 	str	x0, [x1]
    3868:	f9400480 	ldr	x0, [x4, #8]
    386c:	f9000040 	str	x0, [x2]
    3870:	d65f03c0 	ret
    3874:	d503201f 	nop

0000000000003878 <Xil_ExceptionRemoveHandler>:
    3878:	d37c7c00 	ubfiz	x0, x0, #4, #32
    387c:	d0000001 	adrp	x1, 5000 <CommandLine+0x10>
    3880:	910e2021 	add	x1, x1, #0x388
    3884:	90000002 	adrp	x2, 3000 <hydro_2d_implicit+0x98>
    3888:	8b000023 	add	x3, x1, x0
    388c:	91204042 	add	x2, x2, #0x810
    3890:	f8206822 	str	x2, [x1, x0]
    3894:	f900047f 	str	xzr, [x3, #8]
    3898:	d65f03c0 	ret
    389c:	00000000 	.inst	0x00000000 ; undefined

00000000000038a0 <atexit>:
    38a0:	aa0003e1 	mov	x1, x0
    38a4:	d2800003 	mov	x3, #0x0                   	// #0
    38a8:	d2800002 	mov	x2, #0x0                   	// #0
    38ac:	52800000 	mov	w0, #0x0                   	// #0
    38b0:	140002f2 	b	4478 <__register_exitproc>
    38b4:	00000000 	.inst	0x00000000 ; undefined

00000000000038b8 <exit>:
    38b8:	a9be7bfd 	stp	x29, x30, [sp, #-32]!
    38bc:	d2800001 	mov	x1, #0x0                   	// #0
    38c0:	910003fd 	mov	x29, sp
    38c4:	f9000bf3 	str	x19, [sp, #16]
    38c8:	2a0003f3 	mov	w19, w0
    38cc:	94000329 	bl	4570 <__call_exitprocs>
    38d0:	b0000000 	adrp	x0, 4000 <_malloc_r+0x618>
    38d4:	f946e000 	ldr	x0, [x0, #3520]
    38d8:	f9402c01 	ldr	x1, [x0, #88]
    38dc:	b4000041 	cbz	x1, 38e4 <exit+0x2c>
    38e0:	d63f0020 	blr	x1
    38e4:	2a1303e0 	mov	w0, w19
    38e8:	940004ce 	bl	4c20 <_exit>
    38ec:	00000000 	.inst	0x00000000 ; undefined

00000000000038f0 <__libc_fini_array>:
    38f0:	a9be7bfd 	stp	x29, x30, [sp, #-32]!
    38f4:	b0000001 	adrp	x1, 4000 <_malloc_r+0x618>
    38f8:	b0000000 	adrp	x0, 4000 <_malloc_r+0x618>
    38fc:	910003fd 	mov	x29, sp
    3900:	a90153f3 	stp	x19, x20, [sp, #16]
    3904:	f947b833 	ldr	x19, [x1, #3952]
    3908:	f947bc14 	ldr	x20, [x0, #3960]
    390c:	cb140273 	sub	x19, x19, x20
    3910:	9343fe73 	asr	x19, x19, #3
    3914:	b40000b3 	cbz	x19, 3928 <__libc_fini_array+0x38>
    3918:	d1000673 	sub	x19, x19, #0x1
    391c:	f8737a80 	ldr	x0, [x20, x19, lsl #3]
    3920:	d63f0000 	blr	x0
    3924:	b5ffffb3 	cbnz	x19, 3918 <__libc_fini_array+0x28>
    3928:	a94153f3 	ldp	x19, x20, [sp, #16]
    392c:	a8c27bfd 	ldp	x29, x30, [sp], #32
    3930:	14000504 	b	4d40 <_fini>
    3934:	00000000 	.inst	0x00000000 ; undefined

0000000000003938 <__libc_init_array>:
    3938:	a9bd7bfd 	stp	x29, x30, [sp, #-48]!
    393c:	b0000001 	adrp	x1, 4000 <_malloc_r+0x618>
    3940:	b0000000 	adrp	x0, 4000 <_malloc_r+0x618>
    3944:	910003fd 	mov	x29, sp
    3948:	a90153f3 	stp	x19, x20, [sp, #16]
    394c:	f90013f5 	str	x21, [sp, #32]
    3950:	f947c434 	ldr	x20, [x1, #3976]
    3954:	f947c815 	ldr	x21, [x0, #3984]
    3958:	cb150294 	sub	x20, x20, x21
    395c:	9343fe94 	asr	x20, x20, #3
    3960:	b40000f4 	cbz	x20, 397c <__libc_init_array+0x44>
    3964:	d2800013 	mov	x19, #0x0                   	// #0
    3968:	f8737aa0 	ldr	x0, [x21, x19, lsl #3]
    396c:	91000673 	add	x19, x19, #0x1
    3970:	d63f0000 	blr	x0
    3974:	eb13029f 	cmp	x20, x19
    3978:	54ffff81 	b.ne	3968 <__libc_init_array+0x30>  // b.any
    397c:	940004e1 	bl	4d00 <_init>
    3980:	b0000001 	adrp	x1, 4000 <_malloc_r+0x618>
    3984:	b0000000 	adrp	x0, 4000 <_malloc_r+0x618>
    3988:	f947cc34 	ldr	x20, [x1, #3992]
    398c:	f947d015 	ldr	x21, [x0, #4000]
    3990:	cb150294 	sub	x20, x20, x21
    3994:	9343fe94 	asr	x20, x20, #3
    3998:	b40000f4 	cbz	x20, 39b4 <__libc_init_array+0x7c>
    399c:	d2800013 	mov	x19, #0x0                   	// #0
    39a0:	f8737aa0 	ldr	x0, [x21, x19, lsl #3]
    39a4:	91000673 	add	x19, x19, #0x1
    39a8:	d63f0000 	blr	x0
    39ac:	eb13029f 	cmp	x20, x19
    39b0:	54ffff81 	b.ne	39a0 <__libc_init_array+0x68>  // b.any
    39b4:	a94153f3 	ldp	x19, x20, [sp, #16]
    39b8:	f94013f5 	ldr	x21, [sp, #32]
    39bc:	a8c37bfd 	ldp	x29, x30, [sp], #48
    39c0:	d65f03c0 	ret
    39c4:	00000000 	.inst	0x00000000 ; undefined

00000000000039c8 <malloc>:
    39c8:	d0000002 	adrp	x2, 5000 <CommandLine+0x10>
    39cc:	aa0003e1 	mov	x1, x0
    39d0:	f941f440 	ldr	x0, [x2, #1000]
    39d4:	14000005 	b	39e8 <_malloc_r>

00000000000039d8 <free>:
    39d8:	d0000002 	adrp	x2, 5000 <CommandLine+0x10>
    39dc:	aa0003e1 	mov	x1, x0
    39e0:	f941f440 	ldr	x0, [x2, #1000]
    39e4:	1400037d 	b	47d8 <_free_r>

00000000000039e8 <_malloc_r>:
    39e8:	a9ba7bfd 	stp	x29, x30, [sp, #-96]!
    39ec:	910003fd 	mov	x29, sp
    39f0:	a90153f3 	stp	x19, x20, [sp, #16]
    39f4:	91005c34 	add	x20, x1, #0x17
    39f8:	a9025bf5 	stp	x21, x22, [sp, #32]
    39fc:	f100ba9f 	cmp	x20, #0x2e
    3a00:	aa0003f6 	mov	x22, x0
    3a04:	54000408 	b.hi	3a84 <_malloc_r+0x9c>  // b.pmore
    3a08:	f100803f 	cmp	x1, #0x20
    3a0c:	540014c8 	b.hi	3ca4 <_malloc_r+0x2bc>  // b.pmore
    3a10:	94000282 	bl	4418 <__malloc_lock>
    3a14:	d2800414 	mov	x20, #0x20                  	// #32
    3a18:	d2800a01 	mov	x1, #0x50                  	// #80
    3a1c:	52800084 	mov	w4, #0x4                   	// #4
    3a20:	d0000015 	adrp	x21, 5000 <CommandLine+0x10>
    3a24:	912ce2a0 	add	x0, x21, #0xb38
    3a28:	8b010000 	add	x0, x0, x1
    3a2c:	11000884 	add	w4, w4, #0x2
    3a30:	d1004000 	sub	x0, x0, #0x10
    3a34:	f9400c01 	ldr	x1, [x0, #24]
    3a38:	eb00003f 	cmp	x1, x0
    3a3c:	54000740 	b.eq	3b24 <_malloc_r+0x13c>  // b.none
    3a40:	a9409022 	ldp	x2, x4, [x1, #8]
    3a44:	91004033 	add	x19, x1, #0x10
    3a48:	f9400c23 	ldr	x3, [x1, #24]
    3a4c:	aa1603e0 	mov	x0, x22
    3a50:	927ef442 	and	x2, x2, #0xfffffffffffffffc
    3a54:	8b020021 	add	x1, x1, x2
    3a58:	f9400422 	ldr	x2, [x1, #8]
    3a5c:	f9000c83 	str	x3, [x4, #24]
    3a60:	b2400042 	orr	x2, x2, #0x1
    3a64:	f9000864 	str	x4, [x3, #16]
    3a68:	f9000422 	str	x2, [x1, #8]
    3a6c:	9400026d 	bl	4420 <__malloc_unlock>
    3a70:	aa1303e0 	mov	x0, x19
    3a74:	a94153f3 	ldp	x19, x20, [sp, #16]
    3a78:	a9425bf5 	ldp	x21, x22, [sp, #32]
    3a7c:	a8c67bfd 	ldp	x29, x30, [sp], #96
    3a80:	d65f03c0 	ret
    3a84:	927cee94 	and	x20, x20, #0xfffffffffffffff0
    3a88:	b2407be2 	mov	x2, #0x7fffffff            	// #2147483647
    3a8c:	eb02029f 	cmp	x20, x2
    3a90:	fa549022 	ccmp	x1, x20, #0x2, ls  // ls = plast
    3a94:	54001088 	b.hi	3ca4 <_malloc_r+0x2bc>  // b.pmore
    3a98:	94000260 	bl	4418 <__malloc_lock>
    3a9c:	f107de9f 	cmp	x20, #0x1f7
    3aa0:	54002549 	b.ls	3f48 <_malloc_r+0x560>  // b.plast
    3aa4:	d349fe80 	lsr	x0, x20, #9
    3aa8:	b4000140 	cbz	x0, 3ad0 <_malloc_r+0xe8>
    3aac:	f100101f 	cmp	x0, #0x4
    3ab0:	54000ee9 	b.ls	3c8c <_malloc_r+0x2a4>  // b.plast
    3ab4:	f100501f 	cmp	x0, #0x14
    3ab8:	54002dc8 	b.hi	4070 <_malloc_r+0x688>  // b.pmore
    3abc:	11017004 	add	w4, w0, #0x5c
    3ac0:	11016c05 	add	w5, w0, #0x5b
    3ac4:	531f7880 	lsl	w0, w4, #1
    3ac8:	937d7c00 	sbfiz	x0, x0, #3, #32
    3acc:	14000004 	b	3adc <_malloc_r+0xf4>
    3ad0:	d2808000 	mov	x0, #0x400                 	// #1024
    3ad4:	52800804 	mov	w4, #0x40                  	// #64
    3ad8:	528007e5 	mov	w5, #0x3f                  	// #63
    3adc:	d0000015 	adrp	x21, 5000 <CommandLine+0x10>
    3ae0:	912ce2a3 	add	x3, x21, #0xb38
    3ae4:	8b000063 	add	x3, x3, x0
    3ae8:	d1004063 	sub	x3, x3, #0x10
    3aec:	f9400c61 	ldr	x1, [x3, #24]
    3af0:	eb01007f 	cmp	x3, x1
    3af4:	540000c1 	b.ne	3b0c <_malloc_r+0x124>  // b.any
    3af8:	1400000b 	b	3b24 <_malloc_r+0x13c>
    3afc:	b6f81e82 	tbz	x2, #63, 3ecc <_malloc_r+0x4e4>
    3b00:	f9400c21 	ldr	x1, [x1, #24]
    3b04:	eb01007f 	cmp	x3, x1
    3b08:	540000e0 	b.eq	3b24 <_malloc_r+0x13c>  // b.none
    3b0c:	f9400420 	ldr	x0, [x1, #8]
    3b10:	927ef400 	and	x0, x0, #0xfffffffffffffffc
    3b14:	cb140002 	sub	x2, x0, x20
    3b18:	f1007c5f 	cmp	x2, #0x1f
    3b1c:	54ffff0d 	b.le	3afc <_malloc_r+0x114>
    3b20:	2a0503e4 	mov	w4, w5
    3b24:	912ce2a0 	add	x0, x21, #0xb38
    3b28:	91004003 	add	x3, x0, #0x10
    3b2c:	f9401001 	ldr	x1, [x0, #32]
    3b30:	eb03003f 	cmp	x1, x3
    3b34:	54000c80 	b.eq	3cc4 <_malloc_r+0x2dc>  // b.none
    3b38:	f9400422 	ldr	x2, [x1, #8]
    3b3c:	927ef442 	and	x2, x2, #0xfffffffffffffffc
    3b40:	cb140045 	sub	x5, x2, x20
    3b44:	f1007cbf 	cmp	x5, #0x1f
    3b48:	54001e0c 	b.gt	3f08 <_malloc_r+0x520>
    3b4c:	a9020c03 	stp	x3, x3, [x0, #32]
    3b50:	b6f80865 	tbz	x5, #63, 3c5c <_malloc_r+0x274>
    3b54:	f107fc5f 	cmp	x2, #0x1ff
    3b58:	54002548 	b.hi	4000 <_malloc_r+0x618>  // b.pmore
    3b5c:	d343fc45 	lsr	x5, x2, #3
    3b60:	f9400406 	ldr	x6, [x0, #8]
    3b64:	110004a3 	add	w3, w5, #0x1
    3b68:	d2800022 	mov	x2, #0x1                   	// #1
    3b6c:	13027ca5 	asr	w5, w5, #2
    3b70:	531f7863 	lsl	w3, w3, #1
    3b74:	9ac52042 	lsl	x2, x2, x5
    3b78:	aa060042 	orr	x2, x2, x6
    3b7c:	8b23cc03 	add	x3, x0, w3, sxtw #3
    3b80:	f9000402 	str	x2, [x0, #8]
    3b84:	f85f0460 	ldr	x0, [x3], #-16
    3b88:	a9010c20 	stp	x0, x3, [x1, #16]
    3b8c:	f9000861 	str	x1, [x3, #16]
    3b90:	f9000c01 	str	x1, [x0, #24]
    3b94:	13027c81 	asr	w1, w4, #2
    3b98:	d2800020 	mov	x0, #0x1                   	// #1
    3b9c:	9ac12000 	lsl	x0, x0, x1
    3ba0:	eb02001f 	cmp	x0, x2
    3ba4:	540009c8 	b.hi	3cdc <_malloc_r+0x2f4>  // b.pmore
    3ba8:	ea02001f 	tst	x0, x2
    3bac:	540000e1 	b.ne	3bc8 <_malloc_r+0x1e0>  // b.any
    3bb0:	121e7484 	and	w4, w4, #0xfffffffc
    3bb4:	d503201f 	nop
    3bb8:	d37ff800 	lsl	x0, x0, #1
    3bbc:	11001084 	add	w4, w4, #0x4
    3bc0:	ea02001f 	tst	x0, x2
    3bc4:	54ffffa0 	b.eq	3bb8 <_malloc_r+0x1d0>  // b.none
    3bc8:	912ce2a8 	add	x8, x21, #0xb38
    3bcc:	11000486 	add	w6, w4, #0x1
    3bd0:	2a0403e7 	mov	w7, w4
    3bd4:	531f78c6 	lsl	w6, w6, #1
    3bd8:	8b26cd06 	add	x6, x8, w6, sxtw #3
    3bdc:	d10040c6 	sub	x6, x6, #0x10
    3be0:	aa0603e5 	mov	x5, x6
    3be4:	f9400ca1 	ldr	x1, [x5, #24]
    3be8:	eb0100bf 	cmp	x5, x1
    3bec:	540000c1 	b.ne	3c04 <_malloc_r+0x21c>  // b.any
    3bf0:	140000db 	b	3f5c <_malloc_r+0x574>
    3bf4:	b6f81ee3 	tbz	x3, #63, 3fd0 <_malloc_r+0x5e8>
    3bf8:	f9400c21 	ldr	x1, [x1, #24]
    3bfc:	eb0100bf 	cmp	x5, x1
    3c00:	54001ae0 	b.eq	3f5c <_malloc_r+0x574>  // b.none
    3c04:	f9400422 	ldr	x2, [x1, #8]
    3c08:	927ef442 	and	x2, x2, #0xfffffffffffffffc
    3c0c:	cb140043 	sub	x3, x2, x20
    3c10:	f1007c7f 	cmp	x3, #0x1f
    3c14:	54ffff0d 	b.le	3bf4 <_malloc_r+0x20c>
    3c18:	a9411025 	ldp	x5, x4, [x1, #16]
    3c1c:	912ce2b5 	add	x21, x21, #0xb38
    3c20:	b2400280 	orr	x0, x20, #0x1
    3c24:	f9000420 	str	x0, [x1, #8]
    3c28:	f9000ca4 	str	x4, [x5, #24]
    3c2c:	8b140034 	add	x20, x1, x20
    3c30:	f9000885 	str	x5, [x4, #16]
    3c34:	910042a0 	add	x0, x21, #0x10
    3c38:	a90252b4 	stp	x20, x20, [x21, #32]
    3c3c:	b2400064 	orr	x4, x3, #0x1
    3c40:	a9008284 	stp	x4, x0, [x20, #8]
    3c44:	91004033 	add	x19, x1, #0x10
    3c48:	f9000e80 	str	x0, [x20, #24]
    3c4c:	aa1603e0 	mov	x0, x22
    3c50:	f8226823 	str	x3, [x1, x2]
    3c54:	940001f3 	bl	4420 <__malloc_unlock>
    3c58:	17ffff86 	b	3a70 <_malloc_r+0x88>
    3c5c:	8b020022 	add	x2, x1, x2
    3c60:	91004033 	add	x19, x1, #0x10
    3c64:	aa1603e0 	mov	x0, x22
    3c68:	f9400441 	ldr	x1, [x2, #8]
    3c6c:	b2400021 	orr	x1, x1, #0x1
    3c70:	f9000441 	str	x1, [x2, #8]
    3c74:	940001eb 	bl	4420 <__malloc_unlock>
    3c78:	aa1303e0 	mov	x0, x19
    3c7c:	a94153f3 	ldp	x19, x20, [sp, #16]
    3c80:	a9425bf5 	ldp	x21, x22, [sp, #32]
    3c84:	a8c67bfd 	ldp	x29, x30, [sp], #96
    3c88:	d65f03c0 	ret
    3c8c:	d346fe80 	lsr	x0, x20, #6
    3c90:	1100e404 	add	w4, w0, #0x39
    3c94:	1100e005 	add	w5, w0, #0x38
    3c98:	531f7883 	lsl	w3, w4, #1
    3c9c:	937d7c60 	sbfiz	x0, x3, #3, #32
    3ca0:	17ffff8f 	b	3adc <_malloc_r+0xf4>
    3ca4:	52800180 	mov	w0, #0xc                   	// #12
    3ca8:	b90002c0 	str	w0, [x22]
    3cac:	d2800013 	mov	x19, #0x0                   	// #0
    3cb0:	aa1303e0 	mov	x0, x19
    3cb4:	a94153f3 	ldp	x19, x20, [sp, #16]
    3cb8:	a9425bf5 	ldp	x21, x22, [sp, #32]
    3cbc:	a8c67bfd 	ldp	x29, x30, [sp], #96
    3cc0:	d65f03c0 	ret
    3cc4:	f9400402 	ldr	x2, [x0, #8]
    3cc8:	13027c81 	asr	w1, w4, #2
    3ccc:	d2800020 	mov	x0, #0x1                   	// #1
    3cd0:	9ac12000 	lsl	x0, x0, x1
    3cd4:	eb02001f 	cmp	x0, x2
    3cd8:	54fff689 	b.ls	3ba8 <_malloc_r+0x1c0>  // b.plast
    3cdc:	f90023b9 	str	x25, [x29, #64]
    3ce0:	912ce2b9 	add	x25, x21, #0xb38
    3ce4:	f9001bb7 	str	x23, [x29, #48]
    3ce8:	f9400b33 	ldr	x19, [x25, #16]
    3cec:	f9400677 	ldr	x23, [x19, #8]
    3cf0:	927ef6f7 	and	x23, x23, #0xfffffffffffffffc
    3cf4:	eb1402e0 	subs	x0, x23, x20
    3cf8:	fa5f2804 	ccmp	x0, #0x1f, #0x4, cs  // cs = hs, nlast
    3cfc:	54000c6c 	b.gt	3e88 <_malloc_r+0x4a0>
    3d00:	a904efba 	stp	x26, x27, [x29, #72]
    3d04:	f000005a 	adrp	x26, e000 <__exidx_end>
    3d08:	f9440b22 	ldr	x2, [x25, #2064]
    3d0c:	aa1603e0 	mov	x0, x22
    3d10:	f9405f41 	ldr	x1, [x26, #184]
    3d14:	b100045f 	cmn	x2, #0x1
    3d18:	f9001fb8 	str	x24, [x29, #56]
    3d1c:	8b010281 	add	x1, x20, x1
    3d20:	d28203e2 	mov	x2, #0x101f                	// #4127
    3d24:	8b020038 	add	x24, x1, x2
    3d28:	91008021 	add	x1, x1, #0x20
    3d2c:	9274cf18 	and	x24, x24, #0xfffffffffffff000
    3d30:	9a811318 	csel	x24, x24, x1, ne  // ne = any
    3d34:	aa1803e1 	mov	x1, x24
    3d38:	940001bc 	bl	4428 <_sbrk_r>
    3d3c:	aa0003fb 	mov	x27, x0
    3d40:	b100041f 	cmn	x0, #0x1
    3d44:	54001b40 	b.eq	40ac <_malloc_r+0x6c4>  // b.none
    3d48:	8b170261 	add	x1, x19, x23
    3d4c:	eb00003f 	cmp	x1, x0
    3d50:	54001aa8 	b.hi	40a4 <_malloc_r+0x6bc>  // b.pmore
    3d54:	9102e342 	add	x2, x26, #0xb8
    3d58:	b9400840 	ldr	w0, [x2, #8]
    3d5c:	0b180000 	add	w0, w0, w24
    3d60:	b9000840 	str	w0, [x2, #8]
    3d64:	2a0003e2 	mov	w2, w0
    3d68:	54001e00 	b.eq	4128 <_malloc_r+0x740>  // b.none
    3d6c:	912ce2a0 	add	x0, x21, #0xb38
    3d70:	f9440803 	ldr	x3, [x0, #2064]
    3d74:	b100047f 	cmn	x3, #0x1
    3d78:	54002080 	b.eq	4188 <_malloc_r+0x7a0>  // b.none
    3d7c:	9102e340 	add	x0, x26, #0xb8
    3d80:	cb010361 	sub	x1, x27, x1
    3d84:	0b010041 	add	w1, w2, w1
    3d88:	b9000801 	str	w1, [x0, #8]
    3d8c:	d2820001 	mov	x1, #0x1000                	// #4096
    3d90:	f2400f60 	ands	x0, x27, #0xf
    3d94:	540000a0 	b.eq	3da8 <_malloc_r+0x3c0>  // b.none
    3d98:	cb00037b 	sub	x27, x27, x0
    3d9c:	d2820201 	mov	x1, #0x1010                	// #4112
    3da0:	9100437b 	add	x27, x27, #0x10
    3da4:	cb000021 	sub	x1, x1, x0
    3da8:	8b180378 	add	x24, x27, x24
    3dac:	aa1603e0 	mov	x0, x22
    3db0:	92402f18 	and	x24, x24, #0xfff
    3db4:	cb180038 	sub	x24, x1, x24
    3db8:	aa1803e1 	mov	x1, x24
    3dbc:	9400019b 	bl	4428 <_sbrk_r>
    3dc0:	b100041f 	cmn	x0, #0x1
    3dc4:	54001e60 	b.eq	4190 <_malloc_r+0x7a8>  // b.none
    3dc8:	cb1b0001 	sub	x1, x0, x27
    3dcc:	2a1803e0 	mov	w0, w24
    3dd0:	8b180021 	add	x1, x1, x24
    3dd4:	b2400021 	orr	x1, x1, #0x1
    3dd8:	9102e358 	add	x24, x26, #0xb8
    3ddc:	912ce2a2 	add	x2, x21, #0xb38
    3de0:	eb02027f 	cmp	x19, x2
    3de4:	b9400b03 	ldr	w3, [x24, #8]
    3de8:	f900085b 	str	x27, [x2, #16]
    3dec:	0b030000 	add	w0, w0, w3
    3df0:	f9000761 	str	x1, [x27, #8]
    3df4:	b9000b00 	str	w0, [x24, #8]
    3df8:	540001e0 	b.eq	3e34 <_malloc_r+0x44c>  // b.none
    3dfc:	f1007eff 	cmp	x23, #0x1f
    3e00:	54001b29 	b.ls	4164 <_malloc_r+0x77c>  // b.plast
    3e04:	d10062e1 	sub	x1, x23, #0x18
    3e08:	f9400662 	ldr	x2, [x19, #8]
    3e0c:	927cec21 	and	x1, x1, #0xfffffffffffffff0
    3e10:	d2800124 	mov	x4, #0x9                   	// #9
    3e14:	8b010263 	add	x3, x19, x1
    3e18:	92400042 	and	x2, x2, #0x1
    3e1c:	aa010042 	orr	x2, x2, x1
    3e20:	f9000662 	str	x2, [x19, #8]
    3e24:	f1007c3f 	cmp	x1, #0x1f
    3e28:	f8008c64 	str	x4, [x3, #8]!
    3e2c:	f9000464 	str	x4, [x3, #8]
    3e30:	54001d88 	b.hi	41e0 <_malloc_r+0x7f8>  // b.pmore
    3e34:	9102e341 	add	x1, x26, #0xb8
    3e38:	93407c00 	sxtw	x0, w0
    3e3c:	f9401822 	ldr	x2, [x1, #48]
    3e40:	eb02001f 	cmp	x0, x2
    3e44:	54000049 	b.ls	3e4c <_malloc_r+0x464>  // b.plast
    3e48:	f9001820 	str	x0, [x1, #48]
    3e4c:	912ce2a1 	add	x1, x21, #0xb38
    3e50:	9102e35a 	add	x26, x26, #0xb8
    3e54:	f9400833 	ldr	x19, [x1, #16]
    3e58:	f9401f41 	ldr	x1, [x26, #56]
    3e5c:	eb01001f 	cmp	x0, x1
    3e60:	f9400661 	ldr	x1, [x19, #8]
    3e64:	927ef421 	and	x1, x1, #0xfffffffffffffffc
    3e68:	54000049 	b.ls	3e70 <_malloc_r+0x488>  // b.plast
    3e6c:	f9001f40 	str	x0, [x26, #56]
    3e70:	cb140020 	sub	x0, x1, x20
    3e74:	eb01029f 	cmp	x20, x1
    3e78:	fa5f9804 	ccmp	x0, #0x1f, #0x4, ls  // ls = plast
    3e7c:	5400178d 	b.le	416c <_malloc_r+0x784>
    3e80:	f9401fb8 	ldr	x24, [x29, #56]
    3e84:	a944efba 	ldp	x26, x27, [x29, #72]
    3e88:	912ce2b5 	add	x21, x21, #0xb38
    3e8c:	8b140262 	add	x2, x19, x20
    3e90:	b2400294 	orr	x20, x20, #0x1
    3e94:	f9000674 	str	x20, [x19, #8]
    3e98:	b2400001 	orr	x1, x0, #0x1
    3e9c:	f9000aa2 	str	x2, [x21, #16]
    3ea0:	aa1603e0 	mov	x0, x22
    3ea4:	f9000441 	str	x1, [x2, #8]
    3ea8:	91004273 	add	x19, x19, #0x10
    3eac:	9400015d 	bl	4420 <__malloc_unlock>
    3eb0:	f9401bb7 	ldr	x23, [x29, #48]
    3eb4:	aa1303e0 	mov	x0, x19
    3eb8:	f94023b9 	ldr	x25, [x29, #64]
    3ebc:	a94153f3 	ldp	x19, x20, [sp, #16]
    3ec0:	a9425bf5 	ldp	x21, x22, [sp, #32]
    3ec4:	a8c67bfd 	ldp	x29, x30, [sp], #96
    3ec8:	d65f03c0 	ret
    3ecc:	8b000022 	add	x2, x1, x0
    3ed0:	91004033 	add	x19, x1, #0x10
    3ed4:	a9410c24 	ldp	x4, x3, [x1, #16]
    3ed8:	aa1603e0 	mov	x0, x22
    3edc:	f9400441 	ldr	x1, [x2, #8]
    3ee0:	f9000c83 	str	x3, [x4, #24]
    3ee4:	b2400021 	orr	x1, x1, #0x1
    3ee8:	f9000864 	str	x4, [x3, #16]
    3eec:	f9000441 	str	x1, [x2, #8]
    3ef0:	9400014c 	bl	4420 <__malloc_unlock>
    3ef4:	aa1303e0 	mov	x0, x19
    3ef8:	a94153f3 	ldp	x19, x20, [sp, #16]
    3efc:	a9425bf5 	ldp	x21, x22, [sp, #32]
    3f00:	a8c67bfd 	ldp	x29, x30, [sp], #96
    3f04:	d65f03c0 	ret
    3f08:	8b140024 	add	x4, x1, x20
    3f0c:	b2400294 	orr	x20, x20, #0x1
    3f10:	f9000434 	str	x20, [x1, #8]
    3f14:	b24000a6 	orr	x6, x5, #0x1
    3f18:	a9021004 	stp	x4, x4, [x0, #32]
    3f1c:	91004033 	add	x19, x1, #0x10
    3f20:	a9008c86 	stp	x6, x3, [x4, #8]
    3f24:	aa1603e0 	mov	x0, x22
    3f28:	f9000c83 	str	x3, [x4, #24]
    3f2c:	f8226825 	str	x5, [x1, x2]
    3f30:	9400013c 	bl	4420 <__malloc_unlock>
    3f34:	aa1303e0 	mov	x0, x19
    3f38:	a94153f3 	ldp	x19, x20, [sp, #16]
    3f3c:	a9425bf5 	ldp	x21, x22, [sp, #32]
    3f40:	a8c67bfd 	ldp	x29, x30, [sp], #96
    3f44:	d65f03c0 	ret
    3f48:	d343fe84 	lsr	x4, x20, #3
    3f4c:	11000480 	add	w0, w4, #0x1
    3f50:	531f7800 	lsl	w0, w0, #1
    3f54:	937d7c01 	sbfiz	x1, x0, #3, #32
    3f58:	17fffeb2 	b	3a20 <_malloc_r+0x38>
    3f5c:	110004e1 	add	w1, w7, #0x1
    3f60:	7100f8ff 	cmp	w7, #0x3e
    3f64:	540009ad 	b.le	4098 <_malloc_r+0x6b0>
    3f68:	910040a5 	add	x5, x5, #0x10
    3f6c:	2a0103e7 	mov	w7, w1
    3f70:	f24004ff 	tst	x7, #0x3
    3f74:	54ffe381 	b.ne	3be4 <_malloc_r+0x1fc>  // b.any
    3f78:	14000005 	b	3f8c <_malloc_r+0x5a4>
    3f7c:	f85f0426 	ldr	x6, [x1], #-16
    3f80:	51000484 	sub	w4, w4, #0x1
    3f84:	eb0100df 	cmp	x6, x1
    3f88:	540014c1 	b.ne	4220 <_malloc_r+0x838>  // b.any
    3f8c:	aa0603e1 	mov	x1, x6
    3f90:	f240049f 	tst	x4, #0x3
    3f94:	54ffff41 	b.ne	3f7c <_malloc_r+0x594>  // b.any
    3f98:	f9400501 	ldr	x1, [x8, #8]
    3f9c:	8a200021 	bic	x1, x1, x0
    3fa0:	f9000501 	str	x1, [x8, #8]
    3fa4:	d37ff800 	lsl	x0, x0, #1
    3fa8:	f100001f 	cmp	x0, #0x0
    3fac:	fa411002 	ccmp	x0, x1, #0x2, ne  // ne = any
    3fb0:	54000089 	b.ls	3fc0 <_malloc_r+0x5d8>  // b.plast
    3fb4:	17ffff4a 	b	3cdc <_malloc_r+0x2f4>
    3fb8:	d37ff800 	lsl	x0, x0, #1
    3fbc:	110010e7 	add	w7, w7, #0x4
    3fc0:	ea01001f 	tst	x0, x1
    3fc4:	54ffffa0 	b.eq	3fb8 <_malloc_r+0x5d0>  // b.none
    3fc8:	2a0703e4 	mov	w4, w7
    3fcc:	17ffff00 	b	3bcc <_malloc_r+0x1e4>
    3fd0:	8b020022 	add	x2, x1, x2
    3fd4:	aa0103f3 	mov	x19, x1
    3fd8:	f9400c23 	ldr	x3, [x1, #24]
    3fdc:	aa1603e0 	mov	x0, x22
    3fe0:	f9400441 	ldr	x1, [x2, #8]
    3fe4:	f8410e64 	ldr	x4, [x19, #16]!
    3fe8:	b2400021 	orr	x1, x1, #0x1
    3fec:	f9000441 	str	x1, [x2, #8]
    3ff0:	f9000c83 	str	x3, [x4, #24]
    3ff4:	f9000864 	str	x4, [x3, #16]
    3ff8:	9400010a 	bl	4420 <__malloc_unlock>
    3ffc:	17fffe9d 	b	3a70 <_malloc_r+0x88>
    4000:	d349fc40 	lsr	x0, x2, #9
    4004:	f100101f 	cmp	x0, #0x4
    4008:	540005a9 	b.ls	40bc <_malloc_r+0x6d4>  // b.plast
    400c:	f100501f 	cmp	x0, #0x14
    4010:	540007c8 	b.hi	4108 <_malloc_r+0x720>  // b.pmore
    4014:	11017005 	add	w5, w0, #0x5c
    4018:	11016c03 	add	w3, w0, #0x5b
    401c:	531f78a5 	lsl	w5, w5, #1
    4020:	937d7ca5 	sbfiz	x5, x5, #3, #32
    4024:	912ce2a6 	add	x6, x21, #0xb38
    4028:	8b0500c5 	add	x5, x6, x5
    402c:	f85f04a0 	ldr	x0, [x5], #-16
    4030:	eb0000bf 	cmp	x5, x0
    4034:	540005c0 	b.eq	40ec <_malloc_r+0x704>  // b.none
    4038:	f9400403 	ldr	x3, [x0, #8]
    403c:	927ef463 	and	x3, x3, #0xfffffffffffffffc
    4040:	eb02007f 	cmp	x3, x2
    4044:	54000089 	b.ls	4054 <_malloc_r+0x66c>  // b.plast
    4048:	f9400800 	ldr	x0, [x0, #16]
    404c:	eb0000bf 	cmp	x5, x0
    4050:	54ffff41 	b.ne	4038 <_malloc_r+0x650>  // b.any
    4054:	912ce2a2 	add	x2, x21, #0xb38
    4058:	f9400c05 	ldr	x5, [x0, #24]
    405c:	f9400442 	ldr	x2, [x2, #8]
    4060:	a9011420 	stp	x0, x5, [x1, #16]
    4064:	f90008a1 	str	x1, [x5, #16]
    4068:	f9000c01 	str	x1, [x0, #24]
    406c:	17fffeca 	b	3b94 <_malloc_r+0x1ac>
    4070:	f101501f 	cmp	x0, #0x54
    4074:	54000309 	b.ls	40d4 <_malloc_r+0x6ec>  // b.plast
    4078:	f105501f 	cmp	x0, #0x154
    407c:	54000648 	b.hi	4144 <_malloc_r+0x75c>  // b.pmore
    4080:	d34ffe80 	lsr	x0, x20, #15
    4084:	1101e004 	add	w4, w0, #0x78
    4088:	1101dc05 	add	w5, w0, #0x77
    408c:	531f7880 	lsl	w0, w4, #1
    4090:	937d7c00 	sbfiz	x0, x0, #3, #32
    4094:	17fffe92 	b	3adc <_malloc_r+0xf4>
    4098:	910080a5 	add	x5, x5, #0x20
    409c:	110008e7 	add	w7, w7, #0x2
    40a0:	17ffffb4 	b	3f70 <_malloc_r+0x588>
    40a4:	eb19027f 	cmp	x19, x25
    40a8:	540007a0 	b.eq	419c <_malloc_r+0x7b4>  // b.none
    40ac:	f9400b33 	ldr	x19, [x25, #16]
    40b0:	f9400661 	ldr	x1, [x19, #8]
    40b4:	927ef421 	and	x1, x1, #0xfffffffffffffffc
    40b8:	17ffff6e 	b	3e70 <_malloc_r+0x488>
    40bc:	d346fc40 	lsr	x0, x2, #6
    40c0:	1100e405 	add	w5, w0, #0x39
    40c4:	1100e003 	add	w3, w0, #0x38
    40c8:	531f78a5 	lsl	w5, w5, #1
    40cc:	937d7ca5 	sbfiz	x5, x5, #3, #32
    40d0:	17ffffd5 	b	4024 <_malloc_r+0x63c>
    40d4:	d34cfe80 	lsr	x0, x20, #12
    40d8:	1101bc04 	add	w4, w0, #0x6f
    40dc:	1101b805 	add	w5, w0, #0x6e
    40e0:	531f7880 	lsl	w0, w4, #1
    40e4:	937d7c00 	sbfiz	x0, x0, #3, #32
    40e8:	17fffe7d 	b	3adc <_malloc_r+0xf4>
    40ec:	f94004c7 	ldr	x7, [x6, #8]
    40f0:	13027c63 	asr	w3, w3, #2
    40f4:	d2800022 	mov	x2, #0x1                   	// #1
    40f8:	9ac32042 	lsl	x2, x2, x3
    40fc:	aa070042 	orr	x2, x2, x7
    4100:	f90004c2 	str	x2, [x6, #8]
    4104:	17ffffd7 	b	4060 <_malloc_r+0x678>
    4108:	f101501f 	cmp	x0, #0x54
    410c:	54000528 	b.hi	41b0 <_malloc_r+0x7c8>  // b.pmore
    4110:	d34cfc40 	lsr	x0, x2, #12
    4114:	1101bc05 	add	w5, w0, #0x6f
    4118:	1101b803 	add	w3, w0, #0x6e
    411c:	531f78a5 	lsl	w5, w5, #1
    4120:	937d7ca5 	sbfiz	x5, x5, #3, #32
    4124:	17ffffc0 	b	4024 <_malloc_r+0x63c>
    4128:	f2402c3f 	tst	x1, #0xfff
    412c:	54ffe201 	b.ne	3d6c <_malloc_r+0x384>  // b.any
    4130:	f9400b22 	ldr	x2, [x25, #16]
    4134:	8b1802e1 	add	x1, x23, x24
    4138:	b2400021 	orr	x1, x1, #0x1
    413c:	f9000441 	str	x1, [x2, #8]
    4140:	17ffff3d 	b	3e34 <_malloc_r+0x44c>
    4144:	f115501f 	cmp	x0, #0x554
    4148:	54000448 	b.hi	41d0 <_malloc_r+0x7e8>  // b.pmore
    414c:	d352fe80 	lsr	x0, x20, #18
    4150:	1101f404 	add	w4, w0, #0x7d
    4154:	1101f005 	add	w5, w0, #0x7c
    4158:	531f7880 	lsl	w0, w4, #1
    415c:	937d7c00 	sbfiz	x0, x0, #3, #32
    4160:	17fffe5f 	b	3adc <_malloc_r+0xf4>
    4164:	d2800020 	mov	x0, #0x1                   	// #1
    4168:	f9000760 	str	x0, [x27, #8]
    416c:	aa1603e0 	mov	x0, x22
    4170:	d2800013 	mov	x19, #0x0                   	// #0
    4174:	940000ab 	bl	4420 <__malloc_unlock>
    4178:	f9402bbb 	ldr	x27, [x29, #80]
    417c:	a94363b7 	ldp	x23, x24, [x29, #48]
    4180:	a9446bb9 	ldp	x25, x26, [x29, #64]
    4184:	17fffe3b 	b	3a70 <_malloc_r+0x88>
    4188:	f904081b 	str	x27, [x0, #2064]
    418c:	17ffff00 	b	3d8c <_malloc_r+0x3a4>
    4190:	d2800021 	mov	x1, #0x1                   	// #1
    4194:	52800000 	mov	w0, #0x0                   	// #0
    4198:	17ffff10 	b	3dd8 <_malloc_r+0x3f0>
    419c:	9102e340 	add	x0, x26, #0xb8
    41a0:	b9400802 	ldr	w2, [x0, #8]
    41a4:	0b180042 	add	w2, w2, w24
    41a8:	b9000802 	str	w2, [x0, #8]
    41ac:	17fffef0 	b	3d6c <_malloc_r+0x384>
    41b0:	f105501f 	cmp	x0, #0x154
    41b4:	54000208 	b.hi	41f4 <_malloc_r+0x80c>  // b.pmore
    41b8:	d34ffc40 	lsr	x0, x2, #15
    41bc:	1101e005 	add	w5, w0, #0x78
    41c0:	1101dc03 	add	w3, w0, #0x77
    41c4:	531f78a5 	lsl	w5, w5, #1
    41c8:	937d7ca5 	sbfiz	x5, x5, #3, #32
    41cc:	17ffff96 	b	4024 <_malloc_r+0x63c>
    41d0:	d280fe00 	mov	x0, #0x7f0                 	// #2032
    41d4:	52800fe4 	mov	w4, #0x7f                  	// #127
    41d8:	52800fc5 	mov	w5, #0x7e                  	// #126
    41dc:	17fffe40 	b	3adc <_malloc_r+0xf4>
    41e0:	aa1603e0 	mov	x0, x22
    41e4:	91004261 	add	x1, x19, #0x10
    41e8:	9400017c 	bl	47d8 <_free_r>
    41ec:	b9400b00 	ldr	w0, [x24, #8]
    41f0:	17ffff11 	b	3e34 <_malloc_r+0x44c>
    41f4:	f115501f 	cmp	x0, #0x554
    41f8:	540000e8 	b.hi	4214 <_malloc_r+0x82c>  // b.pmore
    41fc:	d352fc40 	lsr	x0, x2, #18
    4200:	1101f405 	add	w5, w0, #0x7d
    4204:	1101f003 	add	w3, w0, #0x7c
    4208:	531f78a5 	lsl	w5, w5, #1
    420c:	937d7ca5 	sbfiz	x5, x5, #3, #32
    4210:	17ffff85 	b	4024 <_malloc_r+0x63c>
    4214:	d280fe05 	mov	x5, #0x7f0                 	// #2032
    4218:	52800fc3 	mov	w3, #0x7e                  	// #126
    421c:	17ffff82 	b	4024 <_malloc_r+0x63c>
    4220:	f9400501 	ldr	x1, [x8, #8]
    4224:	17ffff60 	b	3fa4 <_malloc_r+0x5bc>
	...

0000000000004240 <memset>:
    4240:	4e010c20 	dup	v0.16b, w1
    4244:	8b020004 	add	x4, x0, x2
    4248:	f101805f 	cmp	x2, #0x60
    424c:	540003c8 	b.hi	42c4 <memset+0x84>  // b.pmore
    4250:	f100405f 	cmp	x2, #0x10
    4254:	54000202 	b.cs	4294 <memset+0x54>  // b.hs, b.nlast
    4258:	4e083c01 	mov	x1, v0.d[0]
    425c:	361800a2 	tbz	w2, #3, 4270 <memset+0x30>
    4260:	f9000001 	str	x1, [x0]
    4264:	f81f8081 	stur	x1, [x4, #-8]
    4268:	d65f03c0 	ret
    426c:	d503201f 	nop
    4270:	36100082 	tbz	w2, #2, 4280 <memset+0x40>
    4274:	b9000001 	str	w1, [x0]
    4278:	b81fc081 	stur	w1, [x4, #-4]
    427c:	d65f03c0 	ret
    4280:	b4000082 	cbz	x2, 4290 <memset+0x50>
    4284:	39000001 	strb	w1, [x0]
    4288:	36080042 	tbz	w2, #1, 4290 <memset+0x50>
    428c:	781fe081 	sturh	w1, [x4, #-2]
    4290:	d65f03c0 	ret
    4294:	3d800000 	str	q0, [x0]
    4298:	373000c2 	tbnz	w2, #6, 42b0 <memset+0x70>
    429c:	3c9f0080 	stur	q0, [x4, #-16]
    42a0:	36280062 	tbz	w2, #5, 42ac <memset+0x6c>
    42a4:	3d800400 	str	q0, [x0, #16]
    42a8:	3c9e0080 	stur	q0, [x4, #-32]
    42ac:	d65f03c0 	ret
    42b0:	3d800400 	str	q0, [x0, #16]
    42b4:	ad010000 	stp	q0, q0, [x0, #32]
    42b8:	ad3f0080 	stp	q0, q0, [x4, #-32]
    42bc:	d65f03c0 	ret
    42c0:	d503201f 	nop
    42c4:	12001c21 	and	w1, w1, #0xff
    42c8:	927cec03 	and	x3, x0, #0xfffffffffffffff0
    42cc:	3d800000 	str	q0, [x0]
    42d0:	f104005f 	cmp	x2, #0x100
    42d4:	7a402820 	ccmp	w1, #0x0, #0x0, cs  // cs = hs, nlast
    42d8:	54000180 	b.eq	4308 <memset+0xc8>  // b.none
    42dc:	cb030082 	sub	x2, x4, x3
    42e0:	91004063 	add	x3, x3, #0x10
    42e4:	d1014042 	sub	x2, x2, #0x50
    42e8:	ac820060 	stp	q0, q0, [x3], #64
    42ec:	ad3f0060 	stp	q0, q0, [x3, #-32]
    42f0:	f1010042 	subs	x2, x2, #0x40
    42f4:	54ffffa8 	b.hi	42e8 <memset+0xa8>  // b.pmore
    42f8:	ad3e0080 	stp	q0, q0, [x4, #-64]
    42fc:	ad3f0080 	stp	q0, q0, [x4, #-32]
    4300:	d65f03c0 	ret
    4304:	d503201f 	nop
    4308:	d53b00e5 	mrs	x5, dczid_el0
    430c:	3727fe85 	tbnz	w5, #4, 42dc <memset+0x9c>
    4310:	12000ca5 	and	w5, w5, #0xf
    4314:	710010bf 	cmp	w5, #0x4
    4318:	54000281 	b.ne	4368 <memset+0x128>  // b.any
    431c:	3d800460 	str	q0, [x3, #16]
    4320:	ad010060 	stp	q0, q0, [x3, #32]
    4324:	927ae463 	and	x3, x3, #0xffffffffffffffc0
    4328:	ad020060 	stp	q0, q0, [x3, #64]
    432c:	ad030060 	stp	q0, q0, [x3, #96]
    4330:	cb030082 	sub	x2, x4, x3
    4334:	d1040042 	sub	x2, x2, #0x100
    4338:	91020063 	add	x3, x3, #0x80
    433c:	d503201f 	nop
    4340:	d50b7423 	dc	zva, x3
    4344:	91010063 	add	x3, x3, #0x40
    4348:	f1010042 	subs	x2, x2, #0x40
    434c:	54ffffa8 	b.hi	4340 <memset+0x100>  // b.pmore
    4350:	ad000060 	stp	q0, q0, [x3]
    4354:	ad010060 	stp	q0, q0, [x3, #32]
    4358:	ad3e0080 	stp	q0, q0, [x4, #-64]
    435c:	ad3f0080 	stp	q0, q0, [x4, #-32]
    4360:	d65f03c0 	ret
    4364:	d503201f 	nop
    4368:	710014bf 	cmp	w5, #0x5
    436c:	54000241 	b.ne	43b4 <memset+0x174>  // b.any
    4370:	3d800460 	str	q0, [x3, #16]
    4374:	ad010060 	stp	q0, q0, [x3, #32]
    4378:	ad020060 	stp	q0, q0, [x3, #64]
    437c:	ad030060 	stp	q0, q0, [x3, #96]
    4380:	9279e063 	and	x3, x3, #0xffffffffffffff80
    4384:	cb030082 	sub	x2, x4, x3
    4388:	d1040042 	sub	x2, x2, #0x100
    438c:	91020063 	add	x3, x3, #0x80
    4390:	d50b7423 	dc	zva, x3
    4394:	91020063 	add	x3, x3, #0x80
    4398:	f1020042 	subs	x2, x2, #0x80
    439c:	54ffffa8 	b.hi	4390 <memset+0x150>  // b.pmore
    43a0:	ad3c0080 	stp	q0, q0, [x4, #-128]
    43a4:	ad3d0080 	stp	q0, q0, [x4, #-96]
    43a8:	ad3e0080 	stp	q0, q0, [x4, #-64]
    43ac:	ad3f0080 	stp	q0, q0, [x4, #-32]
    43b0:	d65f03c0 	ret
    43b4:	52800086 	mov	w6, #0x4                   	// #4
    43b8:	1ac520c7 	lsl	w7, w6, w5
    43bc:	910100e5 	add	x5, x7, #0x40
    43c0:	eb05005f 	cmp	x2, x5
    43c4:	54fff8c3 	b.cc	42dc <memset+0x9c>  // b.lo, b.ul, b.last
    43c8:	d10004e6 	sub	x6, x7, #0x1
    43cc:	8b070065 	add	x5, x3, x7
    43d0:	91004063 	add	x3, x3, #0x10
    43d4:	eb0300a2 	subs	x2, x5, x3
    43d8:	8a2600a5 	bic	x5, x5, x6
    43dc:	540000a0 	b.eq	43f0 <memset+0x1b0>  // b.none
    43e0:	ac820060 	stp	q0, q0, [x3], #64
    43e4:	ad3f0060 	stp	q0, q0, [x3, #-32]
    43e8:	f1010042 	subs	x2, x2, #0x40
    43ec:	54ffffa8 	b.hi	43e0 <memset+0x1a0>  // b.pmore
    43f0:	aa0503e3 	mov	x3, x5
    43f4:	cb050082 	sub	x2, x4, x5
    43f8:	eb070042 	subs	x2, x2, x7
    43fc:	540000a3 	b.cc	4410 <memset+0x1d0>  // b.lo, b.ul, b.last
    4400:	d50b7423 	dc	zva, x3
    4404:	8b070063 	add	x3, x3, x7
    4408:	eb070042 	subs	x2, x2, x7
    440c:	54ffffa2 	b.cs	4400 <memset+0x1c0>  // b.hs, b.nlast
    4410:	8b070042 	add	x2, x2, x7
    4414:	17ffffb7 	b	42f0 <memset+0xb0>

0000000000004418 <__malloc_lock>:
    4418:	d65f03c0 	ret
    441c:	d503201f 	nop

0000000000004420 <__malloc_unlock>:
    4420:	d65f03c0 	ret
    4424:	00000000 	.inst	0x00000000 ; undefined

0000000000004428 <_sbrk_r>:
    4428:	a9be7bfd 	stp	x29, x30, [sp, #-32]!
    442c:	910003fd 	mov	x29, sp
    4430:	a90153f3 	stp	x19, x20, [sp, #16]
    4434:	d0000053 	adrp	x19, e000 <__exidx_end>
    4438:	aa0003f4 	mov	x20, x0
    443c:	aa0103e0 	mov	x0, x1
    4440:	b901027f 	str	wzr, [x19, #256]
    4444:	940001f9 	bl	4c28 <_sbrk>
    4448:	b100041f 	cmn	x0, #0x1
    444c:	54000080 	b.eq	445c <_sbrk_r+0x34>  // b.none
    4450:	a94153f3 	ldp	x19, x20, [sp, #16]
    4454:	a8c27bfd 	ldp	x29, x30, [sp], #32
    4458:	d65f03c0 	ret
    445c:	b9410261 	ldr	w1, [x19, #256]
    4460:	34ffff81 	cbz	w1, 4450 <_sbrk_r+0x28>
    4464:	b9000281 	str	w1, [x20]
    4468:	a94153f3 	ldp	x19, x20, [sp, #16]
    446c:	a8c27bfd 	ldp	x29, x30, [sp], #32
    4470:	d65f03c0 	ret
    4474:	00000000 	.inst	0x00000000 ; undefined

0000000000004478 <__register_exitproc>:
    4478:	a9bc7bfd 	stp	x29, x30, [sp, #-64]!
    447c:	90000004 	adrp	x4, 4000 <_malloc_r+0x618>
    4480:	910003fd 	mov	x29, sp
    4484:	a90153f3 	stp	x19, x20, [sp, #16]
    4488:	2a0003f4 	mov	w20, w0
    448c:	f946e093 	ldr	x19, [x4, #3520]
    4490:	a9025bf5 	stp	x21, x22, [sp, #32]
    4494:	aa0103f5 	mov	x21, x1
    4498:	aa0303f6 	mov	x22, x3
    449c:	f940fe64 	ldr	x4, [x19, #504]
    44a0:	f9001bf7 	str	x23, [sp, #48]
    44a4:	aa0203f7 	mov	x23, x2
    44a8:	b4000584 	cbz	x4, 4558 <__register_exitproc+0xe0>
    44ac:	b9400880 	ldr	w0, [x4, #8]
    44b0:	11000401 	add	w1, w0, #0x1
    44b4:	71007c1f 	cmp	w0, #0x1f
    44b8:	540001ed 	b.le	44f4 <__register_exitproc+0x7c>
    44bc:	90000000 	adrp	x0, 4000 <_malloc_r+0x618>
    44c0:	f947d400 	ldr	x0, [x0, #4008]
    44c4:	b4000500 	cbz	x0, 4564 <__register_exitproc+0xec>
    44c8:	d2806300 	mov	x0, #0x318                 	// #792
    44cc:	97fffd3f 	bl	39c8 <malloc>
    44d0:	aa0003e4 	mov	x4, x0
    44d4:	b4000480 	cbz	x0, 4564 <__register_exitproc+0xec>
    44d8:	f940fe60 	ldr	x0, [x19, #504]
    44dc:	52800021 	mov	w1, #0x1                   	// #1
    44e0:	f9000080 	str	x0, [x4]
    44e4:	b900089f 	str	wzr, [x4, #8]
    44e8:	52800000 	mov	w0, #0x0                   	// #0
    44ec:	f900fe64 	str	x4, [x19, #504]
    44f0:	f901889f 	str	xzr, [x4, #784]
    44f4:	93407c05 	sxtw	x5, w0
    44f8:	35000154 	cbnz	w20, 4520 <__register_exitproc+0xa8>
    44fc:	910008a5 	add	x5, x5, #0x2
    4500:	b9000881 	str	w1, [x4, #8]
    4504:	52800000 	mov	w0, #0x0                   	// #0
    4508:	f8257895 	str	x21, [x4, x5, lsl #3]
    450c:	a94153f3 	ldp	x19, x20, [sp, #16]
    4510:	a9425bf5 	ldp	x21, x22, [sp, #32]
    4514:	f9401bf7 	ldr	x23, [sp, #48]
    4518:	a8c47bfd 	ldp	x29, x30, [sp], #64
    451c:	d65f03c0 	ret
    4520:	8b050c83 	add	x3, x4, x5, lsl #3
    4524:	52800026 	mov	w6, #0x1                   	// #1
    4528:	1ac020c0 	lsl	w0, w6, w0
    452c:	71000a9f 	cmp	w20, #0x2
    4530:	f9008877 	str	x23, [x3, #272]
    4534:	b9431082 	ldr	w2, [x4, #784]
    4538:	2a000042 	orr	w2, w2, w0
    453c:	b9031082 	str	w2, [x4, #784]
    4540:	f9010876 	str	x22, [x3, #528]
    4544:	54fffdc1 	b.ne	44fc <__register_exitproc+0x84>  // b.any
    4548:	b9431482 	ldr	w2, [x4, #788]
    454c:	2a000040 	orr	w0, w2, w0
    4550:	b9031480 	str	w0, [x4, #788]
    4554:	17ffffea 	b	44fc <__register_exitproc+0x84>
    4558:	91080264 	add	x4, x19, #0x200
    455c:	f900fe64 	str	x4, [x19, #504]
    4560:	17ffffd3 	b	44ac <__register_exitproc+0x34>
    4564:	12800000 	mov	w0, #0xffffffff            	// #-1
    4568:	17ffffe9 	b	450c <__register_exitproc+0x94>
    456c:	00000000 	.inst	0x00000000 ; undefined

0000000000004570 <__call_exitprocs>:
    4570:	a9b97bfd 	stp	x29, x30, [sp, #-112]!
    4574:	90000002 	adrp	x2, 4000 <_malloc_r+0x618>
    4578:	910003fd 	mov	x29, sp
    457c:	a90363f7 	stp	x23, x24, [sp, #48]
    4580:	f946e057 	ldr	x23, [x2, #3520]
    4584:	a90573fb 	stp	x27, x28, [sp, #80]
    4588:	aa0103fb 	mov	x27, x1
    458c:	9107e2f8 	add	x24, x23, #0x1f8
    4590:	a90153f3 	stp	x19, x20, [sp, #16]
    4594:	a9025bf5 	stp	x21, x22, [sp, #32]
    4598:	52800036 	mov	w22, #0x1                   	// #1
    459c:	a9046bf9 	stp	x25, x26, [sp, #64]
    45a0:	90000019 	adrp	x25, 4000 <_malloc_r+0x618>
    45a4:	b9006fa0 	str	w0, [x29, #108]
    45a8:	f940fef5 	ldr	x21, [x23, #504]
    45ac:	b4000355 	cbz	x21, 4614 <__call_exitprocs+0xa4>
    45b0:	aa1803fa 	mov	x26, x24
    45b4:	b9400ab3 	ldr	w19, [x21, #8]
    45b8:	71000673 	subs	w19, w19, #0x1
    45bc:	54000164 	b.mi	45e8 <__call_exitprocs+0x78>  // b.first
    45c0:	8b33ceb4 	add	x20, x21, w19, sxtw #3
    45c4:	d503201f 	nop
    45c8:	b400035b 	cbz	x27, 4630 <__call_exitprocs+0xc0>
    45cc:	f9410a80 	ldr	x0, [x20, #528]
    45d0:	eb1b001f 	cmp	x0, x27
    45d4:	540002e0 	b.eq	4630 <__call_exitprocs+0xc0>  // b.none
    45d8:	51000673 	sub	w19, w19, #0x1
    45dc:	d1002294 	sub	x20, x20, #0x8
    45e0:	3100067f 	cmn	w19, #0x1
    45e4:	54ffff21 	b.ne	45c8 <__call_exitprocs+0x58>  // b.any
    45e8:	f947db20 	ldr	x0, [x25, #4016]
    45ec:	b4000140 	cbz	x0, 4614 <__call_exitprocs+0xa4>
    45f0:	b9400aa1 	ldr	w1, [x21, #8]
    45f4:	f94002a0 	ldr	x0, [x21]
    45f8:	350005a1 	cbnz	w1, 46ac <__call_exitprocs+0x13c>
    45fc:	b4000580 	cbz	x0, 46ac <__call_exitprocs+0x13c>
    4600:	f9000340 	str	x0, [x26]
    4604:	aa1503e0 	mov	x0, x21
    4608:	97fffcf4 	bl	39d8 <free>
    460c:	f9400355 	ldr	x21, [x26]
    4610:	b5fffd35 	cbnz	x21, 45b4 <__call_exitprocs+0x44>
    4614:	a94153f3 	ldp	x19, x20, [sp, #16]
    4618:	a9425bf5 	ldp	x21, x22, [sp, #32]
    461c:	a94363f7 	ldp	x23, x24, [sp, #48]
    4620:	a9446bf9 	ldp	x25, x26, [sp, #64]
    4624:	a94573fb 	ldp	x27, x28, [sp, #80]
    4628:	a8c77bfd 	ldp	x29, x30, [sp], #112
    462c:	d65f03c0 	ret
    4630:	b9400aa0 	ldr	w0, [x21, #8]
    4634:	f9400a82 	ldr	x2, [x20, #16]
    4638:	51000400 	sub	w0, w0, #0x1
    463c:	6b13001f 	cmp	w0, w19
    4640:	54000220 	b.eq	4684 <__call_exitprocs+0x114>  // b.none
    4644:	f9000a9f 	str	xzr, [x20, #16]
    4648:	b4fffc82 	cbz	x2, 45d8 <__call_exitprocs+0x68>
    464c:	910442a0 	add	x0, x21, #0x110
    4650:	b9420001 	ldr	w1, [x0, #512]
    4654:	1ad322c3 	lsl	w3, w22, w19
    4658:	b9400abc 	ldr	w28, [x21, #8]
    465c:	6a01007f 	tst	w3, w1
    4660:	54000161 	b.ne	468c <__call_exitprocs+0x11c>  // b.any
    4664:	d63f0040 	blr	x2
    4668:	b9400aa0 	ldr	w0, [x21, #8]
    466c:	6b1c001f 	cmp	w0, w28
    4670:	54fff9c1 	b.ne	45a8 <__call_exitprocs+0x38>  // b.any
    4674:	f9400340 	ldr	x0, [x26]
    4678:	eb15001f 	cmp	x0, x21
    467c:	54fffae0 	b.eq	45d8 <__call_exitprocs+0x68>  // b.none
    4680:	17ffffca 	b	45a8 <__call_exitprocs+0x38>
    4684:	b9000ab3 	str	w19, [x21, #8]
    4688:	17fffff0 	b	4648 <__call_exitprocs+0xd8>
    468c:	b9420401 	ldr	w1, [x0, #516]
    4690:	f9408a80 	ldr	x0, [x20, #272]
    4694:	6a01007f 	tst	w3, w1
    4698:	54000121 	b.ne	46bc <__call_exitprocs+0x14c>  // b.any
    469c:	aa0003e1 	mov	x1, x0
    46a0:	b9406fa0 	ldr	w0, [x29, #108]
    46a4:	d63f0040 	blr	x2
    46a8:	17fffff0 	b	4668 <__call_exitprocs+0xf8>
    46ac:	aa1503fa 	mov	x26, x21
    46b0:	aa0003f5 	mov	x21, x0
    46b4:	b5fff815 	cbnz	x21, 45b4 <__call_exitprocs+0x44>
    46b8:	17ffffd7 	b	4614 <__call_exitprocs+0xa4>
    46bc:	d63f0040 	blr	x2
    46c0:	17ffffea 	b	4668 <__call_exitprocs+0xf8>
    46c4:	00000000 	.inst	0x00000000 ; undefined

00000000000046c8 <_malloc_trim_r>:
    46c8:	a9bd7bfd 	stp	x29, x30, [sp, #-48]!
    46cc:	910003fd 	mov	x29, sp
    46d0:	a9025bf5 	stp	x21, x22, [sp, #32]
    46d4:	b0000015 	adrp	x21, 5000 <CommandLine+0x10>
    46d8:	912ce2b5 	add	x21, x21, #0xb38
    46dc:	a90153f3 	stp	x19, x20, [sp, #16]
    46e0:	aa0003f6 	mov	x22, x0
    46e4:	aa0103f3 	mov	x19, x1
    46e8:	97ffff4c 	bl	4418 <__malloc_lock>
    46ec:	f9400aa0 	ldr	x0, [x21, #16]
    46f0:	f9400414 	ldr	x20, [x0, #8]
    46f4:	927ef694 	and	x20, x20, #0xfffffffffffffffc
    46f8:	cb130293 	sub	x19, x20, x19
    46fc:	913f7e73 	add	x19, x19, #0xfdf
    4700:	9274ce73 	and	x19, x19, #0xfffffffffffff000
    4704:	d1400673 	sub	x19, x19, #0x1, lsl #12
    4708:	f13ffe7f 	cmp	x19, #0xfff
    470c:	5400010d 	b.le	472c <_malloc_trim_r+0x64>
    4710:	d2800001 	mov	x1, #0x0                   	// #0
    4714:	aa1603e0 	mov	x0, x22
    4718:	97ffff44 	bl	4428 <_sbrk_r>
    471c:	f9400aa1 	ldr	x1, [x21, #16]
    4720:	8b140021 	add	x1, x1, x20
    4724:	eb01001f 	cmp	x0, x1
    4728:	54000100 	b.eq	4748 <_malloc_trim_r+0x80>  // b.none
    472c:	aa1603e0 	mov	x0, x22
    4730:	97ffff3c 	bl	4420 <__malloc_unlock>
    4734:	52800000 	mov	w0, #0x0                   	// #0
    4738:	a94153f3 	ldp	x19, x20, [sp, #16]
    473c:	a9425bf5 	ldp	x21, x22, [sp, #32]
    4740:	a8c37bfd 	ldp	x29, x30, [sp], #48
    4744:	d65f03c0 	ret
    4748:	cb1303e1 	neg	x1, x19
    474c:	aa1603e0 	mov	x0, x22
    4750:	97ffff36 	bl	4428 <_sbrk_r>
    4754:	b100041f 	cmn	x0, #0x1
    4758:	54000200 	b.eq	4798 <_malloc_trim_r+0xd0>  // b.none
    475c:	d0000042 	adrp	x2, e000 <__exidx_end>
    4760:	f9400aa3 	ldr	x3, [x21, #16]
    4764:	cb130294 	sub	x20, x20, x19
    4768:	aa1603e0 	mov	x0, x22
    476c:	b940c041 	ldr	w1, [x2, #192]
    4770:	b2400294 	orr	x20, x20, #0x1
    4774:	f9000474 	str	x20, [x3, #8]
    4778:	4b130033 	sub	w19, w1, w19
    477c:	b900c053 	str	w19, [x2, #192]
    4780:	97ffff28 	bl	4420 <__malloc_unlock>
    4784:	52800020 	mov	w0, #0x1                   	// #1
    4788:	a94153f3 	ldp	x19, x20, [sp, #16]
    478c:	a9425bf5 	ldp	x21, x22, [sp, #32]
    4790:	a8c37bfd 	ldp	x29, x30, [sp], #48
    4794:	d65f03c0 	ret
    4798:	d2800001 	mov	x1, #0x0                   	// #0
    479c:	aa1603e0 	mov	x0, x22
    47a0:	97ffff22 	bl	4428 <_sbrk_r>
    47a4:	f9400aa2 	ldr	x2, [x21, #16]
    47a8:	cb020001 	sub	x1, x0, x2
    47ac:	f1007c3f 	cmp	x1, #0x1f
    47b0:	54fffbed 	b.le	472c <_malloc_trim_r+0x64>
    47b4:	d0000004 	adrp	x4, 6000 <__malloc_av_+0x4c8>
    47b8:	b2400021 	orr	x1, x1, #0x1
    47bc:	d0000043 	adrp	x3, e000 <__exidx_end>
    47c0:	f9000441 	str	x1, [x2, #8]
    47c4:	f941a481 	ldr	x1, [x4, #840]
    47c8:	cb010000 	sub	x0, x0, x1
    47cc:	b900c060 	str	w0, [x3, #192]
    47d0:	17ffffd7 	b	472c <_malloc_trim_r+0x64>
    47d4:	d503201f 	nop

00000000000047d8 <_free_r>:
    47d8:	b40008a1 	cbz	x1, 48ec <_free_r+0x114>
    47dc:	a9be7bfd 	stp	x29, x30, [sp, #-32]!
    47e0:	910003fd 	mov	x29, sp
    47e4:	a90153f3 	stp	x19, x20, [sp, #16]
    47e8:	aa0103f3 	mov	x19, x1
    47ec:	aa0003f4 	mov	x20, x0
    47f0:	97ffff0a 	bl	4418 <__malloc_lock>
    47f4:	d1004262 	sub	x2, x19, #0x10
    47f8:	b0000000 	adrp	x0, 5000 <CommandLine+0x10>
    47fc:	f85f8265 	ldur	x5, [x19, #-8]
    4800:	912ce003 	add	x3, x0, #0xb38
    4804:	927ff8a1 	and	x1, x5, #0xfffffffffffffffe
    4808:	8b010044 	add	x4, x2, x1
    480c:	f9400866 	ldr	x6, [x3, #16]
    4810:	eb0400df 	cmp	x6, x4
    4814:	f9400483 	ldr	x3, [x4, #8]
    4818:	927ef463 	and	x3, x3, #0xfffffffffffffffc
    481c:	540008a0 	b.eq	4930 <_free_r+0x158>  // b.none
    4820:	f9000483 	str	x3, [x4, #8]
    4824:	8b030086 	add	x6, x4, x3
    4828:	37000645 	tbnz	w5, #0, 48f0 <_free_r+0x118>
    482c:	f85f0267 	ldur	x7, [x19, #-16]
    4830:	f94004c5 	ldr	x5, [x6, #8]
    4834:	b0000006 	adrp	x6, 5000 <CommandLine+0x10>
    4838:	cb070042 	sub	x2, x2, x7
    483c:	8b070021 	add	x1, x1, x7
    4840:	912d20c6 	add	x6, x6, #0xb48
    4844:	924000a5 	and	x5, x5, #0x1
    4848:	f9400847 	ldr	x7, [x2, #16]
    484c:	eb0600ff 	cmp	x7, x6
    4850:	54000c60 	b.eq	49dc <_free_r+0x204>  // b.none
    4854:	f9400c46 	ldr	x6, [x2, #24]
    4858:	f9000ce6 	str	x6, [x7, #24]
    485c:	f90008c7 	str	x7, [x6, #16]
    4860:	b40004e5 	cbz	x5, 48fc <_free_r+0x124>
    4864:	b2400023 	orr	x3, x1, #0x1
    4868:	f9000443 	str	x3, [x2, #8]
    486c:	f8216841 	str	x1, [x2, x1]
    4870:	f107fc3f 	cmp	x1, #0x1ff
    4874:	540008e9 	b.ls	4990 <_free_r+0x1b8>  // b.plast
    4878:	d349fc23 	lsr	x3, x1, #9
    487c:	f100107f 	cmp	x3, #0x4
    4880:	54000c08 	b.hi	4a00 <_free_r+0x228>  // b.pmore
    4884:	d346fc23 	lsr	x3, x1, #6
    4888:	1100e464 	add	w4, w3, #0x39
    488c:	1100e065 	add	w5, w3, #0x38
    4890:	531f7884 	lsl	w4, w4, #1
    4894:	937d7c84 	sbfiz	x4, x4, #3, #32
    4898:	912ce000 	add	x0, x0, #0xb38
    489c:	8b040004 	add	x4, x0, x4
    48a0:	f85f0483 	ldr	x3, [x4], #-16
    48a4:	eb03009f 	cmp	x4, x3
    48a8:	54000ce0 	b.eq	4a44 <_free_r+0x26c>  // b.none
    48ac:	d503201f 	nop
    48b0:	f9400460 	ldr	x0, [x3, #8]
    48b4:	927ef400 	and	x0, x0, #0xfffffffffffffffc
    48b8:	eb01001f 	cmp	x0, x1
    48bc:	54000c09 	b.ls	4a3c <_free_r+0x264>  // b.plast
    48c0:	f9400863 	ldr	x3, [x3, #16]
    48c4:	eb03009f 	cmp	x4, x3
    48c8:	54ffff41 	b.ne	48b0 <_free_r+0xd8>  // b.any
    48cc:	f9400c81 	ldr	x1, [x4, #24]
    48d0:	a9010444 	stp	x4, x1, [x2, #16]
    48d4:	aa1403e0 	mov	x0, x20
    48d8:	f9000822 	str	x2, [x1, #16]
    48dc:	f9000c82 	str	x2, [x4, #24]
    48e0:	a94153f3 	ldp	x19, x20, [sp, #16]
    48e4:	a8c27bfd 	ldp	x29, x30, [sp], #32
    48e8:	17fffece 	b	4420 <__malloc_unlock>
    48ec:	d65f03c0 	ret
    48f0:	f94004c5 	ldr	x5, [x6, #8]
    48f4:	924000a5 	and	x5, x5, #0x1
    48f8:	b5fffb65 	cbnz	x5, 4864 <_free_r+0x8c>
    48fc:	f9400885 	ldr	x5, [x4, #16]
    4900:	8b030021 	add	x1, x1, x3
    4904:	b0000003 	adrp	x3, 5000 <CommandLine+0x10>
    4908:	912d2063 	add	x3, x3, #0xb48
    490c:	b2400026 	orr	x6, x1, #0x1
    4910:	eb0300bf 	cmp	x5, x3
    4914:	54000a80 	b.eq	4a64 <_free_r+0x28c>  // b.none
    4918:	f9400c83 	ldr	x3, [x4, #24]
    491c:	f9000ca3 	str	x3, [x5, #24]
    4920:	f9000865 	str	x5, [x3, #16]
    4924:	f9000446 	str	x6, [x2, #8]
    4928:	f8216841 	str	x1, [x2, x1]
    492c:	17ffffd1 	b	4870 <_free_r+0x98>
    4930:	8b030021 	add	x1, x1, x3
    4934:	370000e5 	tbnz	w5, #0, 4950 <_free_r+0x178>
    4938:	f85f0263 	ldur	x3, [x19, #-16]
    493c:	cb030042 	sub	x2, x2, x3
    4940:	8b030021 	add	x1, x1, x3
    4944:	a9410c44 	ldp	x4, x3, [x2, #16]
    4948:	f9000c83 	str	x3, [x4, #24]
    494c:	f9000864 	str	x4, [x3, #16]
    4950:	912ce000 	add	x0, x0, #0xb38
    4954:	d0000003 	adrp	x3, 6000 <__malloc_av_+0x4c8>
    4958:	b2400024 	orr	x4, x1, #0x1
    495c:	f9000444 	str	x4, [x2, #8]
    4960:	f941a863 	ldr	x3, [x3, #848]
    4964:	f9000802 	str	x2, [x0, #16]
    4968:	eb01007f 	cmp	x3, x1
    496c:	540000a8 	b.hi	4980 <_free_r+0x1a8>  // b.pmore
    4970:	d0000041 	adrp	x1, e000 <__exidx_end>
    4974:	aa1403e0 	mov	x0, x20
    4978:	f9405c21 	ldr	x1, [x1, #184]
    497c:	97ffff53 	bl	46c8 <_malloc_trim_r>
    4980:	aa1403e0 	mov	x0, x20
    4984:	a94153f3 	ldp	x19, x20, [sp, #16]
    4988:	a8c27bfd 	ldp	x29, x30, [sp], #32
    498c:	17fffea5 	b	4420 <__malloc_unlock>
    4990:	d343fc24 	lsr	x4, x1, #3
    4994:	912ce000 	add	x0, x0, #0xb38
    4998:	11000481 	add	w1, w4, #0x1
    499c:	d2800023 	mov	x3, #0x1                   	// #1
    49a0:	13027c84 	asr	w4, w4, #2
    49a4:	531f7821 	lsl	w1, w1, #1
    49a8:	f9400405 	ldr	x5, [x0, #8]
    49ac:	9ac42063 	lsl	x3, x3, x4
    49b0:	8b21cc01 	add	x1, x0, w1, sxtw #3
    49b4:	aa050063 	orr	x3, x3, x5
    49b8:	f9000403 	str	x3, [x0, #8]
    49bc:	f85f0420 	ldr	x0, [x1], #-16
    49c0:	a9010440 	stp	x0, x1, [x2, #16]
    49c4:	f9000822 	str	x2, [x1, #16]
    49c8:	f9000c02 	str	x2, [x0, #24]
    49cc:	aa1403e0 	mov	x0, x20
    49d0:	a94153f3 	ldp	x19, x20, [sp, #16]
    49d4:	a8c27bfd 	ldp	x29, x30, [sp], #32
    49d8:	17fffe92 	b	4420 <__malloc_unlock>
    49dc:	b5000765 	cbnz	x5, 4ac8 <_free_r+0x2f0>
    49e0:	a9410085 	ldp	x5, x0, [x4, #16]
    49e4:	f9000ca0 	str	x0, [x5, #24]
    49e8:	8b010061 	add	x1, x3, x1
    49ec:	b2400023 	orr	x3, x1, #0x1
    49f0:	f9000805 	str	x5, [x0, #16]
    49f4:	f9000443 	str	x3, [x2, #8]
    49f8:	f8216841 	str	x1, [x2, x1]
    49fc:	17ffffe1 	b	4980 <_free_r+0x1a8>
    4a00:	f100507f 	cmp	x3, #0x14
    4a04:	54000129 	b.ls	4a28 <_free_r+0x250>  // b.plast
    4a08:	f101507f 	cmp	x3, #0x54
    4a0c:	54000388 	b.hi	4a7c <_free_r+0x2a4>  // b.pmore
    4a10:	d34cfc23 	lsr	x3, x1, #12
    4a14:	1101bc64 	add	w4, w3, #0x6f
    4a18:	1101b865 	add	w5, w3, #0x6e
    4a1c:	531f7884 	lsl	w4, w4, #1
    4a20:	937d7c84 	sbfiz	x4, x4, #3, #32
    4a24:	17ffff9d 	b	4898 <_free_r+0xc0>
    4a28:	11017064 	add	w4, w3, #0x5c
    4a2c:	11016c65 	add	w5, w3, #0x5b
    4a30:	531f7884 	lsl	w4, w4, #1
    4a34:	937d7c84 	sbfiz	x4, x4, #3, #32
    4a38:	17ffff98 	b	4898 <_free_r+0xc0>
    4a3c:	aa0303e4 	mov	x4, x3
    4a40:	17ffffa3 	b	48cc <_free_r+0xf4>
    4a44:	13027ca3 	asr	w3, w5, #2
    4a48:	f9400406 	ldr	x6, [x0, #8]
    4a4c:	d2800025 	mov	x5, #0x1                   	// #1
    4a50:	aa0403e1 	mov	x1, x4
    4a54:	9ac320a3 	lsl	x3, x5, x3
    4a58:	aa060063 	orr	x3, x3, x6
    4a5c:	f9000403 	str	x3, [x0, #8]
    4a60:	17ffff9c 	b	48d0 <_free_r+0xf8>
    4a64:	912ce000 	add	x0, x0, #0xb38
    4a68:	a9020802 	stp	x2, x2, [x0, #32]
    4a6c:	a9009446 	stp	x6, x5, [x2, #8]
    4a70:	f9000c45 	str	x5, [x2, #24]
    4a74:	f8216841 	str	x1, [x2, x1]
    4a78:	17ffffc2 	b	4980 <_free_r+0x1a8>
    4a7c:	f105507f 	cmp	x3, #0x154
    4a80:	540000e8 	b.hi	4a9c <_free_r+0x2c4>  // b.pmore
    4a84:	d34ffc23 	lsr	x3, x1, #15
    4a88:	1101e064 	add	w4, w3, #0x78
    4a8c:	1101dc65 	add	w5, w3, #0x77
    4a90:	531f7884 	lsl	w4, w4, #1
    4a94:	937d7c84 	sbfiz	x4, x4, #3, #32
    4a98:	17ffff80 	b	4898 <_free_r+0xc0>
    4a9c:	f115507f 	cmp	x3, #0x554
    4aa0:	540000e8 	b.hi	4abc <_free_r+0x2e4>  // b.pmore
    4aa4:	d352fc23 	lsr	x3, x1, #18
    4aa8:	1101f464 	add	w4, w3, #0x7d
    4aac:	1101f065 	add	w5, w3, #0x7c
    4ab0:	531f7884 	lsl	w4, w4, #1
    4ab4:	937d7c84 	sbfiz	x4, x4, #3, #32
    4ab8:	17ffff78 	b	4898 <_free_r+0xc0>
    4abc:	d280fe04 	mov	x4, #0x7f0                 	// #2032
    4ac0:	52800fc5 	mov	w5, #0x7e                  	// #126
    4ac4:	17ffff75 	b	4898 <_free_r+0xc0>
    4ac8:	b2400020 	orr	x0, x1, #0x1
    4acc:	f9000440 	str	x0, [x2, #8]
    4ad0:	f9000081 	str	x1, [x4]
    4ad4:	17ffffab 	b	4980 <_free_r+0x1a8>

0000000000004ad8 <cleanup_glue>:
    4ad8:	a9be7bfd 	stp	x29, x30, [sp, #-32]!
    4adc:	910003fd 	mov	x29, sp
    4ae0:	a90153f3 	stp	x19, x20, [sp, #16]
    4ae4:	aa0103f3 	mov	x19, x1
    4ae8:	f9400021 	ldr	x1, [x1]
    4aec:	aa0003f4 	mov	x20, x0
    4af0:	b50000c1 	cbnz	x1, 4b08 <cleanup_glue+0x30>
    4af4:	aa1303e1 	mov	x1, x19
    4af8:	aa1403e0 	mov	x0, x20
    4afc:	a94153f3 	ldp	x19, x20, [sp, #16]
    4b00:	a8c27bfd 	ldp	x29, x30, [sp], #32
    4b04:	17ffff35 	b	47d8 <_free_r>
    4b08:	97fffff4 	bl	4ad8 <cleanup_glue>
    4b0c:	aa1303e1 	mov	x1, x19
    4b10:	aa1403e0 	mov	x0, x20
    4b14:	a94153f3 	ldp	x19, x20, [sp, #16]
    4b18:	a8c27bfd 	ldp	x29, x30, [sp], #32
    4b1c:	17ffff2f 	b	47d8 <_free_r>

0000000000004b20 <_reclaim_reent>:
    4b20:	b0000001 	adrp	x1, 5000 <CommandLine+0x10>
    4b24:	f941f421 	ldr	x1, [x1, #1000]
    4b28:	eb00003f 	cmp	x1, x0
    4b2c:	54000760 	b.eq	4c18 <_reclaim_reent+0xf8>  // b.none
    4b30:	a9bd7bfd 	stp	x29, x30, [sp, #-48]!
    4b34:	910003fd 	mov	x29, sp
    4b38:	a90153f3 	stp	x19, x20, [sp, #16]
    4b3c:	aa0003f4 	mov	x20, x0
    4b40:	f9403c00 	ldr	x0, [x0, #120]
    4b44:	f90013f5 	str	x21, [sp, #32]
    4b48:	b4000200 	cbz	x0, 4b88 <_reclaim_reent+0x68>
    4b4c:	d2800015 	mov	x21, #0x0                   	// #0
    4b50:	f8756801 	ldr	x1, [x0, x21]
    4b54:	b40000e1 	cbz	x1, 4b70 <_reclaim_reent+0x50>
    4b58:	f9400033 	ldr	x19, [x1]
    4b5c:	aa1403e0 	mov	x0, x20
    4b60:	97ffff1e 	bl	47d8 <_free_r>
    4b64:	aa1303e1 	mov	x1, x19
    4b68:	b5ffff93 	cbnz	x19, 4b58 <_reclaim_reent+0x38>
    4b6c:	f9403e80 	ldr	x0, [x20, #120]
    4b70:	910022b5 	add	x21, x21, #0x8
    4b74:	f10802bf 	cmp	x21, #0x200
    4b78:	54fffec1 	b.ne	4b50 <_reclaim_reent+0x30>  // b.any
    4b7c:	aa0003e1 	mov	x1, x0
    4b80:	aa1403e0 	mov	x0, x20
    4b84:	97ffff15 	bl	47d8 <_free_r>
    4b88:	f9403281 	ldr	x1, [x20, #96]
    4b8c:	b4000061 	cbz	x1, 4b98 <_reclaim_reent+0x78>
    4b90:	aa1403e0 	mov	x0, x20
    4b94:	97ffff11 	bl	47d8 <_free_r>
    4b98:	f940fe81 	ldr	x1, [x20, #504]
    4b9c:	b4000161 	cbz	x1, 4bc8 <_reclaim_reent+0xa8>
    4ba0:	91080295 	add	x21, x20, #0x200
    4ba4:	eb15003f 	cmp	x1, x21
    4ba8:	54000100 	b.eq	4bc8 <_reclaim_reent+0xa8>  // b.none
    4bac:	d503201f 	nop
    4bb0:	f9400033 	ldr	x19, [x1]
    4bb4:	aa1403e0 	mov	x0, x20
    4bb8:	97ffff08 	bl	47d8 <_free_r>
    4bbc:	aa1303e1 	mov	x1, x19
    4bc0:	eb1302bf 	cmp	x21, x19
    4bc4:	54ffff61 	b.ne	4bb0 <_reclaim_reent+0x90>  // b.any
    4bc8:	f9404681 	ldr	x1, [x20, #136]
    4bcc:	b4000061 	cbz	x1, 4bd8 <_reclaim_reent+0xb8>
    4bd0:	aa1403e0 	mov	x0, x20
    4bd4:	97ffff01 	bl	47d8 <_free_r>
    4bd8:	b9405280 	ldr	w0, [x20, #80]
    4bdc:	34000160 	cbz	w0, 4c08 <_reclaim_reent+0xe8>
    4be0:	f9402e81 	ldr	x1, [x20, #88]
    4be4:	aa1403e0 	mov	x0, x20
    4be8:	d63f0020 	blr	x1
    4bec:	f9429281 	ldr	x1, [x20, #1312]
    4bf0:	b40000c1 	cbz	x1, 4c08 <_reclaim_reent+0xe8>
    4bf4:	aa1403e0 	mov	x0, x20
    4bf8:	f94013f5 	ldr	x21, [sp, #32]
    4bfc:	a94153f3 	ldp	x19, x20, [sp, #16]
    4c00:	a8c37bfd 	ldp	x29, x30, [sp], #48
    4c04:	17ffffb5 	b	4ad8 <cleanup_glue>
    4c08:	a94153f3 	ldp	x19, x20, [sp, #16]
    4c0c:	f94013f5 	ldr	x21, [sp, #32]
    4c10:	a8c37bfd 	ldp	x29, x30, [sp], #48
    4c14:	d65f03c0 	ret
    4c18:	d65f03c0 	ret
    4c1c:	00000000 	.inst	0x00000000 ; undefined

0000000000004c20 <_exit>:
    4c20:	14000000 	b	4c20 <_exit>
    4c24:	00000000 	.inst	0x00000000 ; undefined

0000000000004c28 <_sbrk>:
    4c28:	d0000043 	adrp	x3, e000 <__exidx_end>
    4c2c:	f9407c61 	ldr	x1, [x3, #248]
    4c30:	b4000181 	cbz	x1, 4c60 <_sbrk+0x38>
    4c34:	8b20c020 	add	x0, x1, w0, sxtw
    4c38:	d0000102 	adrp	x2, 26000 <_HEAP_SIZE+0xe000>
    4c3c:	91050042 	add	x2, x2, #0x140
    4c40:	eb02001f 	cmp	x0, x2
    4c44:	54000089 	b.ls	4c54 <_sbrk+0x2c>  // b.plast
    4c48:	92800001 	mov	x1, #0xffffffffffffffff    	// #-1
    4c4c:	aa0103e0 	mov	x0, x1
    4c50:	d65f03c0 	ret
    4c54:	f9007c60 	str	x0, [x3, #248]
    4c58:	aa0103e0 	mov	x0, x1
    4c5c:	d65f03c0 	ret
    4c60:	d0000042 	adrp	x2, e000 <__exidx_end>
    4c64:	91050042 	add	x2, x2, #0x140
    4c68:	aa0203e1 	mov	x1, x2
    4c6c:	f9007c62 	str	x2, [x3, #248]
    4c70:	17fffff1 	b	4c34 <_sbrk+0xc>
    4c74:	00000000 	.inst	0x00000000 ; undefined

0000000000004c78 <main>:
    4c78:	d12903ff 	sub	sp, sp, #0xa40
    4c7c:	a9007bfd 	stp	x29, x30, [sp]
    4c80:	910003fd 	mov	x29, sp
    4c84:	910063a0 	add	x0, x29, #0x18
    4c88:	97fffa9c 	bl	36f8 <init_preset_0>
    4c8c:	910063a5 	add	x5, x29, #0x18
    4c90:	b0000004 	adrp	x4, 5000 <CommandLine+0x10>
    4c94:	b0000003 	adrp	x3, 5000 <CommandLine+0x10>
    4c98:	9103c084 	add	x4, x4, #0xf0
    4c9c:	91078063 	add	x3, x3, #0x1e0
    4ca0:	b0000002 	adrp	x2, 5000 <CommandLine+0x10>
    4ca4:	b0000001 	adrp	x1, 5000 <CommandLine+0x10>
    4ca8:	9105a042 	add	x2, x2, #0x168
    4cac:	91096021 	add	x1, x1, #0x258
    4cb0:	528001c0 	mov	w0, #0xe                   	// #14
    4cb4:	97fff14d 	bl	11e8 <initParameters_fromPreset>
    4cb8:	910063a0 	add	x0, x29, #0x18
    4cbc:	97fff189 	bl	12e0 <runAll>
    4cc0:	910063a0 	add	x0, x29, #0x18
    4cc4:	97fff1ef 	bl	1480 <printResults>
    4cc8:	a9407bfd 	ldp	x29, x30, [sp]
    4ccc:	52800000 	mov	w0, #0x0                   	// #0
    4cd0:	912903ff 	add	sp, sp, #0xa40
    4cd4:	d65f03c0 	ret

Disassembly of section .init:

0000000000004d00 <_init>:
    4d00:	a9bf7bfd 	stp	x29, x30, [sp, #-16]!
    4d04:	a9bf73fb 	stp	x27, x28, [sp, #-16]!
    4d08:	a9bf6bf9 	stp	x25, x26, [sp, #-16]!
    4d0c:	a9bf63f7 	stp	x23, x24, [sp, #-16]!
    4d10:	a9bf5bf5 	stp	x21, x22, [sp, #-16]!
    4d14:	a9bf53f3 	stp	x19, x20, [sp, #-16]!
    4d18:	a8c153f3 	ldp	x19, x20, [sp], #16
    4d1c:	a8c15bf5 	ldp	x21, x22, [sp], #16
    4d20:	a8c163f7 	ldp	x23, x24, [sp], #16
    4d24:	a8c16bf9 	ldp	x25, x26, [sp], #16
    4d28:	a8c173fb 	ldp	x27, x28, [sp], #16
    4d2c:	a8c17bfd 	ldp	x29, x30, [sp], #16
    4d30:	d65f03c0 	ret

Disassembly of section .fini:

0000000000004d40 <_fini>:
    4d40:	a9bf7bfd 	stp	x29, x30, [sp, #-16]!
    4d44:	a9bf73fb 	stp	x27, x28, [sp, #-16]!
    4d48:	a9bf6bf9 	stp	x25, x26, [sp, #-16]!
    4d4c:	a9bf63f7 	stp	x23, x24, [sp, #-16]!
    4d50:	a9bf5bf5 	stp	x21, x22, [sp, #-16]!
    4d54:	a9bf53f3 	stp	x19, x20, [sp, #-16]!
    4d58:	a8c153f3 	ldp	x19, x20, [sp], #16
    4d5c:	a8c15bf5 	ldp	x21, x22, [sp], #16
    4d60:	a8c163f7 	ldp	x23, x24, [sp], #16
    4d64:	a8c16bf9 	ldp	x25, x26, [sp], #16
    4d68:	a8c173fb 	ldp	x27, x28, [sp], #16
    4d6c:	a8c17bfd 	ldp	x29, x30, [sp], #16
    4d70:	d65f03c0 	ret

Disassembly of section .note.gnu.build-id:

0000000000004d74 <.note.gnu.build-id>:
    4d74:	00000004 	.inst	0x00000004 ; undefined
    4d78:	00000014 	.inst	0x00000014 ; undefined
    4d7c:	00000003 	.inst	0x00000003 ; undefined
    4d80:	00554e47 	.inst	0x00554e47 ; undefined
    4d84:	05db62cb 	mov	z11.d, p11/m, #5632
    4d88:	963e3f6f 	bl	fffffffff8f94b44 <Device+0xff9ffffff8f9473b>
    4d8c:	becb764f 	.inst	0xbecb764f ; undefined
    4d90:	4cb58fa4 	.inst	0x4cb58fa4 ; undefined
    4d94:	c4254d86 	prfw	#6, p3, [x12, z5.d, uxtw #2]

Disassembly of section .rodata:

0000000000004d98 <_global_impure_ptr-0x28>:
	...

0000000000004dc0 <_global_impure_ptr>:
    4dc0:	000053f0 	.word	0x000053f0
	...
    4de8:	7ae147ae 	.word	0x7ae147ae
    4dec:	3fefae14 	.word	0x3fefae14
    4df0:	c28f5c29 	.word	0xc28f5c29
    4df4:	3ff028f5 	.word	0x3ff028f5
    4df8:	64656d2f 	.word	0x64656d2f
    4dfc:	6e2f6169 	.word	0x6e2f6169
    4e00:	2f6f6e75 	.word	0x2f6f6e75
    4e04:	2f444448 	.word	0x2f444448
    4e08:	6b726f77 	.word	0x6b726f77
    4e0c:	6f72702f 	.word	0x6f72702f
    4e10:	7463656a 	.word	0x7463656a
    4e14:	69562f73 	.word	0x69562f73
    4e18:	6f646176 	.word	0x6f646176
    4e1c:	75637a2f 	.word	0x75637a2f
    4e20:	2f323031 	.word	0x2f323031
    4e24:	682f7773 	.word	0x682f7773
    4e28:	656e7261 	.word	0x656e7261
    4e2c:	682f7373 	.word	0x682f7373
    4e30:	656e7261 	.word	0x656e7261
    4e34:	632e7373 	.word	0x632e7373
	...
    4e40:	64656d2f 	.word	0x64656d2f
    4e44:	6e2f6169 	.word	0x6e2f6169
    4e48:	2f6f6e75 	.word	0x2f6f6e75
    4e4c:	2f444448 	.word	0x2f444448
    4e50:	6b726f77 	.word	0x6b726f77
    4e54:	6f72702f 	.word	0x6f72702f
    4e58:	7463656a 	.word	0x7463656a
    4e5c:	69562f73 	.word	0x69562f73
    4e60:	6f646176 	.word	0x6f646176
    4e64:	75637a2f 	.word	0x75637a2f
    4e68:	2f323031 	.word	0x2f323031
    4e6c:	6c2f7773 	.word	0x6c2f7773
    4e70:	72657669 	.word	0x72657669
    4e74:	65726f6d 	.word	0x65726f6d
    4e78:	6372732f 	.word	0x6372732f
    4e7c:	72656b2f 	.word	0x72656b2f
    4e80:	736c656e 	.word	0x736c656e
    4e84:	0000632e 	.word	0x0000632e
    4e88:	52445948 	.word	0x52445948
    4e8c:	0000004f 	.word	0x0000004f
    4e90:	4c4f4843 	.word	0x4c4f4843
    4e94:	594b5345 	.word	0x594b5345
	...
    4ea0:	454e4e49 	.word	0x454e4e49
    4ea4:	52505f52 	.word	0x52505f52
    4ea8:	0000444f 	.word	0x0000444f
    4eac:	00000000 	.word	0x00000000
    4eb0:	494c5f47 	.word	0x494c5f47
    4eb4:	5241454e 	.word	0x5241454e
    4eb8:	4345525f 	.word	0x4345525f
    4ebc:	45525255 	.word	0x45525255
    4ec0:	0045434e 	.word	0x0045434e
    4ec4:	00000000 	.word	0x00000000
    4ec8:	54415453 	.word	0x54415453
    4ecc:	52465f45 	.word	0x52465f45
    4ed0:	00004741 	.word	0x00004741
    4ed4:	00000000 	.word	0x00000000
    4ed8:	45544e49 	.word	0x45544e49
    4edc:	54415247 	.word	0x54415247
    4ee0:	52505f45 	.word	0x52505f45
    4ee4:	43494445 	.word	0x43494445
    4ee8:	00000054 	.word	0x00000054
    4eec:	00000000 	.word	0x00000000
    4ef0:	46464944 	.word	0x46464944
    4ef4:	4e455245 	.word	0x4e455245
    4ef8:	505f4543 	.word	0x505f4543
    4efc:	49444552 	.word	0x49444552
    4f00:	00005443 	.word	0x00005443
    4f04:	00000000 	.word	0x00000000
    4f08:	5f434950 	.word	0x5f434950
    4f0c:	00004432 	.word	0x00004432
    4f10:	5f434950 	.word	0x5f434950
    4f14:	00004431 	.word	0x00004431
    4f18:	52445948 	.word	0x52445948
    4f1c:	44325f4f 	.word	0x44325f4f
	...
    4f28:	5f4e494c 	.word	0x5f4e494c
    4f2c:	00434552 	.word	0x00434552
    4f30:	4d54414d 	.word	0x4d54414d
    4f34:	00004c55 	.word	0x00004c55
    4f38:	52445948 	.word	0x52445948
    4f3c:	44325f4f 	.word	0x44325f4f
    4f40:	504d495f 	.word	0x504d495f
    4f44:	4943494c 	.word	0x4943494c
    4f48:	00000054 	.word	0x00000054
    4f4c:	00000000 	.word	0x00000000
    4f50:	5f495254 	.word	0x5f495254
    4f54:	47414944 	.word	0x47414944
	...
    4f60:	20000000 	.word	0x20000000
    4f64:	4202a05f 	.word	0x4202a05f
    4f68:	20000000 	.word	0x20000000
    4f6c:	c202a05f 	.word	0xc202a05f
    4f70:	0000e048 	.word	0x0000e048
    4f74:	00000000 	.word	0x00000000
    4f78:	0000e040 	.word	0x0000e040
    4f7c:	00000000 	.word	0x00000000
    4f80:	00000043 	.word	0x00000043
    4f84:	00000000 	.word	0x00000000
    4f88:	0000e000 	.word	0x0000e000
    4f8c:	00000000 	.word	0x00000000
    4f90:	0000e000 	.word	0x0000e000
    4f94:	00000000 	.word	0x00000000
    4f98:	0000e008 	.word	0x0000e008
    4f9c:	00000000 	.word	0x00000000
    4fa0:	0000e000 	.word	0x0000e000
    4fa4:	00000000 	.word	0x00000000
    4fa8:	000039c8 	.word	0x000039c8
    4fac:	00000000 	.word	0x00000000
    4fb0:	000039d8 	.word	0x000039d8
    4fb4:	00000000 	.word	0x00000000

Disassembly of section .rodata1:

0000000000004fb8 <__rodata1_end-0x8>:
	...

Disassembly of section .data:

0000000000004fc0 <__data_start>:
	...

0000000000004fc8 <HeapBase>:
	...

0000000000004fd0 <HeapLimit>:
	...

0000000000004fd8 <__stack_base__>:
	...

0000000000004fe0 <StackLimit>:
	...

0000000000004fe8 <env>:
	...

0000000000004ff0 <CommandLine>:
	...

00000000000050f0 <kernelFini>:
    50f0:	00002268 	.word	0x00002268
    50f4:	00000000 	.word	0x00000000
    50f8:	000022a8 	.word	0x000022a8
    50fc:	00000000 	.word	0x00000000
    5100:	000022d8 	.word	0x000022d8
    5104:	00000000 	.word	0x00000000
    5108:	000022e0 	.word	0x000022e0
    510c:	00000000 	.word	0x00000000
    5110:	000022a0 	.word	0x000022a0
    5114:	00000000 	.word	0x00000000
    5118:	00002310 	.word	0x00002310
    511c:	00000000 	.word	0x00000000
    5120:	00002340 	.word	0x00002340
    5124:	00000000 	.word	0x00000000
    5128:	00002348 	.word	0x00002348
    512c:	00000000 	.word	0x00000000
    5130:	000023c0 	.word	0x000023c0
    5134:	00000000 	.word	0x00000000
    5138:	00002410 	.word	0x00002410
    513c:	00000000 	.word	0x00000000
    5140:	00002450 	.word	0x00002450
    5144:	00000000 	.word	0x00000000
    5148:	00002498 	.word	0x00002498
    514c:	00000000 	.word	0x00000000
    5150:	000024d8 	.word	0x000024d8
    5154:	00000000 	.word	0x00000000
    5158:	00002490 	.word	0x00002490
	...

0000000000005168 <kernels>:
    5168:	00002990 	.word	0x00002990
    516c:	00000000 	.word	0x00000000
    5170:	00002a20 	.word	0x00002a20
    5174:	00000000 	.word	0x00000000
    5178:	00001488 	.word	0x00001488
    517c:	00000000 	.word	0x00000000
    5180:	00003100 	.word	0x00003100
    5184:	00000000 	.word	0x00000000
    5188:	00002ab8 	.word	0x00002ab8
    518c:	00000000 	.word	0x00000000
    5190:	00001e30 	.word	0x00001e30
    5194:	00000000 	.word	0x00000000
    5198:	00001500 	.word	0x00001500
    519c:	00000000 	.word	0x00000000
    51a0:	000015c0 	.word	0x000015c0
    51a4:	00000000 	.word	0x00000000
    51a8:	00001730 	.word	0x00001730
    51ac:	00000000 	.word	0x00000000
    51b0:	00002b90 	.word	0x00002b90
    51b4:	00000000 	.word	0x00000000
    51b8:	000018f0 	.word	0x000018f0
    51bc:	00000000 	.word	0x00000000
    51c0:	00002ea0 	.word	0x00002ea0
    51c4:	00000000 	.word	0x00000000
    51c8:	00002f68 	.word	0x00002f68
    51cc:	00000000 	.word	0x00000000
    51d0:	00003078 	.word	0x00003078
	...

00000000000051e0 <kernelInit>:
    51e0:	000019a8 	.word	0x000019a8
    51e4:	00000000 	.word	0x00000000
    51e8:	00001a90 	.word	0x00001a90
    51ec:	00000000 	.word	0x00000000
    51f0:	00001b28 	.word	0x00001b28
    51f4:	00000000 	.word	0x00000000
    51f8:	00001bc8 	.word	0x00001bc8
    51fc:	00000000 	.word	0x00000000
    5200:	00001ce0 	.word	0x00001ce0
    5204:	00000000 	.word	0x00000000
    5208:	00001d90 	.word	0x00001d90
    520c:	00000000 	.word	0x00000000
    5210:	00001f80 	.word	0x00001f80
    5214:	00000000 	.word	0x00000000
    5218:	00002518 	.word	0x00002518
    521c:	00000000 	.word	0x00000000
    5220:	00002858 	.word	0x00002858
    5224:	00000000 	.word	0x00000000
    5228:	00002020 	.word	0x00002020
    522c:	00000000 	.word	0x00000000
    5230:	00002168 	.word	0x00002168
    5234:	00000000 	.word	0x00000000
    5238:	000026c8 	.word	0x000026c8
    523c:	00000000 	.word	0x00000000
    5240:	000027a8 	.word	0x000027a8
    5244:	00000000 	.word	0x00000000
    5248:	000021f0 	.word	0x000021f0
	...

0000000000005258 <kernelnames>:
    5258:	00004e88 	.word	0x00004e88
    525c:	00000000 	.word	0x00000000
    5260:	00004e90 	.word	0x00004e90
    5264:	00000000 	.word	0x00000000
    5268:	00004ea0 	.word	0x00004ea0
    526c:	00000000 	.word	0x00000000
    5270:	00004eb0 	.word	0x00004eb0
    5274:	00000000 	.word	0x00000000
    5278:	00004ec8 	.word	0x00004ec8
    527c:	00000000 	.word	0x00000000
    5280:	00004ed8 	.word	0x00004ed8
    5284:	00000000 	.word	0x00000000
    5288:	00004ef0 	.word	0x00004ef0
    528c:	00000000 	.word	0x00000000
    5290:	00004f08 	.word	0x00004f08
    5294:	00000000 	.word	0x00000000
    5298:	00004f10 	.word	0x00004f10
    529c:	00000000 	.word	0x00000000
    52a0:	00004f18 	.word	0x00004f18
    52a4:	00000000 	.word	0x00000000
    52a8:	00004f28 	.word	0x00004f28
    52ac:	00000000 	.word	0x00000000
    52b0:	00004f30 	.word	0x00004f30
    52b4:	00000000 	.word	0x00000000
    52b8:	00004f38 	.word	0x00004f38
    52bc:	00000000 	.word	0x00000000
    52c0:	00004f50 	.word	0x00004f50
	...

00000000000052d0 <ref_data_index>:
	...
    5300:	00070001 	.word	0x00070001
    5304:	00000000 	.word	0x00000000
    5308:	00f33d91 	.word	0x00f33d91
	...

0000000000005388 <XExc_VectorTable>:
    5388:	00003810 	.word	0x00003810
	...
    5398:	00003818 	.word	0x00003818
	...
    53a8:	00003810 	.word	0x00003810
	...
    53b8:	00003810 	.word	0x00003810
	...
    53c8:	00003820 	.word	0x00003820
	...

00000000000053e8 <_impure_ptr>:
    53e8:	000053f0 	.word	0x000053f0
    53ec:	00000000 	.word	0x00000000

00000000000053f0 <impure_data>:
	...
    53f8:	00005928 	.word	0x00005928
    53fc:	00000000 	.word	0x00000000
    5400:	000059d8 	.word	0x000059d8
    5404:	00000000 	.word	0x00000000
    5408:	00005a88 	.word	0x00005a88
	...
    5438:	00004f80 	.word	0x00004f80
	...
    54d8:	00000001 	.word	0x00000001
    54dc:	00000000 	.word	0x00000000
    54e0:	abcd330e 	.word	0xabcd330e
    54e4:	e66d1234 	.word	0xe66d1234
    54e8:	0005deec 	.word	0x0005deec
    54ec:	0000000b 	.word	0x0000000b
	...

0000000000005b38 <__malloc_av_>:
	...
    5b48:	00005b38 	.word	0x00005b38
    5b4c:	00000000 	.word	0x00000000
    5b50:	00005b38 	.word	0x00005b38
    5b54:	00000000 	.word	0x00000000
    5b58:	00005b48 	.word	0x00005b48
    5b5c:	00000000 	.word	0x00000000
    5b60:	00005b48 	.word	0x00005b48
    5b64:	00000000 	.word	0x00000000
    5b68:	00005b58 	.word	0x00005b58
    5b6c:	00000000 	.word	0x00000000
    5b70:	00005b58 	.word	0x00005b58
    5b74:	00000000 	.word	0x00000000
    5b78:	00005b68 	.word	0x00005b68
    5b7c:	00000000 	.word	0x00000000
    5b80:	00005b68 	.word	0x00005b68
    5b84:	00000000 	.word	0x00000000
    5b88:	00005b78 	.word	0x00005b78
    5b8c:	00000000 	.word	0x00000000
    5b90:	00005b78 	.word	0x00005b78
    5b94:	00000000 	.word	0x00000000
    5b98:	00005b88 	.word	0x00005b88
    5b9c:	00000000 	.word	0x00000000
    5ba0:	00005b88 	.word	0x00005b88
    5ba4:	00000000 	.word	0x00000000
    5ba8:	00005b98 	.word	0x00005b98
    5bac:	00000000 	.word	0x00000000
    5bb0:	00005b98 	.word	0x00005b98
    5bb4:	00000000 	.word	0x00000000
    5bb8:	00005ba8 	.word	0x00005ba8
    5bbc:	00000000 	.word	0x00000000
    5bc0:	00005ba8 	.word	0x00005ba8
    5bc4:	00000000 	.word	0x00000000
    5bc8:	00005bb8 	.word	0x00005bb8
    5bcc:	00000000 	.word	0x00000000
    5bd0:	00005bb8 	.word	0x00005bb8
    5bd4:	00000000 	.word	0x00000000
    5bd8:	00005bc8 	.word	0x00005bc8
    5bdc:	00000000 	.word	0x00000000
    5be0:	00005bc8 	.word	0x00005bc8
    5be4:	00000000 	.word	0x00000000
    5be8:	00005bd8 	.word	0x00005bd8
    5bec:	00000000 	.word	0x00000000
    5bf0:	00005bd8 	.word	0x00005bd8
    5bf4:	00000000 	.word	0x00000000
    5bf8:	00005be8 	.word	0x00005be8
    5bfc:	00000000 	.word	0x00000000
    5c00:	00005be8 	.word	0x00005be8
    5c04:	00000000 	.word	0x00000000
    5c08:	00005bf8 	.word	0x00005bf8
    5c0c:	00000000 	.word	0x00000000
    5c10:	00005bf8 	.word	0x00005bf8
    5c14:	00000000 	.word	0x00000000
    5c18:	00005c08 	.word	0x00005c08
    5c1c:	00000000 	.word	0x00000000
    5c20:	00005c08 	.word	0x00005c08
    5c24:	00000000 	.word	0x00000000
    5c28:	00005c18 	.word	0x00005c18
    5c2c:	00000000 	.word	0x00000000
    5c30:	00005c18 	.word	0x00005c18
    5c34:	00000000 	.word	0x00000000
    5c38:	00005c28 	.word	0x00005c28
    5c3c:	00000000 	.word	0x00000000
    5c40:	00005c28 	.word	0x00005c28
    5c44:	00000000 	.word	0x00000000
    5c48:	00005c38 	.word	0x00005c38
    5c4c:	00000000 	.word	0x00000000
    5c50:	00005c38 	.word	0x00005c38
    5c54:	00000000 	.word	0x00000000
    5c58:	00005c48 	.word	0x00005c48
    5c5c:	00000000 	.word	0x00000000
    5c60:	00005c48 	.word	0x00005c48
    5c64:	00000000 	.word	0x00000000
    5c68:	00005c58 	.word	0x00005c58
    5c6c:	00000000 	.word	0x00000000
    5c70:	00005c58 	.word	0x00005c58
    5c74:	00000000 	.word	0x00000000
    5c78:	00005c68 	.word	0x00005c68
    5c7c:	00000000 	.word	0x00000000
    5c80:	00005c68 	.word	0x00005c68
    5c84:	00000000 	.word	0x00000000
    5c88:	00005c78 	.word	0x00005c78
    5c8c:	00000000 	.word	0x00000000
    5c90:	00005c78 	.word	0x00005c78
    5c94:	00000000 	.word	0x00000000
    5c98:	00005c88 	.word	0x00005c88
    5c9c:	00000000 	.word	0x00000000
    5ca0:	00005c88 	.word	0x00005c88
    5ca4:	00000000 	.word	0x00000000
    5ca8:	00005c98 	.word	0x00005c98
    5cac:	00000000 	.word	0x00000000
    5cb0:	00005c98 	.word	0x00005c98
    5cb4:	00000000 	.word	0x00000000
    5cb8:	00005ca8 	.word	0x00005ca8
    5cbc:	00000000 	.word	0x00000000
    5cc0:	00005ca8 	.word	0x00005ca8
    5cc4:	00000000 	.word	0x00000000
    5cc8:	00005cb8 	.word	0x00005cb8
    5ccc:	00000000 	.word	0x00000000
    5cd0:	00005cb8 	.word	0x00005cb8
    5cd4:	00000000 	.word	0x00000000
    5cd8:	00005cc8 	.word	0x00005cc8
    5cdc:	00000000 	.word	0x00000000
    5ce0:	00005cc8 	.word	0x00005cc8
    5ce4:	00000000 	.word	0x00000000
    5ce8:	00005cd8 	.word	0x00005cd8
    5cec:	00000000 	.word	0x00000000
    5cf0:	00005cd8 	.word	0x00005cd8
    5cf4:	00000000 	.word	0x00000000
    5cf8:	00005ce8 	.word	0x00005ce8
    5cfc:	00000000 	.word	0x00000000
    5d00:	00005ce8 	.word	0x00005ce8
    5d04:	00000000 	.word	0x00000000
    5d08:	00005cf8 	.word	0x00005cf8
    5d0c:	00000000 	.word	0x00000000
    5d10:	00005cf8 	.word	0x00005cf8
    5d14:	00000000 	.word	0x00000000
    5d18:	00005d08 	.word	0x00005d08
    5d1c:	00000000 	.word	0x00000000
    5d20:	00005d08 	.word	0x00005d08
    5d24:	00000000 	.word	0x00000000
    5d28:	00005d18 	.word	0x00005d18
    5d2c:	00000000 	.word	0x00000000
    5d30:	00005d18 	.word	0x00005d18
    5d34:	00000000 	.word	0x00000000
    5d38:	00005d28 	.word	0x00005d28
    5d3c:	00000000 	.word	0x00000000
    5d40:	00005d28 	.word	0x00005d28
    5d44:	00000000 	.word	0x00000000
    5d48:	00005d38 	.word	0x00005d38
    5d4c:	00000000 	.word	0x00000000
    5d50:	00005d38 	.word	0x00005d38
    5d54:	00000000 	.word	0x00000000
    5d58:	00005d48 	.word	0x00005d48
    5d5c:	00000000 	.word	0x00000000
    5d60:	00005d48 	.word	0x00005d48
    5d64:	00000000 	.word	0x00000000
    5d68:	00005d58 	.word	0x00005d58
    5d6c:	00000000 	.word	0x00000000
    5d70:	00005d58 	.word	0x00005d58
    5d74:	00000000 	.word	0x00000000
    5d78:	00005d68 	.word	0x00005d68
    5d7c:	00000000 	.word	0x00000000
    5d80:	00005d68 	.word	0x00005d68
    5d84:	00000000 	.word	0x00000000
    5d88:	00005d78 	.word	0x00005d78
    5d8c:	00000000 	.word	0x00000000
    5d90:	00005d78 	.word	0x00005d78
    5d94:	00000000 	.word	0x00000000
    5d98:	00005d88 	.word	0x00005d88
    5d9c:	00000000 	.word	0x00000000
    5da0:	00005d88 	.word	0x00005d88
    5da4:	00000000 	.word	0x00000000
    5da8:	00005d98 	.word	0x00005d98
    5dac:	00000000 	.word	0x00000000
    5db0:	00005d98 	.word	0x00005d98
    5db4:	00000000 	.word	0x00000000
    5db8:	00005da8 	.word	0x00005da8
    5dbc:	00000000 	.word	0x00000000
    5dc0:	00005da8 	.word	0x00005da8
    5dc4:	00000000 	.word	0x00000000
    5dc8:	00005db8 	.word	0x00005db8
    5dcc:	00000000 	.word	0x00000000
    5dd0:	00005db8 	.word	0x00005db8
    5dd4:	00000000 	.word	0x00000000
    5dd8:	00005dc8 	.word	0x00005dc8
    5ddc:	00000000 	.word	0x00000000
    5de0:	00005dc8 	.word	0x00005dc8
    5de4:	00000000 	.word	0x00000000
    5de8:	00005dd8 	.word	0x00005dd8
    5dec:	00000000 	.word	0x00000000
    5df0:	00005dd8 	.word	0x00005dd8
    5df4:	00000000 	.word	0x00000000
    5df8:	00005de8 	.word	0x00005de8
    5dfc:	00000000 	.word	0x00000000
    5e00:	00005de8 	.word	0x00005de8
    5e04:	00000000 	.word	0x00000000
    5e08:	00005df8 	.word	0x00005df8
    5e0c:	00000000 	.word	0x00000000
    5e10:	00005df8 	.word	0x00005df8
    5e14:	00000000 	.word	0x00000000
    5e18:	00005e08 	.word	0x00005e08
    5e1c:	00000000 	.word	0x00000000
    5e20:	00005e08 	.word	0x00005e08
    5e24:	00000000 	.word	0x00000000
    5e28:	00005e18 	.word	0x00005e18
    5e2c:	00000000 	.word	0x00000000
    5e30:	00005e18 	.word	0x00005e18
    5e34:	00000000 	.word	0x00000000
    5e38:	00005e28 	.word	0x00005e28
    5e3c:	00000000 	.word	0x00000000
    5e40:	00005e28 	.word	0x00005e28
    5e44:	00000000 	.word	0x00000000
    5e48:	00005e38 	.word	0x00005e38
    5e4c:	00000000 	.word	0x00000000
    5e50:	00005e38 	.word	0x00005e38
    5e54:	00000000 	.word	0x00000000
    5e58:	00005e48 	.word	0x00005e48
    5e5c:	00000000 	.word	0x00000000
    5e60:	00005e48 	.word	0x00005e48
    5e64:	00000000 	.word	0x00000000
    5e68:	00005e58 	.word	0x00005e58
    5e6c:	00000000 	.word	0x00000000
    5e70:	00005e58 	.word	0x00005e58
    5e74:	00000000 	.word	0x00000000
    5e78:	00005e68 	.word	0x00005e68
    5e7c:	00000000 	.word	0x00000000
    5e80:	00005e68 	.word	0x00005e68
    5e84:	00000000 	.word	0x00000000
    5e88:	00005e78 	.word	0x00005e78
    5e8c:	00000000 	.word	0x00000000
    5e90:	00005e78 	.word	0x00005e78
    5e94:	00000000 	.word	0x00000000
    5e98:	00005e88 	.word	0x00005e88
    5e9c:	00000000 	.word	0x00000000
    5ea0:	00005e88 	.word	0x00005e88
    5ea4:	00000000 	.word	0x00000000
    5ea8:	00005e98 	.word	0x00005e98
    5eac:	00000000 	.word	0x00000000
    5eb0:	00005e98 	.word	0x00005e98
    5eb4:	00000000 	.word	0x00000000
    5eb8:	00005ea8 	.word	0x00005ea8
    5ebc:	00000000 	.word	0x00000000
    5ec0:	00005ea8 	.word	0x00005ea8
    5ec4:	00000000 	.word	0x00000000
    5ec8:	00005eb8 	.word	0x00005eb8
    5ecc:	00000000 	.word	0x00000000
    5ed0:	00005eb8 	.word	0x00005eb8
    5ed4:	00000000 	.word	0x00000000
    5ed8:	00005ec8 	.word	0x00005ec8
    5edc:	00000000 	.word	0x00000000
    5ee0:	00005ec8 	.word	0x00005ec8
    5ee4:	00000000 	.word	0x00000000
    5ee8:	00005ed8 	.word	0x00005ed8
    5eec:	00000000 	.word	0x00000000
    5ef0:	00005ed8 	.word	0x00005ed8
    5ef4:	00000000 	.word	0x00000000
    5ef8:	00005ee8 	.word	0x00005ee8
    5efc:	00000000 	.word	0x00000000
    5f00:	00005ee8 	.word	0x00005ee8
    5f04:	00000000 	.word	0x00000000
    5f08:	00005ef8 	.word	0x00005ef8
    5f0c:	00000000 	.word	0x00000000
    5f10:	00005ef8 	.word	0x00005ef8
    5f14:	00000000 	.word	0x00000000
    5f18:	00005f08 	.word	0x00005f08
    5f1c:	00000000 	.word	0x00000000
    5f20:	00005f08 	.word	0x00005f08
    5f24:	00000000 	.word	0x00000000
    5f28:	00005f18 	.word	0x00005f18
    5f2c:	00000000 	.word	0x00000000
    5f30:	00005f18 	.word	0x00005f18
    5f34:	00000000 	.word	0x00000000
    5f38:	00005f28 	.word	0x00005f28
    5f3c:	00000000 	.word	0x00000000
    5f40:	00005f28 	.word	0x00005f28
    5f44:	00000000 	.word	0x00000000
    5f48:	00005f38 	.word	0x00005f38
    5f4c:	00000000 	.word	0x00000000
    5f50:	00005f38 	.word	0x00005f38
    5f54:	00000000 	.word	0x00000000
    5f58:	00005f48 	.word	0x00005f48
    5f5c:	00000000 	.word	0x00000000
    5f60:	00005f48 	.word	0x00005f48
    5f64:	00000000 	.word	0x00000000
    5f68:	00005f58 	.word	0x00005f58
    5f6c:	00000000 	.word	0x00000000
    5f70:	00005f58 	.word	0x00005f58
    5f74:	00000000 	.word	0x00000000
    5f78:	00005f68 	.word	0x00005f68
    5f7c:	00000000 	.word	0x00000000
    5f80:	00005f68 	.word	0x00005f68
    5f84:	00000000 	.word	0x00000000
    5f88:	00005f78 	.word	0x00005f78
    5f8c:	00000000 	.word	0x00000000
    5f90:	00005f78 	.word	0x00005f78
    5f94:	00000000 	.word	0x00000000
    5f98:	00005f88 	.word	0x00005f88
    5f9c:	00000000 	.word	0x00000000
    5fa0:	00005f88 	.word	0x00005f88
    5fa4:	00000000 	.word	0x00000000
    5fa8:	00005f98 	.word	0x00005f98
    5fac:	00000000 	.word	0x00000000
    5fb0:	00005f98 	.word	0x00005f98
    5fb4:	00000000 	.word	0x00000000
    5fb8:	00005fa8 	.word	0x00005fa8
    5fbc:	00000000 	.word	0x00000000
    5fc0:	00005fa8 	.word	0x00005fa8
    5fc4:	00000000 	.word	0x00000000
    5fc8:	00005fb8 	.word	0x00005fb8
    5fcc:	00000000 	.word	0x00000000
    5fd0:	00005fb8 	.word	0x00005fb8
    5fd4:	00000000 	.word	0x00000000
    5fd8:	00005fc8 	.word	0x00005fc8
    5fdc:	00000000 	.word	0x00000000
    5fe0:	00005fc8 	.word	0x00005fc8
    5fe4:	00000000 	.word	0x00000000
    5fe8:	00005fd8 	.word	0x00005fd8
    5fec:	00000000 	.word	0x00000000
    5ff0:	00005fd8 	.word	0x00005fd8
    5ff4:	00000000 	.word	0x00000000
    5ff8:	00005fe8 	.word	0x00005fe8
    5ffc:	00000000 	.word	0x00000000
    6000:	00005fe8 	.word	0x00005fe8
    6004:	00000000 	.word	0x00000000
    6008:	00005ff8 	.word	0x00005ff8
    600c:	00000000 	.word	0x00000000
    6010:	00005ff8 	.word	0x00005ff8
    6014:	00000000 	.word	0x00000000
    6018:	00006008 	.word	0x00006008
    601c:	00000000 	.word	0x00000000
    6020:	00006008 	.word	0x00006008
    6024:	00000000 	.word	0x00000000
    6028:	00006018 	.word	0x00006018
    602c:	00000000 	.word	0x00000000
    6030:	00006018 	.word	0x00006018
    6034:	00000000 	.word	0x00000000
    6038:	00006028 	.word	0x00006028
    603c:	00000000 	.word	0x00000000
    6040:	00006028 	.word	0x00006028
    6044:	00000000 	.word	0x00000000
    6048:	00006038 	.word	0x00006038
    604c:	00000000 	.word	0x00000000
    6050:	00006038 	.word	0x00006038
    6054:	00000000 	.word	0x00000000
    6058:	00006048 	.word	0x00006048
    605c:	00000000 	.word	0x00000000
    6060:	00006048 	.word	0x00006048
    6064:	00000000 	.word	0x00000000
    6068:	00006058 	.word	0x00006058
    606c:	00000000 	.word	0x00000000
    6070:	00006058 	.word	0x00006058
    6074:	00000000 	.word	0x00000000
    6078:	00006068 	.word	0x00006068
    607c:	00000000 	.word	0x00000000
    6080:	00006068 	.word	0x00006068
    6084:	00000000 	.word	0x00000000
    6088:	00006078 	.word	0x00006078
    608c:	00000000 	.word	0x00000000
    6090:	00006078 	.word	0x00006078
    6094:	00000000 	.word	0x00000000
    6098:	00006088 	.word	0x00006088
    609c:	00000000 	.word	0x00000000
    60a0:	00006088 	.word	0x00006088
    60a4:	00000000 	.word	0x00000000
    60a8:	00006098 	.word	0x00006098
    60ac:	00000000 	.word	0x00000000
    60b0:	00006098 	.word	0x00006098
    60b4:	00000000 	.word	0x00000000
    60b8:	000060a8 	.word	0x000060a8
    60bc:	00000000 	.word	0x00000000
    60c0:	000060a8 	.word	0x000060a8
    60c4:	00000000 	.word	0x00000000
    60c8:	000060b8 	.word	0x000060b8
    60cc:	00000000 	.word	0x00000000
    60d0:	000060b8 	.word	0x000060b8
    60d4:	00000000 	.word	0x00000000
    60d8:	000060c8 	.word	0x000060c8
    60dc:	00000000 	.word	0x00000000
    60e0:	000060c8 	.word	0x000060c8
    60e4:	00000000 	.word	0x00000000
    60e8:	000060d8 	.word	0x000060d8
    60ec:	00000000 	.word	0x00000000
    60f0:	000060d8 	.word	0x000060d8
    60f4:	00000000 	.word	0x00000000
    60f8:	000060e8 	.word	0x000060e8
    60fc:	00000000 	.word	0x00000000
    6100:	000060e8 	.word	0x000060e8
    6104:	00000000 	.word	0x00000000
    6108:	000060f8 	.word	0x000060f8
    610c:	00000000 	.word	0x00000000
    6110:	000060f8 	.word	0x000060f8
    6114:	00000000 	.word	0x00000000
    6118:	00006108 	.word	0x00006108
    611c:	00000000 	.word	0x00000000
    6120:	00006108 	.word	0x00006108
    6124:	00000000 	.word	0x00000000
    6128:	00006118 	.word	0x00006118
    612c:	00000000 	.word	0x00000000
    6130:	00006118 	.word	0x00006118
    6134:	00000000 	.word	0x00000000
    6138:	00006128 	.word	0x00006128
    613c:	00000000 	.word	0x00000000
    6140:	00006128 	.word	0x00006128
    6144:	00000000 	.word	0x00000000
    6148:	00006138 	.word	0x00006138
    614c:	00000000 	.word	0x00000000
    6150:	00006138 	.word	0x00006138
    6154:	00000000 	.word	0x00000000
    6158:	00006148 	.word	0x00006148
    615c:	00000000 	.word	0x00000000
    6160:	00006148 	.word	0x00006148
    6164:	00000000 	.word	0x00000000
    6168:	00006158 	.word	0x00006158
    616c:	00000000 	.word	0x00000000
    6170:	00006158 	.word	0x00006158
    6174:	00000000 	.word	0x00000000
    6178:	00006168 	.word	0x00006168
    617c:	00000000 	.word	0x00000000
    6180:	00006168 	.word	0x00006168
    6184:	00000000 	.word	0x00000000
    6188:	00006178 	.word	0x00006178
    618c:	00000000 	.word	0x00000000
    6190:	00006178 	.word	0x00006178
    6194:	00000000 	.word	0x00000000
    6198:	00006188 	.word	0x00006188
    619c:	00000000 	.word	0x00000000
    61a0:	00006188 	.word	0x00006188
    61a4:	00000000 	.word	0x00000000
    61a8:	00006198 	.word	0x00006198
    61ac:	00000000 	.word	0x00000000
    61b0:	00006198 	.word	0x00006198
    61b4:	00000000 	.word	0x00000000
    61b8:	000061a8 	.word	0x000061a8
    61bc:	00000000 	.word	0x00000000
    61c0:	000061a8 	.word	0x000061a8
    61c4:	00000000 	.word	0x00000000
    61c8:	000061b8 	.word	0x000061b8
    61cc:	00000000 	.word	0x00000000
    61d0:	000061b8 	.word	0x000061b8
    61d4:	00000000 	.word	0x00000000
    61d8:	000061c8 	.word	0x000061c8
    61dc:	00000000 	.word	0x00000000
    61e0:	000061c8 	.word	0x000061c8
    61e4:	00000000 	.word	0x00000000
    61e8:	000061d8 	.word	0x000061d8
    61ec:	00000000 	.word	0x00000000
    61f0:	000061d8 	.word	0x000061d8
    61f4:	00000000 	.word	0x00000000
    61f8:	000061e8 	.word	0x000061e8
    61fc:	00000000 	.word	0x00000000
    6200:	000061e8 	.word	0x000061e8
    6204:	00000000 	.word	0x00000000
    6208:	000061f8 	.word	0x000061f8
    620c:	00000000 	.word	0x00000000
    6210:	000061f8 	.word	0x000061f8
    6214:	00000000 	.word	0x00000000
    6218:	00006208 	.word	0x00006208
    621c:	00000000 	.word	0x00000000
    6220:	00006208 	.word	0x00006208
    6224:	00000000 	.word	0x00000000
    6228:	00006218 	.word	0x00006218
    622c:	00000000 	.word	0x00000000
    6230:	00006218 	.word	0x00006218
    6234:	00000000 	.word	0x00000000
    6238:	00006228 	.word	0x00006228
    623c:	00000000 	.word	0x00000000
    6240:	00006228 	.word	0x00006228
    6244:	00000000 	.word	0x00000000
    6248:	00006238 	.word	0x00006238
    624c:	00000000 	.word	0x00000000
    6250:	00006238 	.word	0x00006238
    6254:	00000000 	.word	0x00000000
    6258:	00006248 	.word	0x00006248
    625c:	00000000 	.word	0x00000000
    6260:	00006248 	.word	0x00006248
    6264:	00000000 	.word	0x00000000
    6268:	00006258 	.word	0x00006258
    626c:	00000000 	.word	0x00000000
    6270:	00006258 	.word	0x00006258
    6274:	00000000 	.word	0x00000000
    6278:	00006268 	.word	0x00006268
    627c:	00000000 	.word	0x00000000
    6280:	00006268 	.word	0x00006268
    6284:	00000000 	.word	0x00000000
    6288:	00006278 	.word	0x00006278
    628c:	00000000 	.word	0x00000000
    6290:	00006278 	.word	0x00006278
    6294:	00000000 	.word	0x00000000
    6298:	00006288 	.word	0x00006288
    629c:	00000000 	.word	0x00000000
    62a0:	00006288 	.word	0x00006288
    62a4:	00000000 	.word	0x00000000
    62a8:	00006298 	.word	0x00006298
    62ac:	00000000 	.word	0x00000000
    62b0:	00006298 	.word	0x00006298
    62b4:	00000000 	.word	0x00000000
    62b8:	000062a8 	.word	0x000062a8
    62bc:	00000000 	.word	0x00000000
    62c0:	000062a8 	.word	0x000062a8
    62c4:	00000000 	.word	0x00000000
    62c8:	000062b8 	.word	0x000062b8
    62cc:	00000000 	.word	0x00000000
    62d0:	000062b8 	.word	0x000062b8
    62d4:	00000000 	.word	0x00000000
    62d8:	000062c8 	.word	0x000062c8
    62dc:	00000000 	.word	0x00000000
    62e0:	000062c8 	.word	0x000062c8
    62e4:	00000000 	.word	0x00000000
    62e8:	000062d8 	.word	0x000062d8
    62ec:	00000000 	.word	0x00000000
    62f0:	000062d8 	.word	0x000062d8
    62f4:	00000000 	.word	0x00000000
    62f8:	000062e8 	.word	0x000062e8
    62fc:	00000000 	.word	0x00000000
    6300:	000062e8 	.word	0x000062e8
    6304:	00000000 	.word	0x00000000
    6308:	000062f8 	.word	0x000062f8
    630c:	00000000 	.word	0x00000000
    6310:	000062f8 	.word	0x000062f8
    6314:	00000000 	.word	0x00000000
    6318:	00006308 	.word	0x00006308
    631c:	00000000 	.word	0x00000000
    6320:	00006308 	.word	0x00006308
    6324:	00000000 	.word	0x00000000
    6328:	00006318 	.word	0x00006318
    632c:	00000000 	.word	0x00000000
    6330:	00006318 	.word	0x00006318
    6334:	00000000 	.word	0x00000000
    6338:	00006328 	.word	0x00006328
    633c:	00000000 	.word	0x00000000
    6340:	00006328 	.word	0x00006328
    6344:	00000000 	.word	0x00000000

0000000000006348 <__malloc_sbrk_base>:
    6348:	ffffffff 	.word	0xffffffff
    634c:	ffffffff 	.word	0xffffffff

0000000000006350 <__malloc_trim_threshold>:
    6350:	00020000 	.word	0x00020000
    6354:	00000000 	.word	0x00000000

Disassembly of section .data1:

0000000000006358 <__data1_end-0x28>:
	...

Disassembly of section .eh_frame:

0000000000006380 <__FRAME_END__>:
    6380:	00000000 	.word	0x00000000

Disassembly of section .mmu_tbl0:

0000000000007000 <MMUTableL0>:
    7000:	00008003 	.word	0x00008003
    7004:	00000000 	.word	0x00000000
    7008:	00009003 	.word	0x00009003
    700c:	00000000 	.word	0x00000000

Disassembly of section .mmu_tbl1:

0000000000008000 <MMUTableL1>:
    8000:	0000a003 	.word	0x0000a003
    8004:	00000000 	.word	0x00000000
    8008:	0000b003 	.word	0x0000b003
    800c:	00000000 	.word	0x00000000
    8010:	0000c003 	.word	0x0000c003
    8014:	00000000 	.word	0x00000000
    8018:	0000d003 	.word	0x0000d003
	...
    8024:	00000001 	.word	0x00000001
    8028:	40000000 	.word	0x40000000
    802c:	00000001 	.word	0x00000001
    8030:	80000000 	.word	0x80000000
    8034:	00000001 	.word	0x00000001
    8038:	c0000000 	.word	0xc0000000
    803c:	00000001 	.word	0x00000001
    8040:	00000000 	.word	0x00000000
    8044:	00000002 	.word	0x00000002
    8048:	40000000 	.word	0x40000000
    804c:	00000002 	.word	0x00000002
    8050:	80000000 	.word	0x80000000
    8054:	00000002 	.word	0x00000002
    8058:	c0000000 	.word	0xc0000000
    805c:	00000002 	.word	0x00000002
    8060:	00000000 	.word	0x00000000
    8064:	00000003 	.word	0x00000003
    8068:	40000000 	.word	0x40000000
    806c:	00000003 	.word	0x00000003
    8070:	80000000 	.word	0x80000000
    8074:	00000003 	.word	0x00000003
    8078:	c0000000 	.word	0xc0000000
    807c:	00000003 	.word	0x00000003
    8080:	00000409 	.word	0x00000409
    8084:	00600004 	.word	0x00600004
    8088:	40000409 	.word	0x40000409
    808c:	00600004 	.word	0x00600004
    8090:	80000409 	.word	0x80000409
    8094:	00600004 	.word	0x00600004
    8098:	c0000409 	.word	0xc0000409
    809c:	00600004 	.word	0x00600004
    80a0:	00000409 	.word	0x00000409
    80a4:	00600005 	.word	0x00600005
    80a8:	40000409 	.word	0x40000409
    80ac:	00600005 	.word	0x00600005
    80b0:	80000409 	.word	0x80000409
    80b4:	00600005 	.word	0x00600005
    80b8:	c0000409 	.word	0xc0000409
    80bc:	00600005 	.word	0x00600005
    80c0:	00000409 	.word	0x00000409
    80c4:	00600006 	.word	0x00600006
    80c8:	40000409 	.word	0x40000409
    80cc:	00600006 	.word	0x00600006
    80d0:	80000409 	.word	0x80000409
    80d4:	00600006 	.word	0x00600006
    80d8:	c0000409 	.word	0xc0000409
    80dc:	00600006 	.word	0x00600006
    80e0:	00000409 	.word	0x00000409
    80e4:	00600007 	.word	0x00600007
    80e8:	40000409 	.word	0x40000409
    80ec:	00600007 	.word	0x00600007
    80f0:	80000409 	.word	0x80000409
    80f4:	00600007 	.word	0x00600007
    80f8:	c0000409 	.word	0xc0000409
    80fc:	00600007 	.word	0x00600007
    8100:	00000705 	.word	0x00000705
    8104:	00000008 	.word	0x00000008
    8108:	40000705 	.word	0x40000705
    810c:	00000008 	.word	0x00000008
    8110:	80000000 	.word	0x80000000
    8114:	00000008 	.word	0x00000008
    8118:	c0000000 	.word	0xc0000000
    811c:	00000008 	.word	0x00000008
    8120:	00000000 	.word	0x00000000
    8124:	00000009 	.word	0x00000009
    8128:	40000000 	.word	0x40000000
    812c:	00000009 	.word	0x00000009
    8130:	80000000 	.word	0x80000000
    8134:	00000009 	.word	0x00000009
    8138:	c0000000 	.word	0xc0000000
    813c:	00000009 	.word	0x00000009
    8140:	00000000 	.word	0x00000000
    8144:	0000000a 	.word	0x0000000a
    8148:	40000000 	.word	0x40000000
    814c:	0000000a 	.word	0x0000000a
    8150:	80000000 	.word	0x80000000
    8154:	0000000a 	.word	0x0000000a
    8158:	c0000000 	.word	0xc0000000
    815c:	0000000a 	.word	0x0000000a
    8160:	00000000 	.word	0x00000000
    8164:	0000000b 	.word	0x0000000b
    8168:	40000000 	.word	0x40000000
    816c:	0000000b 	.word	0x0000000b
    8170:	80000000 	.word	0x80000000
    8174:	0000000b 	.word	0x0000000b
    8178:	c0000000 	.word	0xc0000000
    817c:	0000000b 	.word	0x0000000b
    8180:	00000000 	.word	0x00000000
    8184:	0000000c 	.word	0x0000000c
    8188:	40000000 	.word	0x40000000
    818c:	0000000c 	.word	0x0000000c
    8190:	80000000 	.word	0x80000000
    8194:	0000000c 	.word	0x0000000c
    8198:	c0000000 	.word	0xc0000000
    819c:	0000000c 	.word	0x0000000c
    81a0:	00000000 	.word	0x00000000
    81a4:	0000000d 	.word	0x0000000d
    81a8:	40000000 	.word	0x40000000
    81ac:	0000000d 	.word	0x0000000d
    81b0:	80000000 	.word	0x80000000
    81b4:	0000000d 	.word	0x0000000d
    81b8:	c0000000 	.word	0xc0000000
    81bc:	0000000d 	.word	0x0000000d
    81c0:	00000000 	.word	0x00000000
    81c4:	0000000e 	.word	0x0000000e
    81c8:	40000000 	.word	0x40000000
    81cc:	0000000e 	.word	0x0000000e
    81d0:	80000000 	.word	0x80000000
    81d4:	0000000e 	.word	0x0000000e
    81d8:	c0000000 	.word	0xc0000000
    81dc:	0000000e 	.word	0x0000000e
    81e0:	00000000 	.word	0x00000000
    81e4:	0000000f 	.word	0x0000000f
    81e8:	40000000 	.word	0x40000000
    81ec:	0000000f 	.word	0x0000000f
    81f0:	80000000 	.word	0x80000000
    81f4:	0000000f 	.word	0x0000000f
    81f8:	c0000000 	.word	0xc0000000
    81fc:	0000000f 	.word	0x0000000f
    8200:	00000409 	.word	0x00000409
    8204:	00600010 	.word	0x00600010
    8208:	40000409 	.word	0x40000409
    820c:	00600010 	.word	0x00600010
    8210:	80000409 	.word	0x80000409
    8214:	00600010 	.word	0x00600010
    8218:	c0000409 	.word	0xc0000409
    821c:	00600010 	.word	0x00600010
    8220:	00000409 	.word	0x00000409
    8224:	00600011 	.word	0x00600011
    8228:	40000409 	.word	0x40000409
    822c:	00600011 	.word	0x00600011
    8230:	80000409 	.word	0x80000409
    8234:	00600011 	.word	0x00600011
    8238:	c0000409 	.word	0xc0000409
    823c:	00600011 	.word	0x00600011
    8240:	00000409 	.word	0x00000409
    8244:	00600012 	.word	0x00600012
    8248:	40000409 	.word	0x40000409
    824c:	00600012 	.word	0x00600012
    8250:	80000409 	.word	0x80000409
    8254:	00600012 	.word	0x00600012
    8258:	c0000409 	.word	0xc0000409
    825c:	00600012 	.word	0x00600012
    8260:	00000409 	.word	0x00000409
    8264:	00600013 	.word	0x00600013
    8268:	40000409 	.word	0x40000409
    826c:	00600013 	.word	0x00600013
    8270:	80000409 	.word	0x80000409
    8274:	00600013 	.word	0x00600013
    8278:	c0000409 	.word	0xc0000409
    827c:	00600013 	.word	0x00600013
    8280:	00000409 	.word	0x00000409
    8284:	00600014 	.word	0x00600014
    8288:	40000409 	.word	0x40000409
    828c:	00600014 	.word	0x00600014
    8290:	80000409 	.word	0x80000409
    8294:	00600014 	.word	0x00600014
    8298:	c0000409 	.word	0xc0000409
    829c:	00600014 	.word	0x00600014
    82a0:	00000409 	.word	0x00000409
    82a4:	00600015 	.word	0x00600015
    82a8:	40000409 	.word	0x40000409
    82ac:	00600015 	.word	0x00600015
    82b0:	80000409 	.word	0x80000409
    82b4:	00600015 	.word	0x00600015
    82b8:	c0000409 	.word	0xc0000409
    82bc:	00600015 	.word	0x00600015
    82c0:	00000409 	.word	0x00000409
    82c4:	00600016 	.word	0x00600016
    82c8:	40000409 	.word	0x40000409
    82cc:	00600016 	.word	0x00600016
    82d0:	80000409 	.word	0x80000409
    82d4:	00600016 	.word	0x00600016
    82d8:	c0000409 	.word	0xc0000409
    82dc:	00600016 	.word	0x00600016
    82e0:	00000409 	.word	0x00000409
    82e4:	00600017 	.word	0x00600017
    82e8:	40000409 	.word	0x40000409
    82ec:	00600017 	.word	0x00600017
    82f0:	80000409 	.word	0x80000409
    82f4:	00600017 	.word	0x00600017
    82f8:	c0000409 	.word	0xc0000409
    82fc:	00600017 	.word	0x00600017
    8300:	00000409 	.word	0x00000409
    8304:	00600018 	.word	0x00600018
    8308:	40000409 	.word	0x40000409
    830c:	00600018 	.word	0x00600018
    8310:	80000409 	.word	0x80000409
    8314:	00600018 	.word	0x00600018
    8318:	c0000409 	.word	0xc0000409
    831c:	00600018 	.word	0x00600018
    8320:	00000409 	.word	0x00000409
    8324:	00600019 	.word	0x00600019
    8328:	40000409 	.word	0x40000409
    832c:	00600019 	.word	0x00600019
    8330:	80000409 	.word	0x80000409
    8334:	00600019 	.word	0x00600019
    8338:	c0000409 	.word	0xc0000409
    833c:	00600019 	.word	0x00600019
    8340:	00000409 	.word	0x00000409
    8344:	0060001a 	.word	0x0060001a
    8348:	40000409 	.word	0x40000409
    834c:	0060001a 	.word	0x0060001a
    8350:	80000409 	.word	0x80000409
    8354:	0060001a 	.word	0x0060001a
    8358:	c0000409 	.word	0xc0000409
    835c:	0060001a 	.word	0x0060001a
    8360:	00000409 	.word	0x00000409
    8364:	0060001b 	.word	0x0060001b
    8368:	40000409 	.word	0x40000409
    836c:	0060001b 	.word	0x0060001b
    8370:	80000409 	.word	0x80000409
    8374:	0060001b 	.word	0x0060001b
    8378:	c0000409 	.word	0xc0000409
    837c:	0060001b 	.word	0x0060001b
    8380:	00000409 	.word	0x00000409
    8384:	0060001c 	.word	0x0060001c
    8388:	40000409 	.word	0x40000409
    838c:	0060001c 	.word	0x0060001c
    8390:	80000409 	.word	0x80000409
    8394:	0060001c 	.word	0x0060001c
    8398:	c0000409 	.word	0xc0000409
    839c:	0060001c 	.word	0x0060001c
    83a0:	00000409 	.word	0x00000409
    83a4:	0060001d 	.word	0x0060001d
    83a8:	40000409 	.word	0x40000409
    83ac:	0060001d 	.word	0x0060001d
    83b0:	80000409 	.word	0x80000409
    83b4:	0060001d 	.word	0x0060001d
    83b8:	c0000409 	.word	0xc0000409
    83bc:	0060001d 	.word	0x0060001d
    83c0:	00000409 	.word	0x00000409
    83c4:	0060001e 	.word	0x0060001e
    83c8:	40000409 	.word	0x40000409
    83cc:	0060001e 	.word	0x0060001e
    83d0:	80000409 	.word	0x80000409
    83d4:	0060001e 	.word	0x0060001e
    83d8:	c0000409 	.word	0xc0000409
    83dc:	0060001e 	.word	0x0060001e
    83e0:	00000409 	.word	0x00000409
    83e4:	0060001f 	.word	0x0060001f
    83e8:	40000409 	.word	0x40000409
    83ec:	0060001f 	.word	0x0060001f
    83f0:	80000409 	.word	0x80000409
    83f4:	0060001f 	.word	0x0060001f
    83f8:	c0000409 	.word	0xc0000409
    83fc:	0060001f 	.word	0x0060001f
    8400:	00000409 	.word	0x00000409
    8404:	00600020 	.word	0x00600020
    8408:	40000409 	.word	0x40000409
    840c:	00600020 	.word	0x00600020
    8410:	80000409 	.word	0x80000409
    8414:	00600020 	.word	0x00600020
    8418:	c0000409 	.word	0xc0000409
    841c:	00600020 	.word	0x00600020
    8420:	00000409 	.word	0x00000409
    8424:	00600021 	.word	0x00600021
    8428:	40000409 	.word	0x40000409
    842c:	00600021 	.word	0x00600021
    8430:	80000409 	.word	0x80000409
    8434:	00600021 	.word	0x00600021
    8438:	c0000409 	.word	0xc0000409
    843c:	00600021 	.word	0x00600021
    8440:	00000409 	.word	0x00000409
    8444:	00600022 	.word	0x00600022
    8448:	40000409 	.word	0x40000409
    844c:	00600022 	.word	0x00600022
    8450:	80000409 	.word	0x80000409
    8454:	00600022 	.word	0x00600022
    8458:	c0000409 	.word	0xc0000409
    845c:	00600022 	.word	0x00600022
    8460:	00000409 	.word	0x00000409
    8464:	00600023 	.word	0x00600023
    8468:	40000409 	.word	0x40000409
    846c:	00600023 	.word	0x00600023
    8470:	80000409 	.word	0x80000409
    8474:	00600023 	.word	0x00600023
    8478:	c0000409 	.word	0xc0000409
    847c:	00600023 	.word	0x00600023
    8480:	00000409 	.word	0x00000409
    8484:	00600024 	.word	0x00600024
    8488:	40000409 	.word	0x40000409
    848c:	00600024 	.word	0x00600024
    8490:	80000409 	.word	0x80000409
    8494:	00600024 	.word	0x00600024
    8498:	c0000409 	.word	0xc0000409
    849c:	00600024 	.word	0x00600024
    84a0:	00000409 	.word	0x00000409
    84a4:	00600025 	.word	0x00600025
    84a8:	40000409 	.word	0x40000409
    84ac:	00600025 	.word	0x00600025
    84b0:	80000409 	.word	0x80000409
    84b4:	00600025 	.word	0x00600025
    84b8:	c0000409 	.word	0xc0000409
    84bc:	00600025 	.word	0x00600025
    84c0:	00000409 	.word	0x00000409
    84c4:	00600026 	.word	0x00600026
    84c8:	40000409 	.word	0x40000409
    84cc:	00600026 	.word	0x00600026
    84d0:	80000409 	.word	0x80000409
    84d4:	00600026 	.word	0x00600026
    84d8:	c0000409 	.word	0xc0000409
    84dc:	00600026 	.word	0x00600026
    84e0:	00000409 	.word	0x00000409
    84e4:	00600027 	.word	0x00600027
    84e8:	40000409 	.word	0x40000409
    84ec:	00600027 	.word	0x00600027
    84f0:	80000409 	.word	0x80000409
    84f4:	00600027 	.word	0x00600027
    84f8:	c0000409 	.word	0xc0000409
    84fc:	00600027 	.word	0x00600027
    8500:	00000409 	.word	0x00000409
    8504:	00600028 	.word	0x00600028
    8508:	40000409 	.word	0x40000409
    850c:	00600028 	.word	0x00600028
    8510:	80000409 	.word	0x80000409
    8514:	00600028 	.word	0x00600028
    8518:	c0000409 	.word	0xc0000409
    851c:	00600028 	.word	0x00600028
    8520:	00000409 	.word	0x00000409
    8524:	00600029 	.word	0x00600029
    8528:	40000409 	.word	0x40000409
    852c:	00600029 	.word	0x00600029
    8530:	80000409 	.word	0x80000409
    8534:	00600029 	.word	0x00600029
    8538:	c0000409 	.word	0xc0000409
    853c:	00600029 	.word	0x00600029
    8540:	00000409 	.word	0x00000409
    8544:	0060002a 	.word	0x0060002a
    8548:	40000409 	.word	0x40000409
    854c:	0060002a 	.word	0x0060002a
    8550:	80000409 	.word	0x80000409
    8554:	0060002a 	.word	0x0060002a
    8558:	c0000409 	.word	0xc0000409
    855c:	0060002a 	.word	0x0060002a
    8560:	00000409 	.word	0x00000409
    8564:	0060002b 	.word	0x0060002b
    8568:	40000409 	.word	0x40000409
    856c:	0060002b 	.word	0x0060002b
    8570:	80000409 	.word	0x80000409
    8574:	0060002b 	.word	0x0060002b
    8578:	c0000409 	.word	0xc0000409
    857c:	0060002b 	.word	0x0060002b
    8580:	00000409 	.word	0x00000409
    8584:	0060002c 	.word	0x0060002c
    8588:	40000409 	.word	0x40000409
    858c:	0060002c 	.word	0x0060002c
    8590:	80000409 	.word	0x80000409
    8594:	0060002c 	.word	0x0060002c
    8598:	c0000409 	.word	0xc0000409
    859c:	0060002c 	.word	0x0060002c
    85a0:	00000409 	.word	0x00000409
    85a4:	0060002d 	.word	0x0060002d
    85a8:	40000409 	.word	0x40000409
    85ac:	0060002d 	.word	0x0060002d
    85b0:	80000409 	.word	0x80000409
    85b4:	0060002d 	.word	0x0060002d
    85b8:	c0000409 	.word	0xc0000409
    85bc:	0060002d 	.word	0x0060002d
    85c0:	00000409 	.word	0x00000409
    85c4:	0060002e 	.word	0x0060002e
    85c8:	40000409 	.word	0x40000409
    85cc:	0060002e 	.word	0x0060002e
    85d0:	80000409 	.word	0x80000409
    85d4:	0060002e 	.word	0x0060002e
    85d8:	c0000409 	.word	0xc0000409
    85dc:	0060002e 	.word	0x0060002e
    85e0:	00000409 	.word	0x00000409
    85e4:	0060002f 	.word	0x0060002f
    85e8:	40000409 	.word	0x40000409
    85ec:	0060002f 	.word	0x0060002f
    85f0:	80000409 	.word	0x80000409
    85f4:	0060002f 	.word	0x0060002f
    85f8:	c0000409 	.word	0xc0000409
    85fc:	0060002f 	.word	0x0060002f
    8600:	00000409 	.word	0x00000409
    8604:	00600030 	.word	0x00600030
    8608:	40000409 	.word	0x40000409
    860c:	00600030 	.word	0x00600030
    8610:	80000409 	.word	0x80000409
    8614:	00600030 	.word	0x00600030
    8618:	c0000409 	.word	0xc0000409
    861c:	00600030 	.word	0x00600030
    8620:	00000409 	.word	0x00000409
    8624:	00600031 	.word	0x00600031
    8628:	40000409 	.word	0x40000409
    862c:	00600031 	.word	0x00600031
    8630:	80000409 	.word	0x80000409
    8634:	00600031 	.word	0x00600031
    8638:	c0000409 	.word	0xc0000409
    863c:	00600031 	.word	0x00600031
    8640:	00000409 	.word	0x00000409
    8644:	00600032 	.word	0x00600032
    8648:	40000409 	.word	0x40000409
    864c:	00600032 	.word	0x00600032
    8650:	80000409 	.word	0x80000409
    8654:	00600032 	.word	0x00600032
    8658:	c0000409 	.word	0xc0000409
    865c:	00600032 	.word	0x00600032
    8660:	00000409 	.word	0x00000409
    8664:	00600033 	.word	0x00600033
    8668:	40000409 	.word	0x40000409
    866c:	00600033 	.word	0x00600033
    8670:	80000409 	.word	0x80000409
    8674:	00600033 	.word	0x00600033
    8678:	c0000409 	.word	0xc0000409
    867c:	00600033 	.word	0x00600033
    8680:	00000409 	.word	0x00000409
    8684:	00600034 	.word	0x00600034
    8688:	40000409 	.word	0x40000409
    868c:	00600034 	.word	0x00600034
    8690:	80000409 	.word	0x80000409
    8694:	00600034 	.word	0x00600034
    8698:	c0000409 	.word	0xc0000409
    869c:	00600034 	.word	0x00600034
    86a0:	00000409 	.word	0x00000409
    86a4:	00600035 	.word	0x00600035
    86a8:	40000409 	.word	0x40000409
    86ac:	00600035 	.word	0x00600035
    86b0:	80000409 	.word	0x80000409
    86b4:	00600035 	.word	0x00600035
    86b8:	c0000409 	.word	0xc0000409
    86bc:	00600035 	.word	0x00600035
    86c0:	00000409 	.word	0x00000409
    86c4:	00600036 	.word	0x00600036
    86c8:	40000409 	.word	0x40000409
    86cc:	00600036 	.word	0x00600036
    86d0:	80000409 	.word	0x80000409
    86d4:	00600036 	.word	0x00600036
    86d8:	c0000409 	.word	0xc0000409
    86dc:	00600036 	.word	0x00600036
    86e0:	00000409 	.word	0x00000409
    86e4:	00600037 	.word	0x00600037
    86e8:	40000409 	.word	0x40000409
    86ec:	00600037 	.word	0x00600037
    86f0:	80000409 	.word	0x80000409
    86f4:	00600037 	.word	0x00600037
    86f8:	c0000409 	.word	0xc0000409
    86fc:	00600037 	.word	0x00600037
    8700:	00000409 	.word	0x00000409
    8704:	00600038 	.word	0x00600038
    8708:	40000409 	.word	0x40000409
    870c:	00600038 	.word	0x00600038
    8710:	80000409 	.word	0x80000409
    8714:	00600038 	.word	0x00600038
    8718:	c0000409 	.word	0xc0000409
    871c:	00600038 	.word	0x00600038
    8720:	00000409 	.word	0x00000409
    8724:	00600039 	.word	0x00600039
    8728:	40000409 	.word	0x40000409
    872c:	00600039 	.word	0x00600039
    8730:	80000409 	.word	0x80000409
    8734:	00600039 	.word	0x00600039
    8738:	c0000409 	.word	0xc0000409
    873c:	00600039 	.word	0x00600039
    8740:	00000409 	.word	0x00000409
    8744:	0060003a 	.word	0x0060003a
    8748:	40000409 	.word	0x40000409
    874c:	0060003a 	.word	0x0060003a
    8750:	80000409 	.word	0x80000409
    8754:	0060003a 	.word	0x0060003a
    8758:	c0000409 	.word	0xc0000409
    875c:	0060003a 	.word	0x0060003a
    8760:	00000409 	.word	0x00000409
    8764:	0060003b 	.word	0x0060003b
    8768:	40000409 	.word	0x40000409
    876c:	0060003b 	.word	0x0060003b
    8770:	80000409 	.word	0x80000409
    8774:	0060003b 	.word	0x0060003b
    8778:	c0000409 	.word	0xc0000409
    877c:	0060003b 	.word	0x0060003b
    8780:	00000409 	.word	0x00000409
    8784:	0060003c 	.word	0x0060003c
    8788:	40000409 	.word	0x40000409
    878c:	0060003c 	.word	0x0060003c
    8790:	80000409 	.word	0x80000409
    8794:	0060003c 	.word	0x0060003c
    8798:	c0000409 	.word	0xc0000409
    879c:	0060003c 	.word	0x0060003c
    87a0:	00000409 	.word	0x00000409
    87a4:	0060003d 	.word	0x0060003d
    87a8:	40000409 	.word	0x40000409
    87ac:	0060003d 	.word	0x0060003d
    87b0:	80000409 	.word	0x80000409
    87b4:	0060003d 	.word	0x0060003d
    87b8:	c0000409 	.word	0xc0000409
    87bc:	0060003d 	.word	0x0060003d
    87c0:	00000409 	.word	0x00000409
    87c4:	0060003e 	.word	0x0060003e
    87c8:	40000409 	.word	0x40000409
    87cc:	0060003e 	.word	0x0060003e
    87d0:	80000409 	.word	0x80000409
    87d4:	0060003e 	.word	0x0060003e
    87d8:	c0000409 	.word	0xc0000409
    87dc:	0060003e 	.word	0x0060003e
    87e0:	00000409 	.word	0x00000409
    87e4:	0060003f 	.word	0x0060003f
    87e8:	40000409 	.word	0x40000409
    87ec:	0060003f 	.word	0x0060003f
    87f0:	80000409 	.word	0x80000409
    87f4:	0060003f 	.word	0x0060003f
    87f8:	c0000409 	.word	0xc0000409
    87fc:	0060003f 	.word	0x0060003f
    8800:	00000409 	.word	0x00000409
    8804:	00600040 	.word	0x00600040
    8808:	40000409 	.word	0x40000409
    880c:	00600040 	.word	0x00600040
    8810:	80000409 	.word	0x80000409
    8814:	00600040 	.word	0x00600040
    8818:	c0000409 	.word	0xc0000409
    881c:	00600040 	.word	0x00600040
    8820:	00000409 	.word	0x00000409
    8824:	00600041 	.word	0x00600041
    8828:	40000409 	.word	0x40000409
    882c:	00600041 	.word	0x00600041
    8830:	80000409 	.word	0x80000409
    8834:	00600041 	.word	0x00600041
    8838:	c0000409 	.word	0xc0000409
    883c:	00600041 	.word	0x00600041
    8840:	00000409 	.word	0x00000409
    8844:	00600042 	.word	0x00600042
    8848:	40000409 	.word	0x40000409
    884c:	00600042 	.word	0x00600042
    8850:	80000409 	.word	0x80000409
    8854:	00600042 	.word	0x00600042
    8858:	c0000409 	.word	0xc0000409
    885c:	00600042 	.word	0x00600042
    8860:	00000409 	.word	0x00000409
    8864:	00600043 	.word	0x00600043
    8868:	40000409 	.word	0x40000409
    886c:	00600043 	.word	0x00600043
    8870:	80000409 	.word	0x80000409
    8874:	00600043 	.word	0x00600043
    8878:	c0000409 	.word	0xc0000409
    887c:	00600043 	.word	0x00600043
    8880:	00000409 	.word	0x00000409
    8884:	00600044 	.word	0x00600044
    8888:	40000409 	.word	0x40000409
    888c:	00600044 	.word	0x00600044
    8890:	80000409 	.word	0x80000409
    8894:	00600044 	.word	0x00600044
    8898:	c0000409 	.word	0xc0000409
    889c:	00600044 	.word	0x00600044
    88a0:	00000409 	.word	0x00000409
    88a4:	00600045 	.word	0x00600045
    88a8:	40000409 	.word	0x40000409
    88ac:	00600045 	.word	0x00600045
    88b0:	80000409 	.word	0x80000409
    88b4:	00600045 	.word	0x00600045
    88b8:	c0000409 	.word	0xc0000409
    88bc:	00600045 	.word	0x00600045
    88c0:	00000409 	.word	0x00000409
    88c4:	00600046 	.word	0x00600046
    88c8:	40000409 	.word	0x40000409
    88cc:	00600046 	.word	0x00600046
    88d0:	80000409 	.word	0x80000409
    88d4:	00600046 	.word	0x00600046
    88d8:	c0000409 	.word	0xc0000409
    88dc:	00600046 	.word	0x00600046
    88e0:	00000409 	.word	0x00000409
    88e4:	00600047 	.word	0x00600047
    88e8:	40000409 	.word	0x40000409
    88ec:	00600047 	.word	0x00600047
    88f0:	80000409 	.word	0x80000409
    88f4:	00600047 	.word	0x00600047
    88f8:	c0000409 	.word	0xc0000409
    88fc:	00600047 	.word	0x00600047
    8900:	00000409 	.word	0x00000409
    8904:	00600048 	.word	0x00600048
    8908:	40000409 	.word	0x40000409
    890c:	00600048 	.word	0x00600048
    8910:	80000409 	.word	0x80000409
    8914:	00600048 	.word	0x00600048
    8918:	c0000409 	.word	0xc0000409
    891c:	00600048 	.word	0x00600048
    8920:	00000409 	.word	0x00000409
    8924:	00600049 	.word	0x00600049
    8928:	40000409 	.word	0x40000409
    892c:	00600049 	.word	0x00600049
    8930:	80000409 	.word	0x80000409
    8934:	00600049 	.word	0x00600049
    8938:	c0000409 	.word	0xc0000409
    893c:	00600049 	.word	0x00600049
    8940:	00000409 	.word	0x00000409
    8944:	0060004a 	.word	0x0060004a
    8948:	40000409 	.word	0x40000409
    894c:	0060004a 	.word	0x0060004a
    8950:	80000409 	.word	0x80000409
    8954:	0060004a 	.word	0x0060004a
    8958:	c0000409 	.word	0xc0000409
    895c:	0060004a 	.word	0x0060004a
    8960:	00000409 	.word	0x00000409
    8964:	0060004b 	.word	0x0060004b
    8968:	40000409 	.word	0x40000409
    896c:	0060004b 	.word	0x0060004b
    8970:	80000409 	.word	0x80000409
    8974:	0060004b 	.word	0x0060004b
    8978:	c0000409 	.word	0xc0000409
    897c:	0060004b 	.word	0x0060004b
    8980:	00000409 	.word	0x00000409
    8984:	0060004c 	.word	0x0060004c
    8988:	40000409 	.word	0x40000409
    898c:	0060004c 	.word	0x0060004c
    8990:	80000409 	.word	0x80000409
    8994:	0060004c 	.word	0x0060004c
    8998:	c0000409 	.word	0xc0000409
    899c:	0060004c 	.word	0x0060004c
    89a0:	00000409 	.word	0x00000409
    89a4:	0060004d 	.word	0x0060004d
    89a8:	40000409 	.word	0x40000409
    89ac:	0060004d 	.word	0x0060004d
    89b0:	80000409 	.word	0x80000409
    89b4:	0060004d 	.word	0x0060004d
    89b8:	c0000409 	.word	0xc0000409
    89bc:	0060004d 	.word	0x0060004d
    89c0:	00000409 	.word	0x00000409
    89c4:	0060004e 	.word	0x0060004e
    89c8:	40000409 	.word	0x40000409
    89cc:	0060004e 	.word	0x0060004e
    89d0:	80000409 	.word	0x80000409
    89d4:	0060004e 	.word	0x0060004e
    89d8:	c0000409 	.word	0xc0000409
    89dc:	0060004e 	.word	0x0060004e
    89e0:	00000409 	.word	0x00000409
    89e4:	0060004f 	.word	0x0060004f
    89e8:	40000409 	.word	0x40000409
    89ec:	0060004f 	.word	0x0060004f
    89f0:	80000409 	.word	0x80000409
    89f4:	0060004f 	.word	0x0060004f
    89f8:	c0000409 	.word	0xc0000409
    89fc:	0060004f 	.word	0x0060004f
    8a00:	00000409 	.word	0x00000409
    8a04:	00600050 	.word	0x00600050
    8a08:	40000409 	.word	0x40000409
    8a0c:	00600050 	.word	0x00600050
    8a10:	80000409 	.word	0x80000409
    8a14:	00600050 	.word	0x00600050
    8a18:	c0000409 	.word	0xc0000409
    8a1c:	00600050 	.word	0x00600050
    8a20:	00000409 	.word	0x00000409
    8a24:	00600051 	.word	0x00600051
    8a28:	40000409 	.word	0x40000409
    8a2c:	00600051 	.word	0x00600051
    8a30:	80000409 	.word	0x80000409
    8a34:	00600051 	.word	0x00600051
    8a38:	c0000409 	.word	0xc0000409
    8a3c:	00600051 	.word	0x00600051
    8a40:	00000409 	.word	0x00000409
    8a44:	00600052 	.word	0x00600052
    8a48:	40000409 	.word	0x40000409
    8a4c:	00600052 	.word	0x00600052
    8a50:	80000409 	.word	0x80000409
    8a54:	00600052 	.word	0x00600052
    8a58:	c0000409 	.word	0xc0000409
    8a5c:	00600052 	.word	0x00600052
    8a60:	00000409 	.word	0x00000409
    8a64:	00600053 	.word	0x00600053
    8a68:	40000409 	.word	0x40000409
    8a6c:	00600053 	.word	0x00600053
    8a70:	80000409 	.word	0x80000409
    8a74:	00600053 	.word	0x00600053
    8a78:	c0000409 	.word	0xc0000409
    8a7c:	00600053 	.word	0x00600053
    8a80:	00000409 	.word	0x00000409
    8a84:	00600054 	.word	0x00600054
    8a88:	40000409 	.word	0x40000409
    8a8c:	00600054 	.word	0x00600054
    8a90:	80000409 	.word	0x80000409
    8a94:	00600054 	.word	0x00600054
    8a98:	c0000409 	.word	0xc0000409
    8a9c:	00600054 	.word	0x00600054
    8aa0:	00000409 	.word	0x00000409
    8aa4:	00600055 	.word	0x00600055
    8aa8:	40000409 	.word	0x40000409
    8aac:	00600055 	.word	0x00600055
    8ab0:	80000409 	.word	0x80000409
    8ab4:	00600055 	.word	0x00600055
    8ab8:	c0000409 	.word	0xc0000409
    8abc:	00600055 	.word	0x00600055
    8ac0:	00000409 	.word	0x00000409
    8ac4:	00600056 	.word	0x00600056
    8ac8:	40000409 	.word	0x40000409
    8acc:	00600056 	.word	0x00600056
    8ad0:	80000409 	.word	0x80000409
    8ad4:	00600056 	.word	0x00600056
    8ad8:	c0000409 	.word	0xc0000409
    8adc:	00600056 	.word	0x00600056
    8ae0:	00000409 	.word	0x00000409
    8ae4:	00600057 	.word	0x00600057
    8ae8:	40000409 	.word	0x40000409
    8aec:	00600057 	.word	0x00600057
    8af0:	80000409 	.word	0x80000409
    8af4:	00600057 	.word	0x00600057
    8af8:	c0000409 	.word	0xc0000409
    8afc:	00600057 	.word	0x00600057
    8b00:	00000409 	.word	0x00000409
    8b04:	00600058 	.word	0x00600058
    8b08:	40000409 	.word	0x40000409
    8b0c:	00600058 	.word	0x00600058
    8b10:	80000409 	.word	0x80000409
    8b14:	00600058 	.word	0x00600058
    8b18:	c0000409 	.word	0xc0000409
    8b1c:	00600058 	.word	0x00600058
    8b20:	00000409 	.word	0x00000409
    8b24:	00600059 	.word	0x00600059
    8b28:	40000409 	.word	0x40000409
    8b2c:	00600059 	.word	0x00600059
    8b30:	80000409 	.word	0x80000409
    8b34:	00600059 	.word	0x00600059
    8b38:	c0000409 	.word	0xc0000409
    8b3c:	00600059 	.word	0x00600059
    8b40:	00000409 	.word	0x00000409
    8b44:	0060005a 	.word	0x0060005a
    8b48:	40000409 	.word	0x40000409
    8b4c:	0060005a 	.word	0x0060005a
    8b50:	80000409 	.word	0x80000409
    8b54:	0060005a 	.word	0x0060005a
    8b58:	c0000409 	.word	0xc0000409
    8b5c:	0060005a 	.word	0x0060005a
    8b60:	00000409 	.word	0x00000409
    8b64:	0060005b 	.word	0x0060005b
    8b68:	40000409 	.word	0x40000409
    8b6c:	0060005b 	.word	0x0060005b
    8b70:	80000409 	.word	0x80000409
    8b74:	0060005b 	.word	0x0060005b
    8b78:	c0000409 	.word	0xc0000409
    8b7c:	0060005b 	.word	0x0060005b
    8b80:	00000409 	.word	0x00000409
    8b84:	0060005c 	.word	0x0060005c
    8b88:	40000409 	.word	0x40000409
    8b8c:	0060005c 	.word	0x0060005c
    8b90:	80000409 	.word	0x80000409
    8b94:	0060005c 	.word	0x0060005c
    8b98:	c0000409 	.word	0xc0000409
    8b9c:	0060005c 	.word	0x0060005c
    8ba0:	00000409 	.word	0x00000409
    8ba4:	0060005d 	.word	0x0060005d
    8ba8:	40000409 	.word	0x40000409
    8bac:	0060005d 	.word	0x0060005d
    8bb0:	80000409 	.word	0x80000409
    8bb4:	0060005d 	.word	0x0060005d
    8bb8:	c0000409 	.word	0xc0000409
    8bbc:	0060005d 	.word	0x0060005d
    8bc0:	00000409 	.word	0x00000409
    8bc4:	0060005e 	.word	0x0060005e
    8bc8:	40000409 	.word	0x40000409
    8bcc:	0060005e 	.word	0x0060005e
    8bd0:	80000409 	.word	0x80000409
    8bd4:	0060005e 	.word	0x0060005e
    8bd8:	c0000409 	.word	0xc0000409
    8bdc:	0060005e 	.word	0x0060005e
    8be0:	00000409 	.word	0x00000409
    8be4:	0060005f 	.word	0x0060005f
    8be8:	40000409 	.word	0x40000409
    8bec:	0060005f 	.word	0x0060005f
    8bf0:	80000409 	.word	0x80000409
    8bf4:	0060005f 	.word	0x0060005f
    8bf8:	c0000409 	.word	0xc0000409
    8bfc:	0060005f 	.word	0x0060005f
    8c00:	00000409 	.word	0x00000409
    8c04:	00600060 	.word	0x00600060
    8c08:	40000409 	.word	0x40000409
    8c0c:	00600060 	.word	0x00600060
    8c10:	80000409 	.word	0x80000409
    8c14:	00600060 	.word	0x00600060
    8c18:	c0000409 	.word	0xc0000409
    8c1c:	00600060 	.word	0x00600060
    8c20:	00000409 	.word	0x00000409
    8c24:	00600061 	.word	0x00600061
    8c28:	40000409 	.word	0x40000409
    8c2c:	00600061 	.word	0x00600061
    8c30:	80000409 	.word	0x80000409
    8c34:	00600061 	.word	0x00600061
    8c38:	c0000409 	.word	0xc0000409
    8c3c:	00600061 	.word	0x00600061
    8c40:	00000409 	.word	0x00000409
    8c44:	00600062 	.word	0x00600062
    8c48:	40000409 	.word	0x40000409
    8c4c:	00600062 	.word	0x00600062
    8c50:	80000409 	.word	0x80000409
    8c54:	00600062 	.word	0x00600062
    8c58:	c0000409 	.word	0xc0000409
    8c5c:	00600062 	.word	0x00600062
    8c60:	00000409 	.word	0x00000409
    8c64:	00600063 	.word	0x00600063
    8c68:	40000409 	.word	0x40000409
    8c6c:	00600063 	.word	0x00600063
    8c70:	80000409 	.word	0x80000409
    8c74:	00600063 	.word	0x00600063
    8c78:	c0000409 	.word	0xc0000409
    8c7c:	00600063 	.word	0x00600063
    8c80:	00000409 	.word	0x00000409
    8c84:	00600064 	.word	0x00600064
    8c88:	40000409 	.word	0x40000409
    8c8c:	00600064 	.word	0x00600064
    8c90:	80000409 	.word	0x80000409
    8c94:	00600064 	.word	0x00600064
    8c98:	c0000409 	.word	0xc0000409
    8c9c:	00600064 	.word	0x00600064
    8ca0:	00000409 	.word	0x00000409
    8ca4:	00600065 	.word	0x00600065
    8ca8:	40000409 	.word	0x40000409
    8cac:	00600065 	.word	0x00600065
    8cb0:	80000409 	.word	0x80000409
    8cb4:	00600065 	.word	0x00600065
    8cb8:	c0000409 	.word	0xc0000409
    8cbc:	00600065 	.word	0x00600065
    8cc0:	00000409 	.word	0x00000409
    8cc4:	00600066 	.word	0x00600066
    8cc8:	40000409 	.word	0x40000409
    8ccc:	00600066 	.word	0x00600066
    8cd0:	80000409 	.word	0x80000409
    8cd4:	00600066 	.word	0x00600066
    8cd8:	c0000409 	.word	0xc0000409
    8cdc:	00600066 	.word	0x00600066
    8ce0:	00000409 	.word	0x00000409
    8ce4:	00600067 	.word	0x00600067
    8ce8:	40000409 	.word	0x40000409
    8cec:	00600067 	.word	0x00600067
    8cf0:	80000409 	.word	0x80000409
    8cf4:	00600067 	.word	0x00600067
    8cf8:	c0000409 	.word	0xc0000409
    8cfc:	00600067 	.word	0x00600067
    8d00:	00000409 	.word	0x00000409
    8d04:	00600068 	.word	0x00600068
    8d08:	40000409 	.word	0x40000409
    8d0c:	00600068 	.word	0x00600068
    8d10:	80000409 	.word	0x80000409
    8d14:	00600068 	.word	0x00600068
    8d18:	c0000409 	.word	0xc0000409
    8d1c:	00600068 	.word	0x00600068
    8d20:	00000409 	.word	0x00000409
    8d24:	00600069 	.word	0x00600069
    8d28:	40000409 	.word	0x40000409
    8d2c:	00600069 	.word	0x00600069
    8d30:	80000409 	.word	0x80000409
    8d34:	00600069 	.word	0x00600069
    8d38:	c0000409 	.word	0xc0000409
    8d3c:	00600069 	.word	0x00600069
    8d40:	00000409 	.word	0x00000409
    8d44:	0060006a 	.word	0x0060006a
    8d48:	40000409 	.word	0x40000409
    8d4c:	0060006a 	.word	0x0060006a
    8d50:	80000409 	.word	0x80000409
    8d54:	0060006a 	.word	0x0060006a
    8d58:	c0000409 	.word	0xc0000409
    8d5c:	0060006a 	.word	0x0060006a
    8d60:	00000409 	.word	0x00000409
    8d64:	0060006b 	.word	0x0060006b
    8d68:	40000409 	.word	0x40000409
    8d6c:	0060006b 	.word	0x0060006b
    8d70:	80000409 	.word	0x80000409
    8d74:	0060006b 	.word	0x0060006b
    8d78:	c0000409 	.word	0xc0000409
    8d7c:	0060006b 	.word	0x0060006b
    8d80:	00000409 	.word	0x00000409
    8d84:	0060006c 	.word	0x0060006c
    8d88:	40000409 	.word	0x40000409
    8d8c:	0060006c 	.word	0x0060006c
    8d90:	80000409 	.word	0x80000409
    8d94:	0060006c 	.word	0x0060006c
    8d98:	c0000409 	.word	0xc0000409
    8d9c:	0060006c 	.word	0x0060006c
    8da0:	00000409 	.word	0x00000409
    8da4:	0060006d 	.word	0x0060006d
    8da8:	40000409 	.word	0x40000409
    8dac:	0060006d 	.word	0x0060006d
    8db0:	80000409 	.word	0x80000409
    8db4:	0060006d 	.word	0x0060006d
    8db8:	c0000409 	.word	0xc0000409
    8dbc:	0060006d 	.word	0x0060006d
    8dc0:	00000409 	.word	0x00000409
    8dc4:	0060006e 	.word	0x0060006e
    8dc8:	40000409 	.word	0x40000409
    8dcc:	0060006e 	.word	0x0060006e
    8dd0:	80000409 	.word	0x80000409
    8dd4:	0060006e 	.word	0x0060006e
    8dd8:	c0000409 	.word	0xc0000409
    8ddc:	0060006e 	.word	0x0060006e
    8de0:	00000409 	.word	0x00000409
    8de4:	0060006f 	.word	0x0060006f
    8de8:	40000409 	.word	0x40000409
    8dec:	0060006f 	.word	0x0060006f
    8df0:	80000409 	.word	0x80000409
    8df4:	0060006f 	.word	0x0060006f
    8df8:	c0000409 	.word	0xc0000409
    8dfc:	0060006f 	.word	0x0060006f
    8e00:	00000409 	.word	0x00000409
    8e04:	00600070 	.word	0x00600070
    8e08:	40000409 	.word	0x40000409
    8e0c:	00600070 	.word	0x00600070
    8e10:	80000409 	.word	0x80000409
    8e14:	00600070 	.word	0x00600070
    8e18:	c0000409 	.word	0xc0000409
    8e1c:	00600070 	.word	0x00600070
    8e20:	00000409 	.word	0x00000409
    8e24:	00600071 	.word	0x00600071
    8e28:	40000409 	.word	0x40000409
    8e2c:	00600071 	.word	0x00600071
    8e30:	80000409 	.word	0x80000409
    8e34:	00600071 	.word	0x00600071
    8e38:	c0000409 	.word	0xc0000409
    8e3c:	00600071 	.word	0x00600071
    8e40:	00000409 	.word	0x00000409
    8e44:	00600072 	.word	0x00600072
    8e48:	40000409 	.word	0x40000409
    8e4c:	00600072 	.word	0x00600072
    8e50:	80000409 	.word	0x80000409
    8e54:	00600072 	.word	0x00600072
    8e58:	c0000409 	.word	0xc0000409
    8e5c:	00600072 	.word	0x00600072
    8e60:	00000409 	.word	0x00000409
    8e64:	00600073 	.word	0x00600073
    8e68:	40000409 	.word	0x40000409
    8e6c:	00600073 	.word	0x00600073
    8e70:	80000409 	.word	0x80000409
    8e74:	00600073 	.word	0x00600073
    8e78:	c0000409 	.word	0xc0000409
    8e7c:	00600073 	.word	0x00600073
    8e80:	00000409 	.word	0x00000409
    8e84:	00600074 	.word	0x00600074
    8e88:	40000409 	.word	0x40000409
    8e8c:	00600074 	.word	0x00600074
    8e90:	80000409 	.word	0x80000409
    8e94:	00600074 	.word	0x00600074
    8e98:	c0000409 	.word	0xc0000409
    8e9c:	00600074 	.word	0x00600074
    8ea0:	00000409 	.word	0x00000409
    8ea4:	00600075 	.word	0x00600075
    8ea8:	40000409 	.word	0x40000409
    8eac:	00600075 	.word	0x00600075
    8eb0:	80000409 	.word	0x80000409
    8eb4:	00600075 	.word	0x00600075
    8eb8:	c0000409 	.word	0xc0000409
    8ebc:	00600075 	.word	0x00600075
    8ec0:	00000409 	.word	0x00000409
    8ec4:	00600076 	.word	0x00600076
    8ec8:	40000409 	.word	0x40000409
    8ecc:	00600076 	.word	0x00600076
    8ed0:	80000409 	.word	0x80000409
    8ed4:	00600076 	.word	0x00600076
    8ed8:	c0000409 	.word	0xc0000409
    8edc:	00600076 	.word	0x00600076
    8ee0:	00000409 	.word	0x00000409
    8ee4:	00600077 	.word	0x00600077
    8ee8:	40000409 	.word	0x40000409
    8eec:	00600077 	.word	0x00600077
    8ef0:	80000409 	.word	0x80000409
    8ef4:	00600077 	.word	0x00600077
    8ef8:	c0000409 	.word	0xc0000409
    8efc:	00600077 	.word	0x00600077
    8f00:	00000409 	.word	0x00000409
    8f04:	00600078 	.word	0x00600078
    8f08:	40000409 	.word	0x40000409
    8f0c:	00600078 	.word	0x00600078
    8f10:	80000409 	.word	0x80000409
    8f14:	00600078 	.word	0x00600078
    8f18:	c0000409 	.word	0xc0000409
    8f1c:	00600078 	.word	0x00600078
    8f20:	00000409 	.word	0x00000409
    8f24:	00600079 	.word	0x00600079
    8f28:	40000409 	.word	0x40000409
    8f2c:	00600079 	.word	0x00600079
    8f30:	80000409 	.word	0x80000409
    8f34:	00600079 	.word	0x00600079
    8f38:	c0000409 	.word	0xc0000409
    8f3c:	00600079 	.word	0x00600079
    8f40:	00000409 	.word	0x00000409
    8f44:	0060007a 	.word	0x0060007a
    8f48:	40000409 	.word	0x40000409
    8f4c:	0060007a 	.word	0x0060007a
    8f50:	80000409 	.word	0x80000409
    8f54:	0060007a 	.word	0x0060007a
    8f58:	c0000409 	.word	0xc0000409
    8f5c:	0060007a 	.word	0x0060007a
    8f60:	00000409 	.word	0x00000409
    8f64:	0060007b 	.word	0x0060007b
    8f68:	40000409 	.word	0x40000409
    8f6c:	0060007b 	.word	0x0060007b
    8f70:	80000409 	.word	0x80000409
    8f74:	0060007b 	.word	0x0060007b
    8f78:	c0000409 	.word	0xc0000409
    8f7c:	0060007b 	.word	0x0060007b
    8f80:	00000409 	.word	0x00000409
    8f84:	0060007c 	.word	0x0060007c
    8f88:	40000409 	.word	0x40000409
    8f8c:	0060007c 	.word	0x0060007c
    8f90:	80000409 	.word	0x80000409
    8f94:	0060007c 	.word	0x0060007c
    8f98:	c0000409 	.word	0xc0000409
    8f9c:	0060007c 	.word	0x0060007c
    8fa0:	00000409 	.word	0x00000409
    8fa4:	0060007d 	.word	0x0060007d
    8fa8:	40000409 	.word	0x40000409
    8fac:	0060007d 	.word	0x0060007d
    8fb0:	80000409 	.word	0x80000409
    8fb4:	0060007d 	.word	0x0060007d
    8fb8:	c0000409 	.word	0xc0000409
    8fbc:	0060007d 	.word	0x0060007d
    8fc0:	00000409 	.word	0x00000409
    8fc4:	0060007e 	.word	0x0060007e
    8fc8:	40000409 	.word	0x40000409
    8fcc:	0060007e 	.word	0x0060007e
    8fd0:	80000409 	.word	0x80000409
    8fd4:	0060007e 	.word	0x0060007e
    8fd8:	c0000409 	.word	0xc0000409
    8fdc:	0060007e 	.word	0x0060007e
    8fe0:	00000409 	.word	0x00000409
    8fe4:	0060007f 	.word	0x0060007f
    8fe8:	40000409 	.word	0x40000409
    8fec:	0060007f 	.word	0x0060007f
    8ff0:	80000409 	.word	0x80000409
    8ff4:	0060007f 	.word	0x0060007f
    8ff8:	c0000409 	.word	0xc0000409
    8ffc:	0060007f 	.word	0x0060007f
    9000:	00000409 	.word	0x00000409
    9004:	00600080 	.word	0x00600080
    9008:	40000409 	.word	0x40000409
    900c:	00600080 	.word	0x00600080
    9010:	80000409 	.word	0x80000409
    9014:	00600080 	.word	0x00600080
    9018:	c0000409 	.word	0xc0000409
    901c:	00600080 	.word	0x00600080
    9020:	00000409 	.word	0x00000409
    9024:	00600081 	.word	0x00600081
    9028:	40000409 	.word	0x40000409
    902c:	00600081 	.word	0x00600081
    9030:	80000409 	.word	0x80000409
    9034:	00600081 	.word	0x00600081
    9038:	c0000409 	.word	0xc0000409
    903c:	00600081 	.word	0x00600081
    9040:	00000409 	.word	0x00000409
    9044:	00600082 	.word	0x00600082
    9048:	40000409 	.word	0x40000409
    904c:	00600082 	.word	0x00600082
    9050:	80000409 	.word	0x80000409
    9054:	00600082 	.word	0x00600082
    9058:	c0000409 	.word	0xc0000409
    905c:	00600082 	.word	0x00600082
    9060:	00000409 	.word	0x00000409
    9064:	00600083 	.word	0x00600083
    9068:	40000409 	.word	0x40000409
    906c:	00600083 	.word	0x00600083
    9070:	80000409 	.word	0x80000409
    9074:	00600083 	.word	0x00600083
    9078:	c0000409 	.word	0xc0000409
    907c:	00600083 	.word	0x00600083
    9080:	00000409 	.word	0x00000409
    9084:	00600084 	.word	0x00600084
    9088:	40000409 	.word	0x40000409
    908c:	00600084 	.word	0x00600084
    9090:	80000409 	.word	0x80000409
    9094:	00600084 	.word	0x00600084
    9098:	c0000409 	.word	0xc0000409
    909c:	00600084 	.word	0x00600084
    90a0:	00000409 	.word	0x00000409
    90a4:	00600085 	.word	0x00600085
    90a8:	40000409 	.word	0x40000409
    90ac:	00600085 	.word	0x00600085
    90b0:	80000409 	.word	0x80000409
    90b4:	00600085 	.word	0x00600085
    90b8:	c0000409 	.word	0xc0000409
    90bc:	00600085 	.word	0x00600085
    90c0:	00000409 	.word	0x00000409
    90c4:	00600086 	.word	0x00600086
    90c8:	40000409 	.word	0x40000409
    90cc:	00600086 	.word	0x00600086
    90d0:	80000409 	.word	0x80000409
    90d4:	00600086 	.word	0x00600086
    90d8:	c0000409 	.word	0xc0000409
    90dc:	00600086 	.word	0x00600086
    90e0:	00000409 	.word	0x00000409
    90e4:	00600087 	.word	0x00600087
    90e8:	40000409 	.word	0x40000409
    90ec:	00600087 	.word	0x00600087
    90f0:	80000409 	.word	0x80000409
    90f4:	00600087 	.word	0x00600087
    90f8:	c0000409 	.word	0xc0000409
    90fc:	00600087 	.word	0x00600087
    9100:	00000409 	.word	0x00000409
    9104:	00600088 	.word	0x00600088
    9108:	40000409 	.word	0x40000409
    910c:	00600088 	.word	0x00600088
    9110:	80000409 	.word	0x80000409
    9114:	00600088 	.word	0x00600088
    9118:	c0000409 	.word	0xc0000409
    911c:	00600088 	.word	0x00600088
    9120:	00000409 	.word	0x00000409
    9124:	00600089 	.word	0x00600089
    9128:	40000409 	.word	0x40000409
    912c:	00600089 	.word	0x00600089
    9130:	80000409 	.word	0x80000409
    9134:	00600089 	.word	0x00600089
    9138:	c0000409 	.word	0xc0000409
    913c:	00600089 	.word	0x00600089
    9140:	00000409 	.word	0x00000409
    9144:	0060008a 	.word	0x0060008a
    9148:	40000409 	.word	0x40000409
    914c:	0060008a 	.word	0x0060008a
    9150:	80000409 	.word	0x80000409
    9154:	0060008a 	.word	0x0060008a
    9158:	c0000409 	.word	0xc0000409
    915c:	0060008a 	.word	0x0060008a
    9160:	00000409 	.word	0x00000409
    9164:	0060008b 	.word	0x0060008b
    9168:	40000409 	.word	0x40000409
    916c:	0060008b 	.word	0x0060008b
    9170:	80000409 	.word	0x80000409
    9174:	0060008b 	.word	0x0060008b
    9178:	c0000409 	.word	0xc0000409
    917c:	0060008b 	.word	0x0060008b
    9180:	00000409 	.word	0x00000409
    9184:	0060008c 	.word	0x0060008c
    9188:	40000409 	.word	0x40000409
    918c:	0060008c 	.word	0x0060008c
    9190:	80000409 	.word	0x80000409
    9194:	0060008c 	.word	0x0060008c
    9198:	c0000409 	.word	0xc0000409
    919c:	0060008c 	.word	0x0060008c
    91a0:	00000409 	.word	0x00000409
    91a4:	0060008d 	.word	0x0060008d
    91a8:	40000409 	.word	0x40000409
    91ac:	0060008d 	.word	0x0060008d
    91b0:	80000409 	.word	0x80000409
    91b4:	0060008d 	.word	0x0060008d
    91b8:	c0000409 	.word	0xc0000409
    91bc:	0060008d 	.word	0x0060008d
    91c0:	00000409 	.word	0x00000409
    91c4:	0060008e 	.word	0x0060008e
    91c8:	40000409 	.word	0x40000409
    91cc:	0060008e 	.word	0x0060008e
    91d0:	80000409 	.word	0x80000409
    91d4:	0060008e 	.word	0x0060008e
    91d8:	c0000409 	.word	0xc0000409
    91dc:	0060008e 	.word	0x0060008e
    91e0:	00000409 	.word	0x00000409
    91e4:	0060008f 	.word	0x0060008f
    91e8:	40000409 	.word	0x40000409
    91ec:	0060008f 	.word	0x0060008f
    91f0:	80000409 	.word	0x80000409
    91f4:	0060008f 	.word	0x0060008f
    91f8:	c0000409 	.word	0xc0000409
    91fc:	0060008f 	.word	0x0060008f
    9200:	00000409 	.word	0x00000409
    9204:	00600090 	.word	0x00600090
    9208:	40000409 	.word	0x40000409
    920c:	00600090 	.word	0x00600090
    9210:	80000409 	.word	0x80000409
    9214:	00600090 	.word	0x00600090
    9218:	c0000409 	.word	0xc0000409
    921c:	00600090 	.word	0x00600090
    9220:	00000409 	.word	0x00000409
    9224:	00600091 	.word	0x00600091
    9228:	40000409 	.word	0x40000409
    922c:	00600091 	.word	0x00600091
    9230:	80000409 	.word	0x80000409
    9234:	00600091 	.word	0x00600091
    9238:	c0000409 	.word	0xc0000409
    923c:	00600091 	.word	0x00600091
    9240:	00000409 	.word	0x00000409
    9244:	00600092 	.word	0x00600092
    9248:	40000409 	.word	0x40000409
    924c:	00600092 	.word	0x00600092
    9250:	80000409 	.word	0x80000409
    9254:	00600092 	.word	0x00600092
    9258:	c0000409 	.word	0xc0000409
    925c:	00600092 	.word	0x00600092
    9260:	00000409 	.word	0x00000409
    9264:	00600093 	.word	0x00600093
    9268:	40000409 	.word	0x40000409
    926c:	00600093 	.word	0x00600093
    9270:	80000409 	.word	0x80000409
    9274:	00600093 	.word	0x00600093
    9278:	c0000409 	.word	0xc0000409
    927c:	00600093 	.word	0x00600093
    9280:	00000409 	.word	0x00000409
    9284:	00600094 	.word	0x00600094
    9288:	40000409 	.word	0x40000409
    928c:	00600094 	.word	0x00600094
    9290:	80000409 	.word	0x80000409
    9294:	00600094 	.word	0x00600094
    9298:	c0000409 	.word	0xc0000409
    929c:	00600094 	.word	0x00600094
    92a0:	00000409 	.word	0x00000409
    92a4:	00600095 	.word	0x00600095
    92a8:	40000409 	.word	0x40000409
    92ac:	00600095 	.word	0x00600095
    92b0:	80000409 	.word	0x80000409
    92b4:	00600095 	.word	0x00600095
    92b8:	c0000409 	.word	0xc0000409
    92bc:	00600095 	.word	0x00600095
    92c0:	00000409 	.word	0x00000409
    92c4:	00600096 	.word	0x00600096
    92c8:	40000409 	.word	0x40000409
    92cc:	00600096 	.word	0x00600096
    92d0:	80000409 	.word	0x80000409
    92d4:	00600096 	.word	0x00600096
    92d8:	c0000409 	.word	0xc0000409
    92dc:	00600096 	.word	0x00600096
    92e0:	00000409 	.word	0x00000409
    92e4:	00600097 	.word	0x00600097
    92e8:	40000409 	.word	0x40000409
    92ec:	00600097 	.word	0x00600097
    92f0:	80000409 	.word	0x80000409
    92f4:	00600097 	.word	0x00600097
    92f8:	c0000409 	.word	0xc0000409
    92fc:	00600097 	.word	0x00600097
    9300:	00000409 	.word	0x00000409
    9304:	00600098 	.word	0x00600098
    9308:	40000409 	.word	0x40000409
    930c:	00600098 	.word	0x00600098
    9310:	80000409 	.word	0x80000409
    9314:	00600098 	.word	0x00600098
    9318:	c0000409 	.word	0xc0000409
    931c:	00600098 	.word	0x00600098
    9320:	00000409 	.word	0x00000409
    9324:	00600099 	.word	0x00600099
    9328:	40000409 	.word	0x40000409
    932c:	00600099 	.word	0x00600099
    9330:	80000409 	.word	0x80000409
    9334:	00600099 	.word	0x00600099
    9338:	c0000409 	.word	0xc0000409
    933c:	00600099 	.word	0x00600099
    9340:	00000409 	.word	0x00000409
    9344:	0060009a 	.word	0x0060009a
    9348:	40000409 	.word	0x40000409
    934c:	0060009a 	.word	0x0060009a
    9350:	80000409 	.word	0x80000409
    9354:	0060009a 	.word	0x0060009a
    9358:	c0000409 	.word	0xc0000409
    935c:	0060009a 	.word	0x0060009a
    9360:	00000409 	.word	0x00000409
    9364:	0060009b 	.word	0x0060009b
    9368:	40000409 	.word	0x40000409
    936c:	0060009b 	.word	0x0060009b
    9370:	80000409 	.word	0x80000409
    9374:	0060009b 	.word	0x0060009b
    9378:	c0000409 	.word	0xc0000409
    937c:	0060009b 	.word	0x0060009b
    9380:	00000409 	.word	0x00000409
    9384:	0060009c 	.word	0x0060009c
    9388:	40000409 	.word	0x40000409
    938c:	0060009c 	.word	0x0060009c
    9390:	80000409 	.word	0x80000409
    9394:	0060009c 	.word	0x0060009c
    9398:	c0000409 	.word	0xc0000409
    939c:	0060009c 	.word	0x0060009c
    93a0:	00000409 	.word	0x00000409
    93a4:	0060009d 	.word	0x0060009d
    93a8:	40000409 	.word	0x40000409
    93ac:	0060009d 	.word	0x0060009d
    93b0:	80000409 	.word	0x80000409
    93b4:	0060009d 	.word	0x0060009d
    93b8:	c0000409 	.word	0xc0000409
    93bc:	0060009d 	.word	0x0060009d
    93c0:	00000409 	.word	0x00000409
    93c4:	0060009e 	.word	0x0060009e
    93c8:	40000409 	.word	0x40000409
    93cc:	0060009e 	.word	0x0060009e
    93d0:	80000409 	.word	0x80000409
    93d4:	0060009e 	.word	0x0060009e
    93d8:	c0000409 	.word	0xc0000409
    93dc:	0060009e 	.word	0x0060009e
    93e0:	00000409 	.word	0x00000409
    93e4:	0060009f 	.word	0x0060009f
    93e8:	40000409 	.word	0x40000409
    93ec:	0060009f 	.word	0x0060009f
    93f0:	80000409 	.word	0x80000409
    93f4:	0060009f 	.word	0x0060009f
    93f8:	c0000409 	.word	0xc0000409
    93fc:	0060009f 	.word	0x0060009f
    9400:	00000409 	.word	0x00000409
    9404:	006000a0 	.word	0x006000a0
    9408:	40000409 	.word	0x40000409
    940c:	006000a0 	.word	0x006000a0
    9410:	80000409 	.word	0x80000409
    9414:	006000a0 	.word	0x006000a0
    9418:	c0000409 	.word	0xc0000409
    941c:	006000a0 	.word	0x006000a0
    9420:	00000409 	.word	0x00000409
    9424:	006000a1 	.word	0x006000a1
    9428:	40000409 	.word	0x40000409
    942c:	006000a1 	.word	0x006000a1
    9430:	80000409 	.word	0x80000409
    9434:	006000a1 	.word	0x006000a1
    9438:	c0000409 	.word	0xc0000409
    943c:	006000a1 	.word	0x006000a1
    9440:	00000409 	.word	0x00000409
    9444:	006000a2 	.word	0x006000a2
    9448:	40000409 	.word	0x40000409
    944c:	006000a2 	.word	0x006000a2
    9450:	80000409 	.word	0x80000409
    9454:	006000a2 	.word	0x006000a2
    9458:	c0000409 	.word	0xc0000409
    945c:	006000a2 	.word	0x006000a2
    9460:	00000409 	.word	0x00000409
    9464:	006000a3 	.word	0x006000a3
    9468:	40000409 	.word	0x40000409
    946c:	006000a3 	.word	0x006000a3
    9470:	80000409 	.word	0x80000409
    9474:	006000a3 	.word	0x006000a3
    9478:	c0000409 	.word	0xc0000409
    947c:	006000a3 	.word	0x006000a3
    9480:	00000409 	.word	0x00000409
    9484:	006000a4 	.word	0x006000a4
    9488:	40000409 	.word	0x40000409
    948c:	006000a4 	.word	0x006000a4
    9490:	80000409 	.word	0x80000409
    9494:	006000a4 	.word	0x006000a4
    9498:	c0000409 	.word	0xc0000409
    949c:	006000a4 	.word	0x006000a4
    94a0:	00000409 	.word	0x00000409
    94a4:	006000a5 	.word	0x006000a5
    94a8:	40000409 	.word	0x40000409
    94ac:	006000a5 	.word	0x006000a5
    94b0:	80000409 	.word	0x80000409
    94b4:	006000a5 	.word	0x006000a5
    94b8:	c0000409 	.word	0xc0000409
    94bc:	006000a5 	.word	0x006000a5
    94c0:	00000409 	.word	0x00000409
    94c4:	006000a6 	.word	0x006000a6
    94c8:	40000409 	.word	0x40000409
    94cc:	006000a6 	.word	0x006000a6
    94d0:	80000409 	.word	0x80000409
    94d4:	006000a6 	.word	0x006000a6
    94d8:	c0000409 	.word	0xc0000409
    94dc:	006000a6 	.word	0x006000a6
    94e0:	00000409 	.word	0x00000409
    94e4:	006000a7 	.word	0x006000a7
    94e8:	40000409 	.word	0x40000409
    94ec:	006000a7 	.word	0x006000a7
    94f0:	80000409 	.word	0x80000409
    94f4:	006000a7 	.word	0x006000a7
    94f8:	c0000409 	.word	0xc0000409
    94fc:	006000a7 	.word	0x006000a7
    9500:	00000409 	.word	0x00000409
    9504:	006000a8 	.word	0x006000a8
    9508:	40000409 	.word	0x40000409
    950c:	006000a8 	.word	0x006000a8
    9510:	80000409 	.word	0x80000409
    9514:	006000a8 	.word	0x006000a8
    9518:	c0000409 	.word	0xc0000409
    951c:	006000a8 	.word	0x006000a8
    9520:	00000409 	.word	0x00000409
    9524:	006000a9 	.word	0x006000a9
    9528:	40000409 	.word	0x40000409
    952c:	006000a9 	.word	0x006000a9
    9530:	80000409 	.word	0x80000409
    9534:	006000a9 	.word	0x006000a9
    9538:	c0000409 	.word	0xc0000409
    953c:	006000a9 	.word	0x006000a9
    9540:	00000409 	.word	0x00000409
    9544:	006000aa 	.word	0x006000aa
    9548:	40000409 	.word	0x40000409
    954c:	006000aa 	.word	0x006000aa
    9550:	80000409 	.word	0x80000409
    9554:	006000aa 	.word	0x006000aa
    9558:	c0000409 	.word	0xc0000409
    955c:	006000aa 	.word	0x006000aa
    9560:	00000409 	.word	0x00000409
    9564:	006000ab 	.word	0x006000ab
    9568:	40000409 	.word	0x40000409
    956c:	006000ab 	.word	0x006000ab
    9570:	80000409 	.word	0x80000409
    9574:	006000ab 	.word	0x006000ab
    9578:	c0000409 	.word	0xc0000409
    957c:	006000ab 	.word	0x006000ab
    9580:	00000409 	.word	0x00000409
    9584:	006000ac 	.word	0x006000ac
    9588:	40000409 	.word	0x40000409
    958c:	006000ac 	.word	0x006000ac
    9590:	80000409 	.word	0x80000409
    9594:	006000ac 	.word	0x006000ac
    9598:	c0000409 	.word	0xc0000409
    959c:	006000ac 	.word	0x006000ac
    95a0:	00000409 	.word	0x00000409
    95a4:	006000ad 	.word	0x006000ad
    95a8:	40000409 	.word	0x40000409
    95ac:	006000ad 	.word	0x006000ad
    95b0:	80000409 	.word	0x80000409
    95b4:	006000ad 	.word	0x006000ad
    95b8:	c0000409 	.word	0xc0000409
    95bc:	006000ad 	.word	0x006000ad
    95c0:	00000409 	.word	0x00000409
    95c4:	006000ae 	.word	0x006000ae
    95c8:	40000409 	.word	0x40000409
    95cc:	006000ae 	.word	0x006000ae
    95d0:	80000409 	.word	0x80000409
    95d4:	006000ae 	.word	0x006000ae
    95d8:	c0000409 	.word	0xc0000409
    95dc:	006000ae 	.word	0x006000ae
    95e0:	00000409 	.word	0x00000409
    95e4:	006000af 	.word	0x006000af
    95e8:	40000409 	.word	0x40000409
    95ec:	006000af 	.word	0x006000af
    95f0:	80000409 	.word	0x80000409
    95f4:	006000af 	.word	0x006000af
    95f8:	c0000409 	.word	0xc0000409
    95fc:	006000af 	.word	0x006000af
    9600:	00000409 	.word	0x00000409
    9604:	006000b0 	.word	0x006000b0
    9608:	40000409 	.word	0x40000409
    960c:	006000b0 	.word	0x006000b0
    9610:	80000409 	.word	0x80000409
    9614:	006000b0 	.word	0x006000b0
    9618:	c0000409 	.word	0xc0000409
    961c:	006000b0 	.word	0x006000b0
    9620:	00000409 	.word	0x00000409
    9624:	006000b1 	.word	0x006000b1
    9628:	40000409 	.word	0x40000409
    962c:	006000b1 	.word	0x006000b1
    9630:	80000409 	.word	0x80000409
    9634:	006000b1 	.word	0x006000b1
    9638:	c0000409 	.word	0xc0000409
    963c:	006000b1 	.word	0x006000b1
    9640:	00000409 	.word	0x00000409
    9644:	006000b2 	.word	0x006000b2
    9648:	40000409 	.word	0x40000409
    964c:	006000b2 	.word	0x006000b2
    9650:	80000409 	.word	0x80000409
    9654:	006000b2 	.word	0x006000b2
    9658:	c0000409 	.word	0xc0000409
    965c:	006000b2 	.word	0x006000b2
    9660:	00000409 	.word	0x00000409
    9664:	006000b3 	.word	0x006000b3
    9668:	40000409 	.word	0x40000409
    966c:	006000b3 	.word	0x006000b3
    9670:	80000409 	.word	0x80000409
    9674:	006000b3 	.word	0x006000b3
    9678:	c0000409 	.word	0xc0000409
    967c:	006000b3 	.word	0x006000b3
    9680:	00000409 	.word	0x00000409
    9684:	006000b4 	.word	0x006000b4
    9688:	40000409 	.word	0x40000409
    968c:	006000b4 	.word	0x006000b4
    9690:	80000409 	.word	0x80000409
    9694:	006000b4 	.word	0x006000b4
    9698:	c0000409 	.word	0xc0000409
    969c:	006000b4 	.word	0x006000b4
    96a0:	00000409 	.word	0x00000409
    96a4:	006000b5 	.word	0x006000b5
    96a8:	40000409 	.word	0x40000409
    96ac:	006000b5 	.word	0x006000b5
    96b0:	80000409 	.word	0x80000409
    96b4:	006000b5 	.word	0x006000b5
    96b8:	c0000409 	.word	0xc0000409
    96bc:	006000b5 	.word	0x006000b5
    96c0:	00000409 	.word	0x00000409
    96c4:	006000b6 	.word	0x006000b6
    96c8:	40000409 	.word	0x40000409
    96cc:	006000b6 	.word	0x006000b6
    96d0:	80000409 	.word	0x80000409
    96d4:	006000b6 	.word	0x006000b6
    96d8:	c0000409 	.word	0xc0000409
    96dc:	006000b6 	.word	0x006000b6
    96e0:	00000409 	.word	0x00000409
    96e4:	006000b7 	.word	0x006000b7
    96e8:	40000409 	.word	0x40000409
    96ec:	006000b7 	.word	0x006000b7
    96f0:	80000409 	.word	0x80000409
    96f4:	006000b7 	.word	0x006000b7
    96f8:	c0000409 	.word	0xc0000409
    96fc:	006000b7 	.word	0x006000b7
    9700:	00000409 	.word	0x00000409
    9704:	006000b8 	.word	0x006000b8
    9708:	40000409 	.word	0x40000409
    970c:	006000b8 	.word	0x006000b8
    9710:	80000409 	.word	0x80000409
    9714:	006000b8 	.word	0x006000b8
    9718:	c0000409 	.word	0xc0000409
    971c:	006000b8 	.word	0x006000b8
    9720:	00000409 	.word	0x00000409
    9724:	006000b9 	.word	0x006000b9
    9728:	40000409 	.word	0x40000409
    972c:	006000b9 	.word	0x006000b9
    9730:	80000409 	.word	0x80000409
    9734:	006000b9 	.word	0x006000b9
    9738:	c0000409 	.word	0xc0000409
    973c:	006000b9 	.word	0x006000b9
    9740:	00000409 	.word	0x00000409
    9744:	006000ba 	.word	0x006000ba
    9748:	40000409 	.word	0x40000409
    974c:	006000ba 	.word	0x006000ba
    9750:	80000409 	.word	0x80000409
    9754:	006000ba 	.word	0x006000ba
    9758:	c0000409 	.word	0xc0000409
    975c:	006000ba 	.word	0x006000ba
    9760:	00000409 	.word	0x00000409
    9764:	006000bb 	.word	0x006000bb
    9768:	40000409 	.word	0x40000409
    976c:	006000bb 	.word	0x006000bb
    9770:	80000409 	.word	0x80000409
    9774:	006000bb 	.word	0x006000bb
    9778:	c0000409 	.word	0xc0000409
    977c:	006000bb 	.word	0x006000bb
    9780:	00000409 	.word	0x00000409
    9784:	006000bc 	.word	0x006000bc
    9788:	40000409 	.word	0x40000409
    978c:	006000bc 	.word	0x006000bc
    9790:	80000409 	.word	0x80000409
    9794:	006000bc 	.word	0x006000bc
    9798:	c0000409 	.word	0xc0000409
    979c:	006000bc 	.word	0x006000bc
    97a0:	00000409 	.word	0x00000409
    97a4:	006000bd 	.word	0x006000bd
    97a8:	40000409 	.word	0x40000409
    97ac:	006000bd 	.word	0x006000bd
    97b0:	80000409 	.word	0x80000409
    97b4:	006000bd 	.word	0x006000bd
    97b8:	c0000409 	.word	0xc0000409
    97bc:	006000bd 	.word	0x006000bd
    97c0:	00000409 	.word	0x00000409
    97c4:	006000be 	.word	0x006000be
    97c8:	40000409 	.word	0x40000409
    97cc:	006000be 	.word	0x006000be
    97d0:	80000409 	.word	0x80000409
    97d4:	006000be 	.word	0x006000be
    97d8:	c0000409 	.word	0xc0000409
    97dc:	006000be 	.word	0x006000be
    97e0:	00000409 	.word	0x00000409
    97e4:	006000bf 	.word	0x006000bf
    97e8:	40000409 	.word	0x40000409
    97ec:	006000bf 	.word	0x006000bf
    97f0:	80000409 	.word	0x80000409
    97f4:	006000bf 	.word	0x006000bf
    97f8:	c0000409 	.word	0xc0000409
    97fc:	006000bf 	.word	0x006000bf
    9800:	00000000 	.word	0x00000000
    9804:	000000c0 	.word	0x000000c0
    9808:	40000000 	.word	0x40000000
    980c:	000000c0 	.word	0x000000c0
    9810:	80000000 	.word	0x80000000
    9814:	000000c0 	.word	0x000000c0
    9818:	c0000000 	.word	0xc0000000
    981c:	000000c0 	.word	0x000000c0
    9820:	00000000 	.word	0x00000000
    9824:	000000c1 	.word	0x000000c1
    9828:	40000000 	.word	0x40000000
    982c:	000000c1 	.word	0x000000c1
    9830:	80000000 	.word	0x80000000
    9834:	000000c1 	.word	0x000000c1
    9838:	c0000000 	.word	0xc0000000
    983c:	000000c1 	.word	0x000000c1
    9840:	00000000 	.word	0x00000000
    9844:	000000c2 	.word	0x000000c2
    9848:	40000000 	.word	0x40000000
    984c:	000000c2 	.word	0x000000c2
    9850:	80000000 	.word	0x80000000
    9854:	000000c2 	.word	0x000000c2
    9858:	c0000000 	.word	0xc0000000
    985c:	000000c2 	.word	0x000000c2
    9860:	00000000 	.word	0x00000000
    9864:	000000c3 	.word	0x000000c3
    9868:	40000000 	.word	0x40000000
    986c:	000000c3 	.word	0x000000c3
    9870:	80000000 	.word	0x80000000
    9874:	000000c3 	.word	0x000000c3
    9878:	c0000000 	.word	0xc0000000
    987c:	000000c3 	.word	0x000000c3
    9880:	00000000 	.word	0x00000000
    9884:	000000c4 	.word	0x000000c4
    9888:	40000000 	.word	0x40000000
    988c:	000000c4 	.word	0x000000c4
    9890:	80000000 	.word	0x80000000
    9894:	000000c4 	.word	0x000000c4
    9898:	c0000000 	.word	0xc0000000
    989c:	000000c4 	.word	0x000000c4
    98a0:	00000000 	.word	0x00000000
    98a4:	000000c5 	.word	0x000000c5
    98a8:	40000000 	.word	0x40000000
    98ac:	000000c5 	.word	0x000000c5
    98b0:	80000000 	.word	0x80000000
    98b4:	000000c5 	.word	0x000000c5
    98b8:	c0000000 	.word	0xc0000000
    98bc:	000000c5 	.word	0x000000c5
    98c0:	00000000 	.word	0x00000000
    98c4:	000000c6 	.word	0x000000c6
    98c8:	40000000 	.word	0x40000000
    98cc:	000000c6 	.word	0x000000c6
    98d0:	80000000 	.word	0x80000000
    98d4:	000000c6 	.word	0x000000c6
    98d8:	c0000000 	.word	0xc0000000
    98dc:	000000c6 	.word	0x000000c6
    98e0:	00000000 	.word	0x00000000
    98e4:	000000c7 	.word	0x000000c7
    98e8:	40000000 	.word	0x40000000
    98ec:	000000c7 	.word	0x000000c7
    98f0:	80000000 	.word	0x80000000
    98f4:	000000c7 	.word	0x000000c7
    98f8:	c0000000 	.word	0xc0000000
    98fc:	000000c7 	.word	0x000000c7
    9900:	00000000 	.word	0x00000000
    9904:	000000c8 	.word	0x000000c8
    9908:	40000000 	.word	0x40000000
    990c:	000000c8 	.word	0x000000c8
    9910:	80000000 	.word	0x80000000
    9914:	000000c8 	.word	0x000000c8
    9918:	c0000000 	.word	0xc0000000
    991c:	000000c8 	.word	0x000000c8
    9920:	00000000 	.word	0x00000000
    9924:	000000c9 	.word	0x000000c9
    9928:	40000000 	.word	0x40000000
    992c:	000000c9 	.word	0x000000c9
    9930:	80000000 	.word	0x80000000
    9934:	000000c9 	.word	0x000000c9
    9938:	c0000000 	.word	0xc0000000
    993c:	000000c9 	.word	0x000000c9
    9940:	00000000 	.word	0x00000000
    9944:	000000ca 	.word	0x000000ca
    9948:	40000000 	.word	0x40000000
    994c:	000000ca 	.word	0x000000ca
    9950:	80000000 	.word	0x80000000
    9954:	000000ca 	.word	0x000000ca
    9958:	c0000000 	.word	0xc0000000
    995c:	000000ca 	.word	0x000000ca
    9960:	00000000 	.word	0x00000000
    9964:	000000cb 	.word	0x000000cb
    9968:	40000000 	.word	0x40000000
    996c:	000000cb 	.word	0x000000cb
    9970:	80000000 	.word	0x80000000
    9974:	000000cb 	.word	0x000000cb
    9978:	c0000000 	.word	0xc0000000
    997c:	000000cb 	.word	0x000000cb
    9980:	00000000 	.word	0x00000000
    9984:	000000cc 	.word	0x000000cc
    9988:	40000000 	.word	0x40000000
    998c:	000000cc 	.word	0x000000cc
    9990:	80000000 	.word	0x80000000
    9994:	000000cc 	.word	0x000000cc
    9998:	c0000000 	.word	0xc0000000
    999c:	000000cc 	.word	0x000000cc
    99a0:	00000000 	.word	0x00000000
    99a4:	000000cd 	.word	0x000000cd
    99a8:	40000000 	.word	0x40000000
    99ac:	000000cd 	.word	0x000000cd
    99b0:	80000000 	.word	0x80000000
    99b4:	000000cd 	.word	0x000000cd
    99b8:	c0000000 	.word	0xc0000000
    99bc:	000000cd 	.word	0x000000cd
    99c0:	00000000 	.word	0x00000000
    99c4:	000000ce 	.word	0x000000ce
    99c8:	40000000 	.word	0x40000000
    99cc:	000000ce 	.word	0x000000ce
    99d0:	80000000 	.word	0x80000000
    99d4:	000000ce 	.word	0x000000ce
    99d8:	c0000000 	.word	0xc0000000
    99dc:	000000ce 	.word	0x000000ce
    99e0:	00000000 	.word	0x00000000
    99e4:	000000cf 	.word	0x000000cf
    99e8:	40000000 	.word	0x40000000
    99ec:	000000cf 	.word	0x000000cf
    99f0:	80000000 	.word	0x80000000
    99f4:	000000cf 	.word	0x000000cf
    99f8:	c0000000 	.word	0xc0000000
    99fc:	000000cf 	.word	0x000000cf
    9a00:	00000000 	.word	0x00000000
    9a04:	000000d0 	.word	0x000000d0
    9a08:	40000000 	.word	0x40000000
    9a0c:	000000d0 	.word	0x000000d0
    9a10:	80000000 	.word	0x80000000
    9a14:	000000d0 	.word	0x000000d0
    9a18:	c0000000 	.word	0xc0000000
    9a1c:	000000d0 	.word	0x000000d0
    9a20:	00000000 	.word	0x00000000
    9a24:	000000d1 	.word	0x000000d1
    9a28:	40000000 	.word	0x40000000
    9a2c:	000000d1 	.word	0x000000d1
    9a30:	80000000 	.word	0x80000000
    9a34:	000000d1 	.word	0x000000d1
    9a38:	c0000000 	.word	0xc0000000
    9a3c:	000000d1 	.word	0x000000d1
    9a40:	00000000 	.word	0x00000000
    9a44:	000000d2 	.word	0x000000d2
    9a48:	40000000 	.word	0x40000000
    9a4c:	000000d2 	.word	0x000000d2
    9a50:	80000000 	.word	0x80000000
    9a54:	000000d2 	.word	0x000000d2
    9a58:	c0000000 	.word	0xc0000000
    9a5c:	000000d2 	.word	0x000000d2
    9a60:	00000000 	.word	0x00000000
    9a64:	000000d3 	.word	0x000000d3
    9a68:	40000000 	.word	0x40000000
    9a6c:	000000d3 	.word	0x000000d3
    9a70:	80000000 	.word	0x80000000
    9a74:	000000d3 	.word	0x000000d3
    9a78:	c0000000 	.word	0xc0000000
    9a7c:	000000d3 	.word	0x000000d3
    9a80:	00000000 	.word	0x00000000
    9a84:	000000d4 	.word	0x000000d4
    9a88:	40000000 	.word	0x40000000
    9a8c:	000000d4 	.word	0x000000d4
    9a90:	80000000 	.word	0x80000000
    9a94:	000000d4 	.word	0x000000d4
    9a98:	c0000000 	.word	0xc0000000
    9a9c:	000000d4 	.word	0x000000d4
    9aa0:	00000000 	.word	0x00000000
    9aa4:	000000d5 	.word	0x000000d5
    9aa8:	40000000 	.word	0x40000000
    9aac:	000000d5 	.word	0x000000d5
    9ab0:	80000000 	.word	0x80000000
    9ab4:	000000d5 	.word	0x000000d5
    9ab8:	c0000000 	.word	0xc0000000
    9abc:	000000d5 	.word	0x000000d5
    9ac0:	00000000 	.word	0x00000000
    9ac4:	000000d6 	.word	0x000000d6
    9ac8:	40000000 	.word	0x40000000
    9acc:	000000d6 	.word	0x000000d6
    9ad0:	80000000 	.word	0x80000000
    9ad4:	000000d6 	.word	0x000000d6
    9ad8:	c0000000 	.word	0xc0000000
    9adc:	000000d6 	.word	0x000000d6
    9ae0:	00000000 	.word	0x00000000
    9ae4:	000000d7 	.word	0x000000d7
    9ae8:	40000000 	.word	0x40000000
    9aec:	000000d7 	.word	0x000000d7
    9af0:	80000000 	.word	0x80000000
    9af4:	000000d7 	.word	0x000000d7
    9af8:	c0000000 	.word	0xc0000000
    9afc:	000000d7 	.word	0x000000d7
    9b00:	00000000 	.word	0x00000000
    9b04:	000000d8 	.word	0x000000d8
    9b08:	40000000 	.word	0x40000000
    9b0c:	000000d8 	.word	0x000000d8
    9b10:	80000000 	.word	0x80000000
    9b14:	000000d8 	.word	0x000000d8
    9b18:	c0000000 	.word	0xc0000000
    9b1c:	000000d8 	.word	0x000000d8
    9b20:	00000000 	.word	0x00000000
    9b24:	000000d9 	.word	0x000000d9
    9b28:	40000000 	.word	0x40000000
    9b2c:	000000d9 	.word	0x000000d9
    9b30:	80000000 	.word	0x80000000
    9b34:	000000d9 	.word	0x000000d9
    9b38:	c0000000 	.word	0xc0000000
    9b3c:	000000d9 	.word	0x000000d9
    9b40:	00000000 	.word	0x00000000
    9b44:	000000da 	.word	0x000000da
    9b48:	40000000 	.word	0x40000000
    9b4c:	000000da 	.word	0x000000da
    9b50:	80000000 	.word	0x80000000
    9b54:	000000da 	.word	0x000000da
    9b58:	c0000000 	.word	0xc0000000
    9b5c:	000000da 	.word	0x000000da
    9b60:	00000000 	.word	0x00000000
    9b64:	000000db 	.word	0x000000db
    9b68:	40000000 	.word	0x40000000
    9b6c:	000000db 	.word	0x000000db
    9b70:	80000000 	.word	0x80000000
    9b74:	000000db 	.word	0x000000db
    9b78:	c0000000 	.word	0xc0000000
    9b7c:	000000db 	.word	0x000000db
    9b80:	00000000 	.word	0x00000000
    9b84:	000000dc 	.word	0x000000dc
    9b88:	40000000 	.word	0x40000000
    9b8c:	000000dc 	.word	0x000000dc
    9b90:	80000000 	.word	0x80000000
    9b94:	000000dc 	.word	0x000000dc
    9b98:	c0000000 	.word	0xc0000000
    9b9c:	000000dc 	.word	0x000000dc
    9ba0:	00000000 	.word	0x00000000
    9ba4:	000000dd 	.word	0x000000dd
    9ba8:	40000000 	.word	0x40000000
    9bac:	000000dd 	.word	0x000000dd
    9bb0:	80000000 	.word	0x80000000
    9bb4:	000000dd 	.word	0x000000dd
    9bb8:	c0000000 	.word	0xc0000000
    9bbc:	000000dd 	.word	0x000000dd
    9bc0:	00000000 	.word	0x00000000
    9bc4:	000000de 	.word	0x000000de
    9bc8:	40000000 	.word	0x40000000
    9bcc:	000000de 	.word	0x000000de
    9bd0:	80000000 	.word	0x80000000
    9bd4:	000000de 	.word	0x000000de
    9bd8:	c0000000 	.word	0xc0000000
    9bdc:	000000de 	.word	0x000000de
    9be0:	00000000 	.word	0x00000000
    9be4:	000000df 	.word	0x000000df
    9be8:	40000000 	.word	0x40000000
    9bec:	000000df 	.word	0x000000df
    9bf0:	80000000 	.word	0x80000000
    9bf4:	000000df 	.word	0x000000df
    9bf8:	c0000000 	.word	0xc0000000
    9bfc:	000000df 	.word	0x000000df
    9c00:	00000000 	.word	0x00000000
    9c04:	000000e0 	.word	0x000000e0
    9c08:	40000000 	.word	0x40000000
    9c0c:	000000e0 	.word	0x000000e0
    9c10:	80000000 	.word	0x80000000
    9c14:	000000e0 	.word	0x000000e0
    9c18:	c0000000 	.word	0xc0000000
    9c1c:	000000e0 	.word	0x000000e0
    9c20:	00000000 	.word	0x00000000
    9c24:	000000e1 	.word	0x000000e1
    9c28:	40000000 	.word	0x40000000
    9c2c:	000000e1 	.word	0x000000e1
    9c30:	80000000 	.word	0x80000000
    9c34:	000000e1 	.word	0x000000e1
    9c38:	c0000000 	.word	0xc0000000
    9c3c:	000000e1 	.word	0x000000e1
    9c40:	00000000 	.word	0x00000000
    9c44:	000000e2 	.word	0x000000e2
    9c48:	40000000 	.word	0x40000000
    9c4c:	000000e2 	.word	0x000000e2
    9c50:	80000000 	.word	0x80000000
    9c54:	000000e2 	.word	0x000000e2
    9c58:	c0000000 	.word	0xc0000000
    9c5c:	000000e2 	.word	0x000000e2
    9c60:	00000000 	.word	0x00000000
    9c64:	000000e3 	.word	0x000000e3
    9c68:	40000000 	.word	0x40000000
    9c6c:	000000e3 	.word	0x000000e3
    9c70:	80000000 	.word	0x80000000
    9c74:	000000e3 	.word	0x000000e3
    9c78:	c0000000 	.word	0xc0000000
    9c7c:	000000e3 	.word	0x000000e3
    9c80:	00000000 	.word	0x00000000
    9c84:	000000e4 	.word	0x000000e4
    9c88:	40000000 	.word	0x40000000
    9c8c:	000000e4 	.word	0x000000e4
    9c90:	80000000 	.word	0x80000000
    9c94:	000000e4 	.word	0x000000e4
    9c98:	c0000000 	.word	0xc0000000
    9c9c:	000000e4 	.word	0x000000e4
    9ca0:	00000000 	.word	0x00000000
    9ca4:	000000e5 	.word	0x000000e5
    9ca8:	40000000 	.word	0x40000000
    9cac:	000000e5 	.word	0x000000e5
    9cb0:	80000000 	.word	0x80000000
    9cb4:	000000e5 	.word	0x000000e5
    9cb8:	c0000000 	.word	0xc0000000
    9cbc:	000000e5 	.word	0x000000e5
    9cc0:	00000000 	.word	0x00000000
    9cc4:	000000e6 	.word	0x000000e6
    9cc8:	40000000 	.word	0x40000000
    9ccc:	000000e6 	.word	0x000000e6
    9cd0:	80000000 	.word	0x80000000
    9cd4:	000000e6 	.word	0x000000e6
    9cd8:	c0000000 	.word	0xc0000000
    9cdc:	000000e6 	.word	0x000000e6
    9ce0:	00000000 	.word	0x00000000
    9ce4:	000000e7 	.word	0x000000e7
    9ce8:	40000000 	.word	0x40000000
    9cec:	000000e7 	.word	0x000000e7
    9cf0:	80000000 	.word	0x80000000
    9cf4:	000000e7 	.word	0x000000e7
    9cf8:	c0000000 	.word	0xc0000000
    9cfc:	000000e7 	.word	0x000000e7
    9d00:	00000000 	.word	0x00000000
    9d04:	000000e8 	.word	0x000000e8
    9d08:	40000000 	.word	0x40000000
    9d0c:	000000e8 	.word	0x000000e8
    9d10:	80000000 	.word	0x80000000
    9d14:	000000e8 	.word	0x000000e8
    9d18:	c0000000 	.word	0xc0000000
    9d1c:	000000e8 	.word	0x000000e8
    9d20:	00000000 	.word	0x00000000
    9d24:	000000e9 	.word	0x000000e9
    9d28:	40000000 	.word	0x40000000
    9d2c:	000000e9 	.word	0x000000e9
    9d30:	80000000 	.word	0x80000000
    9d34:	000000e9 	.word	0x000000e9
    9d38:	c0000000 	.word	0xc0000000
    9d3c:	000000e9 	.word	0x000000e9
    9d40:	00000000 	.word	0x00000000
    9d44:	000000ea 	.word	0x000000ea
    9d48:	40000000 	.word	0x40000000
    9d4c:	000000ea 	.word	0x000000ea
    9d50:	80000000 	.word	0x80000000
    9d54:	000000ea 	.word	0x000000ea
    9d58:	c0000000 	.word	0xc0000000
    9d5c:	000000ea 	.word	0x000000ea
    9d60:	00000000 	.word	0x00000000
    9d64:	000000eb 	.word	0x000000eb
    9d68:	40000000 	.word	0x40000000
    9d6c:	000000eb 	.word	0x000000eb
    9d70:	80000000 	.word	0x80000000
    9d74:	000000eb 	.word	0x000000eb
    9d78:	c0000000 	.word	0xc0000000
    9d7c:	000000eb 	.word	0x000000eb
    9d80:	00000000 	.word	0x00000000
    9d84:	000000ec 	.word	0x000000ec
    9d88:	40000000 	.word	0x40000000
    9d8c:	000000ec 	.word	0x000000ec
    9d90:	80000000 	.word	0x80000000
    9d94:	000000ec 	.word	0x000000ec
    9d98:	c0000000 	.word	0xc0000000
    9d9c:	000000ec 	.word	0x000000ec
    9da0:	00000000 	.word	0x00000000
    9da4:	000000ed 	.word	0x000000ed
    9da8:	40000000 	.word	0x40000000
    9dac:	000000ed 	.word	0x000000ed
    9db0:	80000000 	.word	0x80000000
    9db4:	000000ed 	.word	0x000000ed
    9db8:	c0000000 	.word	0xc0000000
    9dbc:	000000ed 	.word	0x000000ed
    9dc0:	00000000 	.word	0x00000000
    9dc4:	000000ee 	.word	0x000000ee
    9dc8:	40000000 	.word	0x40000000
    9dcc:	000000ee 	.word	0x000000ee
    9dd0:	80000000 	.word	0x80000000
    9dd4:	000000ee 	.word	0x000000ee
    9dd8:	c0000000 	.word	0xc0000000
    9ddc:	000000ee 	.word	0x000000ee
    9de0:	00000000 	.word	0x00000000
    9de4:	000000ef 	.word	0x000000ef
    9de8:	40000000 	.word	0x40000000
    9dec:	000000ef 	.word	0x000000ef
    9df0:	80000000 	.word	0x80000000
    9df4:	000000ef 	.word	0x000000ef
    9df8:	c0000000 	.word	0xc0000000
    9dfc:	000000ef 	.word	0x000000ef
    9e00:	00000000 	.word	0x00000000
    9e04:	000000f0 	.word	0x000000f0
    9e08:	40000000 	.word	0x40000000
    9e0c:	000000f0 	.word	0x000000f0
    9e10:	80000000 	.word	0x80000000
    9e14:	000000f0 	.word	0x000000f0
    9e18:	c0000000 	.word	0xc0000000
    9e1c:	000000f0 	.word	0x000000f0
    9e20:	00000000 	.word	0x00000000
    9e24:	000000f1 	.word	0x000000f1
    9e28:	40000000 	.word	0x40000000
    9e2c:	000000f1 	.word	0x000000f1
    9e30:	80000000 	.word	0x80000000
    9e34:	000000f1 	.word	0x000000f1
    9e38:	c0000000 	.word	0xc0000000
    9e3c:	000000f1 	.word	0x000000f1
    9e40:	00000000 	.word	0x00000000
    9e44:	000000f2 	.word	0x000000f2
    9e48:	40000000 	.word	0x40000000
    9e4c:	000000f2 	.word	0x000000f2
    9e50:	80000000 	.word	0x80000000
    9e54:	000000f2 	.word	0x000000f2
    9e58:	c0000000 	.word	0xc0000000
    9e5c:	000000f2 	.word	0x000000f2
    9e60:	00000000 	.word	0x00000000
    9e64:	000000f3 	.word	0x000000f3
    9e68:	40000000 	.word	0x40000000
    9e6c:	000000f3 	.word	0x000000f3
    9e70:	80000000 	.word	0x80000000
    9e74:	000000f3 	.word	0x000000f3
    9e78:	c0000000 	.word	0xc0000000
    9e7c:	000000f3 	.word	0x000000f3
    9e80:	00000000 	.word	0x00000000
    9e84:	000000f4 	.word	0x000000f4
    9e88:	40000000 	.word	0x40000000
    9e8c:	000000f4 	.word	0x000000f4
    9e90:	80000000 	.word	0x80000000
    9e94:	000000f4 	.word	0x000000f4
    9e98:	c0000000 	.word	0xc0000000
    9e9c:	000000f4 	.word	0x000000f4
    9ea0:	00000000 	.word	0x00000000
    9ea4:	000000f5 	.word	0x000000f5
    9ea8:	40000000 	.word	0x40000000
    9eac:	000000f5 	.word	0x000000f5
    9eb0:	80000000 	.word	0x80000000
    9eb4:	000000f5 	.word	0x000000f5
    9eb8:	c0000000 	.word	0xc0000000
    9ebc:	000000f5 	.word	0x000000f5
    9ec0:	00000000 	.word	0x00000000
    9ec4:	000000f6 	.word	0x000000f6
    9ec8:	40000000 	.word	0x40000000
    9ecc:	000000f6 	.word	0x000000f6
    9ed0:	80000000 	.word	0x80000000
    9ed4:	000000f6 	.word	0x000000f6
    9ed8:	c0000000 	.word	0xc0000000
    9edc:	000000f6 	.word	0x000000f6
    9ee0:	00000000 	.word	0x00000000
    9ee4:	000000f7 	.word	0x000000f7
    9ee8:	40000000 	.word	0x40000000
    9eec:	000000f7 	.word	0x000000f7
    9ef0:	80000000 	.word	0x80000000
    9ef4:	000000f7 	.word	0x000000f7
    9ef8:	c0000000 	.word	0xc0000000
    9efc:	000000f7 	.word	0x000000f7
    9f00:	00000000 	.word	0x00000000
    9f04:	000000f8 	.word	0x000000f8
    9f08:	40000000 	.word	0x40000000
    9f0c:	000000f8 	.word	0x000000f8
    9f10:	80000000 	.word	0x80000000
    9f14:	000000f8 	.word	0x000000f8
    9f18:	c0000000 	.word	0xc0000000
    9f1c:	000000f8 	.word	0x000000f8
    9f20:	00000000 	.word	0x00000000
    9f24:	000000f9 	.word	0x000000f9
    9f28:	40000000 	.word	0x40000000
    9f2c:	000000f9 	.word	0x000000f9
    9f30:	80000000 	.word	0x80000000
    9f34:	000000f9 	.word	0x000000f9
    9f38:	c0000000 	.word	0xc0000000
    9f3c:	000000f9 	.word	0x000000f9
    9f40:	00000000 	.word	0x00000000
    9f44:	000000fa 	.word	0x000000fa
    9f48:	40000000 	.word	0x40000000
    9f4c:	000000fa 	.word	0x000000fa
    9f50:	80000000 	.word	0x80000000
    9f54:	000000fa 	.word	0x000000fa
    9f58:	c0000000 	.word	0xc0000000
    9f5c:	000000fa 	.word	0x000000fa
    9f60:	00000000 	.word	0x00000000
    9f64:	000000fb 	.word	0x000000fb
    9f68:	40000000 	.word	0x40000000
    9f6c:	000000fb 	.word	0x000000fb
    9f70:	80000000 	.word	0x80000000
    9f74:	000000fb 	.word	0x000000fb
    9f78:	c0000000 	.word	0xc0000000
    9f7c:	000000fb 	.word	0x000000fb
    9f80:	00000000 	.word	0x00000000
    9f84:	000000fc 	.word	0x000000fc
    9f88:	40000000 	.word	0x40000000
    9f8c:	000000fc 	.word	0x000000fc
    9f90:	80000000 	.word	0x80000000
    9f94:	000000fc 	.word	0x000000fc
    9f98:	c0000000 	.word	0xc0000000
    9f9c:	000000fc 	.word	0x000000fc
    9fa0:	00000000 	.word	0x00000000
    9fa4:	000000fd 	.word	0x000000fd
    9fa8:	40000000 	.word	0x40000000
    9fac:	000000fd 	.word	0x000000fd
    9fb0:	80000000 	.word	0x80000000
    9fb4:	000000fd 	.word	0x000000fd
    9fb8:	c0000000 	.word	0xc0000000
    9fbc:	000000fd 	.word	0x000000fd
    9fc0:	00000000 	.word	0x00000000
    9fc4:	000000fe 	.word	0x000000fe
    9fc8:	40000000 	.word	0x40000000
    9fcc:	000000fe 	.word	0x000000fe
    9fd0:	80000000 	.word	0x80000000
    9fd4:	000000fe 	.word	0x000000fe
    9fd8:	c0000000 	.word	0xc0000000
    9fdc:	000000fe 	.word	0x000000fe
    9fe0:	00000000 	.word	0x00000000
    9fe4:	000000ff 	.word	0x000000ff
    9fe8:	40000000 	.word	0x40000000
    9fec:	000000ff 	.word	0x000000ff
    9ff0:	80000000 	.word	0x80000000
    9ff4:	000000ff 	.word	0x000000ff
    9ff8:	c0000000 	.word	0xc0000000
    9ffc:	000000ff 	.word	0x000000ff

Disassembly of section .mmu_tbl2:

000000000000a000 <MMUTableL2>:
    a000:	00000705 	.word	0x00000705
    a004:	00000000 	.word	0x00000000
    a008:	00200705 	.word	0x00200705
    a00c:	00000000 	.word	0x00000000
    a010:	00400705 	.word	0x00400705
    a014:	00000000 	.word	0x00000000
    a018:	00600705 	.word	0x00600705
    a01c:	00000000 	.word	0x00000000
    a020:	00800705 	.word	0x00800705
    a024:	00000000 	.word	0x00000000
    a028:	00a00705 	.word	0x00a00705
    a02c:	00000000 	.word	0x00000000
    a030:	00c00705 	.word	0x00c00705
    a034:	00000000 	.word	0x00000000
    a038:	00e00705 	.word	0x00e00705
    a03c:	00000000 	.word	0x00000000
    a040:	01000705 	.word	0x01000705
    a044:	00000000 	.word	0x00000000
    a048:	01200705 	.word	0x01200705
    a04c:	00000000 	.word	0x00000000
    a050:	01400705 	.word	0x01400705
    a054:	00000000 	.word	0x00000000
    a058:	01600705 	.word	0x01600705
    a05c:	00000000 	.word	0x00000000
    a060:	01800705 	.word	0x01800705
    a064:	00000000 	.word	0x00000000
    a068:	01a00705 	.word	0x01a00705
    a06c:	00000000 	.word	0x00000000
    a070:	01c00705 	.word	0x01c00705
    a074:	00000000 	.word	0x00000000
    a078:	01e00705 	.word	0x01e00705
    a07c:	00000000 	.word	0x00000000
    a080:	02000705 	.word	0x02000705
    a084:	00000000 	.word	0x00000000
    a088:	02200705 	.word	0x02200705
    a08c:	00000000 	.word	0x00000000
    a090:	02400705 	.word	0x02400705
    a094:	00000000 	.word	0x00000000
    a098:	02600705 	.word	0x02600705
    a09c:	00000000 	.word	0x00000000
    a0a0:	02800705 	.word	0x02800705
    a0a4:	00000000 	.word	0x00000000
    a0a8:	02a00705 	.word	0x02a00705
    a0ac:	00000000 	.word	0x00000000
    a0b0:	02c00705 	.word	0x02c00705
    a0b4:	00000000 	.word	0x00000000
    a0b8:	02e00705 	.word	0x02e00705
    a0bc:	00000000 	.word	0x00000000
    a0c0:	03000705 	.word	0x03000705
    a0c4:	00000000 	.word	0x00000000
    a0c8:	03200705 	.word	0x03200705
    a0cc:	00000000 	.word	0x00000000
    a0d0:	03400705 	.word	0x03400705
    a0d4:	00000000 	.word	0x00000000
    a0d8:	03600705 	.word	0x03600705
    a0dc:	00000000 	.word	0x00000000
    a0e0:	03800705 	.word	0x03800705
    a0e4:	00000000 	.word	0x00000000
    a0e8:	03a00705 	.word	0x03a00705
    a0ec:	00000000 	.word	0x00000000
    a0f0:	03c00705 	.word	0x03c00705
    a0f4:	00000000 	.word	0x00000000
    a0f8:	03e00705 	.word	0x03e00705
    a0fc:	00000000 	.word	0x00000000
    a100:	04000705 	.word	0x04000705
    a104:	00000000 	.word	0x00000000
    a108:	04200705 	.word	0x04200705
    a10c:	00000000 	.word	0x00000000
    a110:	04400705 	.word	0x04400705
    a114:	00000000 	.word	0x00000000
    a118:	04600705 	.word	0x04600705
    a11c:	00000000 	.word	0x00000000
    a120:	04800705 	.word	0x04800705
    a124:	00000000 	.word	0x00000000
    a128:	04a00705 	.word	0x04a00705
    a12c:	00000000 	.word	0x00000000
    a130:	04c00705 	.word	0x04c00705
    a134:	00000000 	.word	0x00000000
    a138:	04e00705 	.word	0x04e00705
    a13c:	00000000 	.word	0x00000000
    a140:	05000705 	.word	0x05000705
    a144:	00000000 	.word	0x00000000
    a148:	05200705 	.word	0x05200705
    a14c:	00000000 	.word	0x00000000
    a150:	05400705 	.word	0x05400705
    a154:	00000000 	.word	0x00000000
    a158:	05600705 	.word	0x05600705
    a15c:	00000000 	.word	0x00000000
    a160:	05800705 	.word	0x05800705
    a164:	00000000 	.word	0x00000000
    a168:	05a00705 	.word	0x05a00705
    a16c:	00000000 	.word	0x00000000
    a170:	05c00705 	.word	0x05c00705
    a174:	00000000 	.word	0x00000000
    a178:	05e00705 	.word	0x05e00705
    a17c:	00000000 	.word	0x00000000
    a180:	06000705 	.word	0x06000705
    a184:	00000000 	.word	0x00000000
    a188:	06200705 	.word	0x06200705
    a18c:	00000000 	.word	0x00000000
    a190:	06400705 	.word	0x06400705
    a194:	00000000 	.word	0x00000000
    a198:	06600705 	.word	0x06600705
    a19c:	00000000 	.word	0x00000000
    a1a0:	06800705 	.word	0x06800705
    a1a4:	00000000 	.word	0x00000000
    a1a8:	06a00705 	.word	0x06a00705
    a1ac:	00000000 	.word	0x00000000
    a1b0:	06c00705 	.word	0x06c00705
    a1b4:	00000000 	.word	0x00000000
    a1b8:	06e00705 	.word	0x06e00705
    a1bc:	00000000 	.word	0x00000000
    a1c0:	07000705 	.word	0x07000705
    a1c4:	00000000 	.word	0x00000000
    a1c8:	07200705 	.word	0x07200705
    a1cc:	00000000 	.word	0x00000000
    a1d0:	07400705 	.word	0x07400705
    a1d4:	00000000 	.word	0x00000000
    a1d8:	07600705 	.word	0x07600705
    a1dc:	00000000 	.word	0x00000000
    a1e0:	07800705 	.word	0x07800705
    a1e4:	00000000 	.word	0x00000000
    a1e8:	07a00705 	.word	0x07a00705
    a1ec:	00000000 	.word	0x00000000
    a1f0:	07c00705 	.word	0x07c00705
    a1f4:	00000000 	.word	0x00000000
    a1f8:	07e00705 	.word	0x07e00705
    a1fc:	00000000 	.word	0x00000000
    a200:	08000705 	.word	0x08000705
    a204:	00000000 	.word	0x00000000
    a208:	08200705 	.word	0x08200705
    a20c:	00000000 	.word	0x00000000
    a210:	08400705 	.word	0x08400705
    a214:	00000000 	.word	0x00000000
    a218:	08600705 	.word	0x08600705
    a21c:	00000000 	.word	0x00000000
    a220:	08800705 	.word	0x08800705
    a224:	00000000 	.word	0x00000000
    a228:	08a00705 	.word	0x08a00705
    a22c:	00000000 	.word	0x00000000
    a230:	08c00705 	.word	0x08c00705
    a234:	00000000 	.word	0x00000000
    a238:	08e00705 	.word	0x08e00705
    a23c:	00000000 	.word	0x00000000
    a240:	09000705 	.word	0x09000705
    a244:	00000000 	.word	0x00000000
    a248:	09200705 	.word	0x09200705
    a24c:	00000000 	.word	0x00000000
    a250:	09400705 	.word	0x09400705
    a254:	00000000 	.word	0x00000000
    a258:	09600705 	.word	0x09600705
    a25c:	00000000 	.word	0x00000000
    a260:	09800705 	.word	0x09800705
    a264:	00000000 	.word	0x00000000
    a268:	09a00705 	.word	0x09a00705
    a26c:	00000000 	.word	0x00000000
    a270:	09c00705 	.word	0x09c00705
    a274:	00000000 	.word	0x00000000
    a278:	09e00705 	.word	0x09e00705
    a27c:	00000000 	.word	0x00000000
    a280:	0a000705 	.word	0x0a000705
    a284:	00000000 	.word	0x00000000
    a288:	0a200705 	.word	0x0a200705
    a28c:	00000000 	.word	0x00000000
    a290:	0a400705 	.word	0x0a400705
    a294:	00000000 	.word	0x00000000
    a298:	0a600705 	.word	0x0a600705
    a29c:	00000000 	.word	0x00000000
    a2a0:	0a800705 	.word	0x0a800705
    a2a4:	00000000 	.word	0x00000000
    a2a8:	0aa00705 	.word	0x0aa00705
    a2ac:	00000000 	.word	0x00000000
    a2b0:	0ac00705 	.word	0x0ac00705
    a2b4:	00000000 	.word	0x00000000
    a2b8:	0ae00705 	.word	0x0ae00705
    a2bc:	00000000 	.word	0x00000000
    a2c0:	0b000705 	.word	0x0b000705
    a2c4:	00000000 	.word	0x00000000
    a2c8:	0b200705 	.word	0x0b200705
    a2cc:	00000000 	.word	0x00000000
    a2d0:	0b400705 	.word	0x0b400705
    a2d4:	00000000 	.word	0x00000000
    a2d8:	0b600705 	.word	0x0b600705
    a2dc:	00000000 	.word	0x00000000
    a2e0:	0b800705 	.word	0x0b800705
    a2e4:	00000000 	.word	0x00000000
    a2e8:	0ba00705 	.word	0x0ba00705
    a2ec:	00000000 	.word	0x00000000
    a2f0:	0bc00705 	.word	0x0bc00705
    a2f4:	00000000 	.word	0x00000000
    a2f8:	0be00705 	.word	0x0be00705
    a2fc:	00000000 	.word	0x00000000
    a300:	0c000705 	.word	0x0c000705
    a304:	00000000 	.word	0x00000000
    a308:	0c200705 	.word	0x0c200705
    a30c:	00000000 	.word	0x00000000
    a310:	0c400705 	.word	0x0c400705
    a314:	00000000 	.word	0x00000000
    a318:	0c600705 	.word	0x0c600705
    a31c:	00000000 	.word	0x00000000
    a320:	0c800705 	.word	0x0c800705
    a324:	00000000 	.word	0x00000000
    a328:	0ca00705 	.word	0x0ca00705
    a32c:	00000000 	.word	0x00000000
    a330:	0cc00705 	.word	0x0cc00705
    a334:	00000000 	.word	0x00000000
    a338:	0ce00705 	.word	0x0ce00705
    a33c:	00000000 	.word	0x00000000
    a340:	0d000705 	.word	0x0d000705
    a344:	00000000 	.word	0x00000000
    a348:	0d200705 	.word	0x0d200705
    a34c:	00000000 	.word	0x00000000
    a350:	0d400705 	.word	0x0d400705
    a354:	00000000 	.word	0x00000000
    a358:	0d600705 	.word	0x0d600705
    a35c:	00000000 	.word	0x00000000
    a360:	0d800705 	.word	0x0d800705
    a364:	00000000 	.word	0x00000000
    a368:	0da00705 	.word	0x0da00705
    a36c:	00000000 	.word	0x00000000
    a370:	0dc00705 	.word	0x0dc00705
    a374:	00000000 	.word	0x00000000
    a378:	0de00705 	.word	0x0de00705
    a37c:	00000000 	.word	0x00000000
    a380:	0e000705 	.word	0x0e000705
    a384:	00000000 	.word	0x00000000
    a388:	0e200705 	.word	0x0e200705
    a38c:	00000000 	.word	0x00000000
    a390:	0e400705 	.word	0x0e400705
    a394:	00000000 	.word	0x00000000
    a398:	0e600705 	.word	0x0e600705
    a39c:	00000000 	.word	0x00000000
    a3a0:	0e800705 	.word	0x0e800705
    a3a4:	00000000 	.word	0x00000000
    a3a8:	0ea00705 	.word	0x0ea00705
    a3ac:	00000000 	.word	0x00000000
    a3b0:	0ec00705 	.word	0x0ec00705
    a3b4:	00000000 	.word	0x00000000
    a3b8:	0ee00705 	.word	0x0ee00705
    a3bc:	00000000 	.word	0x00000000
    a3c0:	0f000705 	.word	0x0f000705
    a3c4:	00000000 	.word	0x00000000
    a3c8:	0f200705 	.word	0x0f200705
    a3cc:	00000000 	.word	0x00000000
    a3d0:	0f400705 	.word	0x0f400705
    a3d4:	00000000 	.word	0x00000000
    a3d8:	0f600705 	.word	0x0f600705
    a3dc:	00000000 	.word	0x00000000
    a3e0:	0f800705 	.word	0x0f800705
    a3e4:	00000000 	.word	0x00000000
    a3e8:	0fa00705 	.word	0x0fa00705
    a3ec:	00000000 	.word	0x00000000
    a3f0:	0fc00705 	.word	0x0fc00705
    a3f4:	00000000 	.word	0x00000000
    a3f8:	0fe00705 	.word	0x0fe00705
    a3fc:	00000000 	.word	0x00000000
    a400:	10000705 	.word	0x10000705
    a404:	00000000 	.word	0x00000000
    a408:	10200705 	.word	0x10200705
    a40c:	00000000 	.word	0x00000000
    a410:	10400705 	.word	0x10400705
    a414:	00000000 	.word	0x00000000
    a418:	10600705 	.word	0x10600705
    a41c:	00000000 	.word	0x00000000
    a420:	10800705 	.word	0x10800705
    a424:	00000000 	.word	0x00000000
    a428:	10a00705 	.word	0x10a00705
    a42c:	00000000 	.word	0x00000000
    a430:	10c00705 	.word	0x10c00705
    a434:	00000000 	.word	0x00000000
    a438:	10e00705 	.word	0x10e00705
    a43c:	00000000 	.word	0x00000000
    a440:	11000705 	.word	0x11000705
    a444:	00000000 	.word	0x00000000
    a448:	11200705 	.word	0x11200705
    a44c:	00000000 	.word	0x00000000
    a450:	11400705 	.word	0x11400705
    a454:	00000000 	.word	0x00000000
    a458:	11600705 	.word	0x11600705
    a45c:	00000000 	.word	0x00000000
    a460:	11800705 	.word	0x11800705
    a464:	00000000 	.word	0x00000000
    a468:	11a00705 	.word	0x11a00705
    a46c:	00000000 	.word	0x00000000
    a470:	11c00705 	.word	0x11c00705
    a474:	00000000 	.word	0x00000000
    a478:	11e00705 	.word	0x11e00705
    a47c:	00000000 	.word	0x00000000
    a480:	12000705 	.word	0x12000705
    a484:	00000000 	.word	0x00000000
    a488:	12200705 	.word	0x12200705
    a48c:	00000000 	.word	0x00000000
    a490:	12400705 	.word	0x12400705
    a494:	00000000 	.word	0x00000000
    a498:	12600705 	.word	0x12600705
    a49c:	00000000 	.word	0x00000000
    a4a0:	12800705 	.word	0x12800705
    a4a4:	00000000 	.word	0x00000000
    a4a8:	12a00705 	.word	0x12a00705
    a4ac:	00000000 	.word	0x00000000
    a4b0:	12c00705 	.word	0x12c00705
    a4b4:	00000000 	.word	0x00000000
    a4b8:	12e00705 	.word	0x12e00705
    a4bc:	00000000 	.word	0x00000000
    a4c0:	13000705 	.word	0x13000705
    a4c4:	00000000 	.word	0x00000000
    a4c8:	13200705 	.word	0x13200705
    a4cc:	00000000 	.word	0x00000000
    a4d0:	13400705 	.word	0x13400705
    a4d4:	00000000 	.word	0x00000000
    a4d8:	13600705 	.word	0x13600705
    a4dc:	00000000 	.word	0x00000000
    a4e0:	13800705 	.word	0x13800705
    a4e4:	00000000 	.word	0x00000000
    a4e8:	13a00705 	.word	0x13a00705
    a4ec:	00000000 	.word	0x00000000
    a4f0:	13c00705 	.word	0x13c00705
    a4f4:	00000000 	.word	0x00000000
    a4f8:	13e00705 	.word	0x13e00705
    a4fc:	00000000 	.word	0x00000000
    a500:	14000705 	.word	0x14000705
    a504:	00000000 	.word	0x00000000
    a508:	14200705 	.word	0x14200705
    a50c:	00000000 	.word	0x00000000
    a510:	14400705 	.word	0x14400705
    a514:	00000000 	.word	0x00000000
    a518:	14600705 	.word	0x14600705
    a51c:	00000000 	.word	0x00000000
    a520:	14800705 	.word	0x14800705
    a524:	00000000 	.word	0x00000000
    a528:	14a00705 	.word	0x14a00705
    a52c:	00000000 	.word	0x00000000
    a530:	14c00705 	.word	0x14c00705
    a534:	00000000 	.word	0x00000000
    a538:	14e00705 	.word	0x14e00705
    a53c:	00000000 	.word	0x00000000
    a540:	15000705 	.word	0x15000705
    a544:	00000000 	.word	0x00000000
    a548:	15200705 	.word	0x15200705
    a54c:	00000000 	.word	0x00000000
    a550:	15400705 	.word	0x15400705
    a554:	00000000 	.word	0x00000000
    a558:	15600705 	.word	0x15600705
    a55c:	00000000 	.word	0x00000000
    a560:	15800705 	.word	0x15800705
    a564:	00000000 	.word	0x00000000
    a568:	15a00705 	.word	0x15a00705
    a56c:	00000000 	.word	0x00000000
    a570:	15c00705 	.word	0x15c00705
    a574:	00000000 	.word	0x00000000
    a578:	15e00705 	.word	0x15e00705
    a57c:	00000000 	.word	0x00000000
    a580:	16000705 	.word	0x16000705
    a584:	00000000 	.word	0x00000000
    a588:	16200705 	.word	0x16200705
    a58c:	00000000 	.word	0x00000000
    a590:	16400705 	.word	0x16400705
    a594:	00000000 	.word	0x00000000
    a598:	16600705 	.word	0x16600705
    a59c:	00000000 	.word	0x00000000
    a5a0:	16800705 	.word	0x16800705
    a5a4:	00000000 	.word	0x00000000
    a5a8:	16a00705 	.word	0x16a00705
    a5ac:	00000000 	.word	0x00000000
    a5b0:	16c00705 	.word	0x16c00705
    a5b4:	00000000 	.word	0x00000000
    a5b8:	16e00705 	.word	0x16e00705
    a5bc:	00000000 	.word	0x00000000
    a5c0:	17000705 	.word	0x17000705
    a5c4:	00000000 	.word	0x00000000
    a5c8:	17200705 	.word	0x17200705
    a5cc:	00000000 	.word	0x00000000
    a5d0:	17400705 	.word	0x17400705
    a5d4:	00000000 	.word	0x00000000
    a5d8:	17600705 	.word	0x17600705
    a5dc:	00000000 	.word	0x00000000
    a5e0:	17800705 	.word	0x17800705
    a5e4:	00000000 	.word	0x00000000
    a5e8:	17a00705 	.word	0x17a00705
    a5ec:	00000000 	.word	0x00000000
    a5f0:	17c00705 	.word	0x17c00705
    a5f4:	00000000 	.word	0x00000000
    a5f8:	17e00705 	.word	0x17e00705
    a5fc:	00000000 	.word	0x00000000
    a600:	18000705 	.word	0x18000705
    a604:	00000000 	.word	0x00000000
    a608:	18200705 	.word	0x18200705
    a60c:	00000000 	.word	0x00000000
    a610:	18400705 	.word	0x18400705
    a614:	00000000 	.word	0x00000000
    a618:	18600705 	.word	0x18600705
    a61c:	00000000 	.word	0x00000000
    a620:	18800705 	.word	0x18800705
    a624:	00000000 	.word	0x00000000
    a628:	18a00705 	.word	0x18a00705
    a62c:	00000000 	.word	0x00000000
    a630:	18c00705 	.word	0x18c00705
    a634:	00000000 	.word	0x00000000
    a638:	18e00705 	.word	0x18e00705
    a63c:	00000000 	.word	0x00000000
    a640:	19000705 	.word	0x19000705
    a644:	00000000 	.word	0x00000000
    a648:	19200705 	.word	0x19200705
    a64c:	00000000 	.word	0x00000000
    a650:	19400705 	.word	0x19400705
    a654:	00000000 	.word	0x00000000
    a658:	19600705 	.word	0x19600705
    a65c:	00000000 	.word	0x00000000
    a660:	19800705 	.word	0x19800705
    a664:	00000000 	.word	0x00000000
    a668:	19a00705 	.word	0x19a00705
    a66c:	00000000 	.word	0x00000000
    a670:	19c00705 	.word	0x19c00705
    a674:	00000000 	.word	0x00000000
    a678:	19e00705 	.word	0x19e00705
    a67c:	00000000 	.word	0x00000000
    a680:	1a000705 	.word	0x1a000705
    a684:	00000000 	.word	0x00000000
    a688:	1a200705 	.word	0x1a200705
    a68c:	00000000 	.word	0x00000000
    a690:	1a400705 	.word	0x1a400705
    a694:	00000000 	.word	0x00000000
    a698:	1a600705 	.word	0x1a600705
    a69c:	00000000 	.word	0x00000000
    a6a0:	1a800705 	.word	0x1a800705
    a6a4:	00000000 	.word	0x00000000
    a6a8:	1aa00705 	.word	0x1aa00705
    a6ac:	00000000 	.word	0x00000000
    a6b0:	1ac00705 	.word	0x1ac00705
    a6b4:	00000000 	.word	0x00000000
    a6b8:	1ae00705 	.word	0x1ae00705
    a6bc:	00000000 	.word	0x00000000
    a6c0:	1b000705 	.word	0x1b000705
    a6c4:	00000000 	.word	0x00000000
    a6c8:	1b200705 	.word	0x1b200705
    a6cc:	00000000 	.word	0x00000000
    a6d0:	1b400705 	.word	0x1b400705
    a6d4:	00000000 	.word	0x00000000
    a6d8:	1b600705 	.word	0x1b600705
    a6dc:	00000000 	.word	0x00000000
    a6e0:	1b800705 	.word	0x1b800705
    a6e4:	00000000 	.word	0x00000000
    a6e8:	1ba00705 	.word	0x1ba00705
    a6ec:	00000000 	.word	0x00000000
    a6f0:	1bc00705 	.word	0x1bc00705
    a6f4:	00000000 	.word	0x00000000
    a6f8:	1be00705 	.word	0x1be00705
    a6fc:	00000000 	.word	0x00000000
    a700:	1c000705 	.word	0x1c000705
    a704:	00000000 	.word	0x00000000
    a708:	1c200705 	.word	0x1c200705
    a70c:	00000000 	.word	0x00000000
    a710:	1c400705 	.word	0x1c400705
    a714:	00000000 	.word	0x00000000
    a718:	1c600705 	.word	0x1c600705
    a71c:	00000000 	.word	0x00000000
    a720:	1c800705 	.word	0x1c800705
    a724:	00000000 	.word	0x00000000
    a728:	1ca00705 	.word	0x1ca00705
    a72c:	00000000 	.word	0x00000000
    a730:	1cc00705 	.word	0x1cc00705
    a734:	00000000 	.word	0x00000000
    a738:	1ce00705 	.word	0x1ce00705
    a73c:	00000000 	.word	0x00000000
    a740:	1d000705 	.word	0x1d000705
    a744:	00000000 	.word	0x00000000
    a748:	1d200705 	.word	0x1d200705
    a74c:	00000000 	.word	0x00000000
    a750:	1d400705 	.word	0x1d400705
    a754:	00000000 	.word	0x00000000
    a758:	1d600705 	.word	0x1d600705
    a75c:	00000000 	.word	0x00000000
    a760:	1d800705 	.word	0x1d800705
    a764:	00000000 	.word	0x00000000
    a768:	1da00705 	.word	0x1da00705
    a76c:	00000000 	.word	0x00000000
    a770:	1dc00705 	.word	0x1dc00705
    a774:	00000000 	.word	0x00000000
    a778:	1de00705 	.word	0x1de00705
    a77c:	00000000 	.word	0x00000000
    a780:	1e000705 	.word	0x1e000705
    a784:	00000000 	.word	0x00000000
    a788:	1e200705 	.word	0x1e200705
    a78c:	00000000 	.word	0x00000000
    a790:	1e400705 	.word	0x1e400705
    a794:	00000000 	.word	0x00000000
    a798:	1e600705 	.word	0x1e600705
    a79c:	00000000 	.word	0x00000000
    a7a0:	1e800705 	.word	0x1e800705
    a7a4:	00000000 	.word	0x00000000
    a7a8:	1ea00705 	.word	0x1ea00705
    a7ac:	00000000 	.word	0x00000000
    a7b0:	1ec00705 	.word	0x1ec00705
    a7b4:	00000000 	.word	0x00000000
    a7b8:	1ee00705 	.word	0x1ee00705
    a7bc:	00000000 	.word	0x00000000
    a7c0:	1f000705 	.word	0x1f000705
    a7c4:	00000000 	.word	0x00000000
    a7c8:	1f200705 	.word	0x1f200705
    a7cc:	00000000 	.word	0x00000000
    a7d0:	1f400705 	.word	0x1f400705
    a7d4:	00000000 	.word	0x00000000
    a7d8:	1f600705 	.word	0x1f600705
    a7dc:	00000000 	.word	0x00000000
    a7e0:	1f800705 	.word	0x1f800705
    a7e4:	00000000 	.word	0x00000000
    a7e8:	1fa00705 	.word	0x1fa00705
    a7ec:	00000000 	.word	0x00000000
    a7f0:	1fc00705 	.word	0x1fc00705
    a7f4:	00000000 	.word	0x00000000
    a7f8:	1fe00705 	.word	0x1fe00705
    a7fc:	00000000 	.word	0x00000000
    a800:	20000705 	.word	0x20000705
    a804:	00000000 	.word	0x00000000
    a808:	20200705 	.word	0x20200705
    a80c:	00000000 	.word	0x00000000
    a810:	20400705 	.word	0x20400705
    a814:	00000000 	.word	0x00000000
    a818:	20600705 	.word	0x20600705
    a81c:	00000000 	.word	0x00000000
    a820:	20800705 	.word	0x20800705
    a824:	00000000 	.word	0x00000000
    a828:	20a00705 	.word	0x20a00705
    a82c:	00000000 	.word	0x00000000
    a830:	20c00705 	.word	0x20c00705
    a834:	00000000 	.word	0x00000000
    a838:	20e00705 	.word	0x20e00705
    a83c:	00000000 	.word	0x00000000
    a840:	21000705 	.word	0x21000705
    a844:	00000000 	.word	0x00000000
    a848:	21200705 	.word	0x21200705
    a84c:	00000000 	.word	0x00000000
    a850:	21400705 	.word	0x21400705
    a854:	00000000 	.word	0x00000000
    a858:	21600705 	.word	0x21600705
    a85c:	00000000 	.word	0x00000000
    a860:	21800705 	.word	0x21800705
    a864:	00000000 	.word	0x00000000
    a868:	21a00705 	.word	0x21a00705
    a86c:	00000000 	.word	0x00000000
    a870:	21c00705 	.word	0x21c00705
    a874:	00000000 	.word	0x00000000
    a878:	21e00705 	.word	0x21e00705
    a87c:	00000000 	.word	0x00000000
    a880:	22000705 	.word	0x22000705
    a884:	00000000 	.word	0x00000000
    a888:	22200705 	.word	0x22200705
    a88c:	00000000 	.word	0x00000000
    a890:	22400705 	.word	0x22400705
    a894:	00000000 	.word	0x00000000
    a898:	22600705 	.word	0x22600705
    a89c:	00000000 	.word	0x00000000
    a8a0:	22800705 	.word	0x22800705
    a8a4:	00000000 	.word	0x00000000
    a8a8:	22a00705 	.word	0x22a00705
    a8ac:	00000000 	.word	0x00000000
    a8b0:	22c00705 	.word	0x22c00705
    a8b4:	00000000 	.word	0x00000000
    a8b8:	22e00705 	.word	0x22e00705
    a8bc:	00000000 	.word	0x00000000
    a8c0:	23000705 	.word	0x23000705
    a8c4:	00000000 	.word	0x00000000
    a8c8:	23200705 	.word	0x23200705
    a8cc:	00000000 	.word	0x00000000
    a8d0:	23400705 	.word	0x23400705
    a8d4:	00000000 	.word	0x00000000
    a8d8:	23600705 	.word	0x23600705
    a8dc:	00000000 	.word	0x00000000
    a8e0:	23800705 	.word	0x23800705
    a8e4:	00000000 	.word	0x00000000
    a8e8:	23a00705 	.word	0x23a00705
    a8ec:	00000000 	.word	0x00000000
    a8f0:	23c00705 	.word	0x23c00705
    a8f4:	00000000 	.word	0x00000000
    a8f8:	23e00705 	.word	0x23e00705
    a8fc:	00000000 	.word	0x00000000
    a900:	24000705 	.word	0x24000705
    a904:	00000000 	.word	0x00000000
    a908:	24200705 	.word	0x24200705
    a90c:	00000000 	.word	0x00000000
    a910:	24400705 	.word	0x24400705
    a914:	00000000 	.word	0x00000000
    a918:	24600705 	.word	0x24600705
    a91c:	00000000 	.word	0x00000000
    a920:	24800705 	.word	0x24800705
    a924:	00000000 	.word	0x00000000
    a928:	24a00705 	.word	0x24a00705
    a92c:	00000000 	.word	0x00000000
    a930:	24c00705 	.word	0x24c00705
    a934:	00000000 	.word	0x00000000
    a938:	24e00705 	.word	0x24e00705
    a93c:	00000000 	.word	0x00000000
    a940:	25000705 	.word	0x25000705
    a944:	00000000 	.word	0x00000000
    a948:	25200705 	.word	0x25200705
    a94c:	00000000 	.word	0x00000000
    a950:	25400705 	.word	0x25400705
    a954:	00000000 	.word	0x00000000
    a958:	25600705 	.word	0x25600705
    a95c:	00000000 	.word	0x00000000
    a960:	25800705 	.word	0x25800705
    a964:	00000000 	.word	0x00000000
    a968:	25a00705 	.word	0x25a00705
    a96c:	00000000 	.word	0x00000000
    a970:	25c00705 	.word	0x25c00705
    a974:	00000000 	.word	0x00000000
    a978:	25e00705 	.word	0x25e00705
    a97c:	00000000 	.word	0x00000000
    a980:	26000705 	.word	0x26000705
    a984:	00000000 	.word	0x00000000
    a988:	26200705 	.word	0x26200705
    a98c:	00000000 	.word	0x00000000
    a990:	26400705 	.word	0x26400705
    a994:	00000000 	.word	0x00000000
    a998:	26600705 	.word	0x26600705
    a99c:	00000000 	.word	0x00000000
    a9a0:	26800705 	.word	0x26800705
    a9a4:	00000000 	.word	0x00000000
    a9a8:	26a00705 	.word	0x26a00705
    a9ac:	00000000 	.word	0x00000000
    a9b0:	26c00705 	.word	0x26c00705
    a9b4:	00000000 	.word	0x00000000
    a9b8:	26e00705 	.word	0x26e00705
    a9bc:	00000000 	.word	0x00000000
    a9c0:	27000705 	.word	0x27000705
    a9c4:	00000000 	.word	0x00000000
    a9c8:	27200705 	.word	0x27200705
    a9cc:	00000000 	.word	0x00000000
    a9d0:	27400705 	.word	0x27400705
    a9d4:	00000000 	.word	0x00000000
    a9d8:	27600705 	.word	0x27600705
    a9dc:	00000000 	.word	0x00000000
    a9e0:	27800705 	.word	0x27800705
    a9e4:	00000000 	.word	0x00000000
    a9e8:	27a00705 	.word	0x27a00705
    a9ec:	00000000 	.word	0x00000000
    a9f0:	27c00705 	.word	0x27c00705
    a9f4:	00000000 	.word	0x00000000
    a9f8:	27e00705 	.word	0x27e00705
    a9fc:	00000000 	.word	0x00000000
    aa00:	28000705 	.word	0x28000705
    aa04:	00000000 	.word	0x00000000
    aa08:	28200705 	.word	0x28200705
    aa0c:	00000000 	.word	0x00000000
    aa10:	28400705 	.word	0x28400705
    aa14:	00000000 	.word	0x00000000
    aa18:	28600705 	.word	0x28600705
    aa1c:	00000000 	.word	0x00000000
    aa20:	28800705 	.word	0x28800705
    aa24:	00000000 	.word	0x00000000
    aa28:	28a00705 	.word	0x28a00705
    aa2c:	00000000 	.word	0x00000000
    aa30:	28c00705 	.word	0x28c00705
    aa34:	00000000 	.word	0x00000000
    aa38:	28e00705 	.word	0x28e00705
    aa3c:	00000000 	.word	0x00000000
    aa40:	29000705 	.word	0x29000705
    aa44:	00000000 	.word	0x00000000
    aa48:	29200705 	.word	0x29200705
    aa4c:	00000000 	.word	0x00000000
    aa50:	29400705 	.word	0x29400705
    aa54:	00000000 	.word	0x00000000
    aa58:	29600705 	.word	0x29600705
    aa5c:	00000000 	.word	0x00000000
    aa60:	29800705 	.word	0x29800705
    aa64:	00000000 	.word	0x00000000
    aa68:	29a00705 	.word	0x29a00705
    aa6c:	00000000 	.word	0x00000000
    aa70:	29c00705 	.word	0x29c00705
    aa74:	00000000 	.word	0x00000000
    aa78:	29e00705 	.word	0x29e00705
    aa7c:	00000000 	.word	0x00000000
    aa80:	2a000705 	.word	0x2a000705
    aa84:	00000000 	.word	0x00000000
    aa88:	2a200705 	.word	0x2a200705
    aa8c:	00000000 	.word	0x00000000
    aa90:	2a400705 	.word	0x2a400705
    aa94:	00000000 	.word	0x00000000
    aa98:	2a600705 	.word	0x2a600705
    aa9c:	00000000 	.word	0x00000000
    aaa0:	2a800705 	.word	0x2a800705
    aaa4:	00000000 	.word	0x00000000
    aaa8:	2aa00705 	.word	0x2aa00705
    aaac:	00000000 	.word	0x00000000
    aab0:	2ac00705 	.word	0x2ac00705
    aab4:	00000000 	.word	0x00000000
    aab8:	2ae00705 	.word	0x2ae00705
    aabc:	00000000 	.word	0x00000000
    aac0:	2b000705 	.word	0x2b000705
    aac4:	00000000 	.word	0x00000000
    aac8:	2b200705 	.word	0x2b200705
    aacc:	00000000 	.word	0x00000000
    aad0:	2b400705 	.word	0x2b400705
    aad4:	00000000 	.word	0x00000000
    aad8:	2b600705 	.word	0x2b600705
    aadc:	00000000 	.word	0x00000000
    aae0:	2b800705 	.word	0x2b800705
    aae4:	00000000 	.word	0x00000000
    aae8:	2ba00705 	.word	0x2ba00705
    aaec:	00000000 	.word	0x00000000
    aaf0:	2bc00705 	.word	0x2bc00705
    aaf4:	00000000 	.word	0x00000000
    aaf8:	2be00705 	.word	0x2be00705
    aafc:	00000000 	.word	0x00000000
    ab00:	2c000705 	.word	0x2c000705
    ab04:	00000000 	.word	0x00000000
    ab08:	2c200705 	.word	0x2c200705
    ab0c:	00000000 	.word	0x00000000
    ab10:	2c400705 	.word	0x2c400705
    ab14:	00000000 	.word	0x00000000
    ab18:	2c600705 	.word	0x2c600705
    ab1c:	00000000 	.word	0x00000000
    ab20:	2c800705 	.word	0x2c800705
    ab24:	00000000 	.word	0x00000000
    ab28:	2ca00705 	.word	0x2ca00705
    ab2c:	00000000 	.word	0x00000000
    ab30:	2cc00705 	.word	0x2cc00705
    ab34:	00000000 	.word	0x00000000
    ab38:	2ce00705 	.word	0x2ce00705
    ab3c:	00000000 	.word	0x00000000
    ab40:	2d000705 	.word	0x2d000705
    ab44:	00000000 	.word	0x00000000
    ab48:	2d200705 	.word	0x2d200705
    ab4c:	00000000 	.word	0x00000000
    ab50:	2d400705 	.word	0x2d400705
    ab54:	00000000 	.word	0x00000000
    ab58:	2d600705 	.word	0x2d600705
    ab5c:	00000000 	.word	0x00000000
    ab60:	2d800705 	.word	0x2d800705
    ab64:	00000000 	.word	0x00000000
    ab68:	2da00705 	.word	0x2da00705
    ab6c:	00000000 	.word	0x00000000
    ab70:	2dc00705 	.word	0x2dc00705
    ab74:	00000000 	.word	0x00000000
    ab78:	2de00705 	.word	0x2de00705
    ab7c:	00000000 	.word	0x00000000
    ab80:	2e000705 	.word	0x2e000705
    ab84:	00000000 	.word	0x00000000
    ab88:	2e200705 	.word	0x2e200705
    ab8c:	00000000 	.word	0x00000000
    ab90:	2e400705 	.word	0x2e400705
    ab94:	00000000 	.word	0x00000000
    ab98:	2e600705 	.word	0x2e600705
    ab9c:	00000000 	.word	0x00000000
    aba0:	2e800705 	.word	0x2e800705
    aba4:	00000000 	.word	0x00000000
    aba8:	2ea00705 	.word	0x2ea00705
    abac:	00000000 	.word	0x00000000
    abb0:	2ec00705 	.word	0x2ec00705
    abb4:	00000000 	.word	0x00000000
    abb8:	2ee00705 	.word	0x2ee00705
    abbc:	00000000 	.word	0x00000000
    abc0:	2f000705 	.word	0x2f000705
    abc4:	00000000 	.word	0x00000000
    abc8:	2f200705 	.word	0x2f200705
    abcc:	00000000 	.word	0x00000000
    abd0:	2f400705 	.word	0x2f400705
    abd4:	00000000 	.word	0x00000000
    abd8:	2f600705 	.word	0x2f600705
    abdc:	00000000 	.word	0x00000000
    abe0:	2f800705 	.word	0x2f800705
    abe4:	00000000 	.word	0x00000000
    abe8:	2fa00705 	.word	0x2fa00705
    abec:	00000000 	.word	0x00000000
    abf0:	2fc00705 	.word	0x2fc00705
    abf4:	00000000 	.word	0x00000000
    abf8:	2fe00705 	.word	0x2fe00705
    abfc:	00000000 	.word	0x00000000
    ac00:	30000705 	.word	0x30000705
    ac04:	00000000 	.word	0x00000000
    ac08:	30200705 	.word	0x30200705
    ac0c:	00000000 	.word	0x00000000
    ac10:	30400705 	.word	0x30400705
    ac14:	00000000 	.word	0x00000000
    ac18:	30600705 	.word	0x30600705
    ac1c:	00000000 	.word	0x00000000
    ac20:	30800705 	.word	0x30800705
    ac24:	00000000 	.word	0x00000000
    ac28:	30a00705 	.word	0x30a00705
    ac2c:	00000000 	.word	0x00000000
    ac30:	30c00705 	.word	0x30c00705
    ac34:	00000000 	.word	0x00000000
    ac38:	30e00705 	.word	0x30e00705
    ac3c:	00000000 	.word	0x00000000
    ac40:	31000705 	.word	0x31000705
    ac44:	00000000 	.word	0x00000000
    ac48:	31200705 	.word	0x31200705
    ac4c:	00000000 	.word	0x00000000
    ac50:	31400705 	.word	0x31400705
    ac54:	00000000 	.word	0x00000000
    ac58:	31600705 	.word	0x31600705
    ac5c:	00000000 	.word	0x00000000
    ac60:	31800705 	.word	0x31800705
    ac64:	00000000 	.word	0x00000000
    ac68:	31a00705 	.word	0x31a00705
    ac6c:	00000000 	.word	0x00000000
    ac70:	31c00705 	.word	0x31c00705
    ac74:	00000000 	.word	0x00000000
    ac78:	31e00705 	.word	0x31e00705
    ac7c:	00000000 	.word	0x00000000
    ac80:	32000705 	.word	0x32000705
    ac84:	00000000 	.word	0x00000000
    ac88:	32200705 	.word	0x32200705
    ac8c:	00000000 	.word	0x00000000
    ac90:	32400705 	.word	0x32400705
    ac94:	00000000 	.word	0x00000000
    ac98:	32600705 	.word	0x32600705
    ac9c:	00000000 	.word	0x00000000
    aca0:	32800705 	.word	0x32800705
    aca4:	00000000 	.word	0x00000000
    aca8:	32a00705 	.word	0x32a00705
    acac:	00000000 	.word	0x00000000
    acb0:	32c00705 	.word	0x32c00705
    acb4:	00000000 	.word	0x00000000
    acb8:	32e00705 	.word	0x32e00705
    acbc:	00000000 	.word	0x00000000
    acc0:	33000705 	.word	0x33000705
    acc4:	00000000 	.word	0x00000000
    acc8:	33200705 	.word	0x33200705
    accc:	00000000 	.word	0x00000000
    acd0:	33400705 	.word	0x33400705
    acd4:	00000000 	.word	0x00000000
    acd8:	33600705 	.word	0x33600705
    acdc:	00000000 	.word	0x00000000
    ace0:	33800705 	.word	0x33800705
    ace4:	00000000 	.word	0x00000000
    ace8:	33a00705 	.word	0x33a00705
    acec:	00000000 	.word	0x00000000
    acf0:	33c00705 	.word	0x33c00705
    acf4:	00000000 	.word	0x00000000
    acf8:	33e00705 	.word	0x33e00705
    acfc:	00000000 	.word	0x00000000
    ad00:	34000705 	.word	0x34000705
    ad04:	00000000 	.word	0x00000000
    ad08:	34200705 	.word	0x34200705
    ad0c:	00000000 	.word	0x00000000
    ad10:	34400705 	.word	0x34400705
    ad14:	00000000 	.word	0x00000000
    ad18:	34600705 	.word	0x34600705
    ad1c:	00000000 	.word	0x00000000
    ad20:	34800705 	.word	0x34800705
    ad24:	00000000 	.word	0x00000000
    ad28:	34a00705 	.word	0x34a00705
    ad2c:	00000000 	.word	0x00000000
    ad30:	34c00705 	.word	0x34c00705
    ad34:	00000000 	.word	0x00000000
    ad38:	34e00705 	.word	0x34e00705
    ad3c:	00000000 	.word	0x00000000
    ad40:	35000705 	.word	0x35000705
    ad44:	00000000 	.word	0x00000000
    ad48:	35200705 	.word	0x35200705
    ad4c:	00000000 	.word	0x00000000
    ad50:	35400705 	.word	0x35400705
    ad54:	00000000 	.word	0x00000000
    ad58:	35600705 	.word	0x35600705
    ad5c:	00000000 	.word	0x00000000
    ad60:	35800705 	.word	0x35800705
    ad64:	00000000 	.word	0x00000000
    ad68:	35a00705 	.word	0x35a00705
    ad6c:	00000000 	.word	0x00000000
    ad70:	35c00705 	.word	0x35c00705
    ad74:	00000000 	.word	0x00000000
    ad78:	35e00705 	.word	0x35e00705
    ad7c:	00000000 	.word	0x00000000
    ad80:	36000705 	.word	0x36000705
    ad84:	00000000 	.word	0x00000000
    ad88:	36200705 	.word	0x36200705
    ad8c:	00000000 	.word	0x00000000
    ad90:	36400705 	.word	0x36400705
    ad94:	00000000 	.word	0x00000000
    ad98:	36600705 	.word	0x36600705
    ad9c:	00000000 	.word	0x00000000
    ada0:	36800705 	.word	0x36800705
    ada4:	00000000 	.word	0x00000000
    ada8:	36a00705 	.word	0x36a00705
    adac:	00000000 	.word	0x00000000
    adb0:	36c00705 	.word	0x36c00705
    adb4:	00000000 	.word	0x00000000
    adb8:	36e00705 	.word	0x36e00705
    adbc:	00000000 	.word	0x00000000
    adc0:	37000705 	.word	0x37000705
    adc4:	00000000 	.word	0x00000000
    adc8:	37200705 	.word	0x37200705
    adcc:	00000000 	.word	0x00000000
    add0:	37400705 	.word	0x37400705
    add4:	00000000 	.word	0x00000000
    add8:	37600705 	.word	0x37600705
    addc:	00000000 	.word	0x00000000
    ade0:	37800705 	.word	0x37800705
    ade4:	00000000 	.word	0x00000000
    ade8:	37a00705 	.word	0x37a00705
    adec:	00000000 	.word	0x00000000
    adf0:	37c00705 	.word	0x37c00705
    adf4:	00000000 	.word	0x00000000
    adf8:	37e00705 	.word	0x37e00705
    adfc:	00000000 	.word	0x00000000
    ae00:	38000705 	.word	0x38000705
    ae04:	00000000 	.word	0x00000000
    ae08:	38200705 	.word	0x38200705
    ae0c:	00000000 	.word	0x00000000
    ae10:	38400705 	.word	0x38400705
    ae14:	00000000 	.word	0x00000000
    ae18:	38600705 	.word	0x38600705
    ae1c:	00000000 	.word	0x00000000
    ae20:	38800705 	.word	0x38800705
    ae24:	00000000 	.word	0x00000000
    ae28:	38a00705 	.word	0x38a00705
    ae2c:	00000000 	.word	0x00000000
    ae30:	38c00705 	.word	0x38c00705
    ae34:	00000000 	.word	0x00000000
    ae38:	38e00705 	.word	0x38e00705
    ae3c:	00000000 	.word	0x00000000
    ae40:	39000705 	.word	0x39000705
    ae44:	00000000 	.word	0x00000000
    ae48:	39200705 	.word	0x39200705
    ae4c:	00000000 	.word	0x00000000
    ae50:	39400705 	.word	0x39400705
    ae54:	00000000 	.word	0x00000000
    ae58:	39600705 	.word	0x39600705
    ae5c:	00000000 	.word	0x00000000
    ae60:	39800705 	.word	0x39800705
    ae64:	00000000 	.word	0x00000000
    ae68:	39a00705 	.word	0x39a00705
    ae6c:	00000000 	.word	0x00000000
    ae70:	39c00705 	.word	0x39c00705
    ae74:	00000000 	.word	0x00000000
    ae78:	39e00705 	.word	0x39e00705
    ae7c:	00000000 	.word	0x00000000
    ae80:	3a000705 	.word	0x3a000705
    ae84:	00000000 	.word	0x00000000
    ae88:	3a200705 	.word	0x3a200705
    ae8c:	00000000 	.word	0x00000000
    ae90:	3a400705 	.word	0x3a400705
    ae94:	00000000 	.word	0x00000000
    ae98:	3a600705 	.word	0x3a600705
    ae9c:	00000000 	.word	0x00000000
    aea0:	3a800705 	.word	0x3a800705
    aea4:	00000000 	.word	0x00000000
    aea8:	3aa00705 	.word	0x3aa00705
    aeac:	00000000 	.word	0x00000000
    aeb0:	3ac00705 	.word	0x3ac00705
    aeb4:	00000000 	.word	0x00000000
    aeb8:	3ae00705 	.word	0x3ae00705
    aebc:	00000000 	.word	0x00000000
    aec0:	3b000705 	.word	0x3b000705
    aec4:	00000000 	.word	0x00000000
    aec8:	3b200705 	.word	0x3b200705
    aecc:	00000000 	.word	0x00000000
    aed0:	3b400705 	.word	0x3b400705
    aed4:	00000000 	.word	0x00000000
    aed8:	3b600705 	.word	0x3b600705
    aedc:	00000000 	.word	0x00000000
    aee0:	3b800705 	.word	0x3b800705
    aee4:	00000000 	.word	0x00000000
    aee8:	3ba00705 	.word	0x3ba00705
    aeec:	00000000 	.word	0x00000000
    aef0:	3bc00705 	.word	0x3bc00705
    aef4:	00000000 	.word	0x00000000
    aef8:	3be00705 	.word	0x3be00705
    aefc:	00000000 	.word	0x00000000
    af00:	3c000705 	.word	0x3c000705
    af04:	00000000 	.word	0x00000000
    af08:	3c200705 	.word	0x3c200705
    af0c:	00000000 	.word	0x00000000
    af10:	3c400705 	.word	0x3c400705
    af14:	00000000 	.word	0x00000000
    af18:	3c600705 	.word	0x3c600705
    af1c:	00000000 	.word	0x00000000
    af20:	3c800705 	.word	0x3c800705
    af24:	00000000 	.word	0x00000000
    af28:	3ca00705 	.word	0x3ca00705
    af2c:	00000000 	.word	0x00000000
    af30:	3cc00705 	.word	0x3cc00705
    af34:	00000000 	.word	0x00000000
    af38:	3ce00705 	.word	0x3ce00705
    af3c:	00000000 	.word	0x00000000
    af40:	3d000705 	.word	0x3d000705
    af44:	00000000 	.word	0x00000000
    af48:	3d200705 	.word	0x3d200705
    af4c:	00000000 	.word	0x00000000
    af50:	3d400705 	.word	0x3d400705
    af54:	00000000 	.word	0x00000000
    af58:	3d600705 	.word	0x3d600705
    af5c:	00000000 	.word	0x00000000
    af60:	3d800705 	.word	0x3d800705
    af64:	00000000 	.word	0x00000000
    af68:	3da00705 	.word	0x3da00705
    af6c:	00000000 	.word	0x00000000
    af70:	3dc00705 	.word	0x3dc00705
    af74:	00000000 	.word	0x00000000
    af78:	3de00705 	.word	0x3de00705
    af7c:	00000000 	.word	0x00000000
    af80:	3e000705 	.word	0x3e000705
    af84:	00000000 	.word	0x00000000
    af88:	3e200705 	.word	0x3e200705
    af8c:	00000000 	.word	0x00000000
    af90:	3e400705 	.word	0x3e400705
    af94:	00000000 	.word	0x00000000
    af98:	3e600705 	.word	0x3e600705
    af9c:	00000000 	.word	0x00000000
    afa0:	3e800705 	.word	0x3e800705
    afa4:	00000000 	.word	0x00000000
    afa8:	3ea00705 	.word	0x3ea00705
    afac:	00000000 	.word	0x00000000
    afb0:	3ec00705 	.word	0x3ec00705
    afb4:	00000000 	.word	0x00000000
    afb8:	3ee00705 	.word	0x3ee00705
    afbc:	00000000 	.word	0x00000000
    afc0:	3f000705 	.word	0x3f000705
    afc4:	00000000 	.word	0x00000000
    afc8:	3f200705 	.word	0x3f200705
    afcc:	00000000 	.word	0x00000000
    afd0:	3f400705 	.word	0x3f400705
    afd4:	00000000 	.word	0x00000000
    afd8:	3f600705 	.word	0x3f600705
    afdc:	00000000 	.word	0x00000000
    afe0:	3f800705 	.word	0x3f800705
    afe4:	00000000 	.word	0x00000000
    afe8:	3fa00705 	.word	0x3fa00705
    afec:	00000000 	.word	0x00000000
    aff0:	3fc00705 	.word	0x3fc00705
    aff4:	00000000 	.word	0x00000000
    aff8:	3fe00705 	.word	0x3fe00705
    affc:	00000000 	.word	0x00000000
    b000:	40000705 	.word	0x40000705
    b004:	00000000 	.word	0x00000000
    b008:	40200705 	.word	0x40200705
    b00c:	00000000 	.word	0x00000000
    b010:	40400705 	.word	0x40400705
    b014:	00000000 	.word	0x00000000
    b018:	40600705 	.word	0x40600705
    b01c:	00000000 	.word	0x00000000
    b020:	40800705 	.word	0x40800705
    b024:	00000000 	.word	0x00000000
    b028:	40a00705 	.word	0x40a00705
    b02c:	00000000 	.word	0x00000000
    b030:	40c00705 	.word	0x40c00705
    b034:	00000000 	.word	0x00000000
    b038:	40e00705 	.word	0x40e00705
    b03c:	00000000 	.word	0x00000000
    b040:	41000705 	.word	0x41000705
    b044:	00000000 	.word	0x00000000
    b048:	41200705 	.word	0x41200705
    b04c:	00000000 	.word	0x00000000
    b050:	41400705 	.word	0x41400705
    b054:	00000000 	.word	0x00000000
    b058:	41600705 	.word	0x41600705
    b05c:	00000000 	.word	0x00000000
    b060:	41800705 	.word	0x41800705
    b064:	00000000 	.word	0x00000000
    b068:	41a00705 	.word	0x41a00705
    b06c:	00000000 	.word	0x00000000
    b070:	41c00705 	.word	0x41c00705
    b074:	00000000 	.word	0x00000000
    b078:	41e00705 	.word	0x41e00705
    b07c:	00000000 	.word	0x00000000
    b080:	42000705 	.word	0x42000705
    b084:	00000000 	.word	0x00000000
    b088:	42200705 	.word	0x42200705
    b08c:	00000000 	.word	0x00000000
    b090:	42400705 	.word	0x42400705
    b094:	00000000 	.word	0x00000000
    b098:	42600705 	.word	0x42600705
    b09c:	00000000 	.word	0x00000000
    b0a0:	42800705 	.word	0x42800705
    b0a4:	00000000 	.word	0x00000000
    b0a8:	42a00705 	.word	0x42a00705
    b0ac:	00000000 	.word	0x00000000
    b0b0:	42c00705 	.word	0x42c00705
    b0b4:	00000000 	.word	0x00000000
    b0b8:	42e00705 	.word	0x42e00705
    b0bc:	00000000 	.word	0x00000000
    b0c0:	43000705 	.word	0x43000705
    b0c4:	00000000 	.word	0x00000000
    b0c8:	43200705 	.word	0x43200705
    b0cc:	00000000 	.word	0x00000000
    b0d0:	43400705 	.word	0x43400705
    b0d4:	00000000 	.word	0x00000000
    b0d8:	43600705 	.word	0x43600705
    b0dc:	00000000 	.word	0x00000000
    b0e0:	43800705 	.word	0x43800705
    b0e4:	00000000 	.word	0x00000000
    b0e8:	43a00705 	.word	0x43a00705
    b0ec:	00000000 	.word	0x00000000
    b0f0:	43c00705 	.word	0x43c00705
    b0f4:	00000000 	.word	0x00000000
    b0f8:	43e00705 	.word	0x43e00705
    b0fc:	00000000 	.word	0x00000000
    b100:	44000705 	.word	0x44000705
    b104:	00000000 	.word	0x00000000
    b108:	44200705 	.word	0x44200705
    b10c:	00000000 	.word	0x00000000
    b110:	44400705 	.word	0x44400705
    b114:	00000000 	.word	0x00000000
    b118:	44600705 	.word	0x44600705
    b11c:	00000000 	.word	0x00000000
    b120:	44800705 	.word	0x44800705
    b124:	00000000 	.word	0x00000000
    b128:	44a00705 	.word	0x44a00705
    b12c:	00000000 	.word	0x00000000
    b130:	44c00705 	.word	0x44c00705
    b134:	00000000 	.word	0x00000000
    b138:	44e00705 	.word	0x44e00705
    b13c:	00000000 	.word	0x00000000
    b140:	45000705 	.word	0x45000705
    b144:	00000000 	.word	0x00000000
    b148:	45200705 	.word	0x45200705
    b14c:	00000000 	.word	0x00000000
    b150:	45400705 	.word	0x45400705
    b154:	00000000 	.word	0x00000000
    b158:	45600705 	.word	0x45600705
    b15c:	00000000 	.word	0x00000000
    b160:	45800705 	.word	0x45800705
    b164:	00000000 	.word	0x00000000
    b168:	45a00705 	.word	0x45a00705
    b16c:	00000000 	.word	0x00000000
    b170:	45c00705 	.word	0x45c00705
    b174:	00000000 	.word	0x00000000
    b178:	45e00705 	.word	0x45e00705
    b17c:	00000000 	.word	0x00000000
    b180:	46000705 	.word	0x46000705
    b184:	00000000 	.word	0x00000000
    b188:	46200705 	.word	0x46200705
    b18c:	00000000 	.word	0x00000000
    b190:	46400705 	.word	0x46400705
    b194:	00000000 	.word	0x00000000
    b198:	46600705 	.word	0x46600705
    b19c:	00000000 	.word	0x00000000
    b1a0:	46800705 	.word	0x46800705
    b1a4:	00000000 	.word	0x00000000
    b1a8:	46a00705 	.word	0x46a00705
    b1ac:	00000000 	.word	0x00000000
    b1b0:	46c00705 	.word	0x46c00705
    b1b4:	00000000 	.word	0x00000000
    b1b8:	46e00705 	.word	0x46e00705
    b1bc:	00000000 	.word	0x00000000
    b1c0:	47000705 	.word	0x47000705
    b1c4:	00000000 	.word	0x00000000
    b1c8:	47200705 	.word	0x47200705
    b1cc:	00000000 	.word	0x00000000
    b1d0:	47400705 	.word	0x47400705
    b1d4:	00000000 	.word	0x00000000
    b1d8:	47600705 	.word	0x47600705
    b1dc:	00000000 	.word	0x00000000
    b1e0:	47800705 	.word	0x47800705
    b1e4:	00000000 	.word	0x00000000
    b1e8:	47a00705 	.word	0x47a00705
    b1ec:	00000000 	.word	0x00000000
    b1f0:	47c00705 	.word	0x47c00705
    b1f4:	00000000 	.word	0x00000000
    b1f8:	47e00705 	.word	0x47e00705
    b1fc:	00000000 	.word	0x00000000
    b200:	48000705 	.word	0x48000705
    b204:	00000000 	.word	0x00000000
    b208:	48200705 	.word	0x48200705
    b20c:	00000000 	.word	0x00000000
    b210:	48400705 	.word	0x48400705
    b214:	00000000 	.word	0x00000000
    b218:	48600705 	.word	0x48600705
    b21c:	00000000 	.word	0x00000000
    b220:	48800705 	.word	0x48800705
    b224:	00000000 	.word	0x00000000
    b228:	48a00705 	.word	0x48a00705
    b22c:	00000000 	.word	0x00000000
    b230:	48c00705 	.word	0x48c00705
    b234:	00000000 	.word	0x00000000
    b238:	48e00705 	.word	0x48e00705
    b23c:	00000000 	.word	0x00000000
    b240:	49000705 	.word	0x49000705
    b244:	00000000 	.word	0x00000000
    b248:	49200705 	.word	0x49200705
    b24c:	00000000 	.word	0x00000000
    b250:	49400705 	.word	0x49400705
    b254:	00000000 	.word	0x00000000
    b258:	49600705 	.word	0x49600705
    b25c:	00000000 	.word	0x00000000
    b260:	49800705 	.word	0x49800705
    b264:	00000000 	.word	0x00000000
    b268:	49a00705 	.word	0x49a00705
    b26c:	00000000 	.word	0x00000000
    b270:	49c00705 	.word	0x49c00705
    b274:	00000000 	.word	0x00000000
    b278:	49e00705 	.word	0x49e00705
    b27c:	00000000 	.word	0x00000000
    b280:	4a000705 	.word	0x4a000705
    b284:	00000000 	.word	0x00000000
    b288:	4a200705 	.word	0x4a200705
    b28c:	00000000 	.word	0x00000000
    b290:	4a400705 	.word	0x4a400705
    b294:	00000000 	.word	0x00000000
    b298:	4a600705 	.word	0x4a600705
    b29c:	00000000 	.word	0x00000000
    b2a0:	4a800705 	.word	0x4a800705
    b2a4:	00000000 	.word	0x00000000
    b2a8:	4aa00705 	.word	0x4aa00705
    b2ac:	00000000 	.word	0x00000000
    b2b0:	4ac00705 	.word	0x4ac00705
    b2b4:	00000000 	.word	0x00000000
    b2b8:	4ae00705 	.word	0x4ae00705
    b2bc:	00000000 	.word	0x00000000
    b2c0:	4b000705 	.word	0x4b000705
    b2c4:	00000000 	.word	0x00000000
    b2c8:	4b200705 	.word	0x4b200705
    b2cc:	00000000 	.word	0x00000000
    b2d0:	4b400705 	.word	0x4b400705
    b2d4:	00000000 	.word	0x00000000
    b2d8:	4b600705 	.word	0x4b600705
    b2dc:	00000000 	.word	0x00000000
    b2e0:	4b800705 	.word	0x4b800705
    b2e4:	00000000 	.word	0x00000000
    b2e8:	4ba00705 	.word	0x4ba00705
    b2ec:	00000000 	.word	0x00000000
    b2f0:	4bc00705 	.word	0x4bc00705
    b2f4:	00000000 	.word	0x00000000
    b2f8:	4be00705 	.word	0x4be00705
    b2fc:	00000000 	.word	0x00000000
    b300:	4c000705 	.word	0x4c000705
    b304:	00000000 	.word	0x00000000
    b308:	4c200705 	.word	0x4c200705
    b30c:	00000000 	.word	0x00000000
    b310:	4c400705 	.word	0x4c400705
    b314:	00000000 	.word	0x00000000
    b318:	4c600705 	.word	0x4c600705
    b31c:	00000000 	.word	0x00000000
    b320:	4c800705 	.word	0x4c800705
    b324:	00000000 	.word	0x00000000
    b328:	4ca00705 	.word	0x4ca00705
    b32c:	00000000 	.word	0x00000000
    b330:	4cc00705 	.word	0x4cc00705
    b334:	00000000 	.word	0x00000000
    b338:	4ce00705 	.word	0x4ce00705
    b33c:	00000000 	.word	0x00000000
    b340:	4d000705 	.word	0x4d000705
    b344:	00000000 	.word	0x00000000
    b348:	4d200705 	.word	0x4d200705
    b34c:	00000000 	.word	0x00000000
    b350:	4d400705 	.word	0x4d400705
    b354:	00000000 	.word	0x00000000
    b358:	4d600705 	.word	0x4d600705
    b35c:	00000000 	.word	0x00000000
    b360:	4d800705 	.word	0x4d800705
    b364:	00000000 	.word	0x00000000
    b368:	4da00705 	.word	0x4da00705
    b36c:	00000000 	.word	0x00000000
    b370:	4dc00705 	.word	0x4dc00705
    b374:	00000000 	.word	0x00000000
    b378:	4de00705 	.word	0x4de00705
    b37c:	00000000 	.word	0x00000000
    b380:	4e000705 	.word	0x4e000705
    b384:	00000000 	.word	0x00000000
    b388:	4e200705 	.word	0x4e200705
    b38c:	00000000 	.word	0x00000000
    b390:	4e400705 	.word	0x4e400705
    b394:	00000000 	.word	0x00000000
    b398:	4e600705 	.word	0x4e600705
    b39c:	00000000 	.word	0x00000000
    b3a0:	4e800705 	.word	0x4e800705
    b3a4:	00000000 	.word	0x00000000
    b3a8:	4ea00705 	.word	0x4ea00705
    b3ac:	00000000 	.word	0x00000000
    b3b0:	4ec00705 	.word	0x4ec00705
    b3b4:	00000000 	.word	0x00000000
    b3b8:	4ee00705 	.word	0x4ee00705
    b3bc:	00000000 	.word	0x00000000
    b3c0:	4f000705 	.word	0x4f000705
    b3c4:	00000000 	.word	0x00000000
    b3c8:	4f200705 	.word	0x4f200705
    b3cc:	00000000 	.word	0x00000000
    b3d0:	4f400705 	.word	0x4f400705
    b3d4:	00000000 	.word	0x00000000
    b3d8:	4f600705 	.word	0x4f600705
    b3dc:	00000000 	.word	0x00000000
    b3e0:	4f800705 	.word	0x4f800705
    b3e4:	00000000 	.word	0x00000000
    b3e8:	4fa00705 	.word	0x4fa00705
    b3ec:	00000000 	.word	0x00000000
    b3f0:	4fc00705 	.word	0x4fc00705
    b3f4:	00000000 	.word	0x00000000
    b3f8:	4fe00705 	.word	0x4fe00705
    b3fc:	00000000 	.word	0x00000000
    b400:	50000705 	.word	0x50000705
    b404:	00000000 	.word	0x00000000
    b408:	50200705 	.word	0x50200705
    b40c:	00000000 	.word	0x00000000
    b410:	50400705 	.word	0x50400705
    b414:	00000000 	.word	0x00000000
    b418:	50600705 	.word	0x50600705
    b41c:	00000000 	.word	0x00000000
    b420:	50800705 	.word	0x50800705
    b424:	00000000 	.word	0x00000000
    b428:	50a00705 	.word	0x50a00705
    b42c:	00000000 	.word	0x00000000
    b430:	50c00705 	.word	0x50c00705
    b434:	00000000 	.word	0x00000000
    b438:	50e00705 	.word	0x50e00705
    b43c:	00000000 	.word	0x00000000
    b440:	51000705 	.word	0x51000705
    b444:	00000000 	.word	0x00000000
    b448:	51200705 	.word	0x51200705
    b44c:	00000000 	.word	0x00000000
    b450:	51400705 	.word	0x51400705
    b454:	00000000 	.word	0x00000000
    b458:	51600705 	.word	0x51600705
    b45c:	00000000 	.word	0x00000000
    b460:	51800705 	.word	0x51800705
    b464:	00000000 	.word	0x00000000
    b468:	51a00705 	.word	0x51a00705
    b46c:	00000000 	.word	0x00000000
    b470:	51c00705 	.word	0x51c00705
    b474:	00000000 	.word	0x00000000
    b478:	51e00705 	.word	0x51e00705
    b47c:	00000000 	.word	0x00000000
    b480:	52000705 	.word	0x52000705
    b484:	00000000 	.word	0x00000000
    b488:	52200705 	.word	0x52200705
    b48c:	00000000 	.word	0x00000000
    b490:	52400705 	.word	0x52400705
    b494:	00000000 	.word	0x00000000
    b498:	52600705 	.word	0x52600705
    b49c:	00000000 	.word	0x00000000
    b4a0:	52800705 	.word	0x52800705
    b4a4:	00000000 	.word	0x00000000
    b4a8:	52a00705 	.word	0x52a00705
    b4ac:	00000000 	.word	0x00000000
    b4b0:	52c00705 	.word	0x52c00705
    b4b4:	00000000 	.word	0x00000000
    b4b8:	52e00705 	.word	0x52e00705
    b4bc:	00000000 	.word	0x00000000
    b4c0:	53000705 	.word	0x53000705
    b4c4:	00000000 	.word	0x00000000
    b4c8:	53200705 	.word	0x53200705
    b4cc:	00000000 	.word	0x00000000
    b4d0:	53400705 	.word	0x53400705
    b4d4:	00000000 	.word	0x00000000
    b4d8:	53600705 	.word	0x53600705
    b4dc:	00000000 	.word	0x00000000
    b4e0:	53800705 	.word	0x53800705
    b4e4:	00000000 	.word	0x00000000
    b4e8:	53a00705 	.word	0x53a00705
    b4ec:	00000000 	.word	0x00000000
    b4f0:	53c00705 	.word	0x53c00705
    b4f4:	00000000 	.word	0x00000000
    b4f8:	53e00705 	.word	0x53e00705
    b4fc:	00000000 	.word	0x00000000
    b500:	54000705 	.word	0x54000705
    b504:	00000000 	.word	0x00000000
    b508:	54200705 	.word	0x54200705
    b50c:	00000000 	.word	0x00000000
    b510:	54400705 	.word	0x54400705
    b514:	00000000 	.word	0x00000000
    b518:	54600705 	.word	0x54600705
    b51c:	00000000 	.word	0x00000000
    b520:	54800705 	.word	0x54800705
    b524:	00000000 	.word	0x00000000
    b528:	54a00705 	.word	0x54a00705
    b52c:	00000000 	.word	0x00000000
    b530:	54c00705 	.word	0x54c00705
    b534:	00000000 	.word	0x00000000
    b538:	54e00705 	.word	0x54e00705
    b53c:	00000000 	.word	0x00000000
    b540:	55000705 	.word	0x55000705
    b544:	00000000 	.word	0x00000000
    b548:	55200705 	.word	0x55200705
    b54c:	00000000 	.word	0x00000000
    b550:	55400705 	.word	0x55400705
    b554:	00000000 	.word	0x00000000
    b558:	55600705 	.word	0x55600705
    b55c:	00000000 	.word	0x00000000
    b560:	55800705 	.word	0x55800705
    b564:	00000000 	.word	0x00000000
    b568:	55a00705 	.word	0x55a00705
    b56c:	00000000 	.word	0x00000000
    b570:	55c00705 	.word	0x55c00705
    b574:	00000000 	.word	0x00000000
    b578:	55e00705 	.word	0x55e00705
    b57c:	00000000 	.word	0x00000000
    b580:	56000705 	.word	0x56000705
    b584:	00000000 	.word	0x00000000
    b588:	56200705 	.word	0x56200705
    b58c:	00000000 	.word	0x00000000
    b590:	56400705 	.word	0x56400705
    b594:	00000000 	.word	0x00000000
    b598:	56600705 	.word	0x56600705
    b59c:	00000000 	.word	0x00000000
    b5a0:	56800705 	.word	0x56800705
    b5a4:	00000000 	.word	0x00000000
    b5a8:	56a00705 	.word	0x56a00705
    b5ac:	00000000 	.word	0x00000000
    b5b0:	56c00705 	.word	0x56c00705
    b5b4:	00000000 	.word	0x00000000
    b5b8:	56e00705 	.word	0x56e00705
    b5bc:	00000000 	.word	0x00000000
    b5c0:	57000705 	.word	0x57000705
    b5c4:	00000000 	.word	0x00000000
    b5c8:	57200705 	.word	0x57200705
    b5cc:	00000000 	.word	0x00000000
    b5d0:	57400705 	.word	0x57400705
    b5d4:	00000000 	.word	0x00000000
    b5d8:	57600705 	.word	0x57600705
    b5dc:	00000000 	.word	0x00000000
    b5e0:	57800705 	.word	0x57800705
    b5e4:	00000000 	.word	0x00000000
    b5e8:	57a00705 	.word	0x57a00705
    b5ec:	00000000 	.word	0x00000000
    b5f0:	57c00705 	.word	0x57c00705
    b5f4:	00000000 	.word	0x00000000
    b5f8:	57e00705 	.word	0x57e00705
    b5fc:	00000000 	.word	0x00000000
    b600:	58000705 	.word	0x58000705
    b604:	00000000 	.word	0x00000000
    b608:	58200705 	.word	0x58200705
    b60c:	00000000 	.word	0x00000000
    b610:	58400705 	.word	0x58400705
    b614:	00000000 	.word	0x00000000
    b618:	58600705 	.word	0x58600705
    b61c:	00000000 	.word	0x00000000
    b620:	58800705 	.word	0x58800705
    b624:	00000000 	.word	0x00000000
    b628:	58a00705 	.word	0x58a00705
    b62c:	00000000 	.word	0x00000000
    b630:	58c00705 	.word	0x58c00705
    b634:	00000000 	.word	0x00000000
    b638:	58e00705 	.word	0x58e00705
    b63c:	00000000 	.word	0x00000000
    b640:	59000705 	.word	0x59000705
    b644:	00000000 	.word	0x00000000
    b648:	59200705 	.word	0x59200705
    b64c:	00000000 	.word	0x00000000
    b650:	59400705 	.word	0x59400705
    b654:	00000000 	.word	0x00000000
    b658:	59600705 	.word	0x59600705
    b65c:	00000000 	.word	0x00000000
    b660:	59800705 	.word	0x59800705
    b664:	00000000 	.word	0x00000000
    b668:	59a00705 	.word	0x59a00705
    b66c:	00000000 	.word	0x00000000
    b670:	59c00705 	.word	0x59c00705
    b674:	00000000 	.word	0x00000000
    b678:	59e00705 	.word	0x59e00705
    b67c:	00000000 	.word	0x00000000
    b680:	5a000705 	.word	0x5a000705
    b684:	00000000 	.word	0x00000000
    b688:	5a200705 	.word	0x5a200705
    b68c:	00000000 	.word	0x00000000
    b690:	5a400705 	.word	0x5a400705
    b694:	00000000 	.word	0x00000000
    b698:	5a600705 	.word	0x5a600705
    b69c:	00000000 	.word	0x00000000
    b6a0:	5a800705 	.word	0x5a800705
    b6a4:	00000000 	.word	0x00000000
    b6a8:	5aa00705 	.word	0x5aa00705
    b6ac:	00000000 	.word	0x00000000
    b6b0:	5ac00705 	.word	0x5ac00705
    b6b4:	00000000 	.word	0x00000000
    b6b8:	5ae00705 	.word	0x5ae00705
    b6bc:	00000000 	.word	0x00000000
    b6c0:	5b000705 	.word	0x5b000705
    b6c4:	00000000 	.word	0x00000000
    b6c8:	5b200705 	.word	0x5b200705
    b6cc:	00000000 	.word	0x00000000
    b6d0:	5b400705 	.word	0x5b400705
    b6d4:	00000000 	.word	0x00000000
    b6d8:	5b600705 	.word	0x5b600705
    b6dc:	00000000 	.word	0x00000000
    b6e0:	5b800705 	.word	0x5b800705
    b6e4:	00000000 	.word	0x00000000
    b6e8:	5ba00705 	.word	0x5ba00705
    b6ec:	00000000 	.word	0x00000000
    b6f0:	5bc00705 	.word	0x5bc00705
    b6f4:	00000000 	.word	0x00000000
    b6f8:	5be00705 	.word	0x5be00705
    b6fc:	00000000 	.word	0x00000000
    b700:	5c000705 	.word	0x5c000705
    b704:	00000000 	.word	0x00000000
    b708:	5c200705 	.word	0x5c200705
    b70c:	00000000 	.word	0x00000000
    b710:	5c400705 	.word	0x5c400705
    b714:	00000000 	.word	0x00000000
    b718:	5c600705 	.word	0x5c600705
    b71c:	00000000 	.word	0x00000000
    b720:	5c800705 	.word	0x5c800705
    b724:	00000000 	.word	0x00000000
    b728:	5ca00705 	.word	0x5ca00705
    b72c:	00000000 	.word	0x00000000
    b730:	5cc00705 	.word	0x5cc00705
    b734:	00000000 	.word	0x00000000
    b738:	5ce00705 	.word	0x5ce00705
    b73c:	00000000 	.word	0x00000000
    b740:	5d000705 	.word	0x5d000705
    b744:	00000000 	.word	0x00000000
    b748:	5d200705 	.word	0x5d200705
    b74c:	00000000 	.word	0x00000000
    b750:	5d400705 	.word	0x5d400705
    b754:	00000000 	.word	0x00000000
    b758:	5d600705 	.word	0x5d600705
    b75c:	00000000 	.word	0x00000000
    b760:	5d800705 	.word	0x5d800705
    b764:	00000000 	.word	0x00000000
    b768:	5da00705 	.word	0x5da00705
    b76c:	00000000 	.word	0x00000000
    b770:	5dc00705 	.word	0x5dc00705
    b774:	00000000 	.word	0x00000000
    b778:	5de00705 	.word	0x5de00705
    b77c:	00000000 	.word	0x00000000
    b780:	5e000705 	.word	0x5e000705
    b784:	00000000 	.word	0x00000000
    b788:	5e200705 	.word	0x5e200705
    b78c:	00000000 	.word	0x00000000
    b790:	5e400705 	.word	0x5e400705
    b794:	00000000 	.word	0x00000000
    b798:	5e600705 	.word	0x5e600705
    b79c:	00000000 	.word	0x00000000
    b7a0:	5e800705 	.word	0x5e800705
    b7a4:	00000000 	.word	0x00000000
    b7a8:	5ea00705 	.word	0x5ea00705
    b7ac:	00000000 	.word	0x00000000
    b7b0:	5ec00705 	.word	0x5ec00705
    b7b4:	00000000 	.word	0x00000000
    b7b8:	5ee00705 	.word	0x5ee00705
    b7bc:	00000000 	.word	0x00000000
    b7c0:	5f000705 	.word	0x5f000705
    b7c4:	00000000 	.word	0x00000000
    b7c8:	5f200705 	.word	0x5f200705
    b7cc:	00000000 	.word	0x00000000
    b7d0:	5f400705 	.word	0x5f400705
    b7d4:	00000000 	.word	0x00000000
    b7d8:	5f600705 	.word	0x5f600705
    b7dc:	00000000 	.word	0x00000000
    b7e0:	5f800705 	.word	0x5f800705
    b7e4:	00000000 	.word	0x00000000
    b7e8:	5fa00705 	.word	0x5fa00705
    b7ec:	00000000 	.word	0x00000000
    b7f0:	5fc00705 	.word	0x5fc00705
    b7f4:	00000000 	.word	0x00000000
    b7f8:	5fe00705 	.word	0x5fe00705
    b7fc:	00000000 	.word	0x00000000
    b800:	60000705 	.word	0x60000705
    b804:	00000000 	.word	0x00000000
    b808:	60200705 	.word	0x60200705
    b80c:	00000000 	.word	0x00000000
    b810:	60400705 	.word	0x60400705
    b814:	00000000 	.word	0x00000000
    b818:	60600705 	.word	0x60600705
    b81c:	00000000 	.word	0x00000000
    b820:	60800705 	.word	0x60800705
    b824:	00000000 	.word	0x00000000
    b828:	60a00705 	.word	0x60a00705
    b82c:	00000000 	.word	0x00000000
    b830:	60c00705 	.word	0x60c00705
    b834:	00000000 	.word	0x00000000
    b838:	60e00705 	.word	0x60e00705
    b83c:	00000000 	.word	0x00000000
    b840:	61000705 	.word	0x61000705
    b844:	00000000 	.word	0x00000000
    b848:	61200705 	.word	0x61200705
    b84c:	00000000 	.word	0x00000000
    b850:	61400705 	.word	0x61400705
    b854:	00000000 	.word	0x00000000
    b858:	61600705 	.word	0x61600705
    b85c:	00000000 	.word	0x00000000
    b860:	61800705 	.word	0x61800705
    b864:	00000000 	.word	0x00000000
    b868:	61a00705 	.word	0x61a00705
    b86c:	00000000 	.word	0x00000000
    b870:	61c00705 	.word	0x61c00705
    b874:	00000000 	.word	0x00000000
    b878:	61e00705 	.word	0x61e00705
    b87c:	00000000 	.word	0x00000000
    b880:	62000705 	.word	0x62000705
    b884:	00000000 	.word	0x00000000
    b888:	62200705 	.word	0x62200705
    b88c:	00000000 	.word	0x00000000
    b890:	62400705 	.word	0x62400705
    b894:	00000000 	.word	0x00000000
    b898:	62600705 	.word	0x62600705
    b89c:	00000000 	.word	0x00000000
    b8a0:	62800705 	.word	0x62800705
    b8a4:	00000000 	.word	0x00000000
    b8a8:	62a00705 	.word	0x62a00705
    b8ac:	00000000 	.word	0x00000000
    b8b0:	62c00705 	.word	0x62c00705
    b8b4:	00000000 	.word	0x00000000
    b8b8:	62e00705 	.word	0x62e00705
    b8bc:	00000000 	.word	0x00000000
    b8c0:	63000705 	.word	0x63000705
    b8c4:	00000000 	.word	0x00000000
    b8c8:	63200705 	.word	0x63200705
    b8cc:	00000000 	.word	0x00000000
    b8d0:	63400705 	.word	0x63400705
    b8d4:	00000000 	.word	0x00000000
    b8d8:	63600705 	.word	0x63600705
    b8dc:	00000000 	.word	0x00000000
    b8e0:	63800705 	.word	0x63800705
    b8e4:	00000000 	.word	0x00000000
    b8e8:	63a00705 	.word	0x63a00705
    b8ec:	00000000 	.word	0x00000000
    b8f0:	63c00705 	.word	0x63c00705
    b8f4:	00000000 	.word	0x00000000
    b8f8:	63e00705 	.word	0x63e00705
    b8fc:	00000000 	.word	0x00000000
    b900:	64000705 	.word	0x64000705
    b904:	00000000 	.word	0x00000000
    b908:	64200705 	.word	0x64200705
    b90c:	00000000 	.word	0x00000000
    b910:	64400705 	.word	0x64400705
    b914:	00000000 	.word	0x00000000
    b918:	64600705 	.word	0x64600705
    b91c:	00000000 	.word	0x00000000
    b920:	64800705 	.word	0x64800705
    b924:	00000000 	.word	0x00000000
    b928:	64a00705 	.word	0x64a00705
    b92c:	00000000 	.word	0x00000000
    b930:	64c00705 	.word	0x64c00705
    b934:	00000000 	.word	0x00000000
    b938:	64e00705 	.word	0x64e00705
    b93c:	00000000 	.word	0x00000000
    b940:	65000705 	.word	0x65000705
    b944:	00000000 	.word	0x00000000
    b948:	65200705 	.word	0x65200705
    b94c:	00000000 	.word	0x00000000
    b950:	65400705 	.word	0x65400705
    b954:	00000000 	.word	0x00000000
    b958:	65600705 	.word	0x65600705
    b95c:	00000000 	.word	0x00000000
    b960:	65800705 	.word	0x65800705
    b964:	00000000 	.word	0x00000000
    b968:	65a00705 	.word	0x65a00705
    b96c:	00000000 	.word	0x00000000
    b970:	65c00705 	.word	0x65c00705
    b974:	00000000 	.word	0x00000000
    b978:	65e00705 	.word	0x65e00705
    b97c:	00000000 	.word	0x00000000
    b980:	66000705 	.word	0x66000705
    b984:	00000000 	.word	0x00000000
    b988:	66200705 	.word	0x66200705
    b98c:	00000000 	.word	0x00000000
    b990:	66400705 	.word	0x66400705
    b994:	00000000 	.word	0x00000000
    b998:	66600705 	.word	0x66600705
    b99c:	00000000 	.word	0x00000000
    b9a0:	66800705 	.word	0x66800705
    b9a4:	00000000 	.word	0x00000000
    b9a8:	66a00705 	.word	0x66a00705
    b9ac:	00000000 	.word	0x00000000
    b9b0:	66c00705 	.word	0x66c00705
    b9b4:	00000000 	.word	0x00000000
    b9b8:	66e00705 	.word	0x66e00705
    b9bc:	00000000 	.word	0x00000000
    b9c0:	67000705 	.word	0x67000705
    b9c4:	00000000 	.word	0x00000000
    b9c8:	67200705 	.word	0x67200705
    b9cc:	00000000 	.word	0x00000000
    b9d0:	67400705 	.word	0x67400705
    b9d4:	00000000 	.word	0x00000000
    b9d8:	67600705 	.word	0x67600705
    b9dc:	00000000 	.word	0x00000000
    b9e0:	67800705 	.word	0x67800705
    b9e4:	00000000 	.word	0x00000000
    b9e8:	67a00705 	.word	0x67a00705
    b9ec:	00000000 	.word	0x00000000
    b9f0:	67c00705 	.word	0x67c00705
    b9f4:	00000000 	.word	0x00000000
    b9f8:	67e00705 	.word	0x67e00705
    b9fc:	00000000 	.word	0x00000000
    ba00:	68000705 	.word	0x68000705
    ba04:	00000000 	.word	0x00000000
    ba08:	68200705 	.word	0x68200705
    ba0c:	00000000 	.word	0x00000000
    ba10:	68400705 	.word	0x68400705
    ba14:	00000000 	.word	0x00000000
    ba18:	68600705 	.word	0x68600705
    ba1c:	00000000 	.word	0x00000000
    ba20:	68800705 	.word	0x68800705
    ba24:	00000000 	.word	0x00000000
    ba28:	68a00705 	.word	0x68a00705
    ba2c:	00000000 	.word	0x00000000
    ba30:	68c00705 	.word	0x68c00705
    ba34:	00000000 	.word	0x00000000
    ba38:	68e00705 	.word	0x68e00705
    ba3c:	00000000 	.word	0x00000000
    ba40:	69000705 	.word	0x69000705
    ba44:	00000000 	.word	0x00000000
    ba48:	69200705 	.word	0x69200705
    ba4c:	00000000 	.word	0x00000000
    ba50:	69400705 	.word	0x69400705
    ba54:	00000000 	.word	0x00000000
    ba58:	69600705 	.word	0x69600705
    ba5c:	00000000 	.word	0x00000000
    ba60:	69800705 	.word	0x69800705
    ba64:	00000000 	.word	0x00000000
    ba68:	69a00705 	.word	0x69a00705
    ba6c:	00000000 	.word	0x00000000
    ba70:	69c00705 	.word	0x69c00705
    ba74:	00000000 	.word	0x00000000
    ba78:	69e00705 	.word	0x69e00705
    ba7c:	00000000 	.word	0x00000000
    ba80:	6a000705 	.word	0x6a000705
    ba84:	00000000 	.word	0x00000000
    ba88:	6a200705 	.word	0x6a200705
    ba8c:	00000000 	.word	0x00000000
    ba90:	6a400705 	.word	0x6a400705
    ba94:	00000000 	.word	0x00000000
    ba98:	6a600705 	.word	0x6a600705
    ba9c:	00000000 	.word	0x00000000
    baa0:	6a800705 	.word	0x6a800705
    baa4:	00000000 	.word	0x00000000
    baa8:	6aa00705 	.word	0x6aa00705
    baac:	00000000 	.word	0x00000000
    bab0:	6ac00705 	.word	0x6ac00705
    bab4:	00000000 	.word	0x00000000
    bab8:	6ae00705 	.word	0x6ae00705
    babc:	00000000 	.word	0x00000000
    bac0:	6b000705 	.word	0x6b000705
    bac4:	00000000 	.word	0x00000000
    bac8:	6b200705 	.word	0x6b200705
    bacc:	00000000 	.word	0x00000000
    bad0:	6b400705 	.word	0x6b400705
    bad4:	00000000 	.word	0x00000000
    bad8:	6b600705 	.word	0x6b600705
    badc:	00000000 	.word	0x00000000
    bae0:	6b800705 	.word	0x6b800705
    bae4:	00000000 	.word	0x00000000
    bae8:	6ba00705 	.word	0x6ba00705
    baec:	00000000 	.word	0x00000000
    baf0:	6bc00705 	.word	0x6bc00705
    baf4:	00000000 	.word	0x00000000
    baf8:	6be00705 	.word	0x6be00705
    bafc:	00000000 	.word	0x00000000
    bb00:	6c000705 	.word	0x6c000705
    bb04:	00000000 	.word	0x00000000
    bb08:	6c200705 	.word	0x6c200705
    bb0c:	00000000 	.word	0x00000000
    bb10:	6c400705 	.word	0x6c400705
    bb14:	00000000 	.word	0x00000000
    bb18:	6c600705 	.word	0x6c600705
    bb1c:	00000000 	.word	0x00000000
    bb20:	6c800705 	.word	0x6c800705
    bb24:	00000000 	.word	0x00000000
    bb28:	6ca00705 	.word	0x6ca00705
    bb2c:	00000000 	.word	0x00000000
    bb30:	6cc00705 	.word	0x6cc00705
    bb34:	00000000 	.word	0x00000000
    bb38:	6ce00705 	.word	0x6ce00705
    bb3c:	00000000 	.word	0x00000000
    bb40:	6d000705 	.word	0x6d000705
    bb44:	00000000 	.word	0x00000000
    bb48:	6d200705 	.word	0x6d200705
    bb4c:	00000000 	.word	0x00000000
    bb50:	6d400705 	.word	0x6d400705
    bb54:	00000000 	.word	0x00000000
    bb58:	6d600705 	.word	0x6d600705
    bb5c:	00000000 	.word	0x00000000
    bb60:	6d800705 	.word	0x6d800705
    bb64:	00000000 	.word	0x00000000
    bb68:	6da00705 	.word	0x6da00705
    bb6c:	00000000 	.word	0x00000000
    bb70:	6dc00705 	.word	0x6dc00705
    bb74:	00000000 	.word	0x00000000
    bb78:	6de00705 	.word	0x6de00705
    bb7c:	00000000 	.word	0x00000000
    bb80:	6e000705 	.word	0x6e000705
    bb84:	00000000 	.word	0x00000000
    bb88:	6e200705 	.word	0x6e200705
    bb8c:	00000000 	.word	0x00000000
    bb90:	6e400705 	.word	0x6e400705
    bb94:	00000000 	.word	0x00000000
    bb98:	6e600705 	.word	0x6e600705
    bb9c:	00000000 	.word	0x00000000
    bba0:	6e800705 	.word	0x6e800705
    bba4:	00000000 	.word	0x00000000
    bba8:	6ea00705 	.word	0x6ea00705
    bbac:	00000000 	.word	0x00000000
    bbb0:	6ec00705 	.word	0x6ec00705
    bbb4:	00000000 	.word	0x00000000
    bbb8:	6ee00705 	.word	0x6ee00705
    bbbc:	00000000 	.word	0x00000000
    bbc0:	6f000705 	.word	0x6f000705
    bbc4:	00000000 	.word	0x00000000
    bbc8:	6f200705 	.word	0x6f200705
    bbcc:	00000000 	.word	0x00000000
    bbd0:	6f400705 	.word	0x6f400705
    bbd4:	00000000 	.word	0x00000000
    bbd8:	6f600705 	.word	0x6f600705
    bbdc:	00000000 	.word	0x00000000
    bbe0:	6f800705 	.word	0x6f800705
    bbe4:	00000000 	.word	0x00000000
    bbe8:	6fa00705 	.word	0x6fa00705
    bbec:	00000000 	.word	0x00000000
    bbf0:	6fc00705 	.word	0x6fc00705
    bbf4:	00000000 	.word	0x00000000
    bbf8:	6fe00705 	.word	0x6fe00705
    bbfc:	00000000 	.word	0x00000000
    bc00:	70000705 	.word	0x70000705
    bc04:	00000000 	.word	0x00000000
    bc08:	70200705 	.word	0x70200705
    bc0c:	00000000 	.word	0x00000000
    bc10:	70400705 	.word	0x70400705
    bc14:	00000000 	.word	0x00000000
    bc18:	70600705 	.word	0x70600705
    bc1c:	00000000 	.word	0x00000000
    bc20:	70800705 	.word	0x70800705
    bc24:	00000000 	.word	0x00000000
    bc28:	70a00705 	.word	0x70a00705
    bc2c:	00000000 	.word	0x00000000
    bc30:	70c00705 	.word	0x70c00705
    bc34:	00000000 	.word	0x00000000
    bc38:	70e00705 	.word	0x70e00705
    bc3c:	00000000 	.word	0x00000000
    bc40:	71000705 	.word	0x71000705
    bc44:	00000000 	.word	0x00000000
    bc48:	71200705 	.word	0x71200705
    bc4c:	00000000 	.word	0x00000000
    bc50:	71400705 	.word	0x71400705
    bc54:	00000000 	.word	0x00000000
    bc58:	71600705 	.word	0x71600705
    bc5c:	00000000 	.word	0x00000000
    bc60:	71800705 	.word	0x71800705
    bc64:	00000000 	.word	0x00000000
    bc68:	71a00705 	.word	0x71a00705
    bc6c:	00000000 	.word	0x00000000
    bc70:	71c00705 	.word	0x71c00705
    bc74:	00000000 	.word	0x00000000
    bc78:	71e00705 	.word	0x71e00705
    bc7c:	00000000 	.word	0x00000000
    bc80:	72000705 	.word	0x72000705
    bc84:	00000000 	.word	0x00000000
    bc88:	72200705 	.word	0x72200705
    bc8c:	00000000 	.word	0x00000000
    bc90:	72400705 	.word	0x72400705
    bc94:	00000000 	.word	0x00000000
    bc98:	72600705 	.word	0x72600705
    bc9c:	00000000 	.word	0x00000000
    bca0:	72800705 	.word	0x72800705
    bca4:	00000000 	.word	0x00000000
    bca8:	72a00705 	.word	0x72a00705
    bcac:	00000000 	.word	0x00000000
    bcb0:	72c00705 	.word	0x72c00705
    bcb4:	00000000 	.word	0x00000000
    bcb8:	72e00705 	.word	0x72e00705
    bcbc:	00000000 	.word	0x00000000
    bcc0:	73000705 	.word	0x73000705
    bcc4:	00000000 	.word	0x00000000
    bcc8:	73200705 	.word	0x73200705
    bccc:	00000000 	.word	0x00000000
    bcd0:	73400705 	.word	0x73400705
    bcd4:	00000000 	.word	0x00000000
    bcd8:	73600705 	.word	0x73600705
    bcdc:	00000000 	.word	0x00000000
    bce0:	73800705 	.word	0x73800705
    bce4:	00000000 	.word	0x00000000
    bce8:	73a00705 	.word	0x73a00705
    bcec:	00000000 	.word	0x00000000
    bcf0:	73c00705 	.word	0x73c00705
    bcf4:	00000000 	.word	0x00000000
    bcf8:	73e00705 	.word	0x73e00705
    bcfc:	00000000 	.word	0x00000000
    bd00:	74000705 	.word	0x74000705
    bd04:	00000000 	.word	0x00000000
    bd08:	74200705 	.word	0x74200705
    bd0c:	00000000 	.word	0x00000000
    bd10:	74400705 	.word	0x74400705
    bd14:	00000000 	.word	0x00000000
    bd18:	74600705 	.word	0x74600705
    bd1c:	00000000 	.word	0x00000000
    bd20:	74800705 	.word	0x74800705
    bd24:	00000000 	.word	0x00000000
    bd28:	74a00705 	.word	0x74a00705
    bd2c:	00000000 	.word	0x00000000
    bd30:	74c00705 	.word	0x74c00705
    bd34:	00000000 	.word	0x00000000
    bd38:	74e00705 	.word	0x74e00705
    bd3c:	00000000 	.word	0x00000000
    bd40:	75000705 	.word	0x75000705
    bd44:	00000000 	.word	0x00000000
    bd48:	75200705 	.word	0x75200705
    bd4c:	00000000 	.word	0x00000000
    bd50:	75400705 	.word	0x75400705
    bd54:	00000000 	.word	0x00000000
    bd58:	75600705 	.word	0x75600705
    bd5c:	00000000 	.word	0x00000000
    bd60:	75800705 	.word	0x75800705
    bd64:	00000000 	.word	0x00000000
    bd68:	75a00705 	.word	0x75a00705
    bd6c:	00000000 	.word	0x00000000
    bd70:	75c00705 	.word	0x75c00705
    bd74:	00000000 	.word	0x00000000
    bd78:	75e00705 	.word	0x75e00705
    bd7c:	00000000 	.word	0x00000000
    bd80:	76000705 	.word	0x76000705
    bd84:	00000000 	.word	0x00000000
    bd88:	76200705 	.word	0x76200705
    bd8c:	00000000 	.word	0x00000000
    bd90:	76400705 	.word	0x76400705
    bd94:	00000000 	.word	0x00000000
    bd98:	76600705 	.word	0x76600705
    bd9c:	00000000 	.word	0x00000000
    bda0:	76800705 	.word	0x76800705
    bda4:	00000000 	.word	0x00000000
    bda8:	76a00705 	.word	0x76a00705
    bdac:	00000000 	.word	0x00000000
    bdb0:	76c00705 	.word	0x76c00705
    bdb4:	00000000 	.word	0x00000000
    bdb8:	76e00705 	.word	0x76e00705
    bdbc:	00000000 	.word	0x00000000
    bdc0:	77000705 	.word	0x77000705
    bdc4:	00000000 	.word	0x00000000
    bdc8:	77200705 	.word	0x77200705
    bdcc:	00000000 	.word	0x00000000
    bdd0:	77400705 	.word	0x77400705
    bdd4:	00000000 	.word	0x00000000
    bdd8:	77600705 	.word	0x77600705
    bddc:	00000000 	.word	0x00000000
    bde0:	77800705 	.word	0x77800705
    bde4:	00000000 	.word	0x00000000
    bde8:	77a00705 	.word	0x77a00705
    bdec:	00000000 	.word	0x00000000
    bdf0:	77c00705 	.word	0x77c00705
    bdf4:	00000000 	.word	0x00000000
    bdf8:	77e00705 	.word	0x77e00705
    bdfc:	00000000 	.word	0x00000000
    be00:	78000705 	.word	0x78000705
    be04:	00000000 	.word	0x00000000
    be08:	78200705 	.word	0x78200705
    be0c:	00000000 	.word	0x00000000
    be10:	78400705 	.word	0x78400705
    be14:	00000000 	.word	0x00000000
    be18:	78600705 	.word	0x78600705
    be1c:	00000000 	.word	0x00000000
    be20:	78800705 	.word	0x78800705
    be24:	00000000 	.word	0x00000000
    be28:	78a00705 	.word	0x78a00705
    be2c:	00000000 	.word	0x00000000
    be30:	78c00705 	.word	0x78c00705
    be34:	00000000 	.word	0x00000000
    be38:	78e00705 	.word	0x78e00705
    be3c:	00000000 	.word	0x00000000
    be40:	79000705 	.word	0x79000705
    be44:	00000000 	.word	0x00000000
    be48:	79200705 	.word	0x79200705
    be4c:	00000000 	.word	0x00000000
    be50:	79400705 	.word	0x79400705
    be54:	00000000 	.word	0x00000000
    be58:	79600705 	.word	0x79600705
    be5c:	00000000 	.word	0x00000000
    be60:	79800705 	.word	0x79800705
    be64:	00000000 	.word	0x00000000
    be68:	79a00705 	.word	0x79a00705
    be6c:	00000000 	.word	0x00000000
    be70:	79c00705 	.word	0x79c00705
    be74:	00000000 	.word	0x00000000
    be78:	79e00705 	.word	0x79e00705
    be7c:	00000000 	.word	0x00000000
    be80:	7a000705 	.word	0x7a000705
    be84:	00000000 	.word	0x00000000
    be88:	7a200705 	.word	0x7a200705
    be8c:	00000000 	.word	0x00000000
    be90:	7a400705 	.word	0x7a400705
    be94:	00000000 	.word	0x00000000
    be98:	7a600705 	.word	0x7a600705
    be9c:	00000000 	.word	0x00000000
    bea0:	7a800705 	.word	0x7a800705
    bea4:	00000000 	.word	0x00000000
    bea8:	7aa00705 	.word	0x7aa00705
    beac:	00000000 	.word	0x00000000
    beb0:	7ac00705 	.word	0x7ac00705
    beb4:	00000000 	.word	0x00000000
    beb8:	7ae00705 	.word	0x7ae00705
    bebc:	00000000 	.word	0x00000000
    bec0:	7b000705 	.word	0x7b000705
    bec4:	00000000 	.word	0x00000000
    bec8:	7b200705 	.word	0x7b200705
    becc:	00000000 	.word	0x00000000
    bed0:	7b400705 	.word	0x7b400705
    bed4:	00000000 	.word	0x00000000
    bed8:	7b600705 	.word	0x7b600705
    bedc:	00000000 	.word	0x00000000
    bee0:	7b800705 	.word	0x7b800705
    bee4:	00000000 	.word	0x00000000
    bee8:	7ba00705 	.word	0x7ba00705
    beec:	00000000 	.word	0x00000000
    bef0:	7bc00705 	.word	0x7bc00705
    bef4:	00000000 	.word	0x00000000
    bef8:	7be00705 	.word	0x7be00705
    befc:	00000000 	.word	0x00000000
    bf00:	7c000705 	.word	0x7c000705
    bf04:	00000000 	.word	0x00000000
    bf08:	7c200705 	.word	0x7c200705
    bf0c:	00000000 	.word	0x00000000
    bf10:	7c400705 	.word	0x7c400705
    bf14:	00000000 	.word	0x00000000
    bf18:	7c600705 	.word	0x7c600705
    bf1c:	00000000 	.word	0x00000000
    bf20:	7c800705 	.word	0x7c800705
    bf24:	00000000 	.word	0x00000000
    bf28:	7ca00705 	.word	0x7ca00705
    bf2c:	00000000 	.word	0x00000000
    bf30:	7cc00705 	.word	0x7cc00705
    bf34:	00000000 	.word	0x00000000
    bf38:	7ce00705 	.word	0x7ce00705
    bf3c:	00000000 	.word	0x00000000
    bf40:	7d000705 	.word	0x7d000705
    bf44:	00000000 	.word	0x00000000
    bf48:	7d200705 	.word	0x7d200705
    bf4c:	00000000 	.word	0x00000000
    bf50:	7d400705 	.word	0x7d400705
    bf54:	00000000 	.word	0x00000000
    bf58:	7d600705 	.word	0x7d600705
    bf5c:	00000000 	.word	0x00000000
    bf60:	7d800705 	.word	0x7d800705
    bf64:	00000000 	.word	0x00000000
    bf68:	7da00705 	.word	0x7da00705
    bf6c:	00000000 	.word	0x00000000
    bf70:	7dc00705 	.word	0x7dc00705
    bf74:	00000000 	.word	0x00000000
    bf78:	7de00705 	.word	0x7de00705
    bf7c:	00000000 	.word	0x00000000
    bf80:	7e000705 	.word	0x7e000705
    bf84:	00000000 	.word	0x00000000
    bf88:	7e200705 	.word	0x7e200705
    bf8c:	00000000 	.word	0x00000000
    bf90:	7e400705 	.word	0x7e400705
    bf94:	00000000 	.word	0x00000000
    bf98:	7e600705 	.word	0x7e600705
    bf9c:	00000000 	.word	0x00000000
    bfa0:	7e800705 	.word	0x7e800705
    bfa4:	00000000 	.word	0x00000000
    bfa8:	7ea00705 	.word	0x7ea00705
    bfac:	00000000 	.word	0x00000000
    bfb0:	7ec00705 	.word	0x7ec00705
    bfb4:	00000000 	.word	0x00000000
    bfb8:	7ee00705 	.word	0x7ee00705
    bfbc:	00000000 	.word	0x00000000
    bfc0:	7f000705 	.word	0x7f000705
    bfc4:	00000000 	.word	0x00000000
    bfc8:	7f200705 	.word	0x7f200705
    bfcc:	00000000 	.word	0x00000000
    bfd0:	7f400705 	.word	0x7f400705
    bfd4:	00000000 	.word	0x00000000
    bfd8:	7f600705 	.word	0x7f600705
    bfdc:	00000000 	.word	0x00000000
    bfe0:	7f800705 	.word	0x7f800705
    bfe4:	00000000 	.word	0x00000000
    bfe8:	7fa00705 	.word	0x7fa00705
    bfec:	00000000 	.word	0x00000000
    bff0:	7fc00705 	.word	0x7fc00705
    bff4:	00000000 	.word	0x00000000
    bff8:	7fe00705 	.word	0x7fe00705
    bffc:	00000000 	.word	0x00000000
    c000:	80000409 	.word	0x80000409
    c004:	00600000 	.word	0x00600000
    c008:	80200409 	.word	0x80200409
    c00c:	00600000 	.word	0x00600000
    c010:	80400409 	.word	0x80400409
    c014:	00600000 	.word	0x00600000
    c018:	80600409 	.word	0x80600409
    c01c:	00600000 	.word	0x00600000
    c020:	80800409 	.word	0x80800409
    c024:	00600000 	.word	0x00600000
    c028:	80a00409 	.word	0x80a00409
    c02c:	00600000 	.word	0x00600000
    c030:	80c00409 	.word	0x80c00409
    c034:	00600000 	.word	0x00600000
    c038:	80e00409 	.word	0x80e00409
    c03c:	00600000 	.word	0x00600000
    c040:	81000409 	.word	0x81000409
    c044:	00600000 	.word	0x00600000
    c048:	81200409 	.word	0x81200409
    c04c:	00600000 	.word	0x00600000
    c050:	81400409 	.word	0x81400409
    c054:	00600000 	.word	0x00600000
    c058:	81600409 	.word	0x81600409
    c05c:	00600000 	.word	0x00600000
    c060:	81800409 	.word	0x81800409
    c064:	00600000 	.word	0x00600000
    c068:	81a00409 	.word	0x81a00409
    c06c:	00600000 	.word	0x00600000
    c070:	81c00409 	.word	0x81c00409
    c074:	00600000 	.word	0x00600000
    c078:	81e00409 	.word	0x81e00409
    c07c:	00600000 	.word	0x00600000
    c080:	82000409 	.word	0x82000409
    c084:	00600000 	.word	0x00600000
    c088:	82200409 	.word	0x82200409
    c08c:	00600000 	.word	0x00600000
    c090:	82400409 	.word	0x82400409
    c094:	00600000 	.word	0x00600000
    c098:	82600409 	.word	0x82600409
    c09c:	00600000 	.word	0x00600000
    c0a0:	82800409 	.word	0x82800409
    c0a4:	00600000 	.word	0x00600000
    c0a8:	82a00409 	.word	0x82a00409
    c0ac:	00600000 	.word	0x00600000
    c0b0:	82c00409 	.word	0x82c00409
    c0b4:	00600000 	.word	0x00600000
    c0b8:	82e00409 	.word	0x82e00409
    c0bc:	00600000 	.word	0x00600000
    c0c0:	83000409 	.word	0x83000409
    c0c4:	00600000 	.word	0x00600000
    c0c8:	83200409 	.word	0x83200409
    c0cc:	00600000 	.word	0x00600000
    c0d0:	83400409 	.word	0x83400409
    c0d4:	00600000 	.word	0x00600000
    c0d8:	83600409 	.word	0x83600409
    c0dc:	00600000 	.word	0x00600000
    c0e0:	83800409 	.word	0x83800409
    c0e4:	00600000 	.word	0x00600000
    c0e8:	83a00409 	.word	0x83a00409
    c0ec:	00600000 	.word	0x00600000
    c0f0:	83c00409 	.word	0x83c00409
    c0f4:	00600000 	.word	0x00600000
    c0f8:	83e00409 	.word	0x83e00409
    c0fc:	00600000 	.word	0x00600000
    c100:	84000409 	.word	0x84000409
    c104:	00600000 	.word	0x00600000
    c108:	84200409 	.word	0x84200409
    c10c:	00600000 	.word	0x00600000
    c110:	84400409 	.word	0x84400409
    c114:	00600000 	.word	0x00600000
    c118:	84600409 	.word	0x84600409
    c11c:	00600000 	.word	0x00600000
    c120:	84800409 	.word	0x84800409
    c124:	00600000 	.word	0x00600000
    c128:	84a00409 	.word	0x84a00409
    c12c:	00600000 	.word	0x00600000
    c130:	84c00409 	.word	0x84c00409
    c134:	00600000 	.word	0x00600000
    c138:	84e00409 	.word	0x84e00409
    c13c:	00600000 	.word	0x00600000
    c140:	85000409 	.word	0x85000409
    c144:	00600000 	.word	0x00600000
    c148:	85200409 	.word	0x85200409
    c14c:	00600000 	.word	0x00600000
    c150:	85400409 	.word	0x85400409
    c154:	00600000 	.word	0x00600000
    c158:	85600409 	.word	0x85600409
    c15c:	00600000 	.word	0x00600000
    c160:	85800409 	.word	0x85800409
    c164:	00600000 	.word	0x00600000
    c168:	85a00409 	.word	0x85a00409
    c16c:	00600000 	.word	0x00600000
    c170:	85c00409 	.word	0x85c00409
    c174:	00600000 	.word	0x00600000
    c178:	85e00409 	.word	0x85e00409
    c17c:	00600000 	.word	0x00600000
    c180:	86000409 	.word	0x86000409
    c184:	00600000 	.word	0x00600000
    c188:	86200409 	.word	0x86200409
    c18c:	00600000 	.word	0x00600000
    c190:	86400409 	.word	0x86400409
    c194:	00600000 	.word	0x00600000
    c198:	86600409 	.word	0x86600409
    c19c:	00600000 	.word	0x00600000
    c1a0:	86800409 	.word	0x86800409
    c1a4:	00600000 	.word	0x00600000
    c1a8:	86a00409 	.word	0x86a00409
    c1ac:	00600000 	.word	0x00600000
    c1b0:	86c00409 	.word	0x86c00409
    c1b4:	00600000 	.word	0x00600000
    c1b8:	86e00409 	.word	0x86e00409
    c1bc:	00600000 	.word	0x00600000
    c1c0:	87000409 	.word	0x87000409
    c1c4:	00600000 	.word	0x00600000
    c1c8:	87200409 	.word	0x87200409
    c1cc:	00600000 	.word	0x00600000
    c1d0:	87400409 	.word	0x87400409
    c1d4:	00600000 	.word	0x00600000
    c1d8:	87600409 	.word	0x87600409
    c1dc:	00600000 	.word	0x00600000
    c1e0:	87800409 	.word	0x87800409
    c1e4:	00600000 	.word	0x00600000
    c1e8:	87a00409 	.word	0x87a00409
    c1ec:	00600000 	.word	0x00600000
    c1f0:	87c00409 	.word	0x87c00409
    c1f4:	00600000 	.word	0x00600000
    c1f8:	87e00409 	.word	0x87e00409
    c1fc:	00600000 	.word	0x00600000
    c200:	88000409 	.word	0x88000409
    c204:	00600000 	.word	0x00600000
    c208:	88200409 	.word	0x88200409
    c20c:	00600000 	.word	0x00600000
    c210:	88400409 	.word	0x88400409
    c214:	00600000 	.word	0x00600000
    c218:	88600409 	.word	0x88600409
    c21c:	00600000 	.word	0x00600000
    c220:	88800409 	.word	0x88800409
    c224:	00600000 	.word	0x00600000
    c228:	88a00409 	.word	0x88a00409
    c22c:	00600000 	.word	0x00600000
    c230:	88c00409 	.word	0x88c00409
    c234:	00600000 	.word	0x00600000
    c238:	88e00409 	.word	0x88e00409
    c23c:	00600000 	.word	0x00600000
    c240:	89000409 	.word	0x89000409
    c244:	00600000 	.word	0x00600000
    c248:	89200409 	.word	0x89200409
    c24c:	00600000 	.word	0x00600000
    c250:	89400409 	.word	0x89400409
    c254:	00600000 	.word	0x00600000
    c258:	89600409 	.word	0x89600409
    c25c:	00600000 	.word	0x00600000
    c260:	89800409 	.word	0x89800409
    c264:	00600000 	.word	0x00600000
    c268:	89a00409 	.word	0x89a00409
    c26c:	00600000 	.word	0x00600000
    c270:	89c00409 	.word	0x89c00409
    c274:	00600000 	.word	0x00600000
    c278:	89e00409 	.word	0x89e00409
    c27c:	00600000 	.word	0x00600000
    c280:	8a000409 	.word	0x8a000409
    c284:	00600000 	.word	0x00600000
    c288:	8a200409 	.word	0x8a200409
    c28c:	00600000 	.word	0x00600000
    c290:	8a400409 	.word	0x8a400409
    c294:	00600000 	.word	0x00600000
    c298:	8a600409 	.word	0x8a600409
    c29c:	00600000 	.word	0x00600000
    c2a0:	8a800409 	.word	0x8a800409
    c2a4:	00600000 	.word	0x00600000
    c2a8:	8aa00409 	.word	0x8aa00409
    c2ac:	00600000 	.word	0x00600000
    c2b0:	8ac00409 	.word	0x8ac00409
    c2b4:	00600000 	.word	0x00600000
    c2b8:	8ae00409 	.word	0x8ae00409
    c2bc:	00600000 	.word	0x00600000
    c2c0:	8b000409 	.word	0x8b000409
    c2c4:	00600000 	.word	0x00600000
    c2c8:	8b200409 	.word	0x8b200409
    c2cc:	00600000 	.word	0x00600000
    c2d0:	8b400409 	.word	0x8b400409
    c2d4:	00600000 	.word	0x00600000
    c2d8:	8b600409 	.word	0x8b600409
    c2dc:	00600000 	.word	0x00600000
    c2e0:	8b800409 	.word	0x8b800409
    c2e4:	00600000 	.word	0x00600000
    c2e8:	8ba00409 	.word	0x8ba00409
    c2ec:	00600000 	.word	0x00600000
    c2f0:	8bc00409 	.word	0x8bc00409
    c2f4:	00600000 	.word	0x00600000
    c2f8:	8be00409 	.word	0x8be00409
    c2fc:	00600000 	.word	0x00600000
    c300:	8c000409 	.word	0x8c000409
    c304:	00600000 	.word	0x00600000
    c308:	8c200409 	.word	0x8c200409
    c30c:	00600000 	.word	0x00600000
    c310:	8c400409 	.word	0x8c400409
    c314:	00600000 	.word	0x00600000
    c318:	8c600409 	.word	0x8c600409
    c31c:	00600000 	.word	0x00600000
    c320:	8c800409 	.word	0x8c800409
    c324:	00600000 	.word	0x00600000
    c328:	8ca00409 	.word	0x8ca00409
    c32c:	00600000 	.word	0x00600000
    c330:	8cc00409 	.word	0x8cc00409
    c334:	00600000 	.word	0x00600000
    c338:	8ce00409 	.word	0x8ce00409
    c33c:	00600000 	.word	0x00600000
    c340:	8d000409 	.word	0x8d000409
    c344:	00600000 	.word	0x00600000
    c348:	8d200409 	.word	0x8d200409
    c34c:	00600000 	.word	0x00600000
    c350:	8d400409 	.word	0x8d400409
    c354:	00600000 	.word	0x00600000
    c358:	8d600409 	.word	0x8d600409
    c35c:	00600000 	.word	0x00600000
    c360:	8d800409 	.word	0x8d800409
    c364:	00600000 	.word	0x00600000
    c368:	8da00409 	.word	0x8da00409
    c36c:	00600000 	.word	0x00600000
    c370:	8dc00409 	.word	0x8dc00409
    c374:	00600000 	.word	0x00600000
    c378:	8de00409 	.word	0x8de00409
    c37c:	00600000 	.word	0x00600000
    c380:	8e000409 	.word	0x8e000409
    c384:	00600000 	.word	0x00600000
    c388:	8e200409 	.word	0x8e200409
    c38c:	00600000 	.word	0x00600000
    c390:	8e400409 	.word	0x8e400409
    c394:	00600000 	.word	0x00600000
    c398:	8e600409 	.word	0x8e600409
    c39c:	00600000 	.word	0x00600000
    c3a0:	8e800409 	.word	0x8e800409
    c3a4:	00600000 	.word	0x00600000
    c3a8:	8ea00409 	.word	0x8ea00409
    c3ac:	00600000 	.word	0x00600000
    c3b0:	8ec00409 	.word	0x8ec00409
    c3b4:	00600000 	.word	0x00600000
    c3b8:	8ee00409 	.word	0x8ee00409
    c3bc:	00600000 	.word	0x00600000
    c3c0:	8f000409 	.word	0x8f000409
    c3c4:	00600000 	.word	0x00600000
    c3c8:	8f200409 	.word	0x8f200409
    c3cc:	00600000 	.word	0x00600000
    c3d0:	8f400409 	.word	0x8f400409
    c3d4:	00600000 	.word	0x00600000
    c3d8:	8f600409 	.word	0x8f600409
    c3dc:	00600000 	.word	0x00600000
    c3e0:	8f800409 	.word	0x8f800409
    c3e4:	00600000 	.word	0x00600000
    c3e8:	8fa00409 	.word	0x8fa00409
    c3ec:	00600000 	.word	0x00600000
    c3f0:	8fc00409 	.word	0x8fc00409
    c3f4:	00600000 	.word	0x00600000
    c3f8:	8fe00409 	.word	0x8fe00409
    c3fc:	00600000 	.word	0x00600000
    c400:	90000409 	.word	0x90000409
    c404:	00600000 	.word	0x00600000
    c408:	90200409 	.word	0x90200409
    c40c:	00600000 	.word	0x00600000
    c410:	90400409 	.word	0x90400409
    c414:	00600000 	.word	0x00600000
    c418:	90600409 	.word	0x90600409
    c41c:	00600000 	.word	0x00600000
    c420:	90800409 	.word	0x90800409
    c424:	00600000 	.word	0x00600000
    c428:	90a00409 	.word	0x90a00409
    c42c:	00600000 	.word	0x00600000
    c430:	90c00409 	.word	0x90c00409
    c434:	00600000 	.word	0x00600000
    c438:	90e00409 	.word	0x90e00409
    c43c:	00600000 	.word	0x00600000
    c440:	91000409 	.word	0x91000409
    c444:	00600000 	.word	0x00600000
    c448:	91200409 	.word	0x91200409
    c44c:	00600000 	.word	0x00600000
    c450:	91400409 	.word	0x91400409
    c454:	00600000 	.word	0x00600000
    c458:	91600409 	.word	0x91600409
    c45c:	00600000 	.word	0x00600000
    c460:	91800409 	.word	0x91800409
    c464:	00600000 	.word	0x00600000
    c468:	91a00409 	.word	0x91a00409
    c46c:	00600000 	.word	0x00600000
    c470:	91c00409 	.word	0x91c00409
    c474:	00600000 	.word	0x00600000
    c478:	91e00409 	.word	0x91e00409
    c47c:	00600000 	.word	0x00600000
    c480:	92000409 	.word	0x92000409
    c484:	00600000 	.word	0x00600000
    c488:	92200409 	.word	0x92200409
    c48c:	00600000 	.word	0x00600000
    c490:	92400409 	.word	0x92400409
    c494:	00600000 	.word	0x00600000
    c498:	92600409 	.word	0x92600409
    c49c:	00600000 	.word	0x00600000
    c4a0:	92800409 	.word	0x92800409
    c4a4:	00600000 	.word	0x00600000
    c4a8:	92a00409 	.word	0x92a00409
    c4ac:	00600000 	.word	0x00600000
    c4b0:	92c00409 	.word	0x92c00409
    c4b4:	00600000 	.word	0x00600000
    c4b8:	92e00409 	.word	0x92e00409
    c4bc:	00600000 	.word	0x00600000
    c4c0:	93000409 	.word	0x93000409
    c4c4:	00600000 	.word	0x00600000
    c4c8:	93200409 	.word	0x93200409
    c4cc:	00600000 	.word	0x00600000
    c4d0:	93400409 	.word	0x93400409
    c4d4:	00600000 	.word	0x00600000
    c4d8:	93600409 	.word	0x93600409
    c4dc:	00600000 	.word	0x00600000
    c4e0:	93800409 	.word	0x93800409
    c4e4:	00600000 	.word	0x00600000
    c4e8:	93a00409 	.word	0x93a00409
    c4ec:	00600000 	.word	0x00600000
    c4f0:	93c00409 	.word	0x93c00409
    c4f4:	00600000 	.word	0x00600000
    c4f8:	93e00409 	.word	0x93e00409
    c4fc:	00600000 	.word	0x00600000
    c500:	94000409 	.word	0x94000409
    c504:	00600000 	.word	0x00600000
    c508:	94200409 	.word	0x94200409
    c50c:	00600000 	.word	0x00600000
    c510:	94400409 	.word	0x94400409
    c514:	00600000 	.word	0x00600000
    c518:	94600409 	.word	0x94600409
    c51c:	00600000 	.word	0x00600000
    c520:	94800409 	.word	0x94800409
    c524:	00600000 	.word	0x00600000
    c528:	94a00409 	.word	0x94a00409
    c52c:	00600000 	.word	0x00600000
    c530:	94c00409 	.word	0x94c00409
    c534:	00600000 	.word	0x00600000
    c538:	94e00409 	.word	0x94e00409
    c53c:	00600000 	.word	0x00600000
    c540:	95000409 	.word	0x95000409
    c544:	00600000 	.word	0x00600000
    c548:	95200409 	.word	0x95200409
    c54c:	00600000 	.word	0x00600000
    c550:	95400409 	.word	0x95400409
    c554:	00600000 	.word	0x00600000
    c558:	95600409 	.word	0x95600409
    c55c:	00600000 	.word	0x00600000
    c560:	95800409 	.word	0x95800409
    c564:	00600000 	.word	0x00600000
    c568:	95a00409 	.word	0x95a00409
    c56c:	00600000 	.word	0x00600000
    c570:	95c00409 	.word	0x95c00409
    c574:	00600000 	.word	0x00600000
    c578:	95e00409 	.word	0x95e00409
    c57c:	00600000 	.word	0x00600000
    c580:	96000409 	.word	0x96000409
    c584:	00600000 	.word	0x00600000
    c588:	96200409 	.word	0x96200409
    c58c:	00600000 	.word	0x00600000
    c590:	96400409 	.word	0x96400409
    c594:	00600000 	.word	0x00600000
    c598:	96600409 	.word	0x96600409
    c59c:	00600000 	.word	0x00600000
    c5a0:	96800409 	.word	0x96800409
    c5a4:	00600000 	.word	0x00600000
    c5a8:	96a00409 	.word	0x96a00409
    c5ac:	00600000 	.word	0x00600000
    c5b0:	96c00409 	.word	0x96c00409
    c5b4:	00600000 	.word	0x00600000
    c5b8:	96e00409 	.word	0x96e00409
    c5bc:	00600000 	.word	0x00600000
    c5c0:	97000409 	.word	0x97000409
    c5c4:	00600000 	.word	0x00600000
    c5c8:	97200409 	.word	0x97200409
    c5cc:	00600000 	.word	0x00600000
    c5d0:	97400409 	.word	0x97400409
    c5d4:	00600000 	.word	0x00600000
    c5d8:	97600409 	.word	0x97600409
    c5dc:	00600000 	.word	0x00600000
    c5e0:	97800409 	.word	0x97800409
    c5e4:	00600000 	.word	0x00600000
    c5e8:	97a00409 	.word	0x97a00409
    c5ec:	00600000 	.word	0x00600000
    c5f0:	97c00409 	.word	0x97c00409
    c5f4:	00600000 	.word	0x00600000
    c5f8:	97e00409 	.word	0x97e00409
    c5fc:	00600000 	.word	0x00600000
    c600:	98000409 	.word	0x98000409
    c604:	00600000 	.word	0x00600000
    c608:	98200409 	.word	0x98200409
    c60c:	00600000 	.word	0x00600000
    c610:	98400409 	.word	0x98400409
    c614:	00600000 	.word	0x00600000
    c618:	98600409 	.word	0x98600409
    c61c:	00600000 	.word	0x00600000
    c620:	98800409 	.word	0x98800409
    c624:	00600000 	.word	0x00600000
    c628:	98a00409 	.word	0x98a00409
    c62c:	00600000 	.word	0x00600000
    c630:	98c00409 	.word	0x98c00409
    c634:	00600000 	.word	0x00600000
    c638:	98e00409 	.word	0x98e00409
    c63c:	00600000 	.word	0x00600000
    c640:	99000409 	.word	0x99000409
    c644:	00600000 	.word	0x00600000
    c648:	99200409 	.word	0x99200409
    c64c:	00600000 	.word	0x00600000
    c650:	99400409 	.word	0x99400409
    c654:	00600000 	.word	0x00600000
    c658:	99600409 	.word	0x99600409
    c65c:	00600000 	.word	0x00600000
    c660:	99800409 	.word	0x99800409
    c664:	00600000 	.word	0x00600000
    c668:	99a00409 	.word	0x99a00409
    c66c:	00600000 	.word	0x00600000
    c670:	99c00409 	.word	0x99c00409
    c674:	00600000 	.word	0x00600000
    c678:	99e00409 	.word	0x99e00409
    c67c:	00600000 	.word	0x00600000
    c680:	9a000409 	.word	0x9a000409
    c684:	00600000 	.word	0x00600000
    c688:	9a200409 	.word	0x9a200409
    c68c:	00600000 	.word	0x00600000
    c690:	9a400409 	.word	0x9a400409
    c694:	00600000 	.word	0x00600000
    c698:	9a600409 	.word	0x9a600409
    c69c:	00600000 	.word	0x00600000
    c6a0:	9a800409 	.word	0x9a800409
    c6a4:	00600000 	.word	0x00600000
    c6a8:	9aa00409 	.word	0x9aa00409
    c6ac:	00600000 	.word	0x00600000
    c6b0:	9ac00409 	.word	0x9ac00409
    c6b4:	00600000 	.word	0x00600000
    c6b8:	9ae00409 	.word	0x9ae00409
    c6bc:	00600000 	.word	0x00600000
    c6c0:	9b000409 	.word	0x9b000409
    c6c4:	00600000 	.word	0x00600000
    c6c8:	9b200409 	.word	0x9b200409
    c6cc:	00600000 	.word	0x00600000
    c6d0:	9b400409 	.word	0x9b400409
    c6d4:	00600000 	.word	0x00600000
    c6d8:	9b600409 	.word	0x9b600409
    c6dc:	00600000 	.word	0x00600000
    c6e0:	9b800409 	.word	0x9b800409
    c6e4:	00600000 	.word	0x00600000
    c6e8:	9ba00409 	.word	0x9ba00409
    c6ec:	00600000 	.word	0x00600000
    c6f0:	9bc00409 	.word	0x9bc00409
    c6f4:	00600000 	.word	0x00600000
    c6f8:	9be00409 	.word	0x9be00409
    c6fc:	00600000 	.word	0x00600000
    c700:	9c000409 	.word	0x9c000409
    c704:	00600000 	.word	0x00600000
    c708:	9c200409 	.word	0x9c200409
    c70c:	00600000 	.word	0x00600000
    c710:	9c400409 	.word	0x9c400409
    c714:	00600000 	.word	0x00600000
    c718:	9c600409 	.word	0x9c600409
    c71c:	00600000 	.word	0x00600000
    c720:	9c800409 	.word	0x9c800409
    c724:	00600000 	.word	0x00600000
    c728:	9ca00409 	.word	0x9ca00409
    c72c:	00600000 	.word	0x00600000
    c730:	9cc00409 	.word	0x9cc00409
    c734:	00600000 	.word	0x00600000
    c738:	9ce00409 	.word	0x9ce00409
    c73c:	00600000 	.word	0x00600000
    c740:	9d000409 	.word	0x9d000409
    c744:	00600000 	.word	0x00600000
    c748:	9d200409 	.word	0x9d200409
    c74c:	00600000 	.word	0x00600000
    c750:	9d400409 	.word	0x9d400409
    c754:	00600000 	.word	0x00600000
    c758:	9d600409 	.word	0x9d600409
    c75c:	00600000 	.word	0x00600000
    c760:	9d800409 	.word	0x9d800409
    c764:	00600000 	.word	0x00600000
    c768:	9da00409 	.word	0x9da00409
    c76c:	00600000 	.word	0x00600000
    c770:	9dc00409 	.word	0x9dc00409
    c774:	00600000 	.word	0x00600000
    c778:	9de00409 	.word	0x9de00409
    c77c:	00600000 	.word	0x00600000
    c780:	9e000409 	.word	0x9e000409
    c784:	00600000 	.word	0x00600000
    c788:	9e200409 	.word	0x9e200409
    c78c:	00600000 	.word	0x00600000
    c790:	9e400409 	.word	0x9e400409
    c794:	00600000 	.word	0x00600000
    c798:	9e600409 	.word	0x9e600409
    c79c:	00600000 	.word	0x00600000
    c7a0:	9e800409 	.word	0x9e800409
    c7a4:	00600000 	.word	0x00600000
    c7a8:	9ea00409 	.word	0x9ea00409
    c7ac:	00600000 	.word	0x00600000
    c7b0:	9ec00409 	.word	0x9ec00409
    c7b4:	00600000 	.word	0x00600000
    c7b8:	9ee00409 	.word	0x9ee00409
    c7bc:	00600000 	.word	0x00600000
    c7c0:	9f000409 	.word	0x9f000409
    c7c4:	00600000 	.word	0x00600000
    c7c8:	9f200409 	.word	0x9f200409
    c7cc:	00600000 	.word	0x00600000
    c7d0:	9f400409 	.word	0x9f400409
    c7d4:	00600000 	.word	0x00600000
    c7d8:	9f600409 	.word	0x9f600409
    c7dc:	00600000 	.word	0x00600000
    c7e0:	9f800409 	.word	0x9f800409
    c7e4:	00600000 	.word	0x00600000
    c7e8:	9fa00409 	.word	0x9fa00409
    c7ec:	00600000 	.word	0x00600000
    c7f0:	9fc00409 	.word	0x9fc00409
    c7f4:	00600000 	.word	0x00600000
    c7f8:	9fe00409 	.word	0x9fe00409
    c7fc:	00600000 	.word	0x00600000
    c800:	a0000409 	.word	0xa0000409
    c804:	00600000 	.word	0x00600000
    c808:	a0200409 	.word	0xa0200409
    c80c:	00600000 	.word	0x00600000
    c810:	a0400409 	.word	0xa0400409
    c814:	00600000 	.word	0x00600000
    c818:	a0600409 	.word	0xa0600409
    c81c:	00600000 	.word	0x00600000
    c820:	a0800409 	.word	0xa0800409
    c824:	00600000 	.word	0x00600000
    c828:	a0a00409 	.word	0xa0a00409
    c82c:	00600000 	.word	0x00600000
    c830:	a0c00409 	.word	0xa0c00409
    c834:	00600000 	.word	0x00600000
    c838:	a0e00409 	.word	0xa0e00409
    c83c:	00600000 	.word	0x00600000
    c840:	a1000409 	.word	0xa1000409
    c844:	00600000 	.word	0x00600000
    c848:	a1200409 	.word	0xa1200409
    c84c:	00600000 	.word	0x00600000
    c850:	a1400409 	.word	0xa1400409
    c854:	00600000 	.word	0x00600000
    c858:	a1600409 	.word	0xa1600409
    c85c:	00600000 	.word	0x00600000
    c860:	a1800409 	.word	0xa1800409
    c864:	00600000 	.word	0x00600000
    c868:	a1a00409 	.word	0xa1a00409
    c86c:	00600000 	.word	0x00600000
    c870:	a1c00409 	.word	0xa1c00409
    c874:	00600000 	.word	0x00600000
    c878:	a1e00409 	.word	0xa1e00409
    c87c:	00600000 	.word	0x00600000
    c880:	a2000409 	.word	0xa2000409
    c884:	00600000 	.word	0x00600000
    c888:	a2200409 	.word	0xa2200409
    c88c:	00600000 	.word	0x00600000
    c890:	a2400409 	.word	0xa2400409
    c894:	00600000 	.word	0x00600000
    c898:	a2600409 	.word	0xa2600409
    c89c:	00600000 	.word	0x00600000
    c8a0:	a2800409 	.word	0xa2800409
    c8a4:	00600000 	.word	0x00600000
    c8a8:	a2a00409 	.word	0xa2a00409
    c8ac:	00600000 	.word	0x00600000
    c8b0:	a2c00409 	.word	0xa2c00409
    c8b4:	00600000 	.word	0x00600000
    c8b8:	a2e00409 	.word	0xa2e00409
    c8bc:	00600000 	.word	0x00600000
    c8c0:	a3000409 	.word	0xa3000409
    c8c4:	00600000 	.word	0x00600000
    c8c8:	a3200409 	.word	0xa3200409
    c8cc:	00600000 	.word	0x00600000
    c8d0:	a3400409 	.word	0xa3400409
    c8d4:	00600000 	.word	0x00600000
    c8d8:	a3600409 	.word	0xa3600409
    c8dc:	00600000 	.word	0x00600000
    c8e0:	a3800409 	.word	0xa3800409
    c8e4:	00600000 	.word	0x00600000
    c8e8:	a3a00409 	.word	0xa3a00409
    c8ec:	00600000 	.word	0x00600000
    c8f0:	a3c00409 	.word	0xa3c00409
    c8f4:	00600000 	.word	0x00600000
    c8f8:	a3e00409 	.word	0xa3e00409
    c8fc:	00600000 	.word	0x00600000
    c900:	a4000409 	.word	0xa4000409
    c904:	00600000 	.word	0x00600000
    c908:	a4200409 	.word	0xa4200409
    c90c:	00600000 	.word	0x00600000
    c910:	a4400409 	.word	0xa4400409
    c914:	00600000 	.word	0x00600000
    c918:	a4600409 	.word	0xa4600409
    c91c:	00600000 	.word	0x00600000
    c920:	a4800409 	.word	0xa4800409
    c924:	00600000 	.word	0x00600000
    c928:	a4a00409 	.word	0xa4a00409
    c92c:	00600000 	.word	0x00600000
    c930:	a4c00409 	.word	0xa4c00409
    c934:	00600000 	.word	0x00600000
    c938:	a4e00409 	.word	0xa4e00409
    c93c:	00600000 	.word	0x00600000
    c940:	a5000409 	.word	0xa5000409
    c944:	00600000 	.word	0x00600000
    c948:	a5200409 	.word	0xa5200409
    c94c:	00600000 	.word	0x00600000
    c950:	a5400409 	.word	0xa5400409
    c954:	00600000 	.word	0x00600000
    c958:	a5600409 	.word	0xa5600409
    c95c:	00600000 	.word	0x00600000
    c960:	a5800409 	.word	0xa5800409
    c964:	00600000 	.word	0x00600000
    c968:	a5a00409 	.word	0xa5a00409
    c96c:	00600000 	.word	0x00600000
    c970:	a5c00409 	.word	0xa5c00409
    c974:	00600000 	.word	0x00600000
    c978:	a5e00409 	.word	0xa5e00409
    c97c:	00600000 	.word	0x00600000
    c980:	a6000409 	.word	0xa6000409
    c984:	00600000 	.word	0x00600000
    c988:	a6200409 	.word	0xa6200409
    c98c:	00600000 	.word	0x00600000
    c990:	a6400409 	.word	0xa6400409
    c994:	00600000 	.word	0x00600000
    c998:	a6600409 	.word	0xa6600409
    c99c:	00600000 	.word	0x00600000
    c9a0:	a6800409 	.word	0xa6800409
    c9a4:	00600000 	.word	0x00600000
    c9a8:	a6a00409 	.word	0xa6a00409
    c9ac:	00600000 	.word	0x00600000
    c9b0:	a6c00409 	.word	0xa6c00409
    c9b4:	00600000 	.word	0x00600000
    c9b8:	a6e00409 	.word	0xa6e00409
    c9bc:	00600000 	.word	0x00600000
    c9c0:	a7000409 	.word	0xa7000409
    c9c4:	00600000 	.word	0x00600000
    c9c8:	a7200409 	.word	0xa7200409
    c9cc:	00600000 	.word	0x00600000
    c9d0:	a7400409 	.word	0xa7400409
    c9d4:	00600000 	.word	0x00600000
    c9d8:	a7600409 	.word	0xa7600409
    c9dc:	00600000 	.word	0x00600000
    c9e0:	a7800409 	.word	0xa7800409
    c9e4:	00600000 	.word	0x00600000
    c9e8:	a7a00409 	.word	0xa7a00409
    c9ec:	00600000 	.word	0x00600000
    c9f0:	a7c00409 	.word	0xa7c00409
    c9f4:	00600000 	.word	0x00600000
    c9f8:	a7e00409 	.word	0xa7e00409
    c9fc:	00600000 	.word	0x00600000
    ca00:	a8000409 	.word	0xa8000409
    ca04:	00600000 	.word	0x00600000
    ca08:	a8200409 	.word	0xa8200409
    ca0c:	00600000 	.word	0x00600000
    ca10:	a8400409 	.word	0xa8400409
    ca14:	00600000 	.word	0x00600000
    ca18:	a8600409 	.word	0xa8600409
    ca1c:	00600000 	.word	0x00600000
    ca20:	a8800409 	.word	0xa8800409
    ca24:	00600000 	.word	0x00600000
    ca28:	a8a00409 	.word	0xa8a00409
    ca2c:	00600000 	.word	0x00600000
    ca30:	a8c00409 	.word	0xa8c00409
    ca34:	00600000 	.word	0x00600000
    ca38:	a8e00409 	.word	0xa8e00409
    ca3c:	00600000 	.word	0x00600000
    ca40:	a9000409 	.word	0xa9000409
    ca44:	00600000 	.word	0x00600000
    ca48:	a9200409 	.word	0xa9200409
    ca4c:	00600000 	.word	0x00600000
    ca50:	a9400409 	.word	0xa9400409
    ca54:	00600000 	.word	0x00600000
    ca58:	a9600409 	.word	0xa9600409
    ca5c:	00600000 	.word	0x00600000
    ca60:	a9800409 	.word	0xa9800409
    ca64:	00600000 	.word	0x00600000
    ca68:	a9a00409 	.word	0xa9a00409
    ca6c:	00600000 	.word	0x00600000
    ca70:	a9c00409 	.word	0xa9c00409
    ca74:	00600000 	.word	0x00600000
    ca78:	a9e00409 	.word	0xa9e00409
    ca7c:	00600000 	.word	0x00600000
    ca80:	aa000409 	.word	0xaa000409
    ca84:	00600000 	.word	0x00600000
    ca88:	aa200409 	.word	0xaa200409
    ca8c:	00600000 	.word	0x00600000
    ca90:	aa400409 	.word	0xaa400409
    ca94:	00600000 	.word	0x00600000
    ca98:	aa600409 	.word	0xaa600409
    ca9c:	00600000 	.word	0x00600000
    caa0:	aa800409 	.word	0xaa800409
    caa4:	00600000 	.word	0x00600000
    caa8:	aaa00409 	.word	0xaaa00409
    caac:	00600000 	.word	0x00600000
    cab0:	aac00409 	.word	0xaac00409
    cab4:	00600000 	.word	0x00600000
    cab8:	aae00409 	.word	0xaae00409
    cabc:	00600000 	.word	0x00600000
    cac0:	ab000409 	.word	0xab000409
    cac4:	00600000 	.word	0x00600000
    cac8:	ab200409 	.word	0xab200409
    cacc:	00600000 	.word	0x00600000
    cad0:	ab400409 	.word	0xab400409
    cad4:	00600000 	.word	0x00600000
    cad8:	ab600409 	.word	0xab600409
    cadc:	00600000 	.word	0x00600000
    cae0:	ab800409 	.word	0xab800409
    cae4:	00600000 	.word	0x00600000
    cae8:	aba00409 	.word	0xaba00409
    caec:	00600000 	.word	0x00600000
    caf0:	abc00409 	.word	0xabc00409
    caf4:	00600000 	.word	0x00600000
    caf8:	abe00409 	.word	0xabe00409
    cafc:	00600000 	.word	0x00600000
    cb00:	ac000409 	.word	0xac000409
    cb04:	00600000 	.word	0x00600000
    cb08:	ac200409 	.word	0xac200409
    cb0c:	00600000 	.word	0x00600000
    cb10:	ac400409 	.word	0xac400409
    cb14:	00600000 	.word	0x00600000
    cb18:	ac600409 	.word	0xac600409
    cb1c:	00600000 	.word	0x00600000
    cb20:	ac800409 	.word	0xac800409
    cb24:	00600000 	.word	0x00600000
    cb28:	aca00409 	.word	0xaca00409
    cb2c:	00600000 	.word	0x00600000
    cb30:	acc00409 	.word	0xacc00409
    cb34:	00600000 	.word	0x00600000
    cb38:	ace00409 	.word	0xace00409
    cb3c:	00600000 	.word	0x00600000
    cb40:	ad000409 	.word	0xad000409
    cb44:	00600000 	.word	0x00600000
    cb48:	ad200409 	.word	0xad200409
    cb4c:	00600000 	.word	0x00600000
    cb50:	ad400409 	.word	0xad400409
    cb54:	00600000 	.word	0x00600000
    cb58:	ad600409 	.word	0xad600409
    cb5c:	00600000 	.word	0x00600000
    cb60:	ad800409 	.word	0xad800409
    cb64:	00600000 	.word	0x00600000
    cb68:	ada00409 	.word	0xada00409
    cb6c:	00600000 	.word	0x00600000
    cb70:	adc00409 	.word	0xadc00409
    cb74:	00600000 	.word	0x00600000
    cb78:	ade00409 	.word	0xade00409
    cb7c:	00600000 	.word	0x00600000
    cb80:	ae000409 	.word	0xae000409
    cb84:	00600000 	.word	0x00600000
    cb88:	ae200409 	.word	0xae200409
    cb8c:	00600000 	.word	0x00600000
    cb90:	ae400409 	.word	0xae400409
    cb94:	00600000 	.word	0x00600000
    cb98:	ae600409 	.word	0xae600409
    cb9c:	00600000 	.word	0x00600000
    cba0:	ae800409 	.word	0xae800409
    cba4:	00600000 	.word	0x00600000
    cba8:	aea00409 	.word	0xaea00409
    cbac:	00600000 	.word	0x00600000
    cbb0:	aec00409 	.word	0xaec00409
    cbb4:	00600000 	.word	0x00600000
    cbb8:	aee00409 	.word	0xaee00409
    cbbc:	00600000 	.word	0x00600000
    cbc0:	af000409 	.word	0xaf000409
    cbc4:	00600000 	.word	0x00600000
    cbc8:	af200409 	.word	0xaf200409
    cbcc:	00600000 	.word	0x00600000
    cbd0:	af400409 	.word	0xaf400409
    cbd4:	00600000 	.word	0x00600000
    cbd8:	af600409 	.word	0xaf600409
    cbdc:	00600000 	.word	0x00600000
    cbe0:	af800409 	.word	0xaf800409
    cbe4:	00600000 	.word	0x00600000
    cbe8:	afa00409 	.word	0xafa00409
    cbec:	00600000 	.word	0x00600000
    cbf0:	afc00409 	.word	0xafc00409
    cbf4:	00600000 	.word	0x00600000
    cbf8:	afe00409 	.word	0xafe00409
    cbfc:	00600000 	.word	0x00600000
    cc00:	b0000409 	.word	0xb0000409
    cc04:	00600000 	.word	0x00600000
    cc08:	b0200409 	.word	0xb0200409
    cc0c:	00600000 	.word	0x00600000
    cc10:	b0400409 	.word	0xb0400409
    cc14:	00600000 	.word	0x00600000
    cc18:	b0600409 	.word	0xb0600409
    cc1c:	00600000 	.word	0x00600000
    cc20:	b0800409 	.word	0xb0800409
    cc24:	00600000 	.word	0x00600000
    cc28:	b0a00409 	.word	0xb0a00409
    cc2c:	00600000 	.word	0x00600000
    cc30:	b0c00409 	.word	0xb0c00409
    cc34:	00600000 	.word	0x00600000
    cc38:	b0e00409 	.word	0xb0e00409
    cc3c:	00600000 	.word	0x00600000
    cc40:	b1000409 	.word	0xb1000409
    cc44:	00600000 	.word	0x00600000
    cc48:	b1200409 	.word	0xb1200409
    cc4c:	00600000 	.word	0x00600000
    cc50:	b1400409 	.word	0xb1400409
    cc54:	00600000 	.word	0x00600000
    cc58:	b1600409 	.word	0xb1600409
    cc5c:	00600000 	.word	0x00600000
    cc60:	b1800409 	.word	0xb1800409
    cc64:	00600000 	.word	0x00600000
    cc68:	b1a00409 	.word	0xb1a00409
    cc6c:	00600000 	.word	0x00600000
    cc70:	b1c00409 	.word	0xb1c00409
    cc74:	00600000 	.word	0x00600000
    cc78:	b1e00409 	.word	0xb1e00409
    cc7c:	00600000 	.word	0x00600000
    cc80:	b2000409 	.word	0xb2000409
    cc84:	00600000 	.word	0x00600000
    cc88:	b2200409 	.word	0xb2200409
    cc8c:	00600000 	.word	0x00600000
    cc90:	b2400409 	.word	0xb2400409
    cc94:	00600000 	.word	0x00600000
    cc98:	b2600409 	.word	0xb2600409
    cc9c:	00600000 	.word	0x00600000
    cca0:	b2800409 	.word	0xb2800409
    cca4:	00600000 	.word	0x00600000
    cca8:	b2a00409 	.word	0xb2a00409
    ccac:	00600000 	.word	0x00600000
    ccb0:	b2c00409 	.word	0xb2c00409
    ccb4:	00600000 	.word	0x00600000
    ccb8:	b2e00409 	.word	0xb2e00409
    ccbc:	00600000 	.word	0x00600000
    ccc0:	b3000409 	.word	0xb3000409
    ccc4:	00600000 	.word	0x00600000
    ccc8:	b3200409 	.word	0xb3200409
    cccc:	00600000 	.word	0x00600000
    ccd0:	b3400409 	.word	0xb3400409
    ccd4:	00600000 	.word	0x00600000
    ccd8:	b3600409 	.word	0xb3600409
    ccdc:	00600000 	.word	0x00600000
    cce0:	b3800409 	.word	0xb3800409
    cce4:	00600000 	.word	0x00600000
    cce8:	b3a00409 	.word	0xb3a00409
    ccec:	00600000 	.word	0x00600000
    ccf0:	b3c00409 	.word	0xb3c00409
    ccf4:	00600000 	.word	0x00600000
    ccf8:	b3e00409 	.word	0xb3e00409
    ccfc:	00600000 	.word	0x00600000
    cd00:	b4000409 	.word	0xb4000409
    cd04:	00600000 	.word	0x00600000
    cd08:	b4200409 	.word	0xb4200409
    cd0c:	00600000 	.word	0x00600000
    cd10:	b4400409 	.word	0xb4400409
    cd14:	00600000 	.word	0x00600000
    cd18:	b4600409 	.word	0xb4600409
    cd1c:	00600000 	.word	0x00600000
    cd20:	b4800409 	.word	0xb4800409
    cd24:	00600000 	.word	0x00600000
    cd28:	b4a00409 	.word	0xb4a00409
    cd2c:	00600000 	.word	0x00600000
    cd30:	b4c00409 	.word	0xb4c00409
    cd34:	00600000 	.word	0x00600000
    cd38:	b4e00409 	.word	0xb4e00409
    cd3c:	00600000 	.word	0x00600000
    cd40:	b5000409 	.word	0xb5000409
    cd44:	00600000 	.word	0x00600000
    cd48:	b5200409 	.word	0xb5200409
    cd4c:	00600000 	.word	0x00600000
    cd50:	b5400409 	.word	0xb5400409
    cd54:	00600000 	.word	0x00600000
    cd58:	b5600409 	.word	0xb5600409
    cd5c:	00600000 	.word	0x00600000
    cd60:	b5800409 	.word	0xb5800409
    cd64:	00600000 	.word	0x00600000
    cd68:	b5a00409 	.word	0xb5a00409
    cd6c:	00600000 	.word	0x00600000
    cd70:	b5c00409 	.word	0xb5c00409
    cd74:	00600000 	.word	0x00600000
    cd78:	b5e00409 	.word	0xb5e00409
    cd7c:	00600000 	.word	0x00600000
    cd80:	b6000409 	.word	0xb6000409
    cd84:	00600000 	.word	0x00600000
    cd88:	b6200409 	.word	0xb6200409
    cd8c:	00600000 	.word	0x00600000
    cd90:	b6400409 	.word	0xb6400409
    cd94:	00600000 	.word	0x00600000
    cd98:	b6600409 	.word	0xb6600409
    cd9c:	00600000 	.word	0x00600000
    cda0:	b6800409 	.word	0xb6800409
    cda4:	00600000 	.word	0x00600000
    cda8:	b6a00409 	.word	0xb6a00409
    cdac:	00600000 	.word	0x00600000
    cdb0:	b6c00409 	.word	0xb6c00409
    cdb4:	00600000 	.word	0x00600000
    cdb8:	b6e00409 	.word	0xb6e00409
    cdbc:	00600000 	.word	0x00600000
    cdc0:	b7000409 	.word	0xb7000409
    cdc4:	00600000 	.word	0x00600000
    cdc8:	b7200409 	.word	0xb7200409
    cdcc:	00600000 	.word	0x00600000
    cdd0:	b7400409 	.word	0xb7400409
    cdd4:	00600000 	.word	0x00600000
    cdd8:	b7600409 	.word	0xb7600409
    cddc:	00600000 	.word	0x00600000
    cde0:	b7800409 	.word	0xb7800409
    cde4:	00600000 	.word	0x00600000
    cde8:	b7a00409 	.word	0xb7a00409
    cdec:	00600000 	.word	0x00600000
    cdf0:	b7c00409 	.word	0xb7c00409
    cdf4:	00600000 	.word	0x00600000
    cdf8:	b7e00409 	.word	0xb7e00409
    cdfc:	00600000 	.word	0x00600000
    ce00:	b8000409 	.word	0xb8000409
    ce04:	00600000 	.word	0x00600000
    ce08:	b8200409 	.word	0xb8200409
    ce0c:	00600000 	.word	0x00600000
    ce10:	b8400409 	.word	0xb8400409
    ce14:	00600000 	.word	0x00600000
    ce18:	b8600409 	.word	0xb8600409
    ce1c:	00600000 	.word	0x00600000
    ce20:	b8800409 	.word	0xb8800409
    ce24:	00600000 	.word	0x00600000
    ce28:	b8a00409 	.word	0xb8a00409
    ce2c:	00600000 	.word	0x00600000
    ce30:	b8c00409 	.word	0xb8c00409
    ce34:	00600000 	.word	0x00600000
    ce38:	b8e00409 	.word	0xb8e00409
    ce3c:	00600000 	.word	0x00600000
    ce40:	b9000409 	.word	0xb9000409
    ce44:	00600000 	.word	0x00600000
    ce48:	b9200409 	.word	0xb9200409
    ce4c:	00600000 	.word	0x00600000
    ce50:	b9400409 	.word	0xb9400409
    ce54:	00600000 	.word	0x00600000
    ce58:	b9600409 	.word	0xb9600409
    ce5c:	00600000 	.word	0x00600000
    ce60:	b9800409 	.word	0xb9800409
    ce64:	00600000 	.word	0x00600000
    ce68:	b9a00409 	.word	0xb9a00409
    ce6c:	00600000 	.word	0x00600000
    ce70:	b9c00409 	.word	0xb9c00409
    ce74:	00600000 	.word	0x00600000
    ce78:	b9e00409 	.word	0xb9e00409
    ce7c:	00600000 	.word	0x00600000
    ce80:	ba000409 	.word	0xba000409
    ce84:	00600000 	.word	0x00600000
    ce88:	ba200409 	.word	0xba200409
    ce8c:	00600000 	.word	0x00600000
    ce90:	ba400409 	.word	0xba400409
    ce94:	00600000 	.word	0x00600000
    ce98:	ba600409 	.word	0xba600409
    ce9c:	00600000 	.word	0x00600000
    cea0:	ba800409 	.word	0xba800409
    cea4:	00600000 	.word	0x00600000
    cea8:	baa00409 	.word	0xbaa00409
    ceac:	00600000 	.word	0x00600000
    ceb0:	bac00409 	.word	0xbac00409
    ceb4:	00600000 	.word	0x00600000
    ceb8:	bae00409 	.word	0xbae00409
    cebc:	00600000 	.word	0x00600000
    cec0:	bb000409 	.word	0xbb000409
    cec4:	00600000 	.word	0x00600000
    cec8:	bb200409 	.word	0xbb200409
    cecc:	00600000 	.word	0x00600000
    ced0:	bb400409 	.word	0xbb400409
    ced4:	00600000 	.word	0x00600000
    ced8:	bb600409 	.word	0xbb600409
    cedc:	00600000 	.word	0x00600000
    cee0:	bb800409 	.word	0xbb800409
    cee4:	00600000 	.word	0x00600000
    cee8:	bba00409 	.word	0xbba00409
    ceec:	00600000 	.word	0x00600000
    cef0:	bbc00409 	.word	0xbbc00409
    cef4:	00600000 	.word	0x00600000
    cef8:	bbe00409 	.word	0xbbe00409
    cefc:	00600000 	.word	0x00600000
    cf00:	bc000409 	.word	0xbc000409
    cf04:	00600000 	.word	0x00600000
    cf08:	bc200409 	.word	0xbc200409
    cf0c:	00600000 	.word	0x00600000
    cf10:	bc400409 	.word	0xbc400409
    cf14:	00600000 	.word	0x00600000
    cf18:	bc600409 	.word	0xbc600409
    cf1c:	00600000 	.word	0x00600000
    cf20:	bc800409 	.word	0xbc800409
    cf24:	00600000 	.word	0x00600000
    cf28:	bca00409 	.word	0xbca00409
    cf2c:	00600000 	.word	0x00600000
    cf30:	bcc00409 	.word	0xbcc00409
    cf34:	00600000 	.word	0x00600000
    cf38:	bce00409 	.word	0xbce00409
    cf3c:	00600000 	.word	0x00600000
    cf40:	bd000409 	.word	0xbd000409
    cf44:	00600000 	.word	0x00600000
    cf48:	bd200409 	.word	0xbd200409
    cf4c:	00600000 	.word	0x00600000
    cf50:	bd400409 	.word	0xbd400409
    cf54:	00600000 	.word	0x00600000
    cf58:	bd600409 	.word	0xbd600409
    cf5c:	00600000 	.word	0x00600000
    cf60:	bd800409 	.word	0xbd800409
    cf64:	00600000 	.word	0x00600000
    cf68:	bda00409 	.word	0xbda00409
    cf6c:	00600000 	.word	0x00600000
    cf70:	bdc00409 	.word	0xbdc00409
    cf74:	00600000 	.word	0x00600000
    cf78:	bde00409 	.word	0xbde00409
    cf7c:	00600000 	.word	0x00600000
    cf80:	be000409 	.word	0xbe000409
    cf84:	00600000 	.word	0x00600000
    cf88:	be200409 	.word	0xbe200409
    cf8c:	00600000 	.word	0x00600000
    cf90:	be400409 	.word	0xbe400409
    cf94:	00600000 	.word	0x00600000
    cf98:	be600409 	.word	0xbe600409
    cf9c:	00600000 	.word	0x00600000
    cfa0:	be800409 	.word	0xbe800409
    cfa4:	00600000 	.word	0x00600000
    cfa8:	bea00409 	.word	0xbea00409
    cfac:	00600000 	.word	0x00600000
    cfb0:	bec00409 	.word	0xbec00409
    cfb4:	00600000 	.word	0x00600000
    cfb8:	bee00409 	.word	0xbee00409
    cfbc:	00600000 	.word	0x00600000
    cfc0:	bf000409 	.word	0xbf000409
    cfc4:	00600000 	.word	0x00600000
    cfc8:	bf200409 	.word	0xbf200409
    cfcc:	00600000 	.word	0x00600000
    cfd0:	bf400409 	.word	0xbf400409
    cfd4:	00600000 	.word	0x00600000
    cfd8:	bf600409 	.word	0xbf600409
    cfdc:	00600000 	.word	0x00600000
    cfe0:	bf800409 	.word	0xbf800409
    cfe4:	00600000 	.word	0x00600000
    cfe8:	bfa00409 	.word	0xbfa00409
    cfec:	00600000 	.word	0x00600000
    cff0:	bfc00409 	.word	0xbfc00409
    cff4:	00600000 	.word	0x00600000
    cff8:	bfe00409 	.word	0xbfe00409
    cffc:	00600000 	.word	0x00600000
    d000:	c0000409 	.word	0xc0000409
    d004:	00600000 	.word	0x00600000
    d008:	c0200409 	.word	0xc0200409
    d00c:	00600000 	.word	0x00600000
    d010:	c0400409 	.word	0xc0400409
    d014:	00600000 	.word	0x00600000
    d018:	c0600409 	.word	0xc0600409
    d01c:	00600000 	.word	0x00600000
    d020:	c0800409 	.word	0xc0800409
    d024:	00600000 	.word	0x00600000
    d028:	c0a00409 	.word	0xc0a00409
    d02c:	00600000 	.word	0x00600000
    d030:	c0c00409 	.word	0xc0c00409
    d034:	00600000 	.word	0x00600000
    d038:	c0e00409 	.word	0xc0e00409
    d03c:	00600000 	.word	0x00600000
    d040:	c1000409 	.word	0xc1000409
    d044:	00600000 	.word	0x00600000
    d048:	c1200409 	.word	0xc1200409
    d04c:	00600000 	.word	0x00600000
    d050:	c1400409 	.word	0xc1400409
    d054:	00600000 	.word	0x00600000
    d058:	c1600409 	.word	0xc1600409
    d05c:	00600000 	.word	0x00600000
    d060:	c1800409 	.word	0xc1800409
    d064:	00600000 	.word	0x00600000
    d068:	c1a00409 	.word	0xc1a00409
    d06c:	00600000 	.word	0x00600000
    d070:	c1c00409 	.word	0xc1c00409
    d074:	00600000 	.word	0x00600000
    d078:	c1e00409 	.word	0xc1e00409
    d07c:	00600000 	.word	0x00600000
    d080:	c2000409 	.word	0xc2000409
    d084:	00600000 	.word	0x00600000
    d088:	c2200409 	.word	0xc2200409
    d08c:	00600000 	.word	0x00600000
    d090:	c2400409 	.word	0xc2400409
    d094:	00600000 	.word	0x00600000
    d098:	c2600409 	.word	0xc2600409
    d09c:	00600000 	.word	0x00600000
    d0a0:	c2800409 	.word	0xc2800409
    d0a4:	00600000 	.word	0x00600000
    d0a8:	c2a00409 	.word	0xc2a00409
    d0ac:	00600000 	.word	0x00600000
    d0b0:	c2c00409 	.word	0xc2c00409
    d0b4:	00600000 	.word	0x00600000
    d0b8:	c2e00409 	.word	0xc2e00409
    d0bc:	00600000 	.word	0x00600000
    d0c0:	c3000409 	.word	0xc3000409
    d0c4:	00600000 	.word	0x00600000
    d0c8:	c3200409 	.word	0xc3200409
    d0cc:	00600000 	.word	0x00600000
    d0d0:	c3400409 	.word	0xc3400409
    d0d4:	00600000 	.word	0x00600000
    d0d8:	c3600409 	.word	0xc3600409
    d0dc:	00600000 	.word	0x00600000
    d0e0:	c3800409 	.word	0xc3800409
    d0e4:	00600000 	.word	0x00600000
    d0e8:	c3a00409 	.word	0xc3a00409
    d0ec:	00600000 	.word	0x00600000
    d0f0:	c3c00409 	.word	0xc3c00409
    d0f4:	00600000 	.word	0x00600000
    d0f8:	c3e00409 	.word	0xc3e00409
    d0fc:	00600000 	.word	0x00600000
    d100:	c4000409 	.word	0xc4000409
    d104:	00600000 	.word	0x00600000
    d108:	c4200409 	.word	0xc4200409
    d10c:	00600000 	.word	0x00600000
    d110:	c4400409 	.word	0xc4400409
    d114:	00600000 	.word	0x00600000
    d118:	c4600409 	.word	0xc4600409
    d11c:	00600000 	.word	0x00600000
    d120:	c4800409 	.word	0xc4800409
    d124:	00600000 	.word	0x00600000
    d128:	c4a00409 	.word	0xc4a00409
    d12c:	00600000 	.word	0x00600000
    d130:	c4c00409 	.word	0xc4c00409
    d134:	00600000 	.word	0x00600000
    d138:	c4e00409 	.word	0xc4e00409
    d13c:	00600000 	.word	0x00600000
    d140:	c5000409 	.word	0xc5000409
    d144:	00600000 	.word	0x00600000
    d148:	c5200409 	.word	0xc5200409
    d14c:	00600000 	.word	0x00600000
    d150:	c5400409 	.word	0xc5400409
    d154:	00600000 	.word	0x00600000
    d158:	c5600409 	.word	0xc5600409
    d15c:	00600000 	.word	0x00600000
    d160:	c5800409 	.word	0xc5800409
    d164:	00600000 	.word	0x00600000
    d168:	c5a00409 	.word	0xc5a00409
    d16c:	00600000 	.word	0x00600000
    d170:	c5c00409 	.word	0xc5c00409
    d174:	00600000 	.word	0x00600000
    d178:	c5e00409 	.word	0xc5e00409
    d17c:	00600000 	.word	0x00600000
    d180:	c6000409 	.word	0xc6000409
    d184:	00600000 	.word	0x00600000
    d188:	c6200409 	.word	0xc6200409
    d18c:	00600000 	.word	0x00600000
    d190:	c6400409 	.word	0xc6400409
    d194:	00600000 	.word	0x00600000
    d198:	c6600409 	.word	0xc6600409
    d19c:	00600000 	.word	0x00600000
    d1a0:	c6800409 	.word	0xc6800409
    d1a4:	00600000 	.word	0x00600000
    d1a8:	c6a00409 	.word	0xc6a00409
    d1ac:	00600000 	.word	0x00600000
    d1b0:	c6c00409 	.word	0xc6c00409
    d1b4:	00600000 	.word	0x00600000
    d1b8:	c6e00409 	.word	0xc6e00409
    d1bc:	00600000 	.word	0x00600000
    d1c0:	c7000409 	.word	0xc7000409
    d1c4:	00600000 	.word	0x00600000
    d1c8:	c7200409 	.word	0xc7200409
    d1cc:	00600000 	.word	0x00600000
    d1d0:	c7400409 	.word	0xc7400409
    d1d4:	00600000 	.word	0x00600000
    d1d8:	c7600409 	.word	0xc7600409
    d1dc:	00600000 	.word	0x00600000
    d1e0:	c7800409 	.word	0xc7800409
    d1e4:	00600000 	.word	0x00600000
    d1e8:	c7a00409 	.word	0xc7a00409
    d1ec:	00600000 	.word	0x00600000
    d1f0:	c7c00409 	.word	0xc7c00409
    d1f4:	00600000 	.word	0x00600000
    d1f8:	c7e00409 	.word	0xc7e00409
    d1fc:	00600000 	.word	0x00600000
    d200:	c8000409 	.word	0xc8000409
    d204:	00600000 	.word	0x00600000
    d208:	c8200409 	.word	0xc8200409
    d20c:	00600000 	.word	0x00600000
    d210:	c8400409 	.word	0xc8400409
    d214:	00600000 	.word	0x00600000
    d218:	c8600409 	.word	0xc8600409
    d21c:	00600000 	.word	0x00600000
    d220:	c8800409 	.word	0xc8800409
    d224:	00600000 	.word	0x00600000
    d228:	c8a00409 	.word	0xc8a00409
    d22c:	00600000 	.word	0x00600000
    d230:	c8c00409 	.word	0xc8c00409
    d234:	00600000 	.word	0x00600000
    d238:	c8e00409 	.word	0xc8e00409
    d23c:	00600000 	.word	0x00600000
    d240:	c9000409 	.word	0xc9000409
    d244:	00600000 	.word	0x00600000
    d248:	c9200409 	.word	0xc9200409
    d24c:	00600000 	.word	0x00600000
    d250:	c9400409 	.word	0xc9400409
    d254:	00600000 	.word	0x00600000
    d258:	c9600409 	.word	0xc9600409
    d25c:	00600000 	.word	0x00600000
    d260:	c9800409 	.word	0xc9800409
    d264:	00600000 	.word	0x00600000
    d268:	c9a00409 	.word	0xc9a00409
    d26c:	00600000 	.word	0x00600000
    d270:	c9c00409 	.word	0xc9c00409
    d274:	00600000 	.word	0x00600000
    d278:	c9e00409 	.word	0xc9e00409
    d27c:	00600000 	.word	0x00600000
    d280:	ca000409 	.word	0xca000409
    d284:	00600000 	.word	0x00600000
    d288:	ca200409 	.word	0xca200409
    d28c:	00600000 	.word	0x00600000
    d290:	ca400409 	.word	0xca400409
    d294:	00600000 	.word	0x00600000
    d298:	ca600409 	.word	0xca600409
    d29c:	00600000 	.word	0x00600000
    d2a0:	ca800409 	.word	0xca800409
    d2a4:	00600000 	.word	0x00600000
    d2a8:	caa00409 	.word	0xcaa00409
    d2ac:	00600000 	.word	0x00600000
    d2b0:	cac00409 	.word	0xcac00409
    d2b4:	00600000 	.word	0x00600000
    d2b8:	cae00409 	.word	0xcae00409
    d2bc:	00600000 	.word	0x00600000
    d2c0:	cb000409 	.word	0xcb000409
    d2c4:	00600000 	.word	0x00600000
    d2c8:	cb200409 	.word	0xcb200409
    d2cc:	00600000 	.word	0x00600000
    d2d0:	cb400409 	.word	0xcb400409
    d2d4:	00600000 	.word	0x00600000
    d2d8:	cb600409 	.word	0xcb600409
    d2dc:	00600000 	.word	0x00600000
    d2e0:	cb800409 	.word	0xcb800409
    d2e4:	00600000 	.word	0x00600000
    d2e8:	cba00409 	.word	0xcba00409
    d2ec:	00600000 	.word	0x00600000
    d2f0:	cbc00409 	.word	0xcbc00409
    d2f4:	00600000 	.word	0x00600000
    d2f8:	cbe00409 	.word	0xcbe00409
    d2fc:	00600000 	.word	0x00600000
    d300:	cc000409 	.word	0xcc000409
    d304:	00600000 	.word	0x00600000
    d308:	cc200409 	.word	0xcc200409
    d30c:	00600000 	.word	0x00600000
    d310:	cc400409 	.word	0xcc400409
    d314:	00600000 	.word	0x00600000
    d318:	cc600409 	.word	0xcc600409
    d31c:	00600000 	.word	0x00600000
    d320:	cc800409 	.word	0xcc800409
    d324:	00600000 	.word	0x00600000
    d328:	cca00409 	.word	0xcca00409
    d32c:	00600000 	.word	0x00600000
    d330:	ccc00409 	.word	0xccc00409
    d334:	00600000 	.word	0x00600000
    d338:	cce00409 	.word	0xcce00409
    d33c:	00600000 	.word	0x00600000
    d340:	cd000409 	.word	0xcd000409
    d344:	00600000 	.word	0x00600000
    d348:	cd200409 	.word	0xcd200409
    d34c:	00600000 	.word	0x00600000
    d350:	cd400409 	.word	0xcd400409
    d354:	00600000 	.word	0x00600000
    d358:	cd600409 	.word	0xcd600409
    d35c:	00600000 	.word	0x00600000
    d360:	cd800409 	.word	0xcd800409
    d364:	00600000 	.word	0x00600000
    d368:	cda00409 	.word	0xcda00409
    d36c:	00600000 	.word	0x00600000
    d370:	cdc00409 	.word	0xcdc00409
    d374:	00600000 	.word	0x00600000
    d378:	cde00409 	.word	0xcde00409
    d37c:	00600000 	.word	0x00600000
    d380:	ce000409 	.word	0xce000409
    d384:	00600000 	.word	0x00600000
    d388:	ce200409 	.word	0xce200409
    d38c:	00600000 	.word	0x00600000
    d390:	ce400409 	.word	0xce400409
    d394:	00600000 	.word	0x00600000
    d398:	ce600409 	.word	0xce600409
    d39c:	00600000 	.word	0x00600000
    d3a0:	ce800409 	.word	0xce800409
    d3a4:	00600000 	.word	0x00600000
    d3a8:	cea00409 	.word	0xcea00409
    d3ac:	00600000 	.word	0x00600000
    d3b0:	cec00409 	.word	0xcec00409
    d3b4:	00600000 	.word	0x00600000
    d3b8:	cee00409 	.word	0xcee00409
    d3bc:	00600000 	.word	0x00600000
    d3c0:	cf000409 	.word	0xcf000409
    d3c4:	00600000 	.word	0x00600000
    d3c8:	cf200409 	.word	0xcf200409
    d3cc:	00600000 	.word	0x00600000
    d3d0:	cf400409 	.word	0xcf400409
    d3d4:	00600000 	.word	0x00600000
    d3d8:	cf600409 	.word	0xcf600409
    d3dc:	00600000 	.word	0x00600000
    d3e0:	cf800409 	.word	0xcf800409
    d3e4:	00600000 	.word	0x00600000
    d3e8:	cfa00409 	.word	0xcfa00409
    d3ec:	00600000 	.word	0x00600000
    d3f0:	cfc00409 	.word	0xcfc00409
    d3f4:	00600000 	.word	0x00600000
    d3f8:	cfe00409 	.word	0xcfe00409
    d3fc:	00600000 	.word	0x00600000
    d400:	d0000409 	.word	0xd0000409
    d404:	00600000 	.word	0x00600000
    d408:	d0200409 	.word	0xd0200409
    d40c:	00600000 	.word	0x00600000
    d410:	d0400409 	.word	0xd0400409
    d414:	00600000 	.word	0x00600000
    d418:	d0600409 	.word	0xd0600409
    d41c:	00600000 	.word	0x00600000
    d420:	d0800409 	.word	0xd0800409
    d424:	00600000 	.word	0x00600000
    d428:	d0a00409 	.word	0xd0a00409
    d42c:	00600000 	.word	0x00600000
    d430:	d0c00409 	.word	0xd0c00409
    d434:	00600000 	.word	0x00600000
    d438:	d0e00409 	.word	0xd0e00409
    d43c:	00600000 	.word	0x00600000
    d440:	d1000409 	.word	0xd1000409
    d444:	00600000 	.word	0x00600000
    d448:	d1200409 	.word	0xd1200409
    d44c:	00600000 	.word	0x00600000
    d450:	d1400409 	.word	0xd1400409
    d454:	00600000 	.word	0x00600000
    d458:	d1600409 	.word	0xd1600409
    d45c:	00600000 	.word	0x00600000
    d460:	d1800409 	.word	0xd1800409
    d464:	00600000 	.word	0x00600000
    d468:	d1a00409 	.word	0xd1a00409
    d46c:	00600000 	.word	0x00600000
    d470:	d1c00409 	.word	0xd1c00409
    d474:	00600000 	.word	0x00600000
    d478:	d1e00409 	.word	0xd1e00409
    d47c:	00600000 	.word	0x00600000
    d480:	d2000409 	.word	0xd2000409
    d484:	00600000 	.word	0x00600000
    d488:	d2200409 	.word	0xd2200409
    d48c:	00600000 	.word	0x00600000
    d490:	d2400409 	.word	0xd2400409
    d494:	00600000 	.word	0x00600000
    d498:	d2600409 	.word	0xd2600409
    d49c:	00600000 	.word	0x00600000
    d4a0:	d2800409 	.word	0xd2800409
    d4a4:	00600000 	.word	0x00600000
    d4a8:	d2a00409 	.word	0xd2a00409
    d4ac:	00600000 	.word	0x00600000
    d4b0:	d2c00409 	.word	0xd2c00409
    d4b4:	00600000 	.word	0x00600000
    d4b8:	d2e00409 	.word	0xd2e00409
    d4bc:	00600000 	.word	0x00600000
    d4c0:	d3000409 	.word	0xd3000409
    d4c4:	00600000 	.word	0x00600000
    d4c8:	d3200409 	.word	0xd3200409
    d4cc:	00600000 	.word	0x00600000
    d4d0:	d3400409 	.word	0xd3400409
    d4d4:	00600000 	.word	0x00600000
    d4d8:	d3600409 	.word	0xd3600409
    d4dc:	00600000 	.word	0x00600000
    d4e0:	d3800409 	.word	0xd3800409
    d4e4:	00600000 	.word	0x00600000
    d4e8:	d3a00409 	.word	0xd3a00409
    d4ec:	00600000 	.word	0x00600000
    d4f0:	d3c00409 	.word	0xd3c00409
    d4f4:	00600000 	.word	0x00600000
    d4f8:	d3e00409 	.word	0xd3e00409
    d4fc:	00600000 	.word	0x00600000
    d500:	d4000409 	.word	0xd4000409
    d504:	00600000 	.word	0x00600000
    d508:	d4200409 	.word	0xd4200409
    d50c:	00600000 	.word	0x00600000
    d510:	d4400409 	.word	0xd4400409
    d514:	00600000 	.word	0x00600000
    d518:	d4600409 	.word	0xd4600409
    d51c:	00600000 	.word	0x00600000
    d520:	d4800409 	.word	0xd4800409
    d524:	00600000 	.word	0x00600000
    d528:	d4a00409 	.word	0xd4a00409
    d52c:	00600000 	.word	0x00600000
    d530:	d4c00409 	.word	0xd4c00409
    d534:	00600000 	.word	0x00600000
    d538:	d4e00409 	.word	0xd4e00409
    d53c:	00600000 	.word	0x00600000
    d540:	d5000409 	.word	0xd5000409
    d544:	00600000 	.word	0x00600000
    d548:	d5200409 	.word	0xd5200409
    d54c:	00600000 	.word	0x00600000
    d550:	d5400409 	.word	0xd5400409
    d554:	00600000 	.word	0x00600000
    d558:	d5600409 	.word	0xd5600409
    d55c:	00600000 	.word	0x00600000
    d560:	d5800409 	.word	0xd5800409
    d564:	00600000 	.word	0x00600000
    d568:	d5a00409 	.word	0xd5a00409
    d56c:	00600000 	.word	0x00600000
    d570:	d5c00409 	.word	0xd5c00409
    d574:	00600000 	.word	0x00600000
    d578:	d5e00409 	.word	0xd5e00409
    d57c:	00600000 	.word	0x00600000
    d580:	d6000409 	.word	0xd6000409
    d584:	00600000 	.word	0x00600000
    d588:	d6200409 	.word	0xd6200409
    d58c:	00600000 	.word	0x00600000
    d590:	d6400409 	.word	0xd6400409
    d594:	00600000 	.word	0x00600000
    d598:	d6600409 	.word	0xd6600409
    d59c:	00600000 	.word	0x00600000
    d5a0:	d6800409 	.word	0xd6800409
    d5a4:	00600000 	.word	0x00600000
    d5a8:	d6a00409 	.word	0xd6a00409
    d5ac:	00600000 	.word	0x00600000
    d5b0:	d6c00409 	.word	0xd6c00409
    d5b4:	00600000 	.word	0x00600000
    d5b8:	d6e00409 	.word	0xd6e00409
    d5bc:	00600000 	.word	0x00600000
    d5c0:	d7000409 	.word	0xd7000409
    d5c4:	00600000 	.word	0x00600000
    d5c8:	d7200409 	.word	0xd7200409
    d5cc:	00600000 	.word	0x00600000
    d5d0:	d7400409 	.word	0xd7400409
    d5d4:	00600000 	.word	0x00600000
    d5d8:	d7600409 	.word	0xd7600409
    d5dc:	00600000 	.word	0x00600000
    d5e0:	d7800409 	.word	0xd7800409
    d5e4:	00600000 	.word	0x00600000
    d5e8:	d7a00409 	.word	0xd7a00409
    d5ec:	00600000 	.word	0x00600000
    d5f0:	d7c00409 	.word	0xd7c00409
    d5f4:	00600000 	.word	0x00600000
    d5f8:	d7e00409 	.word	0xd7e00409
    d5fc:	00600000 	.word	0x00600000
    d600:	d8000409 	.word	0xd8000409
    d604:	00600000 	.word	0x00600000
    d608:	d8200409 	.word	0xd8200409
    d60c:	00600000 	.word	0x00600000
    d610:	d8400409 	.word	0xd8400409
    d614:	00600000 	.word	0x00600000
    d618:	d8600409 	.word	0xd8600409
    d61c:	00600000 	.word	0x00600000
    d620:	d8800409 	.word	0xd8800409
    d624:	00600000 	.word	0x00600000
    d628:	d8a00409 	.word	0xd8a00409
    d62c:	00600000 	.word	0x00600000
    d630:	d8c00409 	.word	0xd8c00409
    d634:	00600000 	.word	0x00600000
    d638:	d8e00409 	.word	0xd8e00409
    d63c:	00600000 	.word	0x00600000
    d640:	d9000409 	.word	0xd9000409
    d644:	00600000 	.word	0x00600000
    d648:	d9200409 	.word	0xd9200409
    d64c:	00600000 	.word	0x00600000
    d650:	d9400409 	.word	0xd9400409
    d654:	00600000 	.word	0x00600000
    d658:	d9600409 	.word	0xd9600409
    d65c:	00600000 	.word	0x00600000
    d660:	d9800409 	.word	0xd9800409
    d664:	00600000 	.word	0x00600000
    d668:	d9a00409 	.word	0xd9a00409
    d66c:	00600000 	.word	0x00600000
    d670:	d9c00409 	.word	0xd9c00409
    d674:	00600000 	.word	0x00600000
    d678:	d9e00409 	.word	0xd9e00409
    d67c:	00600000 	.word	0x00600000
    d680:	da000409 	.word	0xda000409
    d684:	00600000 	.word	0x00600000
    d688:	da200409 	.word	0xda200409
    d68c:	00600000 	.word	0x00600000
    d690:	da400409 	.word	0xda400409
    d694:	00600000 	.word	0x00600000
    d698:	da600409 	.word	0xda600409
    d69c:	00600000 	.word	0x00600000
    d6a0:	da800409 	.word	0xda800409
    d6a4:	00600000 	.word	0x00600000
    d6a8:	daa00409 	.word	0xdaa00409
    d6ac:	00600000 	.word	0x00600000
    d6b0:	dac00409 	.word	0xdac00409
    d6b4:	00600000 	.word	0x00600000
    d6b8:	dae00409 	.word	0xdae00409
    d6bc:	00600000 	.word	0x00600000
    d6c0:	db000409 	.word	0xdb000409
    d6c4:	00600000 	.word	0x00600000
    d6c8:	db200409 	.word	0xdb200409
    d6cc:	00600000 	.word	0x00600000
    d6d0:	db400409 	.word	0xdb400409
    d6d4:	00600000 	.word	0x00600000
    d6d8:	db600409 	.word	0xdb600409
    d6dc:	00600000 	.word	0x00600000
    d6e0:	db800409 	.word	0xdb800409
    d6e4:	00600000 	.word	0x00600000
    d6e8:	dba00409 	.word	0xdba00409
    d6ec:	00600000 	.word	0x00600000
    d6f0:	dbc00409 	.word	0xdbc00409
    d6f4:	00600000 	.word	0x00600000
    d6f8:	dbe00409 	.word	0xdbe00409
    d6fc:	00600000 	.word	0x00600000
    d700:	dc000409 	.word	0xdc000409
    d704:	00600000 	.word	0x00600000
    d708:	dc200409 	.word	0xdc200409
    d70c:	00600000 	.word	0x00600000
    d710:	dc400409 	.word	0xdc400409
    d714:	00600000 	.word	0x00600000
    d718:	dc600409 	.word	0xdc600409
    d71c:	00600000 	.word	0x00600000
    d720:	dc800409 	.word	0xdc800409
    d724:	00600000 	.word	0x00600000
    d728:	dca00409 	.word	0xdca00409
    d72c:	00600000 	.word	0x00600000
    d730:	dcc00409 	.word	0xdcc00409
    d734:	00600000 	.word	0x00600000
    d738:	dce00409 	.word	0xdce00409
    d73c:	00600000 	.word	0x00600000
    d740:	dd000409 	.word	0xdd000409
    d744:	00600000 	.word	0x00600000
    d748:	dd200409 	.word	0xdd200409
    d74c:	00600000 	.word	0x00600000
    d750:	dd400409 	.word	0xdd400409
    d754:	00600000 	.word	0x00600000
    d758:	dd600409 	.word	0xdd600409
    d75c:	00600000 	.word	0x00600000
    d760:	dd800409 	.word	0xdd800409
    d764:	00600000 	.word	0x00600000
    d768:	dda00409 	.word	0xdda00409
    d76c:	00600000 	.word	0x00600000
    d770:	ddc00409 	.word	0xddc00409
    d774:	00600000 	.word	0x00600000
    d778:	dde00409 	.word	0xdde00409
    d77c:	00600000 	.word	0x00600000
    d780:	de000409 	.word	0xde000409
    d784:	00600000 	.word	0x00600000
    d788:	de200409 	.word	0xde200409
    d78c:	00600000 	.word	0x00600000
    d790:	de400409 	.word	0xde400409
    d794:	00600000 	.word	0x00600000
    d798:	de600409 	.word	0xde600409
    d79c:	00600000 	.word	0x00600000
    d7a0:	de800409 	.word	0xde800409
    d7a4:	00600000 	.word	0x00600000
    d7a8:	dea00409 	.word	0xdea00409
    d7ac:	00600000 	.word	0x00600000
    d7b0:	dec00409 	.word	0xdec00409
    d7b4:	00600000 	.word	0x00600000
    d7b8:	dee00409 	.word	0xdee00409
    d7bc:	00600000 	.word	0x00600000
    d7c0:	df000409 	.word	0xdf000409
    d7c4:	00600000 	.word	0x00600000
    d7c8:	df200409 	.word	0xdf200409
    d7cc:	00600000 	.word	0x00600000
    d7d0:	df400409 	.word	0xdf400409
    d7d4:	00600000 	.word	0x00600000
    d7d8:	df600409 	.word	0xdf600409
    d7dc:	00600000 	.word	0x00600000
    d7e0:	df800409 	.word	0xdf800409
    d7e4:	00600000 	.word	0x00600000
    d7e8:	dfa00409 	.word	0xdfa00409
    d7ec:	00600000 	.word	0x00600000
    d7f0:	dfc00409 	.word	0xdfc00409
    d7f4:	00600000 	.word	0x00600000
    d7f8:	dfe00409 	.word	0xdfe00409
    d7fc:	00600000 	.word	0x00600000
    d800:	e0000409 	.word	0xe0000409
    d804:	00600000 	.word	0x00600000
    d808:	e0200409 	.word	0xe0200409
    d80c:	00600000 	.word	0x00600000
    d810:	e0400409 	.word	0xe0400409
    d814:	00600000 	.word	0x00600000
    d818:	e0600409 	.word	0xe0600409
    d81c:	00600000 	.word	0x00600000
    d820:	e0800409 	.word	0xe0800409
    d824:	00600000 	.word	0x00600000
    d828:	e0a00409 	.word	0xe0a00409
    d82c:	00600000 	.word	0x00600000
    d830:	e0c00409 	.word	0xe0c00409
    d834:	00600000 	.word	0x00600000
    d838:	e0e00409 	.word	0xe0e00409
    d83c:	00600000 	.word	0x00600000
    d840:	e1000409 	.word	0xe1000409
    d844:	00600000 	.word	0x00600000
    d848:	e1200409 	.word	0xe1200409
    d84c:	00600000 	.word	0x00600000
    d850:	e1400409 	.word	0xe1400409
    d854:	00600000 	.word	0x00600000
    d858:	e1600409 	.word	0xe1600409
    d85c:	00600000 	.word	0x00600000
    d860:	e1800409 	.word	0xe1800409
    d864:	00600000 	.word	0x00600000
    d868:	e1a00409 	.word	0xe1a00409
    d86c:	00600000 	.word	0x00600000
    d870:	e1c00409 	.word	0xe1c00409
    d874:	00600000 	.word	0x00600000
    d878:	e1e00409 	.word	0xe1e00409
    d87c:	00600000 	.word	0x00600000
    d880:	e2000409 	.word	0xe2000409
    d884:	00600000 	.word	0x00600000
    d888:	e2200409 	.word	0xe2200409
    d88c:	00600000 	.word	0x00600000
    d890:	e2400409 	.word	0xe2400409
    d894:	00600000 	.word	0x00600000
    d898:	e2600409 	.word	0xe2600409
    d89c:	00600000 	.word	0x00600000
    d8a0:	e2800409 	.word	0xe2800409
    d8a4:	00600000 	.word	0x00600000
    d8a8:	e2a00409 	.word	0xe2a00409
    d8ac:	00600000 	.word	0x00600000
    d8b0:	e2c00409 	.word	0xe2c00409
    d8b4:	00600000 	.word	0x00600000
    d8b8:	e2e00409 	.word	0xe2e00409
    d8bc:	00600000 	.word	0x00600000
    d8c0:	e3000409 	.word	0xe3000409
    d8c4:	00600000 	.word	0x00600000
    d8c8:	e3200409 	.word	0xe3200409
    d8cc:	00600000 	.word	0x00600000
    d8d0:	e3400409 	.word	0xe3400409
    d8d4:	00600000 	.word	0x00600000
    d8d8:	e3600409 	.word	0xe3600409
    d8dc:	00600000 	.word	0x00600000
    d8e0:	e3800409 	.word	0xe3800409
    d8e4:	00600000 	.word	0x00600000
    d8e8:	e3a00409 	.word	0xe3a00409
    d8ec:	00600000 	.word	0x00600000
    d8f0:	e3c00409 	.word	0xe3c00409
    d8f4:	00600000 	.word	0x00600000
    d8f8:	e3e00409 	.word	0xe3e00409
    d8fc:	00600000 	.word	0x00600000
    d900:	e4000409 	.word	0xe4000409
    d904:	00600000 	.word	0x00600000
    d908:	e4200409 	.word	0xe4200409
    d90c:	00600000 	.word	0x00600000
    d910:	e4400409 	.word	0xe4400409
    d914:	00600000 	.word	0x00600000
    d918:	e4600409 	.word	0xe4600409
    d91c:	00600000 	.word	0x00600000
    d920:	e4800409 	.word	0xe4800409
    d924:	00600000 	.word	0x00600000
    d928:	e4a00409 	.word	0xe4a00409
    d92c:	00600000 	.word	0x00600000
    d930:	e4c00409 	.word	0xe4c00409
    d934:	00600000 	.word	0x00600000
    d938:	e4e00409 	.word	0xe4e00409
    d93c:	00600000 	.word	0x00600000
    d940:	e5000409 	.word	0xe5000409
    d944:	00600000 	.word	0x00600000
    d948:	e5200409 	.word	0xe5200409
    d94c:	00600000 	.word	0x00600000
    d950:	e5400409 	.word	0xe5400409
    d954:	00600000 	.word	0x00600000
    d958:	e5600409 	.word	0xe5600409
    d95c:	00600000 	.word	0x00600000
    d960:	e5800409 	.word	0xe5800409
    d964:	00600000 	.word	0x00600000
    d968:	e5a00409 	.word	0xe5a00409
    d96c:	00600000 	.word	0x00600000
    d970:	e5c00409 	.word	0xe5c00409
    d974:	00600000 	.word	0x00600000
    d978:	e5e00409 	.word	0xe5e00409
    d97c:	00600000 	.word	0x00600000
    d980:	e6000409 	.word	0xe6000409
    d984:	00600000 	.word	0x00600000
    d988:	e6200409 	.word	0xe6200409
    d98c:	00600000 	.word	0x00600000
    d990:	e6400409 	.word	0xe6400409
    d994:	00600000 	.word	0x00600000
    d998:	e6600409 	.word	0xe6600409
    d99c:	00600000 	.word	0x00600000
    d9a0:	e6800409 	.word	0xe6800409
    d9a4:	00600000 	.word	0x00600000
    d9a8:	e6a00409 	.word	0xe6a00409
    d9ac:	00600000 	.word	0x00600000
    d9b0:	e6c00409 	.word	0xe6c00409
    d9b4:	00600000 	.word	0x00600000
    d9b8:	e6e00409 	.word	0xe6e00409
    d9bc:	00600000 	.word	0x00600000
    d9c0:	e7000409 	.word	0xe7000409
    d9c4:	00600000 	.word	0x00600000
    d9c8:	e7200409 	.word	0xe7200409
    d9cc:	00600000 	.word	0x00600000
    d9d0:	e7400409 	.word	0xe7400409
    d9d4:	00600000 	.word	0x00600000
    d9d8:	e7600409 	.word	0xe7600409
    d9dc:	00600000 	.word	0x00600000
    d9e0:	e7800409 	.word	0xe7800409
    d9e4:	00600000 	.word	0x00600000
    d9e8:	e7a00409 	.word	0xe7a00409
    d9ec:	00600000 	.word	0x00600000
    d9f0:	e7c00409 	.word	0xe7c00409
    d9f4:	00600000 	.word	0x00600000
    d9f8:	e7e00409 	.word	0xe7e00409
    d9fc:	00600000 	.word	0x00600000
    da00:	e8000409 	.word	0xe8000409
    da04:	00600000 	.word	0x00600000
    da08:	e8200409 	.word	0xe8200409
    da0c:	00600000 	.word	0x00600000
    da10:	e8400409 	.word	0xe8400409
    da14:	00600000 	.word	0x00600000
    da18:	e8600409 	.word	0xe8600409
    da1c:	00600000 	.word	0x00600000
    da20:	e8800409 	.word	0xe8800409
    da24:	00600000 	.word	0x00600000
    da28:	e8a00409 	.word	0xe8a00409
    da2c:	00600000 	.word	0x00600000
    da30:	e8c00409 	.word	0xe8c00409
    da34:	00600000 	.word	0x00600000
    da38:	e8e00409 	.word	0xe8e00409
    da3c:	00600000 	.word	0x00600000
    da40:	e9000409 	.word	0xe9000409
    da44:	00600000 	.word	0x00600000
    da48:	e9200409 	.word	0xe9200409
    da4c:	00600000 	.word	0x00600000
    da50:	e9400409 	.word	0xe9400409
    da54:	00600000 	.word	0x00600000
    da58:	e9600409 	.word	0xe9600409
    da5c:	00600000 	.word	0x00600000
    da60:	e9800409 	.word	0xe9800409
    da64:	00600000 	.word	0x00600000
    da68:	e9a00409 	.word	0xe9a00409
    da6c:	00600000 	.word	0x00600000
    da70:	e9c00409 	.word	0xe9c00409
    da74:	00600000 	.word	0x00600000
    da78:	e9e00409 	.word	0xe9e00409
    da7c:	00600000 	.word	0x00600000
    da80:	ea000409 	.word	0xea000409
    da84:	00600000 	.word	0x00600000
    da88:	ea200409 	.word	0xea200409
    da8c:	00600000 	.word	0x00600000
    da90:	ea400409 	.word	0xea400409
    da94:	00600000 	.word	0x00600000
    da98:	ea600409 	.word	0xea600409
    da9c:	00600000 	.word	0x00600000
    daa0:	ea800409 	.word	0xea800409
    daa4:	00600000 	.word	0x00600000
    daa8:	eaa00409 	.word	0xeaa00409
    daac:	00600000 	.word	0x00600000
    dab0:	eac00409 	.word	0xeac00409
    dab4:	00600000 	.word	0x00600000
    dab8:	eae00409 	.word	0xeae00409
    dabc:	00600000 	.word	0x00600000
    dac0:	eb000409 	.word	0xeb000409
    dac4:	00600000 	.word	0x00600000
    dac8:	eb200409 	.word	0xeb200409
    dacc:	00600000 	.word	0x00600000
    dad0:	eb400409 	.word	0xeb400409
    dad4:	00600000 	.word	0x00600000
    dad8:	eb600409 	.word	0xeb600409
    dadc:	00600000 	.word	0x00600000
    dae0:	eb800409 	.word	0xeb800409
    dae4:	00600000 	.word	0x00600000
    dae8:	eba00409 	.word	0xeba00409
    daec:	00600000 	.word	0x00600000
    daf0:	ebc00409 	.word	0xebc00409
    daf4:	00600000 	.word	0x00600000
    daf8:	ebe00409 	.word	0xebe00409
    dafc:	00600000 	.word	0x00600000
    db00:	ec000409 	.word	0xec000409
    db04:	00600000 	.word	0x00600000
    db08:	ec200409 	.word	0xec200409
    db0c:	00600000 	.word	0x00600000
    db10:	ec400409 	.word	0xec400409
    db14:	00600000 	.word	0x00600000
    db18:	ec600409 	.word	0xec600409
    db1c:	00600000 	.word	0x00600000
    db20:	ec800409 	.word	0xec800409
    db24:	00600000 	.word	0x00600000
    db28:	eca00409 	.word	0xeca00409
    db2c:	00600000 	.word	0x00600000
    db30:	ecc00409 	.word	0xecc00409
    db34:	00600000 	.word	0x00600000
    db38:	ece00409 	.word	0xece00409
    db3c:	00600000 	.word	0x00600000
    db40:	ed000409 	.word	0xed000409
    db44:	00600000 	.word	0x00600000
    db48:	ed200409 	.word	0xed200409
    db4c:	00600000 	.word	0x00600000
    db50:	ed400409 	.word	0xed400409
    db54:	00600000 	.word	0x00600000
    db58:	ed600409 	.word	0xed600409
    db5c:	00600000 	.word	0x00600000
    db60:	ed800409 	.word	0xed800409
    db64:	00600000 	.word	0x00600000
    db68:	eda00409 	.word	0xeda00409
    db6c:	00600000 	.word	0x00600000
    db70:	edc00409 	.word	0xedc00409
    db74:	00600000 	.word	0x00600000
    db78:	ede00409 	.word	0xede00409
    db7c:	00600000 	.word	0x00600000
    db80:	ee000409 	.word	0xee000409
    db84:	00600000 	.word	0x00600000
    db88:	ee200409 	.word	0xee200409
    db8c:	00600000 	.word	0x00600000
    db90:	ee400409 	.word	0xee400409
    db94:	00600000 	.word	0x00600000
    db98:	ee600409 	.word	0xee600409
    db9c:	00600000 	.word	0x00600000
    dba0:	ee800409 	.word	0xee800409
    dba4:	00600000 	.word	0x00600000
    dba8:	eea00409 	.word	0xeea00409
    dbac:	00600000 	.word	0x00600000
    dbb0:	eec00409 	.word	0xeec00409
    dbb4:	00600000 	.word	0x00600000
    dbb8:	eee00409 	.word	0xeee00409
    dbbc:	00600000 	.word	0x00600000
    dbc0:	ef000409 	.word	0xef000409
    dbc4:	00600000 	.word	0x00600000
    dbc8:	ef200409 	.word	0xef200409
    dbcc:	00600000 	.word	0x00600000
    dbd0:	ef400409 	.word	0xef400409
    dbd4:	00600000 	.word	0x00600000
    dbd8:	ef600409 	.word	0xef600409
    dbdc:	00600000 	.word	0x00600000
    dbe0:	ef800409 	.word	0xef800409
    dbe4:	00600000 	.word	0x00600000
    dbe8:	efa00409 	.word	0xefa00409
    dbec:	00600000 	.word	0x00600000
    dbf0:	efc00409 	.word	0xefc00409
    dbf4:	00600000 	.word	0x00600000
    dbf8:	efe00409 	.word	0xefe00409
    dbfc:	00600000 	.word	0x00600000
    dc00:	f0000000 	.word	0xf0000000
    dc04:	00000000 	.word	0x00000000
    dc08:	f0200000 	.word	0xf0200000
    dc0c:	00000000 	.word	0x00000000
    dc10:	f0400000 	.word	0xf0400000
    dc14:	00000000 	.word	0x00000000
    dc18:	f0600000 	.word	0xf0600000
    dc1c:	00000000 	.word	0x00000000
    dc20:	f0800000 	.word	0xf0800000
    dc24:	00000000 	.word	0x00000000
    dc28:	f0a00000 	.word	0xf0a00000
    dc2c:	00000000 	.word	0x00000000
    dc30:	f0c00000 	.word	0xf0c00000
    dc34:	00000000 	.word	0x00000000
    dc38:	f0e00000 	.word	0xf0e00000
    dc3c:	00000000 	.word	0x00000000
    dc40:	f1000000 	.word	0xf1000000
    dc44:	00000000 	.word	0x00000000
    dc48:	f1200000 	.word	0xf1200000
    dc4c:	00000000 	.word	0x00000000
    dc50:	f1400000 	.word	0xf1400000
    dc54:	00000000 	.word	0x00000000
    dc58:	f1600000 	.word	0xf1600000
    dc5c:	00000000 	.word	0x00000000
    dc60:	f1800000 	.word	0xf1800000
    dc64:	00000000 	.word	0x00000000
    dc68:	f1a00000 	.word	0xf1a00000
    dc6c:	00000000 	.word	0x00000000
    dc70:	f1c00000 	.word	0xf1c00000
    dc74:	00000000 	.word	0x00000000
    dc78:	f1e00000 	.word	0xf1e00000
    dc7c:	00000000 	.word	0x00000000
    dc80:	f2000000 	.word	0xf2000000
    dc84:	00000000 	.word	0x00000000
    dc88:	f2200000 	.word	0xf2200000
    dc8c:	00000000 	.word	0x00000000
    dc90:	f2400000 	.word	0xf2400000
    dc94:	00000000 	.word	0x00000000
    dc98:	f2600000 	.word	0xf2600000
    dc9c:	00000000 	.word	0x00000000
    dca0:	f2800000 	.word	0xf2800000
    dca4:	00000000 	.word	0x00000000
    dca8:	f2a00000 	.word	0xf2a00000
    dcac:	00000000 	.word	0x00000000
    dcb0:	f2c00000 	.word	0xf2c00000
    dcb4:	00000000 	.word	0x00000000
    dcb8:	f2e00000 	.word	0xf2e00000
    dcbc:	00000000 	.word	0x00000000
    dcc0:	f3000000 	.word	0xf3000000
    dcc4:	00000000 	.word	0x00000000
    dcc8:	f3200000 	.word	0xf3200000
    dccc:	00000000 	.word	0x00000000
    dcd0:	f3400000 	.word	0xf3400000
    dcd4:	00000000 	.word	0x00000000
    dcd8:	f3600000 	.word	0xf3600000
    dcdc:	00000000 	.word	0x00000000
    dce0:	f3800000 	.word	0xf3800000
    dce4:	00000000 	.word	0x00000000
    dce8:	f3a00000 	.word	0xf3a00000
    dcec:	00000000 	.word	0x00000000
    dcf0:	f3c00000 	.word	0xf3c00000
    dcf4:	00000000 	.word	0x00000000
    dcf8:	f3e00000 	.word	0xf3e00000
    dcfc:	00000000 	.word	0x00000000
    dd00:	f4000000 	.word	0xf4000000
    dd04:	00000000 	.word	0x00000000
    dd08:	f4200000 	.word	0xf4200000
    dd0c:	00000000 	.word	0x00000000
    dd10:	f4400000 	.word	0xf4400000
    dd14:	00000000 	.word	0x00000000
    dd18:	f4600000 	.word	0xf4600000
    dd1c:	00000000 	.word	0x00000000
    dd20:	f4800000 	.word	0xf4800000
    dd24:	00000000 	.word	0x00000000
    dd28:	f4a00000 	.word	0xf4a00000
    dd2c:	00000000 	.word	0x00000000
    dd30:	f4c00000 	.word	0xf4c00000
    dd34:	00000000 	.word	0x00000000
    dd38:	f4e00000 	.word	0xf4e00000
    dd3c:	00000000 	.word	0x00000000
    dd40:	f5000000 	.word	0xf5000000
    dd44:	00000000 	.word	0x00000000
    dd48:	f5200000 	.word	0xf5200000
    dd4c:	00000000 	.word	0x00000000
    dd50:	f5400000 	.word	0xf5400000
    dd54:	00000000 	.word	0x00000000
    dd58:	f5600000 	.word	0xf5600000
    dd5c:	00000000 	.word	0x00000000
    dd60:	f5800000 	.word	0xf5800000
    dd64:	00000000 	.word	0x00000000
    dd68:	f5a00000 	.word	0xf5a00000
    dd6c:	00000000 	.word	0x00000000
    dd70:	f5c00000 	.word	0xf5c00000
    dd74:	00000000 	.word	0x00000000
    dd78:	f5e00000 	.word	0xf5e00000
    dd7c:	00000000 	.word	0x00000000
    dd80:	f6000000 	.word	0xf6000000
    dd84:	00000000 	.word	0x00000000
    dd88:	f6200000 	.word	0xf6200000
    dd8c:	00000000 	.word	0x00000000
    dd90:	f6400000 	.word	0xf6400000
    dd94:	00000000 	.word	0x00000000
    dd98:	f6600000 	.word	0xf6600000
    dd9c:	00000000 	.word	0x00000000
    dda0:	f6800000 	.word	0xf6800000
    dda4:	00000000 	.word	0x00000000
    dda8:	f6a00000 	.word	0xf6a00000
    ddac:	00000000 	.word	0x00000000
    ddb0:	f6c00000 	.word	0xf6c00000
    ddb4:	00000000 	.word	0x00000000
    ddb8:	f6e00000 	.word	0xf6e00000
    ddbc:	00000000 	.word	0x00000000
    ddc0:	f7000000 	.word	0xf7000000
    ddc4:	00000000 	.word	0x00000000
    ddc8:	f7200000 	.word	0xf7200000
    ddcc:	00000000 	.word	0x00000000
    ddd0:	f7400000 	.word	0xf7400000
    ddd4:	00000000 	.word	0x00000000
    ddd8:	f7600000 	.word	0xf7600000
    dddc:	00000000 	.word	0x00000000
    dde0:	f7800000 	.word	0xf7800000
    dde4:	00000000 	.word	0x00000000
    dde8:	f7a00000 	.word	0xf7a00000
    ddec:	00000000 	.word	0x00000000
    ddf0:	f7c00000 	.word	0xf7c00000
    ddf4:	00000000 	.word	0x00000000
    ddf8:	f7e00000 	.word	0xf7e00000
    ddfc:	00000000 	.word	0x00000000
    de00:	f8000409 	.word	0xf8000409
    de04:	00600000 	.word	0x00600000
    de08:	f8200409 	.word	0xf8200409
    de0c:	00600000 	.word	0x00600000
    de10:	f8400409 	.word	0xf8400409
    de14:	00600000 	.word	0x00600000
    de18:	f8600409 	.word	0xf8600409
    de1c:	00600000 	.word	0x00600000
    de20:	f8800409 	.word	0xf8800409
    de24:	00600000 	.word	0x00600000
    de28:	f8a00409 	.word	0xf8a00409
    de2c:	00600000 	.word	0x00600000
    de30:	f8c00409 	.word	0xf8c00409
    de34:	00600000 	.word	0x00600000
    de38:	f8e00409 	.word	0xf8e00409
    de3c:	00600000 	.word	0x00600000
    de40:	f9000409 	.word	0xf9000409
    de44:	00600000 	.word	0x00600000
    de48:	f9200000 	.word	0xf9200000
    de4c:	00000000 	.word	0x00000000
    de50:	f9400000 	.word	0xf9400000
    de54:	00000000 	.word	0x00000000
    de58:	f9600000 	.word	0xf9600000
    de5c:	00000000 	.word	0x00000000
    de60:	f9800000 	.word	0xf9800000
    de64:	00000000 	.word	0x00000000
    de68:	f9a00000 	.word	0xf9a00000
    de6c:	00000000 	.word	0x00000000
    de70:	f9c00000 	.word	0xf9c00000
    de74:	00000000 	.word	0x00000000
    de78:	f9e00000 	.word	0xf9e00000
    de7c:	00000000 	.word	0x00000000
    de80:	fa000000 	.word	0xfa000000
    de84:	00000000 	.word	0x00000000
    de88:	fa200000 	.word	0xfa200000
    de8c:	00000000 	.word	0x00000000
    de90:	fa400000 	.word	0xfa400000
    de94:	00000000 	.word	0x00000000
    de98:	fa600000 	.word	0xfa600000
    de9c:	00000000 	.word	0x00000000
    dea0:	fa800000 	.word	0xfa800000
    dea4:	00000000 	.word	0x00000000
    dea8:	faa00000 	.word	0xfaa00000
    deac:	00000000 	.word	0x00000000
    deb0:	fac00000 	.word	0xfac00000
    deb4:	00000000 	.word	0x00000000
    deb8:	fae00000 	.word	0xfae00000
    debc:	00000000 	.word	0x00000000
    dec0:	fb000000 	.word	0xfb000000
    dec4:	00000000 	.word	0x00000000
    dec8:	fb200000 	.word	0xfb200000
    decc:	00000000 	.word	0x00000000
    ded0:	fb400000 	.word	0xfb400000
    ded4:	00000000 	.word	0x00000000
    ded8:	fb600000 	.word	0xfb600000
    dedc:	00000000 	.word	0x00000000
    dee0:	fb800000 	.word	0xfb800000
    dee4:	00000000 	.word	0x00000000
    dee8:	fba00000 	.word	0xfba00000
    deec:	00000000 	.word	0x00000000
    def0:	fbc00000 	.word	0xfbc00000
    def4:	00000000 	.word	0x00000000
    def8:	fbe00000 	.word	0xfbe00000
    defc:	00000000 	.word	0x00000000
    df00:	fc000000 	.word	0xfc000000
    df04:	00000000 	.word	0x00000000
    df08:	fc200000 	.word	0xfc200000
    df0c:	00000000 	.word	0x00000000
    df10:	fc400000 	.word	0xfc400000
    df14:	00000000 	.word	0x00000000
    df18:	fc600000 	.word	0xfc600000
    df1c:	00000000 	.word	0x00000000
    df20:	fc800000 	.word	0xfc800000
    df24:	00000000 	.word	0x00000000
    df28:	fca00000 	.word	0xfca00000
    df2c:	00000000 	.word	0x00000000
    df30:	fcc00000 	.word	0xfcc00000
    df34:	00000000 	.word	0x00000000
    df38:	fce00000 	.word	0xfce00000
    df3c:	00000000 	.word	0x00000000
    df40:	fd000409 	.word	0xfd000409
    df44:	00600000 	.word	0x00600000
    df48:	fd200409 	.word	0xfd200409
    df4c:	00600000 	.word	0x00600000
    df50:	fd400409 	.word	0xfd400409
    df54:	00600000 	.word	0x00600000
    df58:	fd600409 	.word	0xfd600409
    df5c:	00600000 	.word	0x00600000
    df60:	fd800409 	.word	0xfd800409
    df64:	00600000 	.word	0x00600000
    df68:	fda00409 	.word	0xfda00409
    df6c:	00600000 	.word	0x00600000
    df70:	fdc00409 	.word	0xfdc00409
    df74:	00600000 	.word	0x00600000
    df78:	fde00409 	.word	0xfde00409
    df7c:	00600000 	.word	0x00600000
    df80:	fe000409 	.word	0xfe000409
    df84:	00600000 	.word	0x00600000
    df88:	fe200409 	.word	0xfe200409
    df8c:	00600000 	.word	0x00600000
    df90:	fe400409 	.word	0xfe400409
    df94:	00600000 	.word	0x00600000
    df98:	fe600409 	.word	0xfe600409
    df9c:	00600000 	.word	0x00600000
    dfa0:	fe800409 	.word	0xfe800409
    dfa4:	00600000 	.word	0x00600000
    dfa8:	fea00409 	.word	0xfea00409
    dfac:	00600000 	.word	0x00600000
    dfb0:	fec00409 	.word	0xfec00409
    dfb4:	00600000 	.word	0x00600000
    dfb8:	fee00409 	.word	0xfee00409
    dfbc:	00600000 	.word	0x00600000
    dfc0:	ff000409 	.word	0xff000409
    dfc4:	00600000 	.word	0x00600000
    dfc8:	ff200409 	.word	0xff200409
    dfcc:	00600000 	.word	0x00600000
    dfd0:	ff400409 	.word	0xff400409
    dfd4:	00600000 	.word	0x00600000
    dfd8:	ff600409 	.word	0xff600409
    dfdc:	00600000 	.word	0x00600000
    dfe0:	ff800409 	.word	0xff800409
    dfe4:	00600000 	.word	0x00600000
    dfe8:	ffa00409 	.word	0xffa00409
    dfec:	00600000 	.word	0x00600000
    dff0:	ffc00409 	.word	0xffc00409
    dff4:	00600000 	.word	0x00600000
    dff8:	ffe00705 	.word	0xffe00705
    dffc:	00000000 	.word	0x00000000

Disassembly of section .init_array:

000000000000e000 <__init_array_start>:
    e000:	00000c40 	.word	0x00000c40
    e004:	00000000 	.word	0x00000000

Disassembly of section .fini_array:

000000000000e008 <__fini_array_start-0x38>:
	...

000000000000e040 <__fini_array_start>:
    e040:	00000bf8 	.word	0x00000bf8
    e044:	00000000 	.word	0x00000000

Disassembly of section .sdata:

000000000000e048 <__sdata_end-0x38>:
	...

Disassembly of section .bss:

000000000000e080 <__bss_start__>:
	...

000000000000e088 <object.7094>:
	...

000000000000e0b8 <__malloc_top_pad>:
	...

000000000000e0c0 <__malloc_current_mallinfo>:
	...

000000000000e0e8 <__malloc_max_sbrked_mem>:
	...

000000000000e0f0 <__malloc_max_total_mem>:
	...

000000000000e0f8 <heap.3277>:
	...

000000000000e100 <errno>:
	...

Disassembly of section .heap:

000000000000e140 <HeapBase>:
	...

Disassembly of section .stack:

0000000000026140 <_el3_stack_end>:
	...

0000000000027140 <__el3_stack>:
	...

0000000000027540 <__el2_stack>:
	...

0000000000027d40 <__el1_stack>:
	...

Disassembly of section .comment:

0000000000000000 <.comment>:
   0:	3a434347 	ccmn	w26, w3, #0x7, mi  // mi = first
   4:	694c2820 	ldpsw	x0, x10, [x1, #96]
   8:	6f72616e 	umlsl2	v14.4s, v11.8h, v2.h[3]
   c:	43434720 	.inst	0x43434720 ; undefined
  10:	332e3720 	.inst	0x332e3720 ; undefined
  14:	3130322d 	adds	w13, w17, #0xc0c
  18:	34302e38 	cbz	w24, 605dc <__el0_stack+0x3849c>
  1c:	3363722d 	.inst	0x3363722d ; undefined
  20:	2e372029 	usubl	v9.8h, v1.8b, v23.8b
  24:	20312e33 	.inst	0x20312e33 ; undefined
  28:	38313032 	ldsetb	w17, w18, [x1]
  2c:	34313330 	cbz	w16, 62690 <__el0_stack+0x3a550>
	...

Disassembly of section .debug_line:

0000000000000000 <.debug_line>:
   0:	000000db 	.inst	0x000000db ; undefined
   4:	00800002 	.inst	0x00800002 ; undefined
   8:	01040000 	.inst	0x01040000 ; undefined
   c:	000d0efb 	.inst	0x000d0efb ; undefined
  10:	01010101 	.inst	0x01010101 ; undefined
  14:	01000000 	.inst	0x01000000 ; undefined
  18:	2f010000 	.inst	0x2f010000 ; undefined
  1c:	6a6f7270 	bics	w16, w19, w15, lsr #28
  20:	6473652f 	.inst	0x6473652f ; undefined
  24:	64735f74 	.inst	0x64735f74 ; undefined
  28:	6e672f6b 	uqsub	v11.8h, v27.8h, v7.8h
  2c:	62615f75 	.inst	0x62615f75 ; undefined
  30:	42412f65 	.inst	0x42412f65 ; undefined
  34:	75622f45 	.inst	0x75622f45 ; undefined
  38:	73646c69 	.inst	0x73646c69 ; undefined
  3c:	6e696c2f 	umin	v15.8h, v1.8h, v9.8h
  40:	6d72612f 	ldp	d15, d24, [x9, #-224]
  44:	6d72612f 	ldp	d15, d24, [x9, #-224]
  48:	6e696c2d 	umin	v13.8h, v1.8h, v9.8h
  4c:	732f7875 	.inst	0x732f7875 ; undefined
  50:	7370616e 	.inst	0x7370616e ; undefined
  54:	73746f68 	.inst	0x73746f68 ; undefined
  58:	77656e2f 	.inst	0x77656e2f ; undefined
  5c:	2d62696c 	ldp	s12, s26, [x11, #-240]
  60:	6c77656e 	ldnp	d14, d25, [x11, #-144]
  64:	322d6269 	orr	w9, w19, #0xfff80fff
  68:	305f345f 	adr	xzr, be6f1 <__el0_stack+0x965b1>
  6c:	62696c2f 	.inst	0x62696c2f ; undefined
  70:	736f6c67 	.inst	0x736f6c67 ; undefined
  74:	61612f73 	.inst	0x61612f73 ; undefined
  78:	36686372 	tbz	w18, #13, ce4 <_mainCRTStartup+0x6c>
  7c:	63000034 	.inst	0x63000034 ; undefined
  80:	2e307472 	uabd	v18.8b, v3.8b, v16.8b
  84:	00010053 	.inst	0x00010053 ; undefined
  88:	09000000 	.inst	0x09000000 ; undefined
  8c:	000c7802 	.inst	0x000c7802 ; undefined
  90:	00000000 	.inst	0x00000000 ; undefined
  94:	00d90300 	.inst	0x00d90300 ; undefined
  98:	03212101 	.inst	0x03212101 ; undefined
  9c:	0321200a 	.inst	0x0321200a ; undefined
  a0:	2321201a 	.inst	0x2321201a ; undefined
  a4:	23232121 	.inst	0x23232121 ; undefined
  a8:	21212121 	.inst	0x21212121 ; undefined
  ac:	22212523 	.inst	0x22212523 ; undefined
  b0:	21212123 	.inst	0x21212123 ; undefined
  b4:	23212122 	.inst	0x23212122 ; undefined
  b8:	21212123 	.inst	0x21212123 ; undefined
  bc:	21212422 	.inst	0x21212422 ; undefined
  c0:	21232121 	.inst	0x21232121 ; undefined
  c4:	21212123 	.inst	0x21212123 ; undefined
  c8:	24212123 	cmplo	p3.b, p0/z, z9.b, #4
  cc:	21212121 	.inst	0x21212121 ; undefined
  d0:	21212121 	.inst	0x21212121 ; undefined
  d4:	22212321 	.inst	0x22212321 ; undefined
  d8:	0f022722 	movi	v2.2s, #0x59, lsl #8
  dc:	81010100 	.inst	0x81010100 ; undefined
  e0:	02000000 	.inst	0x02000000 ; undefined
  e4:	00002400 	.inst	0x00002400 ; undefined
  e8:	fb010400 	.inst	0xfb010400 ; undefined
  ec:	01000d0e 	.inst	0x01000d0e ; undefined
  f0:	00010101 	.inst	0x00010101 ; undefined
  f4:	00010000 	.inst	0x00010000 ; undefined
  f8:	61000100 	.inst	0x61000100 ; undefined
  fc:	765f6d73 	.inst	0x765f6d73 ; undefined
 100:	6f746365 	umlsl2	v5.4s, v27.8h, v4.h[3]
 104:	532e7372 	.inst	0x532e7372 ; undefined
 108:	00000000 	.inst	0x00000000 ; undefined
 10c:	02090000 	.inst	0x02090000 ; undefined
	...
 118:	0101cf03 	.inst	0x0101cf03 ; undefined
 11c:	14018002 	b	60124 <__el0_stack+0x37fe4>
 120:	e708e708 	.inst	0xe708e708 ; undefined
 124:	b024e708 	adrp	x8, 49ce1000 <counterfreq+0x43d8560b>
 128:	22212124 	.inst	0x22212124 ; undefined
 12c:	26212127 	.inst	0x26212127 ; undefined
 130:	26212125 	.inst	0x26212125 ; undefined
 134:	21212121 	.inst	0x21212121 ; undefined
 138:	59082221 	.inst	0x59082221 ; undefined
 13c:	24ad2222 	cmplo	p2.s, p0/z, z17.s, #52
 140:	262121af 	.inst	0x262121af ; undefined
 144:	21212421 	.inst	0x21212421 ; undefined
 148:	21272226 	.inst	0x21272226 ; undefined
 14c:	5c082721 	ldr	d1, 10630 <__bss_end__+0x24f0>
 150:	21212221 	.inst	0x21212221 ; undefined
 154:	ae24ad26 	.inst	0xae24ad26 ; undefined
 158:	ae24ae22 	.inst	0xae24ae22 ; undefined
 15c:	be02ae22 	.inst	0xbe02ae22 ; undefined
 160:	01010001 	.inst	0x01010001 ; undefined
 164:	000000c3 	.inst	0x000000c3 ; undefined
 168:	001d0002 	.inst	0x001d0002 ; undefined
 16c:	01040000 	.inst	0x01040000 ; undefined
 170:	000d0efb 	.inst	0x000d0efb ; undefined
 174:	01010101 	.inst	0x01010101 ; undefined
 178:	01000000 	.inst	0x01000000 ; undefined
 17c:	00010000 	.inst	0x00010000 ; undefined
 180:	746f6f62 	.inst	0x746f6f62 ; undefined
 184:	0000532e 	.inst	0x0000532e ; undefined
 188:	00000000 	.inst	0x00000000 ; undefined
 18c:	09380209 	.inst	0x09380209 ; undefined
 190:	00000000 	.inst	0x00000000 ; undefined
 194:	82030000 	.inst	0x82030000 ; undefined
 198:	21210101 	.inst	0x21210101 ; undefined
 19c:	21212121 	.inst	0x21212121 ; undefined
 1a0:	21212121 	.inst	0x21212121 ; undefined
 1a4:	21212121 	.inst	0x21212121 ; undefined
 1a8:	21212121 	.inst	0x21212121 ; undefined
 1ac:	21212121 	.inst	0x21212121 ; undefined
 1b0:	21212121 	.inst	0x21212121 ; undefined
 1b4:	21212121 	.inst	0x21212121 ; undefined
 1b8:	21200d03 	.inst	0x21200d03 ; undefined
 1bc:	22212221 	.inst	0x22212221 ; undefined
 1c0:	21242124 	.inst	0x21242124 ; undefined
 1c4:	21222121 	.inst	0x21222121 ; undefined
 1c8:	21232221 	.inst	0x21232221 ; undefined
 1cc:	21222223 	.inst	0x21222223 ; undefined
 1d0:	21200903 	.inst	0x21200903 ; undefined
 1d4:	21212123 	.inst	0x21212123 ; undefined
 1d8:	23212121 	.inst	0x23212121 ; undefined
 1dc:	21232227 	.inst	0x21232227 ; undefined
 1e0:	21212123 	.inst	0x21212123 ; undefined
 1e4:	21212122 	.inst	0x21212122 ; undefined
 1e8:	03212221 	.inst	0x03212221 ; undefined
 1ec:	2821200b 	stnp	w11, w8, [x0, #-248]
 1f0:	21232121 	.inst	0x21232121 ; undefined
 1f4:	21212321 	.inst	0x21212321 ; undefined
 1f8:	21212121 	.inst	0x21212121 ; undefined
 1fc:	c4032221 	ldff1sb	{z1.d}, p0/z, [x17, z3.d, uxtw]
 200:	25232000 	.inst	0x25232000 ; undefined
 204:	21212121 	.inst	0x21212121 ; undefined
 208:	21212321 	.inst	0x21212321 ; undefined
 20c:	21222121 	.inst	0x21222121 ; undefined
 210:	21222121 	.inst	0x21222121 ; undefined
 214:	23212121 	.inst	0x23212121 ; undefined
 218:	21212122 	.inst	0x21212122 ; undefined
 21c:	21212121 	.inst	0x21212121 ; undefined
 220:	21232121 	.inst	0x21232121 ; undefined
 224:	13022321 	sbfx	w1, w25, #2, #7
 228:	4d010100 	.inst	0x4d010100 ; undefined
 22c:	02000000 	.inst	0x02000000 ; undefined
 230:	00003300 	.inst	0x00003300 ; undefined
 234:	fb010400 	.inst	0xfb010400 ; undefined
 238:	01000d0e 	.inst	0x01000d0e ; undefined
 23c:	00010101 	.inst	0x00010101 ; undefined
 240:	00010000 	.inst	0x00010000 ; undefined
 244:	69000100 	.inst	0x69000100 ; undefined
 248:	6974696e 	ldpsw	x14, x26, [x11, #-96]
 24c:	73696c61 	.inst	0x73696c61 ; undefined
 250:	6f6d5f65 	.inst	0x6f6d5f65 ; undefined
 254:	6f74696e 	umlsl2	v14.4s, v11.8h, v4.h[7]
 258:	61685f72 	.inst	0x61685f72 ; undefined
 25c:	656c646e 	fnmls	z14.h, p1/m, z3.h, z12.h
 260:	00632e73 	.inst	0x00632e73 ; undefined
 264:	00000000 	.inst	0x00000000 ; undefined
 268:	30020900 	adr	x0, 4389 <memset+0x149>
 26c:	00000037 	.inst	0x00000037 ; undefined
 270:	03000000 	.inst	0x03000000 ; undefined
 274:	0214012d 	.inst	0x0214012d ; undefined
 278:	01010001 	.inst	0x01010001 ; undefined
 27c:	00000169 	.inst	0x00000169 ; undefined
 280:	01410002 	.inst	0x01410002 ; undefined
 284:	01040000 	.inst	0x01040000 ; undefined
 288:	000d0efb 	.inst	0x000d0efb ; undefined
 28c:	01010101 	.inst	0x01010101 ; undefined
 290:	01000000 	.inst	0x01000000 ; undefined
 294:	2f010000 	.inst	0x2f010000 ; undefined
 298:	6964656d 	ldpsw	x13, x25, [x11, #-224]
 29c:	756e2f61 	.inst	0x756e2f61 ; undefined
 2a0:	482f6f6e 	.inst	0x482f6f6e ; undefined
 2a4:	582f4444 	ldr	x4, 5eb2c <__el0_stack+0x369ec>
 2a8:	6e696c69 	umin	v9.8h, v3.8h, v9.8h
 2ac:	44532f78 	.inst	0x44532f78 ; undefined
 2b0:	30322f4b 	adr	x11, 64899 <__el0_stack+0x3c759>
 2b4:	332e3831 	.inst	0x332e3831 ; undefined
 2b8:	756e672f 	.inst	0x756e672f ; undefined
 2bc:	7261612f 	.inst	0x7261612f ; undefined
 2c0:	34366863 	cbz	w3, 6cfcc <__el0_stack+0x44e8c>
 2c4:	6e696c2f 	umin	v15.8h, v1.8h, v9.8h
 2c8:	7261612f 	.inst	0x7261612f ; undefined
 2cc:	34366863 	cbz	w3, 6cfd8 <__el0_stack+0x44e98>
 2d0:	6e6f6e2d 	umin	v13.8h, v17.8h, v15.8h
 2d4:	61612f65 	.inst	0x61612f65 ; undefined
 2d8:	36686372 	tbz	w18, #13, f44 <freeDataBanks+0x64>
 2dc:	6f6e2d34 	.inst	0x6f6e2d34 ; undefined
 2e0:	652d656e 	.inst	0x652d656e ; undefined
 2e4:	6c2f666c 	stnp	d12, d25, [x19, #-272]
 2e8:	2f636269 	umlsl	v9.4s, v19.4h, v3.h[2]
 2ec:	2f727375 	.inst	0x2f727375 ; undefined
 2f0:	6c636e69 	ldnp	d9, d27, [x19, #-464]
 2f4:	2f656475 	.inst	0x2f656475 ; undefined
 2f8:	6863616d 	.inst	0x6863616d ; undefined
 2fc:	00656e69 	.inst	0x00656e69 ; undefined
 300:	64656d2f 	.inst	0x64656d2f ; undefined
 304:	6e2f6169 	rsubhn2	v9.16b, v11.8h, v15.8h
 308:	2f6f6e75 	.inst	0x2f6f6e75 ; undefined
 30c:	2f444448 	.inst	0x2f444448 ; undefined
 310:	696c6958 	ldpsw	x24, x26, [x10, #-160]
 314:	532f786e 	.inst	0x532f786e ; undefined
 318:	322f4b44 	orr	w4, w26, #0xfffe000f
 31c:	2e383130 	usubw	v16.8h, v9.8h, v24.8b
 320:	6e672f33 	uqsub	v19.8h, v25.8h, v7.8h
 324:	61612f75 	.inst	0x61612f75 ; undefined
 328:	36686372 	tbz	w18, #13, f94 <qmalloc+0x2c>
 32c:	696c2f34 	ldpsw	x20, x11, [x25, #-160]
 330:	61612f6e 	.inst	0x61612f6e ; undefined
 334:	36686372 	tbz	w18, #13, fa0 <qmalloc+0x38>
 338:	6f6e2d34 	.inst	0x6f6e2d34 ; undefined
 33c:	612f656e 	.inst	0x612f656e ; undefined
 340:	68637261 	.inst	0x68637261 ; undefined
 344:	6e2d3436 	cmhi	v22.16b, v1.16b, v13.16b
 348:	2d656e6f 	ldp	s15, s27, [x19, #-216]
 34c:	2f666c65 	.inst	0x2f666c65 ; undefined
 350:	6362696c 	.inst	0x6362696c ; undefined
 354:	7273752f 	.inst	0x7273752f ; undefined
 358:	636e692f 	.inst	0x636e692f ; undefined
 35c:	6564756c 	fnmls	z12.h, p5/m, z11.h, z4.h
 360:	7379732f 	.inst	0x7379732f ; undefined
 364:	65760000 	fmla	z0.h, p0/m, z0.h, z22.h
 368:	726f7463 	.inst	0x726f7463 ; undefined
 36c:	00632e73 	.inst	0x00632e73 ; undefined
 370:	5f000000 	.inst	0x5f000000 ; undefined
 374:	61666564 	.inst	0x61666564 ; undefined
 378:	5f746c75 	.inst	0x5f746c75 ; undefined
 37c:	65707974 	fnmls	z20.h, p6/m, z11.h, z16.h
 380:	00682e73 	.inst	0x00682e73 ; undefined
 384:	5f000001 	.inst	0x5f000001 ; undefined
 388:	69647473 	ldpsw	x19, x29, [x3, #-224]
 38c:	682e746e 	.inst	0x682e746e ; undefined
 390:	00000200 	.inst	0x00000200 ; undefined
 394:	5f6c6978 	.inst	0x5f6c6978 ; undefined
 398:	65707974 	fnmls	z20.h, p6/m, z11.h, z16.h
 39c:	00682e73 	.inst	0x00682e73 ; undefined
 3a0:	78000000 	sturh	w0, [x0]
 3a4:	655f6c69 	fcmeq	p9.h, p3/z, z3.h, z31.h
 3a8:	70656378 	adr	x24, cb017 <__el0_stack+0xa2ed7>
 3ac:	6e6f6974 	.inst	0x6e6f6974 ; undefined
 3b0:	0000682e 	.inst	0x0000682e ; undefined
 3b4:	69780000 	.inst	0x69780000 ; undefined
 3b8:	73615f6c 	.inst	0x73615f6c ; undefined
 3bc:	74726573 	.inst	0x74726573 ; undefined
 3c0:	0000682e 	.inst	0x0000682e ; undefined
 3c4:	00000000 	.inst	0x00000000 ; undefined
 3c8:	37380209 	tbnz	w9, #7, 408 <_EL0_STACK_SIZE+0x8>
 3cc:	00000000 	.inst	0x00000000 ; undefined
 3d0:	d6030000 	.inst	0xd6030000 ; undefined
 3d4:	03130100 	.inst	0x03130100 ; undefined
 3d8:	03134a12 	.inst	0x03134a12 ; undefined
 3dc:	134a00e0 	.inst	0x134a00e0 ; undefined
 3e0:	134a1203 	.inst	0x134a1203 ; undefined
 3e4:	01000402 	.inst	0x01000402 ; undefined
 3e8:	00005801 	.inst	0x00005801 ; undefined
 3ec:	21000200 	.inst	0x21000200 ; undefined
 3f0:	04000000 	add	z0.b, p0/m, z0.b, z0.b
 3f4:	0d0efb01 	.inst	0x0d0efb01 ; undefined
 3f8:	01010100 	.inst	0x01010100 ; undefined
 3fc:	00000001 	.inst	0x00000001 ; undefined
 400:	01000001 	.inst	0x01000001 ; undefined
 404:	6c697800 	ldnp	d0, d30, [x0, #-368]
 408:	7472632d 	.inst	0x7472632d ; undefined
 40c:	00532e30 	.inst	0x00532e30 ; undefined
 410:	00000000 	.inst	0x00000000 ; undefined
 414:	98020900 	ldrsw	x0, 4534 <__register_exitproc+0xbc>
 418:	00000037 	.inst	0x00000037 ; undefined
 41c:	03000000 	.inst	0x03000000 ; undefined
 420:	230100ce 	.inst	0x230100ce ; undefined
 424:	21212121 	.inst	0x21212121 ; undefined
 428:	23212121 	.inst	0x23212121 ; undefined
 42c:	21212321 	.inst	0x21212321 ; undefined
 430:	23212421 	.inst	0x23212421 ; undefined
 434:	24212121 	cmplo	p1.b, p0/z, z9.b, #4
 438:	21200c03 	.inst	0x21200c03 ; undefined
 43c:	23222322 	.inst	0x23222322 ; undefined
 440:	01000302 	.inst	0x01000302 ; undefined
 444:	00018301 	.inst	0x00018301 ; undefined
 448:	47000200 	.inst	0x47000200 ; undefined
 44c:	04000001 	add	z1.b, p0/m, z1.b, z0.b
 450:	0d0efb01 	.inst	0x0d0efb01 ; undefined
 454:	01010100 	.inst	0x01010100 ; undefined
 458:	00000001 	.inst	0x00000001 ; undefined
 45c:	01000001 	.inst	0x01000001 ; undefined
 460:	64656d2f 	.inst	0x64656d2f ; undefined
 464:	6e2f6169 	rsubhn2	v9.16b, v11.8h, v15.8h
 468:	2f6f6e75 	.inst	0x2f6f6e75 ; undefined
 46c:	2f444448 	.inst	0x2f444448 ; undefined
 470:	696c6958 	ldpsw	x24, x26, [x10, #-160]
 474:	532f786e 	.inst	0x532f786e ; undefined
 478:	322f4b44 	orr	w4, w26, #0xfffe000f
 47c:	2e383130 	usubw	v16.8h, v9.8h, v24.8b
 480:	6e672f33 	uqsub	v19.8h, v25.8h, v7.8h
 484:	61612f75 	.inst	0x61612f75 ; undefined
 488:	36686372 	tbz	w18, #13, 10f4 <reinit_ivec_short+0xc>
 48c:	696c2f34 	ldpsw	x20, x11, [x25, #-160]
 490:	61612f6e 	.inst	0x61612f6e ; undefined
 494:	36686372 	tbz	w18, #13, 1100 <reinit_ivec_short+0x18>
 498:	6f6e2d34 	.inst	0x6f6e2d34 ; undefined
 49c:	612f656e 	.inst	0x612f656e ; undefined
 4a0:	68637261 	.inst	0x68637261 ; undefined
 4a4:	6e2d3436 	cmhi	v22.16b, v1.16b, v13.16b
 4a8:	2d656e6f 	ldp	s15, s27, [x19, #-216]
 4ac:	2f666c65 	.inst	0x2f666c65 ; undefined
 4b0:	6362696c 	.inst	0x6362696c ; undefined
 4b4:	7273752f 	.inst	0x7273752f ; undefined
 4b8:	636e692f 	.inst	0x636e692f ; undefined
 4bc:	6564756c 	fnmls	z12.h, p5/m, z11.h, z4.h
 4c0:	63616d2f 	.inst	0x63616d2f ; undefined
 4c4:	656e6968 	fnmls	z8.h, p2/m, z11.h, z14.h
 4c8:	656d2f00 	fmls	z0.h, p3/m, z24.h, z13.h
 4cc:	2f616964 	umlsl	v4.4s, v11.4h, v1.h[6]
 4d0:	6f6e756e 	uqshl	v14.2d, v11.2d, #46
 4d4:	4444482f 	.inst	0x4444482f ; undefined
 4d8:	6c69582f 	ldnp	d15, d22, [x1, #-368]
 4dc:	2f786e69 	.inst	0x2f786e69 ; undefined
 4e0:	2f4b4453 	.inst	0x2f4b4453 ; undefined
 4e4:	38313032 	ldsetb	w17, w18, [x1]
 4e8:	672f332e 	.inst	0x672f332e ; undefined
 4ec:	612f756e 	.inst	0x612f756e ; undefined
 4f0:	68637261 	.inst	0x68637261 ; undefined
 4f4:	6c2f3436 	stnp	d22, d13, [x1, #-272]
 4f8:	612f6e69 	.inst	0x612f6e69 ; undefined
 4fc:	68637261 	.inst	0x68637261 ; undefined
 500:	6e2d3436 	cmhi	v22.16b, v1.16b, v13.16b
 504:	2f656e6f 	.inst	0x2f656e6f ; undefined
 508:	63726161 	.inst	0x63726161 ; undefined
 50c:	2d343668 	stp	s8, s13, [x19, #-96]
 510:	656e6f6e 	fnmls	z14.h, p3/m, z27.h, z14.h
 514:	666c652d 	.inst	0x666c652d ; undefined
 518:	62696c2f 	.inst	0x62696c2f ; undefined
 51c:	73752f63 	.inst	0x73752f63 ; undefined
 520:	6e692f72 	uqsub	v18.8h, v27.8h, v9.8h
 524:	64756c63 	.inst	0x64756c63 ; undefined
 528:	79732f65 	ldrh	w5, [x27, #6550]
 52c:	78000073 	sturh	w19, [x3]
 530:	655f6c69 	fcmeq	p9.h, p3/z, z3.h, z31.h
 534:	70656378 	adr	x24, cb1a3 <__el0_stack+0xa3063>
 538:	6e6f6974 	.inst	0x6e6f6974 ; undefined
 53c:	0000632e 	.inst	0x0000632e ; undefined
 540:	645f0000 	fcmla	z0.h, p0/m, z0.h, z31.h, #0
 544:	75616665 	.inst	0x75616665 ; undefined
 548:	745f746c 	.inst	0x745f746c ; undefined
 54c:	73657079 	.inst	0x73657079 ; undefined
 550:	0100682e 	.inst	0x0100682e ; undefined
 554:	735f0000 	.inst	0x735f0000 ; undefined
 558:	6e696474 	umax	v20.8h, v3.8h, v9.8h
 55c:	00682e74 	.inst	0x00682e74 ; undefined
 560:	78000002 	sturh	w2, [x0]
 564:	745f6c69 	.inst	0x745f6c69 ; undefined
 568:	73657079 	.inst	0x73657079 ; undefined
 56c:	0000682e 	.inst	0x0000682e ; undefined
 570:	69780000 	.inst	0x69780000 ; undefined
 574:	73615f6c 	.inst	0x73615f6c ; undefined
 578:	74726573 	.inst	0x74726573 ; undefined
 57c:	0000682e 	.inst	0x0000682e ; undefined
 580:	69780000 	.inst	0x69780000 ; undefined
 584:	78655f6c 	.inst	0x78655f6c ; undefined
 588:	74706563 	.inst	0x74706563 ; undefined
 58c:	2e6e6f69 	umin	v9.4h, v27.4h, v14.4h
 590:	00000068 	.inst	0x00000068 ; undefined
 594:	09000000 	.inst	0x09000000 ; undefined
 598:	00381002 	.inst	0x00381002 ; NYI
 59c:	00000000 	.inst	0x00000000 ; undefined
 5a0:	00fd0300 	.inst	0x00fd0300 ; undefined
 5a4:	00f20301 	.inst	0x00f20301 ; undefined
 5a8:	2e15032e 	ext	v14.8b, v25.8b, v21.8b, #0
 5ac:	2e7f9003 	.inst	0x2e7f9003 ; undefined
 5b0:	2e160314 	ext	v20.8b, v24.8b, v22.8b, #0
 5b4:	03215913 	.inst	0x03215913 ; undefined
 5b8:	67132e16 	.inst	0x67132e16 ; undefined
 5bc:	2e12032f 	ext	v15.8b, v25.8b, v18.8b, #0
 5c0:	75015303 	.inst	0x75015303 ; undefined
 5c4:	02203003 	.inst	0x02203003 ; undefined
 5c8:	01010001 	.inst	0x01010001 ; undefined
 5cc:	000000b7 	.inst	0x000000b7 ; undefined
 5d0:	009e0002 	.inst	0x009e0002 ; undefined
 5d4:	01040000 	.inst	0x01040000 ; undefined
 5d8:	000d0efb 	.inst	0x000d0efb ; undefined
 5dc:	01010101 	.inst	0x01010101 ; undefined
 5e0:	01000000 	.inst	0x01000000 ; undefined
 5e4:	2f010000 	.inst	0x2f010000 ; undefined
 5e8:	6964656d 	ldpsw	x13, x25, [x11, #-224]
 5ec:	756e2f61 	.inst	0x756e2f61 ; undefined
 5f0:	482f6f6e 	.inst	0x482f6f6e ; undefined
 5f4:	582f4444 	ldr	x4, 5ee7c <__el0_stack+0x36d3c>
 5f8:	6e696c69 	umin	v9.8h, v3.8h, v9.8h
 5fc:	44532f78 	.inst	0x44532f78 ; undefined
 600:	30322f4b 	adr	x11, 64be9 <__el0_stack+0x3caa9>
 604:	332e3831 	.inst	0x332e3831 ; undefined
 608:	756e672f 	.inst	0x756e672f ; undefined
 60c:	7261612f 	.inst	0x7261612f ; undefined
 610:	34366863 	cbz	w3, 6d31c <__el0_stack+0x451dc>
 614:	6e696c2f 	umin	v15.8h, v1.8h, v9.8h
 618:	7261612f 	.inst	0x7261612f ; undefined
 61c:	34366863 	cbz	w3, 6d328 <__el0_stack+0x451e8>
 620:	6e6f6e2d 	umin	v13.8h, v17.8h, v15.8h
 624:	61612f65 	.inst	0x61612f65 ; undefined
 628:	36686372 	tbz	w18, #13, 1294 <initParameters_fromPreset+0xac>
 62c:	6f6e2d34 	.inst	0x6f6e2d34 ; undefined
 630:	652d656e 	.inst	0x652d656e ; undefined
 634:	6c2f666c 	stnp	d12, d25, [x19, #-272]
 638:	2f636269 	umlsl	v9.4s, v19.4h, v3.h[2]
 63c:	2f727375 	.inst	0x2f727375 ; undefined
 640:	6c636e69 	ldnp	d9, d27, [x19, #-464]
 644:	2f656475 	.inst	0x2f656475 ; undefined
 648:	00737973 	.inst	0x00737973 ; undefined
 64c:	78655f00 	.inst	0x78655f00 ; undefined
 650:	632e7469 	.inst	0x632e7469 ; undefined
 654:	00000000 	.inst	0x00000000 ; undefined
 658:	73696e75 	.inst	0x73696e75 ; undefined
 65c:	682e6474 	.inst	0x682e6474 ; undefined
 660:	00000100 	.inst	0x00000100 ; undefined
 664:	5f6c6978 	.inst	0x5f6c6978 ; undefined
 668:	65707974 	fnmls	z20.h, p6/m, z11.h, z16.h
 66c:	00682e73 	.inst	0x00682e73 ; undefined
 670:	00000000 	.inst	0x00000000 ; undefined
 674:	20020900 	.inst	0x20020900 ; undefined
 678:	0000004c 	.inst	0x0000004c ; undefined
 67c:	03000000 	.inst	0x03000000 ; undefined
 680:	01020122 	.inst	0x01020122 ; undefined
 684:	4b010100 	sub	w0, w8, w1
 688:	02000001 	.inst	0x02000001 ; undefined
 68c:	00012700 	.inst	0x00012700 ; undefined
 690:	fb010400 	.inst	0xfb010400 ; undefined
 694:	01000d0e 	.inst	0x01000d0e ; undefined
 698:	00010101 	.inst	0x00010101 ; undefined
 69c:	00010000 	.inst	0x00010000 ; undefined
 6a0:	6d2f0100 	stp	d0, d0, [x8, #-272]
 6a4:	61696465 	.inst	0x61696465 ; undefined
 6a8:	6e756e2f 	umin	v15.8h, v17.8h, v21.8h
 6ac:	44482f6f 	.inst	0x44482f6f ; undefined
 6b0:	69582f44 	ldpsw	x4, x11, [x26, #192]
 6b4:	786e696c 	ldrh	w12, [x11, x14]
 6b8:	4b44532f 	sub	w15, w25, w4, lsr #20
 6bc:	3130322f 	adds	w15, w17, #0xc0c
 6c0:	2f332e38 	.inst	0x2f332e38 ; undefined
 6c4:	2f756e67 	.inst	0x2f756e67 ; undefined
 6c8:	63726161 	.inst	0x63726161 ; undefined
 6cc:	2f343668 	ursra	v8.2s, v19.2s, #12
 6d0:	2f6e696c 	umlsl	v12.4s, v11.4h, v14.h[6]
 6d4:	63726161 	.inst	0x63726161 ; undefined
 6d8:	2d343668 	stp	s8, s13, [x19, #-96]
 6dc:	656e6f6e 	fnmls	z14.h, p3/m, z27.h, z14.h
 6e0:	7261612f 	.inst	0x7261612f ; undefined
 6e4:	34366863 	cbz	w3, 6d3f0 <__el0_stack+0x452b0>
 6e8:	6e6f6e2d 	umin	v13.8h, v17.8h, v15.8h
 6ec:	6c652d65 	ldnp	d5, d11, [x11, #-432]
 6f0:	696c2f66 	ldpsw	x6, x11, [x27, #-160]
 6f4:	752f6362 	.inst	0x752f6362 ; undefined
 6f8:	692f7273 	.inst	0x692f7273 ; undefined
 6fc:	756c636e 	.inst	0x756c636e ; undefined
 700:	6d2f6564 	stp	d4, d25, [x11, #-272]
 704:	69686361 	ldpsw	x1, x24, [x27, #-192]
 708:	2f00656e 	mvni	v14.2s, #0xb, lsl #24
 70c:	6964656d 	ldpsw	x13, x25, [x11, #-224]
 710:	756e2f61 	.inst	0x756e2f61 ; undefined
 714:	482f6f6e 	.inst	0x482f6f6e ; undefined
 718:	582f4444 	ldr	x4, 5efa0 <__el0_stack+0x36e60>
 71c:	6e696c69 	umin	v9.8h, v3.8h, v9.8h
 720:	44532f78 	.inst	0x44532f78 ; undefined
 724:	30322f4b 	adr	x11, 64d0d <__el0_stack+0x3cbcd>
 728:	332e3831 	.inst	0x332e3831 ; undefined
 72c:	756e672f 	.inst	0x756e672f ; undefined
 730:	7261612f 	.inst	0x7261612f ; undefined
 734:	34366863 	cbz	w3, 6d440 <__el0_stack+0x45300>
 738:	6e696c2f 	umin	v15.8h, v1.8h, v9.8h
 73c:	7261612f 	.inst	0x7261612f ; undefined
 740:	34366863 	cbz	w3, 6d44c <__el0_stack+0x4530c>
 744:	6e6f6e2d 	umin	v13.8h, v17.8h, v15.8h
 748:	61612f65 	.inst	0x61612f65 ; undefined
 74c:	36686372 	tbz	w18, #13, 13b8 <runAll+0xd8>
 750:	6f6e2d34 	.inst	0x6f6e2d34 ; undefined
 754:	652d656e 	.inst	0x652d656e ; undefined
 758:	6c2f666c 	stnp	d12, d25, [x19, #-272]
 75c:	2f636269 	umlsl	v9.4s, v19.4h, v3.h[2]
 760:	2f727375 	.inst	0x2f727375 ; undefined
 764:	6c636e69 	ldnp	d9, d27, [x19, #-464]
 768:	2f656475 	.inst	0x2f656475 ; undefined
 76c:	00737973 	.inst	0x00737973 ; undefined
 770:	62735f00 	.inst	0x62735f00 ; undefined
 774:	632e6b72 	.inst	0x632e6b72 ; undefined
 778:	00000000 	.inst	0x00000000 ; undefined
 77c:	6665645f 	.inst	0x6665645f ; undefined
 780:	746c7561 	.inst	0x746c7561 ; undefined
 784:	7079745f 	adr	xzr, f360f <__el0_stack+0xcb4cf>
 788:	682e7365 	.inst	0x682e7365 ; undefined
 78c:	00000100 	.inst	0x00000100 ; undefined
 790:	6474735f 	.inst	0x6474735f ; undefined
 794:	2e746e69 	umin	v9.4h, v19.4h, v20.4h
 798:	00020068 	.inst	0x00020068 ; undefined
 79c:	70797400 	adr	x0, f361f <__el0_stack+0xcb4df>
 7a0:	682e7365 	.inst	0x682e7365 ; undefined
 7a4:	00000200 	.inst	0x00000200 ; undefined
 7a8:	5f6c6978 	.inst	0x5f6c6978 ; undefined
 7ac:	65707974 	fnmls	z20.h, p6/m, z11.h, z16.h
 7b0:	00682e73 	.inst	0x00682e73 ; undefined
 7b4:	00000000 	.inst	0x00000000 ; undefined
 7b8:	28020900 	stnp	w0, w2, [x8, #16]
 7bc:	0000004c 	.inst	0x0000004c ; undefined
 7c0:	03000000 	.inst	0x03000000 ; undefined
 7c4:	41180129 	.inst	0x41180129 ; undefined
 7c8:	7903245c 	strh	w28, [x2, #402]
 7cc:	7403272e 	.inst	0x7403272e ; undefined
 7d0:	0005022e 	.inst	0x0005022e ; undefined
 7d4:	Address 0x00000000000007d4 is out of bounds.


Disassembly of section .debug_info:

0000000000000000 <.debug_info>:
   0:	0000002a 	.inst	0x0000002a ; undefined
   4:	00000002 	.inst	0x00000002 ; undefined
   8:	01080000 	.inst	0x01080000 ; undefined
   c:	00000000 	.inst	0x00000000 ; undefined
  10:	00000c78 	.inst	0x00000c78 ; undefined
  14:	00000000 	.inst	0x00000000 ; undefined
  18:	00000da8 	.inst	0x00000da8 ; undefined
	...
  24:	0000006a 	.inst	0x0000006a ; undefined
  28:	00000110 	.inst	0x00000110 ; undefined
  2c:	002a8001 	.inst	0x002a8001 ; NYI
  30:	00020000 	.inst	0x00020000 ; undefined
  34:	00000014 	.inst	0x00000014 ; undefined
  38:	00df0108 	.inst	0x00df0108 ; undefined
	...
  44:	09380000 	.inst	0x09380000 ; undefined
  48:	00000000 	.inst	0x00000000 ; undefined
  4c:	011e0000 	.inst	0x011e0000 ; undefined
  50:	012c0000 	.inst	0x012c0000 ; undefined
  54:	01100000 	.inst	0x01100000 ; undefined
  58:	80010000 	.inst	0x80010000 ; undefined
  5c:	0000002a 	.inst	0x0000002a ; undefined
  60:	00280002 	.inst	0x00280002 ; NYI
  64:	01080000 	.inst	0x01080000 ; undefined
  68:	00000164 	.inst	0x00000164 ; undefined
  6c:	00000938 	.inst	0x00000938 ; undefined
  70:	00000000 	.inst	0x00000000 ; undefined
  74:	00000b90 	.inst	0x00000b90 ; undefined
  78:	00000000 	.inst	0x00000000 ; undefined
  7c:	000001b5 	.inst	0x000001b5 ; undefined
  80:	0000012c 	.inst	0x0000012c ; undefined
  84:	00000110 	.inst	0x00000110 ; undefined
  88:	00438001 	.inst	0x00438001 ; undefined
  8c:	00040000 	.inst	0x00040000 ; undefined
  90:	0000003c 	.inst	0x0000003c ; undefined
  94:	01f40108 	.inst	0x01f40108 ; undefined
  98:	bc0c0000 	stur	s0, [x0, #192]
  9c:	2c000001 	stnp	s1, s0, [x0]
  a0:	30000001 	adr	x1, a1 <UNDEF_1_REG+0x83>
  a4:	00000037 	.inst	0x00000037 ; undefined
  a8:	04000000 	add	z0.b, p0/m, z0.b, z0.b
  ac:	00000000 	.inst	0x00000000 ; undefined
  b0:	2b000000 	adds	w0, w0, w0
  b4:	02000002 	.inst	0x02000002 ; undefined
  b8:	000001d9 	.inst	0x000001d9 ; undefined
  bc:	37302e01 	tbnz	w1, #6, 67c <SErrorInterruptHandler+0x98>
  c0:	00000000 	.inst	0x00000000 ; undefined
  c4:	00040000 	.inst	0x00040000 ; undefined
  c8:	00000000 	.inst	0x00000000 ; undefined
  cc:	9c010000 	ldr	q0, 20cc <hydro_2d_init+0xac>
  d0:	00019300 	.inst	0x00019300 ; undefined
  d4:	66000400 	.inst	0x66000400 ; undefined
  d8:	08000000 	stxrb	w0, w0, [x0]
  dc:	0001f401 	.inst	0x0001f401 ; undefined
  e0:	03480c00 	.inst	0x03480c00 ; undefined
  e4:	012c0000 	.inst	0x012c0000 ; undefined
  e8:	37380000 	tbnz	w0, #7, e8 <UNDEF_1_REG+0xca>
  ec:	00000000 	.inst	0x00000000 ; undefined
  f0:	00400000 	.inst	0x00400000 ; undefined
  f4:	00000000 	.inst	0x00000000 ; undefined
  f8:	027c0000 	.inst	0x027c0000 ; undefined
  fc:	01020000 	.inst	0x01020000 ; undefined
 100:	0002b006 	.inst	0x0002b006 ; undefined
 104:	08010200 	stxrb	w1, w0, [x16]
 108:	000002ae 	.inst	0x000002ae ; undefined
 10c:	22050202 	.inst	0x22050202 ; undefined
 110:	02000003 	.inst	0x02000003 ; undefined
 114:	029b0702 	.inst	0x029b0702 ; undefined
 118:	52030000 	eor	w0, w0, #0x20000000
 11c:	02000002 	.inst	0x02000002 ; undefined
 120:	0000543f 	.inst	0x0000543f ; undefined
 124:	05040400 	.inst	0x05040400 ; undefined
 128:	00746e69 	.inst	0x00746e69 ; undefined
 12c:	0002c103 	.inst	0x0002c103 ; undefined
 130:	66410200 	.inst	0x66410200 ; undefined
 134:	02000000 	.inst	0x02000000 ; undefined
 138:	028e0704 	.inst	0x028e0704 ; undefined
 13c:	08020000 	stxrb	w2, w0, [x0]
 140:	00031905 	.inst	0x00031905 ; undefined
 144:	07080200 	.inst	0x07080200 ; undefined
 148:	00000289 	.inst	0x00000289 ; undefined
 14c:	00025403 	.inst	0x00025403 ; undefined
 150:	491f0300 	.inst	0x491f0300 ; undefined
 154:	03000000 	.inst	0x03000000 ; undefined
 158:	000002c3 	.inst	0x000002c3 ; undefined
 15c:	005b2003 	.inst	0x005b2003 ; undefined
 160:	08020000 	stxrb	w2, w0, [x0]
 164:	00031405 	.inst	0x00031405 ; undefined
 168:	04100200 	mul	z0.b, p0/m, z0.b, z16.b
 16c:	0000033c 	.inst	0x0000033c ; undefined
 170:	32337505 	orr	w5, w8, #0xffffe7ff
 174:	865c0400 	.inst	0x865c0400 ; undefined
 178:	02000000 	.inst	0x02000000 ; undefined
 17c:	02b70801 	.inst	0x02b70801 ; undefined
 180:	73050000 	.inst	0x73050000 ; undefined
 184:	04003233 	saddv	d19, p4, z17.b
 188:	00007b85 	.inst	0x00007b85 ; undefined
 18c:	c2080600 	.inst	0xc2080600 ; undefined
 190:	07000000 	.inst	0x07000000 ; undefined
 194:	000000cd 	.inst	0x000000cd ; undefined
 198:	0000cd08 	.inst	0x0000cd08 ; undefined
 19c:	08090000 	stxrb	w9, w0, [x0]
 1a0:	0002ea03 	.inst	0x0002ea03 ; undefined
 1a4:	bc660500 	.inst	0xbc660500 ; undefined
 1a8:	0a000000 	and	w0, w0, w0
 1ac:	000002cc 	.inst	0x000002cc ; undefined
 1b0:	009f4806 	.inst	0x009f4806 ; undefined
 1b4:	7a0a0000 	sbcs	w0, w0, w10
 1b8:	06000002 	.inst	0x06000002 ; undefined
 1bc:	0000b149 	.inst	0x0000b149 ; undefined
 1c0:	01100b00 	.inst	0x01100b00 ; undefined
 1c4:	0001113b 	.inst	0x0001113b ; undefined
 1c8:	04350c00 	.inst	0x04350c00 ; undefined
 1cc:	3c010000 	stur	b0, [x0, #16]
 1d0:	000000cf 	.inst	0x000000cf ; undefined
 1d4:	02bc0c00 	.inst	0x02bc0c00 ; undefined
 1d8:	3d010000 	str	b0, [x0, #64]
 1dc:	000000cd 	.inst	0x000000cd ; undefined
 1e0:	3c030008 	stur	b8, [x0, #48]
 1e4:	01000002 	.inst	0x01000002 ; undefined
 1e8:	0000f03e 	.inst	0x0000f03e ; undefined
 1ec:	01110d00 	.inst	0x01110d00 ; undefined
 1f0:	01270000 	.inst	0x01270000 ; undefined
 1f4:	000e0000 	.inst	0x000e0000 ; undefined
 1f8:	00025c0a 	.inst	0x00025c0a ; undefined
 1fc:	1c440100 	ldr	s0, 8821c <__el0_stack+0x600dc>
 200:	0f000001 	.inst	0x0f000001 ; undefined
 204:	0000032c 	.inst	0x0000032c ; undefined
 208:	3768dd01 	tbnz	w1, #13, 1da8 <integrate_predictors_init+0x18>
 20c:	00000000 	.inst	0x00000000 ; undefined
 210:	00100000 	.inst	0x00100000 ; undefined
 214:	00000000 	.inst	0x00000000 ; undefined
 218:	9c010000 	ldr	q0, 2218 <tri_diagonal_init+0x28>
 21c:	0002ff0f 	.inst	0x0002ff0f ; undefined
 220:	58ca0100 	ldr	x0, fffffffffff94240 <Device+0xff9ffffffff93e37>
 224:	00000037 	.inst	0x00000037 ; undefined
 228:	10000000 	adr	x0, 228 <FPUContextSize+0x18>
 22c:	00000000 	.inst	0x00000000 ; undefined
 230:	01000000 	.inst	0x01000000 ; undefined
 234:	026d0f9c 	.inst	0x026d0f9c ; undefined
 238:	69010000 	.inst	0x69010000 ; undefined
 23c:	00003748 	.inst	0x00003748 ; undefined
 240:	00000000 	.inst	0x00000000 ; undefined
 244:	00000010 	.inst	0x00000010 ; undefined
 248:	00000000 	.inst	0x00000000 ; undefined
 24c:	dd0f9c01 	.inst	0xdd0f9c01 ; undefined
 250:	01000002 	.inst	0x01000002 ; undefined
 254:	00373856 	.inst	0x00373856 ; NYI
 258:	00000000 	.inst	0x00000000 ; undefined
 25c:	00001000 	.inst	0x00001000 ; undefined
 260:	00000000 	.inst	0x00000000 ; undefined
 264:	009c0100 	.inst	0x009c0100 ; undefined
 268:	0000002a 	.inst	0x0000002a ; undefined
 26c:	011a0002 	.inst	0x011a0002 ; undefined
 270:	01080000 	.inst	0x01080000 ; undefined
 274:	000003e9 	.inst	0x000003e9 ; undefined
 278:	00003778 	.inst	0x00003778 ; undefined
 27c:	00000000 	.inst	0x00000000 ; undefined
 280:	00003810 	.inst	0x00003810 ; undefined
 284:	00000000 	.inst	0x00000000 ; undefined
 288:	00000352 	.inst	0x00000352 ; undefined
 28c:	0000012c 	.inst	0x0000012c ; undefined
 290:	00000110 	.inst	0x00000110 ; undefined
 294:	02f98001 	.inst	0x02f98001 ; undefined
 298:	00040000 	.inst	0x00040000 ; undefined
 29c:	0000012e 	.inst	0x0000012e ; undefined
 2a0:	01f40108 	.inst	0x01f40108 ; undefined
 2a4:	fd0c0000 	str	d0, [x0, #6144]
 2a8:	2c000003 	stnp	s3, s0, [x0]
 2ac:	10000001 	adr	x1, 2ac <FPUContextSize+0x9c>
 2b0:	00000038 	.inst	0x00000038 ; undefined
 2b4:	8c000000 	.inst	0x8c000000 ; undefined
 2b8:	00000000 	.inst	0x00000000 ; undefined
 2bc:	45000000 	.inst	0x45000000 ; undefined
 2c0:	02000004 	.inst	0x02000004 ; undefined
 2c4:	02b00601 	.inst	0x02b00601 ; undefined
 2c8:	01020000 	.inst	0x01020000 ; undefined
 2cc:	0002ae08 	.inst	0x0002ae08 ; undefined
 2d0:	05020200 	orr	z0.d, z0.d, #0x1ffff
 2d4:	00000322 	.inst	0x00000322 ; undefined
 2d8:	9b070202 	madd	x2, x16, x7, x0
 2dc:	03000002 	.inst	0x03000002 ; undefined
 2e0:	00000252 	.inst	0x00000252 ; undefined
 2e4:	00543f02 	.inst	0x00543f02 ; undefined
 2e8:	04040000 	.inst	0x04040000 ; undefined
 2ec:	746e6905 	.inst	0x746e6905 ; undefined
 2f0:	02c10300 	.inst	0x02c10300 ; undefined
 2f4:	41020000 	.inst	0x41020000 ; undefined
 2f8:	00000066 	.inst	0x00000066 ; undefined
 2fc:	8e070402 	.inst	0x8e070402 ; undefined
 300:	02000002 	.inst	0x02000002 ; undefined
 304:	03190508 	.inst	0x03190508 ; undefined
 308:	08020000 	stxrb	w2, w0, [x0]
 30c:	00028907 	.inst	0x00028907 ; undefined
 310:	02540300 	.inst	0x02540300 ; undefined
 314:	1f030000 	fmadd	s0, s0, s3, s0
 318:	00000049 	.inst	0x00000049 ; undefined
 31c:	0002c303 	.inst	0x0002c303 ; undefined
 320:	5b200300 	.inst	0x5b200300 ; undefined
 324:	02000000 	.inst	0x02000000 ; undefined
 328:	03140508 	.inst	0x03140508 ; undefined
 32c:	10020000 	adr	x0, 432c <memset+0xec>
 330:	00033c04 	.inst	0x00033c04 ; undefined
 334:	33750500 	.inst	0x33750500 ; undefined
 338:	5c040032 	ldr	d18, 833c <MMUTableL1+0x33c>
 33c:	00000086 	.inst	0x00000086 ; undefined
 340:	b7080102 	tbnz	x2, #33, 360 <FPUContextSize+0x150>
 344:	05000002 	orr	z2.s, z2.s, #0x1
 348:	00323373 	.inst	0x00323373 ; NYI
 34c:	007b8504 	.inst	0x007b8504 ; undefined
 350:	08060000 	stxrb	w6, w0, [x0]
 354:	000000c2 	.inst	0x000000c2 ; undefined
 358:	0000cd07 	.inst	0x0000cd07 ; undefined
 35c:	00cd0800 	.inst	0x00cd0800 ; undefined
 360:	09000000 	.inst	0x09000000 ; undefined
 364:	02cc0a08 	.inst	0x02cc0a08 ; undefined
 368:	48050000 	stxrh	w5, w0, [x0]
 36c:	0000009f 	.inst	0x0000009f ; undefined
 370:	00027a0a 	.inst	0x00027a0a ; undefined
 374:	b1490500 	adds	x0, x8, #0x241, lsl #12
 378:	03000000 	.inst	0x03000000 ; undefined
 37c:	000002ea 	.inst	0x000002ea ; undefined
 380:	00bc6606 	.inst	0x00bc6606 ; undefined
 384:	100b0000 	adr	x0, 16384 <__bss_end__+0x8244>
 388:	01114201 	.inst	0x01114201 ; undefined
 38c:	350c0000 	cbnz	w0, 1838c <_HEAP_SIZE+0x38c>
 390:	01000004 	.inst	0x01000004 ; undefined
 394:	0000e543 	.inst	0x0000e543 ; undefined
 398:	bc0c0000 	stur	s0, [x0, #192]
 39c:	01000002 	.inst	0x01000002 ; undefined
 3a0:	0000cd44 	.inst	0x0000cd44 ; undefined
 3a4:	03000800 	.inst	0x03000800 ; undefined
 3a8:	0000023c 	.inst	0x0000023c ; undefined
 3ac:	00f04501 	.inst	0x00f04501 ; undefined
 3b0:	110d0000 	add	w0, w0, #0x340
 3b4:	2c000001 	stnp	s1, s0, [x0]
 3b8:	0e000001 	tbl	v1.8b, {v0.16b}, v0.8b
 3bc:	00000074 	.inst	0x00000074 ; undefined
 3c0:	5c0f0005 	ldr	d5, 1e3c0 <_HEAP_SIZE+0x63c0>
 3c4:	01000002 	.inst	0x01000002 ; undefined
 3c8:	00011c50 	.inst	0x00011c50 ; undefined
 3cc:	88030900 	stxr	w3, w0, [x8]
 3d0:	00000053 	.inst	0x00000053 ; undefined
 3d4:	10000000 	adr	x0, 3d4 <SynchronousInterruptHandler+0x50>
 3d8:	00000387 	.inst	0x00000387 ; undefined
 3dc:	20010501 	.inst	0x20010501 ; undefined
 3e0:	00000038 	.inst	0x00000038 ; undefined
 3e4:	04000000 	add	z0.b, p0/m, z0.b, z0.b
 3e8:	00000000 	.inst	0x00000000 ; undefined
 3ec:	01000000 	.inst	0x01000000 ; undefined
 3f0:	00016e9c 	.inst	0x00016e9c ; undefined
 3f4:	03d11100 	.inst	0x03d11100 ; undefined
 3f8:	05010000 	orr	z0.s, z0.s, #0x1
 3fc:	0000cd01 	.inst	0x0000cd01 ; undefined
 400:	00500100 	.inst	0x00500100 ; undefined
 404:	00040d12 	.inst	0x00040d12 ; undefined
 408:	18f00100 	ldr	w0, fffffffffffe0428 <Device+0xff9ffffffffe001f>
 40c:	00000038 	.inst	0x00000038 ; undefined
 410:	04000000 	add	z0.b, p0/m, z0.b, z0.b
 414:	00000000 	.inst	0x00000000 ; undefined
 418:	01000000 	.inst	0x01000000 ; undefined
 41c:	0001999c 	.inst	0x0001999c ; undefined
 420:	03d11300 	.inst	0x03d11300 ; undefined
 424:	f0010000 	adrp	x0, 2003000 <__el0_stack+0x1fdaec0>
 428:	000000cd 	.inst	0x000000cd ; undefined
 42c:	12005001 	and	w1, w0, #0x1fffff
 430:	00000422 	.inst	0x00000422 ; undefined
 434:	3878da01 	ldrb	w1, [x16, w24, sxtw #0]
 438:	00000000 	.inst	0x00000000 ; undefined
 43c:	00240000 	.inst	0x00240000 ; NYI
 440:	00000000 	.inst	0x00000000 ; undefined
 444:	9c010000 	ldr	q0, 2444 <hydro_2d_fini+0x34>
 448:	000001f9 	.inst	0x000001f9 ; undefined
 44c:	00037a14 	.inst	0x00037a14 ; undefined
 450:	9fda0100 	.inst	0x9fda0100 ; undefined
 454:	00000000 	.inst	0x00000000 ; undefined
 458:	15000000 	b	4000458 <__el0_stack+0x3fd8318>
 45c:	0000024c 	.inst	0x0000024c ; undefined
 460:	00003878 	.inst	0x00003878 ; undefined
 464:	00000000 	.inst	0x00000000 ; undefined
 468:	00000020 	.inst	0x00000020 ; undefined
 46c:	00000000 	.inst	0x00000000 ; undefined
 470:	6e16dc01 	.inst	0x6e16dc01 ; undefined
 474:	39000002 	strb	w2, [x0]
 478:	16000000 	b	fffffffff8000478 <Device+0xff9ffffff800006f>
 47c:	00000263 	.inst	0x00000263 ; undefined
 480:	0000005d 	.inst	0x0000005d ; undefined
 484:	00025816 	.inst	0x00025816 ; undefined
 488:	00008900 	.inst	0x00008900 ; undefined
 48c:	12000000 	and	w0, w0, #0x1
 490:	000003dd 	.inst	0x000003dd ; undefined
 494:	3850c301 	ldurb	w1, [x24, #-244]
 498:	00000000 	.inst	0x00000000 ; undefined
 49c:	00240000 	.inst	0x00240000 ; NYI
 4a0:	00000000 	.inst	0x00000000 ; undefined
 4a4:	9c010000 	ldr	q0, 24a4 <matmul_fini+0xc>
 4a8:	00000240 	.inst	0x00000240 ; undefined
 4ac:	00037a14 	.inst	0x00037a14 ; undefined
 4b0:	9fc30100 	.inst	0x9fc30100 ; undefined
 4b4:	c2000000 	.inst	0xc2000000 ; undefined
 4b8:	13000000 	sbfx	w0, w0, #0, #1
 4bc:	00000435 	.inst	0x00000435 ; undefined
 4c0:	0240c401 	.inst	0x0240c401 ; undefined
 4c4:	51010000 	sub	w0, w0, #0x40
 4c8:	0002bc13 	.inst	0x0002bc13 ; undefined
 4cc:	46c50100 	.inst	0x46c50100 ; undefined
 4d0:	01000002 	.inst	0x01000002 ; undefined
 4d4:	08060052 	stxrb	w6, w18, [x2]
 4d8:	000000e5 	.inst	0x000000e5 ; undefined
 4dc:	00cd0806 	.inst	0x00cd0806 ; undefined
 4e0:	5d170000 	.inst	0x5d170000 ; undefined
 4e4:	01000003 	.inst	0x01000003 ; undefined
 4e8:	027a01aa 	.inst	0x027a01aa ; undefined
 4ec:	7a180000 	sbcs	w0, w0, w24
 4f0:	01000003 	.inst	0x01000003 ; undefined
 4f4:	00009faa 	.inst	0x00009faa ; undefined
 4f8:	04351800 	sqsub	z0.b, z0.b, z21.b
 4fc:	ab010000 	adds	x0, x0, x1
 500:	000000e5 	.inst	0x000000e5 ; undefined
 504:	0002bc18 	.inst	0x0002bc18 ; undefined
 508:	cdac0100 	.inst	0xcdac0100 ; undefined
 50c:	00000000 	.inst	0x00000000 ; undefined
 510:	00039e19 	.inst	0x00039e19 ; undefined
 514:	28940100 	stp	w0, w0, [x8], #160
 518:	00000038 	.inst	0x00000038 ; undefined
 51c:	04000000 	add	z0.b, p0/m, z0.b, z0.b
 520:	00000000 	.inst	0x00000000 ; undefined
 524:	01000000 	.inst	0x01000000 ; undefined
 528:	03b01a9c 	.inst	0x03b01a9c ; undefined
 52c:	7d010000 	str	h0, [x0, #128]
 530:	00003810 	.inst	0x00003810 ; undefined
 534:	00000000 	.inst	0x00000000 ; undefined
 538:	00000004 	.inst	0x00000004 ; undefined
 53c:	00000000 	.inst	0x00000000 ; undefined
 540:	02cd9c01 	.inst	0x02cd9c01 ; undefined
 544:	bc130000 	stur	s0, [x0, #-208]
 548:	01000002 	.inst	0x01000002 ; undefined
 54c:	0000cd7d 	.inst	0x0000cd7d ; undefined
 550:	1b500100 	.inst	0x1b500100 ; undefined
 554:	000003c9 	.inst	0x000003c9 ; undefined
 558:	38108001 	sturb	w1, [x0, #-248]
 55c:	00000000 	.inst	0x00000000 ; undefined
 560:	1c000000 	ldr	s0, 560 <RestorePrevState+0x20>
 564:	0000024c 	.inst	0x0000024c ; undefined
 568:	00003830 	.inst	0x00003830 ; undefined
 56c:	00000000 	.inst	0x00000000 ; undefined
 570:	0000001c 	.inst	0x0000001c ; undefined
 574:	00000000 	.inst	0x00000000 ; undefined
 578:	58169c01 	ldr	x1, 2d8f8 <__el0_stack+0x57b8>
 57c:	fb000002 	.inst	0xfb000002 ; undefined
 580:	1d000000 	.inst	0x1d000000 ; undefined
 584:	00000263 	.inst	0x00000263 ; undefined
 588:	6e1d5101 	ext	v1.16b, v8.16b, v29.16b, #10
 58c:	01000002 	.inst	0x01000002 ; undefined
 590:	f7000052 	.inst	0xf7000052 ; undefined
 594:	04000000 	add	z0.b, p0/m, z0.b, z0.b
 598:	0002d100 	.inst	0x0002d100 ; undefined
 59c:	f4010800 	.inst	0xf4010800 ; undefined
 5a0:	0c000001 	st4	{v1.8b-v4.8b}, [x0]
 5a4:	0000044b 	.inst	0x0000044b ; undefined
 5a8:	0000012c 	.inst	0x0000012c ; undefined
 5ac:	00004c20 	.inst	0x00004c20 ; undefined
 5b0:	00000000 	.inst	0x00000000 ; undefined
 5b4:	00000004 	.inst	0x00000004 ; undefined
 5b8:	00000000 	.inst	0x00000000 ; undefined
 5bc:	000005cc 	.inst	0x000005cc ; undefined
 5c0:	b0060102 	adrp	x2, c021000 <counterfreq+0x60c560b>
 5c4:	02000002 	.inst	0x02000002 ; undefined
 5c8:	02ae0801 	.inst	0x02ae0801 ; undefined
 5cc:	02020000 	.inst	0x02020000 ; undefined
 5d0:	00032205 	.inst	0x00032205 ; undefined
 5d4:	07020200 	.inst	0x07020200 ; undefined
 5d8:	0000029b 	.inst	0x0000029b ; undefined
 5dc:	69050403 	.inst	0x69050403 ; undefined
 5e0:	0200746e 	.inst	0x0200746e ; undefined
 5e4:	028e0704 	.inst	0x028e0704 ; undefined
 5e8:	08020000 	stxrb	w2, w0, [x0]
 5ec:	00031905 	.inst	0x00031905 ; undefined
 5f0:	07080200 	.inst	0x07080200 ; undefined
 5f4:	00000289 	.inst	0x00000289 ; undefined
 5f8:	14050802 	b	142600 <__el0_stack+0x11a4c0>
 5fc:	02000003 	.inst	0x02000003 ; undefined
 600:	033c0410 	.inst	0x033c0410 ; undefined
 604:	08040000 	stxrb	w4, w0, [x0]
 608:	00000079 	.inst	0x00000079 ; undefined
 60c:	b7080102 	tbnz	x2, #33, 62c <SErrorInterruptHandler+0x48>
 610:	05000002 	orr	z2.s, z2.s, #0x1
 614:	0000047e 	.inst	0x0000047e ; undefined
 618:	008b1002 	.inst	0x008b1002 ; undefined
 61c:	08040000 	stxrb	w4, w0, [x0]
 620:	00000073 	.inst	0x00000073 ; undefined
 624:	00047705 	.inst	0x00047705 ; undefined
 628:	73d80200 	.inst	0x73d80200 ; undefined
 62c:	05000000 	orr	z0.s, z0.s, #0x1
 630:	00000444 	.inst	0x00000444 ; undefined
 634:	0049d902 	.inst	0x0049d902 ; undefined
 638:	5a050000 	sbc	w0, w0, w5
 63c:	02000004 	.inst	0x02000004 ; undefined
 640:	000049d9 	.inst	0x000049d9 ; undefined
 644:	04670500 	sub	z0.h, z8.h, z7.h
 648:	d9020000 	.inst	0xd9020000 ; undefined
 64c:	00000049 	.inst	0x00000049 ; undefined
 650:	00046e05 	.inst	0x00046e05 ; undefined
 654:	49db0200 	.inst	0x49db0200 ; undefined
 658:	06000000 	.inst	0x06000000 ; undefined
 65c:	0000043d 	.inst	0x0000043d ; undefined
 660:	00498803 	.inst	0x00498803 ; undefined
 664:	61070000 	.inst	0x61070000 ; undefined
 668:	02000004 	.inst	0x02000004 ; undefined
 66c:	004c2012 	.inst	0x004c2012 ; undefined
 670:	00000000 	.inst	0x00000000 ; undefined
 674:	00000400 	.inst	0x00000400 ; undefined
 678:	00000000 	.inst	0x00000000 ; undefined
 67c:	089c0100 	stllrb	w0, [x8]
 680:	00000453 	.inst	0x00000453 ; undefined
 684:	00c82201 	.inst	0x00c82201 ; undefined
 688:	50010000 	adr	x0, 268a <pic_2d_init+0x172>
 68c:	015f0000 	.inst	0x015f0000 ; undefined
 690:	00040000 	.inst	0x00040000 ; undefined
 694:	0000034c 	.inst	0x0000034c ; undefined
 698:	01f40108 	.inst	0x01f40108 ; undefined
 69c:	860c0000 	.inst	0x860c0000 ; undefined
 6a0:	2c000004 	stnp	s4, s0, [x0]
 6a4:	28000001 	stnp	w1, w0, [x0]
 6a8:	0000004c 	.inst	0x0000004c ; undefined
 6ac:	4c000000 	st4	{v0.16b-v3.16b}, [x0]
 6b0:	00000000 	.inst	0x00000000 ; undefined
 6b4:	87000000 	.inst	0x87000000 ; undefined
 6b8:	02000006 	.inst	0x02000006 ; undefined
 6bc:	02b00601 	.inst	0x02b00601 ; undefined
 6c0:	98030000 	ldrsw	x0, 66c0 <__eh_framehdr_end+0x33c>
 6c4:	02000004 	.inst	0x02000004 ; undefined
 6c8:	00003f1d 	.inst	0x00003f1d ; undefined
 6cc:	08010200 	stxrb	w1, w0, [x16]
 6d0:	000002ae 	.inst	0x000002ae ; undefined
 6d4:	22050202 	.inst	0x22050202 ; undefined
 6d8:	02000003 	.inst	0x02000003 ; undefined
 6dc:	029b0702 	.inst	0x029b0702 ; undefined
 6e0:	52030000 	eor	w0, w0, #0x20000000
 6e4:	02000002 	.inst	0x02000002 ; undefined
 6e8:	00005f3f 	.inst	0x00005f3f ; undefined
 6ec:	05040400 	.inst	0x05040400 ; undefined
 6f0:	00746e69 	.inst	0x00746e69 ; undefined
 6f4:	8e070402 	.inst	0x8e070402 ; undefined
 6f8:	02000002 	.inst	0x02000002 ; undefined
 6fc:	03190508 	.inst	0x03190508 ; undefined
 700:	08020000 	stxrb	w2, w0, [x0]
 704:	00028907 	.inst	0x00028907 ; undefined
 708:	05080200 	.inst	0x05080200 ; undefined
 70c:	00000314 	.inst	0x00000314 ; undefined
 710:	3c041002 	stur	b2, [x0, #65]
 714:	03000003 	.inst	0x03000003 ; undefined
 718:	0000049a 	.inst	0x0000049a ; undefined
 71c:	00341403 	.inst	0x00341403 ; NYI
 720:	54030000 	b.eq	6720 <__eh_framehdr_end+0x39c>  // b.none
 724:	03000002 	.inst	0x03000002 ; undefined
 728:	0000541f 	.inst	0x0000541f ; undefined
 72c:	04a20300 	add	z0.s, z24.s, z2.s
 730:	86040000 	.inst	0x86040000 ; undefined
 734:	000000aa 	.inst	0x000000aa ; undefined
 738:	00b00805 	.inst	0x00b00805 ; undefined
 73c:	01020000 	.inst	0x01020000 ; undefined
 740:	0002b708 	.inst	0x0002b708 ; undefined
 744:	38750600 	.inst	0x38750600 ; undefined
 748:	895a0500 	.inst	0x895a0500 ; undefined
 74c:	06000000 	.inst	0x06000000 ; undefined
 750:	00323373 	.inst	0x00323373 ; NYI
 754:	00948505 	.inst	0x00948505 ; undefined
 758:	b7070000 	tbnz	x0, #32, ffffffffffffe758 <Device+0xff9fffffffffe34f>
 75c:	d7000000 	.inst	0xd7000000 ; undefined
 760:	08000000 	stxrb	w0, w0, [x0]
 764:	04af0900 	.inst	0x04af0900 ; undefined
 768:	20010000 	.inst	0x20010000 ; undefined
 76c:	000000cc 	.inst	0x000000cc ; undefined
 770:	00048e09 	.inst	0x00048e09 ; undefined
 774:	cc210100 	.inst	0xcc210100 ; undefined
 778:	0a000000 	and	w0, w0, w0
 77c:	000004bb 	.inst	0x000004bb ; undefined
 780:	009f2901 	.inst	0x009f2901 ; undefined
 784:	4c280000 	.inst	0x4c280000 ; undefined
 788:	00000000 	.inst	0x00000000 ; undefined
 78c:	004c0000 	.inst	0x004c0000 ; undefined
 790:	00000000 	.inst	0x00000000 ; undefined
 794:	9c010000 	ldr	q0, 2794 <matmul_init+0xcc>
 798:	0000015c 	.inst	0x0000015c ; undefined
 79c:	0004aa0b 	.inst	0x0004aa0b ; undefined
 7a0:	c1290100 	.inst	0xc1290100 ; undefined
 7a4:	34000000 	cbz	w0, 7a4 <Memory+0x9f>
 7a8:	0c000001 	st4	{v1.8b-v4.8b}, [x0]
 7ac:	000004d1 	.inst	0x000004d1 ; undefined
 7b0:	015c2b01 	.inst	0x015c2b01 ; undefined
 7b4:	03090000 	.inst	0x03090000 ; undefined
 7b8:	0000e0f8 	.inst	0x0000e0f8 ; undefined
 7bc:	00000000 	.inst	0x00000000 ; undefined
 7c0:	0004cc0d 	.inst	0x0004cc0d ; undefined
 7c4:	5c2c0100 	ldr	d0, 587e4 <__el0_stack+0x306a4>
 7c8:	80000001 	.inst	0x80000001 ; undefined
 7cc:	0e000001 	tbl	v1.8b, {v0.16b}, v0.8b
 7d0:	000004c1 	.inst	0x000004c1 ; undefined
 7d4:	015c2d01 	.inst	0x015c2d01 ; undefined
 7d8:	d60d0000 	.inst	0xd60d0000 ; undefined
 7dc:	01000002 	.inst	0x01000002 ; undefined
 7e0:	00009f2e 	.inst	0x00009f2e ; undefined
 7e4:	0001ab00 	.inst	0x0001ab00 ; undefined
 7e8:	08050000 	stxrb	w5, w0, [x0]
 7ec:	000000b7 	.inst	0x000000b7 ; undefined
	...

Disassembly of section .debug_abbrev:

0000000000000000 <.debug_abbrev>:
   0:	10001101 	adr	x1, 220 <FPUContextSize+0x10>
   4:	12011106 	and	w6, w8, #0x8000000f
   8:	1b0e0301 	madd	w1, w24, w14, w0
   c:	130e250e 	sbfiz	w14, w8, #18, #10
  10:	00000005 	.inst	0x00000005 ; undefined
  14:	10001101 	adr	x1, 234 <FPUContextSize+0x24>
  18:	12011106 	and	w6, w8, #0x8000000f
  1c:	1b0e0301 	madd	w1, w24, w14, w0
  20:	130e250e 	sbfiz	w14, w8, #18, #10
  24:	00000005 	.inst	0x00000005 ; undefined
  28:	10001101 	adr	x1, 248 <FPUContextSize+0x38>
  2c:	12011106 	and	w6, w8, #0x8000000f
  30:	1b0e0301 	madd	w1, w24, w14, w0
  34:	130e250e 	sbfiz	w14, w8, #18, #10
  38:	00000005 	.inst	0x00000005 ; undefined
  3c:	25011101 	cmpge	p1.b, p4/z, z8.b, #1
  40:	030b130e 	.inst	0x030b130e ; undefined
  44:	110e1b0e 	add	w14, w24, #0x386
  48:	10071201 	adr	x1, e288 <__bss_end__+0x148>
  4c:	02000017 	.inst	0x02000017 ; undefined
  50:	193f002e 	.inst	0x193f002e ; undefined
  54:	0b3a0e03 	add	w3, w16, w26, uxtb #3
  58:	01110b3b 	.inst	0x01110b3b ; undefined
  5c:	18400712 	ldr	w18, 8013c <__el0_stack+0x57ffc>
  60:	00194297 	.inst	0x00194297 ; undefined
  64:	11010000 	add	w0, w0, #0x40
  68:	130e2501 	sbfiz	w1, w8, #18, #10
  6c:	1b0e030b 	madd	w11, w24, w14, w0
  70:	1201110e 	and	w14, w8, #0x8000000f
  74:	00171007 	.inst	0x00171007 ; undefined
  78:	00240200 	.inst	0x00240200 ; NYI
  7c:	0b3e0b0b 	add	w11, w24, w30, uxtb #2
  80:	00000e03 	.inst	0x00000e03 ; undefined
  84:	03001603 	.inst	0x03001603 ; undefined
  88:	3b0b3a0e 	.inst	0x3b0b3a0e ; undefined
  8c:	0013490b 	.inst	0x0013490b ; undefined
  90:	00240400 	.inst	0x00240400 ; NYI
  94:	0b3e0b0b 	add	w11, w24, w30, uxtb #2
  98:	00000803 	.inst	0x00000803 ; undefined
  9c:	03001605 	.inst	0x03001605 ; undefined
  a0:	3b0b3a08 	.inst	0x3b0b3a08 ; undefined
  a4:	0013490b 	.inst	0x0013490b ; undefined
  a8:	000f0600 	.inst	0x000f0600 ; undefined
  ac:	13490b0b 	.inst	0x13490b0b ; undefined
  b0:	15070000 	b	41c00b0 <__el0_stack+0x4197f70>
  b4:	01192701 	.inst	0x01192701 ; undefined
  b8:	08000013 	stxrb	w0, w19, [x0]
  bc:	13490005 	.inst	0x13490005 ; undefined
  c0:	0f090000 	.inst	0x0f090000 ; undefined
  c4:	000b0b00 	.inst	0x000b0b00 ; undefined
  c8:	00340a00 	.inst	0x00340a00 ; NYI
  cc:	0b3a0e03 	add	w3, w16, w26, uxtb #3
  d0:	13490b3b 	.inst	0x13490b3b ; undefined
  d4:	193c193f 	.inst	0x193c193f ; undefined
  d8:	130b0000 	sbfiz	w0, w0, #21, #1
  dc:	3a0b0b01 	.inst	0x3a0b0b01 ; undefined
  e0:	010b3b0b 	.inst	0x010b3b0b ; undefined
  e4:	0c000013 	st4	{v19.8b-v22.8b}, [x0]
  e8:	0e03000d 	tbl	v13.8b, {v0.16b}, v3.8b
  ec:	0b3b0b3a 	add	w26, w25, w27, uxtb #2
  f0:	0b381349 	add	w9, w26, w24, uxtb #4
  f4:	010d0000 	.inst	0x010d0000 ; undefined
  f8:	01134901 	.inst	0x01134901 ; undefined
  fc:	0e000013 	tbl	v19.8b, {v0.16b}, v0.8b
 100:	00000021 	.inst	0x00000021 ; undefined
 104:	3f002e0f 	.inst	0x3f002e0f ; undefined
 108:	3a0e0319 	adcs	w25, w24, w14
 10c:	270b3b0b 	.inst	0x270b3b0b ; undefined
 110:	12011119 	and	w25, w8, #0x8000000f
 114:	00184007 	.inst	0x00184007 ; undefined
 118:	11010000 	add	w0, w0, #0x40
 11c:	11061000 	add	w0, w0, #0x184
 120:	03011201 	.inst	0x03011201 ; undefined
 124:	250e1b0e 	cmpge	p14.b, p6/z, z24.b, #14
 128:	0005130e 	.inst	0x0005130e ; undefined
 12c:	11010000 	add	w0, w0, #0x40
 130:	130e2501 	sbfiz	w1, w8, #18, #10
 134:	1b0e030b 	madd	w11, w24, w14, w0
 138:	1201110e 	and	w14, w8, #0x8000000f
 13c:	00171007 	.inst	0x00171007 ; undefined
 140:	00240200 	.inst	0x00240200 ; NYI
 144:	0b3e0b0b 	add	w11, w24, w30, uxtb #2
 148:	00000e03 	.inst	0x00000e03 ; undefined
 14c:	03001603 	.inst	0x03001603 ; undefined
 150:	3b0b3a0e 	.inst	0x3b0b3a0e ; undefined
 154:	0013490b 	.inst	0x0013490b ; undefined
 158:	00240400 	.inst	0x00240400 ; NYI
 15c:	0b3e0b0b 	add	w11, w24, w30, uxtb #2
 160:	00000803 	.inst	0x00000803 ; undefined
 164:	03001605 	.inst	0x03001605 ; undefined
 168:	3b0b3a08 	.inst	0x3b0b3a08 ; undefined
 16c:	0013490b 	.inst	0x0013490b ; undefined
 170:	000f0600 	.inst	0x000f0600 ; undefined
 174:	13490b0b 	.inst	0x13490b0b ; undefined
 178:	15070000 	b	41c0178 <__el0_stack+0x4198038>
 17c:	01192701 	.inst	0x01192701 ; undefined
 180:	08000013 	stxrb	w0, w19, [x0]
 184:	13490005 	.inst	0x13490005 ; undefined
 188:	0f090000 	.inst	0x0f090000 ; undefined
 18c:	000b0b00 	.inst	0x000b0b00 ; undefined
 190:	00340a00 	.inst	0x00340a00 ; NYI
 194:	0b3a0e03 	add	w3, w16, w26, uxtb #3
 198:	13490b3b 	.inst	0x13490b3b ; undefined
 19c:	193c193f 	.inst	0x193c193f ; undefined
 1a0:	130b0000 	sbfiz	w0, w0, #21, #1
 1a4:	3a0b0b01 	.inst	0x3a0b0b01 ; undefined
 1a8:	010b3b0b 	.inst	0x010b3b0b ; undefined
 1ac:	0c000013 	st4	{v19.8b-v22.8b}, [x0]
 1b0:	0e03000d 	tbl	v13.8b, {v0.16b}, v3.8b
 1b4:	0b3b0b3a 	add	w26, w25, w27, uxtb #2
 1b8:	0b381349 	add	w9, w26, w24, uxtb #4
 1bc:	010d0000 	.inst	0x010d0000 ; undefined
 1c0:	01134901 	.inst	0x01134901 ; undefined
 1c4:	0e000013 	tbl	v19.8b, {v0.16b}, v0.8b
 1c8:	13490021 	.inst	0x13490021 ; undefined
 1cc:	00000b2f 	.inst	0x00000b2f ; undefined
 1d0:	0300340f 	.inst	0x0300340f ; undefined
 1d4:	3b0b3a0e 	.inst	0x3b0b3a0e ; undefined
 1d8:	3f13490b 	.inst	0x3f13490b ; undefined
 1dc:	00180219 	.inst	0x00180219 ; undefined
 1e0:	012e1000 	.inst	0x012e1000 ; undefined
 1e4:	0e03193f 	uzp1	v31.8b, v9.8b, v3.8b
 1e8:	053b0b3a 	ext	z26.b, z26.b, z25.b, #218
 1ec:	01111927 	.inst	0x01111927 ; undefined
 1f0:	18400712 	ldr	w18, 802d0 <__el0_stack+0x58190>
 1f4:	01194297 	.inst	0x01194297 ; undefined
 1f8:	11000013 	add	w19, w0, #0x0
 1fc:	0e030005 	tbl	v5.8b, {v0.16b}, v3.8b
 200:	053b0b3a 	ext	z26.b, z26.b, z25.b, #218
 204:	18021349 	ldr	w9, 446c <_sbrk_r+0x44>
 208:	2e120000 	ext	v0.8b, v0.8b, v18.8b, #0
 20c:	03193f01 	.inst	0x03193f01 ; undefined
 210:	3b0b3a0e 	.inst	0x3b0b3a0e ; undefined
 214:	1119270b 	add	w11, w24, #0x649
 218:	40071201 	.inst	0x40071201 ; undefined
 21c:	19429718 	.inst	0x19429718 ; undefined
 220:	00001301 	.inst	0x00001301 ; undefined
 224:	03000513 	.inst	0x03000513 ; undefined
 228:	3b0b3a0e 	.inst	0x3b0b3a0e ; undefined
 22c:	0213490b 	.inst	0x0213490b ; undefined
 230:	14000018 	b	290 <FPUContextSize+0x80>
 234:	0e030005 	tbl	v5.8b, {v0.16b}, v3.8b
 238:	0b3b0b3a 	add	w26, w25, w27, uxtb #2
 23c:	17021349 	b	fffffffffc084f60 <Device+0xff9ffffffc084b57>
 240:	1d150000 	.inst	0x1d150000 ; undefined
 244:	11133101 	add	w1, w8, #0x4cc
 248:	58071201 	ldr	x1, e488 <__bss_end__+0x348>
 24c:	000b590b 	.inst	0x000b590b ; undefined
 250:	00051600 	.inst	0x00051600 ; undefined
 254:	17021331 	b	fffffffffc084f18 <Device+0xff9ffffffc084b0f>
 258:	2e170000 	ext	v0.8b, v0.8b, v23.8b, #0
 25c:	03193f01 	.inst	0x03193f01 ; undefined
 260:	3b0b3a0e 	.inst	0x3b0b3a0e ; undefined
 264:	2019270b 	.inst	0x2019270b ; undefined
 268:	0013010b 	.inst	0x0013010b ; undefined
 26c:	00051800 	.inst	0x00051800 ; undefined
 270:	0b3a0e03 	add	w3, w16, w26, uxtb #3
 274:	13490b3b 	.inst	0x13490b3b ; undefined
 278:	2e190000 	ext	v0.8b, v0.8b, v25.8b, #0
 27c:	03193f00 	.inst	0x03193f00 ; undefined
 280:	3b0b3a0e 	.inst	0x3b0b3a0e ; undefined
 284:	1119270b 	add	w11, w24, #0x649
 288:	40071201 	.inst	0x40071201 ; undefined
 28c:	19429718 	.inst	0x19429718 ; undefined
 290:	2e1a0000 	ext	v0.8b, v0.8b, v26.8b, #0
 294:	3a0e0301 	adcs	w1, w24, w14
 298:	270b3b0b 	.inst	0x270b3b0b ; undefined
 29c:	12011119 	and	w25, w8, #0x8000000f
 2a0:	97184007 	bl	fffffffffc6102bc <Device+0xff9ffffffc60feb3>
 2a4:	13011942 	sbfx	w2, w10, #1, #6
 2a8:	0a1b0000 	and	w0, w0, w27
 2ac:	3a0e0300 	adcs	w0, w24, w14
 2b0:	110b3b0b 	add	w11, w24, #0x2ce
 2b4:	1c000001 	ldr	s1, 2b4 <FPUContextSize+0xa4>
 2b8:	1331012e 	.inst	0x1331012e ; undefined
 2bc:	07120111 	.inst	0x07120111 ; undefined
 2c0:	42971840 	.inst	0x42971840 ; undefined
 2c4:	1d000019 	.inst	0x1d000019 ; undefined
 2c8:	13310005 	.inst	0x13310005 ; undefined
 2cc:	00001802 	.inst	0x00001802 ; undefined
 2d0:	01110100 	.inst	0x01110100 ; undefined
 2d4:	0b130e25 	add	w5, w17, w19, lsl #3
 2d8:	0e1b0e03 	dup	v3.8b, w16
 2dc:	07120111 	.inst	0x07120111 ; undefined
 2e0:	00001710 	.inst	0x00001710 ; undefined
 2e4:	0b002402 	add	w2, w0, w0, lsl #9
 2e8:	030b3e0b 	.inst	0x030b3e0b ; undefined
 2ec:	0300000e 	.inst	0x0300000e ; undefined
 2f0:	0b0b0024 	add	w4, w1, w11
 2f4:	08030b3e 	stxrb	w3, w30, [x25]
 2f8:	0f040000 	.inst	0x0f040000 ; undefined
 2fc:	490b0b00 	.inst	0x490b0b00 ; undefined
 300:	05000013 	orr	z19.s, z19.s, #0x1
 304:	0e030034 	tbl	v20.8b, {v1.16b}, v3.8b
 308:	0b3b0b3a 	add	w26, w25, w27, uxtb #2
 30c:	193f1349 	.inst	0x193f1349 ; undefined
 310:	0000193c 	.inst	0x0000193c ; undefined
 314:	03001606 	.inst	0x03001606 ; undefined
 318:	3b0b3a0e 	.inst	0x3b0b3a0e ; undefined
 31c:	0013490b 	.inst	0x0013490b ; undefined
 320:	012e0700 	.inst	0x012e0700 ; undefined
 324:	0e03193f 	uzp1	v31.8b, v9.8b, v3.8b
 328:	0b3b0b3a 	add	w26, w25, w27, uxtb #2
 32c:	01871927 	.inst	0x01871927 ; undefined
 330:	12011119 	and	w25, w8, #0x8000000f
 334:	97184007 	bl	fffffffffc610350 <Device+0xff9ffffffc60ff47>
 338:	00001942 	.inst	0x00001942 ; undefined
 33c:	03000508 	.inst	0x03000508 ; undefined
 340:	3b0b3a0e 	.inst	0x3b0b3a0e ; undefined
 344:	0213490b 	.inst	0x0213490b ; undefined
 348:	00000018 	.inst	0x00000018 ; undefined
 34c:	25011101 	cmpge	p1.b, p4/z, z8.b, #1
 350:	030b130e 	.inst	0x030b130e ; undefined
 354:	110e1b0e 	add	w14, w24, #0x386
 358:	10071201 	adr	x1, e598 <__bss_end__+0x458>
 35c:	02000017 	.inst	0x02000017 ; undefined
 360:	0b0b0024 	add	w4, w1, w11
 364:	0e030b3e 	.inst	0x0e030b3e ; undefined
 368:	16030000 	b	fffffffff80c0368 <Device+0xff9ffffff80bff5f>
 36c:	3a0e0300 	adcs	w0, w24, w14
 370:	490b3b0b 	.inst	0x490b3b0b ; undefined
 374:	04000013 	add	z19.b, p0/m, z19.b, z0.b
 378:	0b0b0024 	add	w4, w1, w11
 37c:	08030b3e 	stxrb	w3, w30, [x25]
 380:	0f050000 	.inst	0x0f050000 ; undefined
 384:	490b0b00 	.inst	0x490b0b00 ; undefined
 388:	06000013 	.inst	0x06000013 ; undefined
 38c:	08030016 	stxrb	w3, w22, [x0]
 390:	0b3b0b3a 	add	w26, w25, w27, uxtb #2
 394:	00001349 	.inst	0x00001349 ; undefined
 398:	49010107 	.inst	0x49010107 ; undefined
 39c:	00130113 	.inst	0x00130113 ; undefined
 3a0:	00210800 	.inst	0x00210800 ; NYI
 3a4:	34090000 	cbz	w0, 123a4 <__bss_end__+0x4264>
 3a8:	3a0e0300 	adcs	w0, w24, w14
 3ac:	490b3b0b 	.inst	0x490b3b0b ; undefined
 3b0:	3c193f13 	str	b19, [x24, #-109]!
 3b4:	0a000019 	and	w25, w0, w0
 3b8:	193f012e 	.inst	0x193f012e ; undefined
 3bc:	0b3a0e03 	add	w3, w16, w26, uxtb #3
 3c0:	19270b3b 	.inst	0x19270b3b ; undefined
 3c4:	01111349 	.inst	0x01111349 ; undefined
 3c8:	18400712 	ldr	w18, 804a8 <__el0_stack+0x58368>
 3cc:	01194297 	.inst	0x01194297 ; undefined
 3d0:	0b000013 	add	w19, w0, w0
 3d4:	0e030005 	tbl	v5.8b, {v0.16b}, v3.8b
 3d8:	0b3b0b3a 	add	w26, w25, w27, uxtb #2
 3dc:	17021349 	b	fffffffffc085100 <Device+0xff9ffffffc084cf7>
 3e0:	340c0000 	cbz	w0, 183e0 <_HEAP_SIZE+0x3e0>
 3e4:	3a0e0300 	adcs	w0, w24, w14
 3e8:	490b3b0b 	.inst	0x490b3b0b ; undefined
 3ec:	00180213 	.inst	0x00180213 ; undefined
 3f0:	00340d00 	.inst	0x00340d00 ; NYI
 3f4:	0b3a0e03 	add	w3, w16, w26, uxtb #3
 3f8:	13490b3b 	.inst	0x13490b3b ; undefined
 3fc:	00001702 	.inst	0x00001702 ; undefined
 400:	0300340e 	.inst	0x0300340e ; undefined
 404:	3b0b3a0e 	.inst	0x3b0b3a0e ; undefined
 408:	0013490b 	.inst	0x0013490b ; undefined
	...

Disassembly of section .debug_aranges:

0000000000000000 <.debug_aranges>:
   0:	0000002c 	.inst	0x0000002c ; undefined
   4:	00000002 	.inst	0x00000002 ; undefined
   8:	00080000 	.inst	0x00080000 ; undefined
   c:	00000000 	.inst	0x00000000 ; undefined
  10:	00000c78 	.inst	0x00000c78 ; undefined
  14:	00000000 	.inst	0x00000000 ; undefined
  18:	00000130 	.inst	0x00000130 ; undefined
	...
  30:	0000002c 	.inst	0x0000002c ; undefined
  34:	002e0002 	.inst	0x002e0002 ; NYI
  38:	00080000 	.inst	0x00080000 ; undefined
	...
  48:	00000938 	.inst	0x00000938 ; undefined
	...
  60:	0000002c 	.inst	0x0000002c ; undefined
  64:	005c0002 	.inst	0x005c0002 ; undefined
  68:	00080000 	.inst	0x00080000 ; undefined
  6c:	00000000 	.inst	0x00000000 ; undefined
  70:	00000938 	.inst	0x00000938 ; undefined
  74:	00000000 	.inst	0x00000000 ; undefined
  78:	00000258 	.inst	0x00000258 ; undefined
	...
  90:	0000002c 	.inst	0x0000002c ; undefined
  94:	008a0002 	.inst	0x008a0002 ; undefined
  98:	00080000 	.inst	0x00080000 ; undefined
  9c:	00000000 	.inst	0x00000000 ; undefined
  a0:	00003730 	.inst	0x00003730 ; undefined
  a4:	00000000 	.inst	0x00000000 ; undefined
  a8:	00000004 	.inst	0x00000004 ; undefined
	...
  c0:	0000002c 	.inst	0x0000002c ; undefined
  c4:	00d10002 	.inst	0x00d10002 ; undefined
  c8:	00080000 	.inst	0x00080000 ; undefined
  cc:	00000000 	.inst	0x00000000 ; undefined
  d0:	00003738 	.inst	0x00003738 ; undefined
  d4:	00000000 	.inst	0x00000000 ; undefined
  d8:	00000040 	.inst	0x00000040 ; undefined
	...
  f0:	0000002c 	.inst	0x0000002c ; undefined
  f4:	02680002 	.inst	0x02680002 ; undefined
  f8:	00080000 	.inst	0x00080000 ; undefined
  fc:	00000000 	.inst	0x00000000 ; undefined
 100:	00003778 	.inst	0x00003778 ; undefined
 104:	00000000 	.inst	0x00000000 ; undefined
 108:	00000098 	.inst	0x00000098 ; undefined
	...
 120:	0000002c 	.inst	0x0000002c ; undefined
 124:	02960002 	.inst	0x02960002 ; undefined
 128:	00080000 	.inst	0x00080000 ; undefined
 12c:	00000000 	.inst	0x00000000 ; undefined
 130:	00003810 	.inst	0x00003810 ; undefined
 134:	00000000 	.inst	0x00000000 ; undefined
 138:	0000008c 	.inst	0x0000008c ; undefined
	...
 150:	0000002c 	.inst	0x0000002c ; undefined
 154:	05930002 	mov	z2.s, p3/z, #0
 158:	00080000 	.inst	0x00080000 ; undefined
 15c:	00000000 	.inst	0x00000000 ; undefined
 160:	00004c20 	.inst	0x00004c20 ; undefined
 164:	00000000 	.inst	0x00000000 ; undefined
 168:	00000004 	.inst	0x00000004 ; undefined
	...
 180:	0000002c 	.inst	0x0000002c ; undefined
 184:	068e0002 	.inst	0x068e0002 ; undefined
 188:	00080000 	.inst	0x00080000 ; undefined
 18c:	00000000 	.inst	0x00000000 ; undefined
 190:	00004c28 	.inst	0x00004c28 ; undefined
 194:	00000000 	.inst	0x00000000 ; undefined
 198:	0000004c 	.inst	0x0000004c ; undefined
	...

Disassembly of section .debug_str:

0000000000000000 <.debug_str>:
   0:	6f72702f 	.inst	0x6f72702f ; undefined
   4:	73652f6a 	.inst	0x73652f6a ; undefined
   8:	735f7464 	.inst	0x735f7464 ; undefined
   c:	672f6b64 	.inst	0x672f6b64 ; undefined
  10:	615f756e 	.inst	0x615f756e ; undefined
  14:	412f6562 	.inst	0x412f6562 ; undefined
  18:	622f4542 	.inst	0x622f4542 ; undefined
  1c:	646c6975 	.inst	0x646c6975 ; undefined
  20:	696c2f73 	ldpsw	x19, x11, [x27, #-160]
  24:	72612f6e 	.inst	0x72612f6e ; undefined
  28:	72612f6d 	.inst	0x72612f6d ; undefined
  2c:	696c2d6d 	ldpsw	x13, x11, [x11, #-160]
  30:	2f78756e 	.inst	0x2f78756e ; undefined
  34:	70616e73 	adr	x19, c2e03 <__el0_stack+0x9acc3>
  38:	746f6873 	.inst	0x746f6873 ; undefined
  3c:	656e2f73 	fmls	z19.h, p3/m, z27.h, z14.h
  40:	62696c77 	.inst	0x62696c77 ; undefined
  44:	77656e2d 	.inst	0x77656e2d ; undefined
  48:	2d62696c 	ldp	s12, s26, [x11, #-240]
  4c:	5f345f32 	.inst	0x5f345f32 ; undefined
  50:	696c2f30 	ldpsw	x16, x11, [x25, #-160]
  54:	6f6c6762 	sqshlu	v2.2d, v27.2d, #44
  58:	612f7373 	.inst	0x612f7373 ; undefined
  5c:	68637261 	.inst	0x68637261 ; undefined
  60:	632f3436 	.inst	0x632f3436 ; undefined
  64:	2e307472 	uabd	v18.8b, v3.8b, v16.8b
  68:	702f0053 	adr	x19, 5e073 <__el0_stack+0x35f33>
  6c:	2f6a6f72 	.inst	0x2f6a6f72 ; undefined
  70:	74647365 	.inst	0x74647365 ; undefined
  74:	6b64735f 	.inst	0x6b64735f ; undefined
  78:	756e672f 	.inst	0x756e672f ; undefined
  7c:	6562615f 	fnmls	z31.h, p0/m, z10.h, z2.h
  80:	4542412f 	.inst	0x4542412f ; undefined
  84:	6975622f 	ldpsw	x15, x24, [x17, #-88]
  88:	2f73646c 	.inst	0x2f73646c ; undefined
  8c:	2f6e696c 	umlsl	v12.4s, v11.4h, v14.h[6]
  90:	63726161 	.inst	0x63726161 ; undefined
  94:	2f343668 	ursra	v8.2s, v19.2s, #12
  98:	63726161 	.inst	0x63726161 ; undefined
  9c:	2d343668 	stp	s8, s13, [x19, #-96]
  a0:	656e6f6e 	fnmls	z14.h, p3/m, z27.h, z14.h
  a4:	666c652d 	.inst	0x666c652d ; undefined
  a8:	6975622f 	ldpsw	x15, x24, [x17, #-88]
  ac:	2f73646c 	.inst	0x2f73646c ; undefined
  b0:	5f363878 	.inst	0x5f363878 ; undefined
  b4:	752d3436 	.inst	0x752d3436 ; undefined
  b8:	6f6e6b6e 	umlsl2	v14.4s, v27.8h, v14.h[6]
  bc:	6c2d6e77 	stnp	d23, d27, [x19, #-304]
  c0:	78756e69 	.inst	0x78756e69 ; undefined
  c4:	756e672d 	.inst	0x756e672d ; undefined
  c8:	7261612f 	.inst	0x7261612f ; undefined
  cc:	34366863 	cbz	w3, 6cdd8 <__el0_stack+0x44c98>
  d0:	6e6f6e2d 	umin	v13.8h, v17.8h, v15.8h
  d4:	6c652d65 	ldnp	d5, d11, [x11, #-432]
  d8:	656e2f66 	fmls	z6.h, p3/m, z27.h, z14.h
  dc:	62696c77 	.inst	0x62696c77 ; undefined
  e0:	77656e2d 	.inst	0x77656e2d ; undefined
  e4:	2d62696c 	ldp	s12, s26, [x11, #-240]
  e8:	5f345f32 	.inst	0x5f345f32 ; undefined
  ec:	61612f30 	.inst	0x61612f30 ; undefined
  f0:	36686372 	tbz	w18, #13, d5c <_mainCRTStartup+0xe4>
  f4:	6f6e2d34 	.inst	0x6f6e2d34 ; undefined
  f8:	652d656e 	.inst	0x652d656e ; undefined
  fc:	6c2f666c 	stnp	d12, d25, [x19, #-272]
 100:	6c676269 	ldnp	d9, d24, [x19, #-400]
 104:	2f73736f 	.inst	0x2f73736f ; undefined
 108:	63726161 	.inst	0x63726161 ; undefined
 10c:	00343668 	.inst	0x00343668 ; NYI
 110:	20554e47 	.inst	0x20554e47 ; undefined
 114:	32205341 	orr	w1, w26, #0x1fffff
 118:	2e39322e 	usubw	v14.8h, v17.8h, v25.8b
 11c:	73610031 	.inst	0x73610031 ; undefined
 120:	65765f6d 	fnmla	z13.h, p7/m, z27.h, z22.h
 124:	726f7463 	.inst	0x726f7463 ; undefined
 128:	00532e73 	.inst	0x00532e73 ; undefined
 12c:	64656d2f 	.inst	0x64656d2f ; undefined
 130:	6e2f6169 	rsubhn2	v9.16b, v11.8h, v15.8h
 134:	2f6f6e75 	.inst	0x2f6f6e75 ; undefined
 138:	2f444448 	.inst	0x2f444448 ; undefined
 13c:	6b726f77 	.inst	0x6b726f77 ; undefined
 140:	6f72702f 	.inst	0x6f72702f ; undefined
 144:	7463656a 	.inst	0x7463656a ; undefined
 148:	69562f73 	ldpsw	x19, x11, [x27, #176]
 14c:	6f646176 	umlsl2	v22.4s, v11.8h, v4.h[2]
 150:	75637a2f 	.inst	0x75637a2f ; undefined
 154:	2f323031 	.inst	0x2f323031 ; undefined
 158:	422f7768 	.inst	0x422f7768 ; undefined
 15c:	4d657261 	.inst	0x4d657261 ; undefined
 160:	6c617465 	ldnp	d5, d29, [x3, #-496]
 164:	2f6d7241 	fcmla	v1.4h, v18.4h, v13.h[1], #270
 168:	65726142 	fnmls	z2.h, p0/m, z10.h, z18.h
 16c:	6174654d 	.inst	0x6174654d ; undefined
 170:	6d72416c 	ldp	d12, d16, [x11, #-224]
 174:	6b64732e 	.inst	0x6b64732e ; undefined
 178:	6174732f 	.inst	0x6174732f ; undefined
 17c:	6c61646e 	ldnp	d14, d25, [x3, #-496]
 180:	5f656e6f 	.inst	0x5f656e6f ; undefined
 184:	5f707362 	sqdmlsl	s2, h27, v0.h[3]
 188:	73702f30 	.inst	0x73702f30 ; undefined
 18c:	6f635f75 	.inst	0x6f635f75 ; undefined
 190:	78657472 	.inst	0x78657472 ; undefined
 194:	5f333561 	.inst	0x5f333561 ; undefined
 198:	696c2f30 	ldpsw	x16, x11, [x25, #-160]
 19c:	63727362 	.inst	0x63727362 ; undefined
 1a0:	6174732f 	.inst	0x6174732f ; undefined
 1a4:	6c61646e 	ldnp	d14, d25, [x3, #-496]
 1a8:	5f656e6f 	.inst	0x5f656e6f ; undefined
 1ac:	385f3676 	ldrb	w22, [x19], #-13
 1b0:	6372732f 	.inst	0x6372732f ; undefined
 1b4:	6f6f6200 	umlsl2	v0.4s, v16.8h, v15.h[2]
 1b8:	00532e74 	.inst	0x00532e74 ; undefined
 1bc:	74696e69 	.inst	0x74696e69 ; undefined
 1c0:	696c6169 	ldpsw	x9, x24, [x11, #-160]
 1c4:	6d5f6573 	ldp	d19, d25, [x11, #496]
 1c8:	74696e6f 	.inst	0x74696e6f ; undefined
 1cc:	685f726f 	.inst	0x685f726f ; undefined
 1d0:	6c646e61 	ldnp	d1, d27, [x19, #-448]
 1d4:	632e7365 	.inst	0x632e7365 ; undefined
 1d8:	696e6900 	ldpsw	x0, x26, [x8, #-144]
 1dc:	6c616974 	ldnp	d20, d26, [x11, #-496]
 1e0:	5f657369 	sqdmlsl	s9, h27, v5.h[2]
 1e4:	696e6f6d 	ldpsw	x13, x27, [x27, #-144]
 1e8:	5f726f74 	.inst	0x5f726f74 ; undefined
 1ec:	646e6168 	.inst	0x646e6168 ; undefined
 1f0:	0073656c 	.inst	0x0073656c ; undefined
 1f4:	20554e47 	.inst	0x20554e47 ; undefined
 1f8:	20313143 	.inst	0x20313143 ; undefined
 1fc:	2e332e37 	uqsub	v23.8b, v17.8b, v19.8b
 200:	30322031 	adr	x17, 64605 <__el0_stack+0x3c4c5>
 204:	33303831 	.inst	0x33303831 ; undefined
 208:	2d203431 	stp	s17, s13, [x1, #-256]
 20c:	6372616d 	.inst	0x6372616d ; undefined
 210:	72613d68 	.inst	0x72613d68 ; undefined
 214:	2d38766d 	stp	s13, s29, [x19, #-64]
 218:	6d2d2061 	stp	d1, d8, [x3, #-304]
 21c:	7474696c 	.inst	0x7474696c ; undefined
 220:	652d656c 	.inst	0x652d656c ; undefined
 224:	6169646e 	.inst	0x6169646e ; undefined
 228:	6d2d206e 	stp	d14, d8, [x3, #-304]
 22c:	3d696261 	ldr	b1, [x19, #2648]
 230:	3436706c 	cbz	w12, 6d03c <__el0_stack+0x44efc>
 234:	20672d20 	.inst	0x20672d20 ; undefined
 238:	00324f2d 	.inst	0x00324f2d ; NYI
 23c:	63784558 	.inst	0x63784558 ; undefined
 240:	6365565f 	.inst	0x6365565f ; undefined
 244:	54726f74 	.inst	0x54726f74 ; undefined
 248:	656c6261 	fnmls	z1.h, p0/m, z19.h, z12.h
 24c:	72746e45 	.inst	0x72746e45 ; undefined
 250:	5f5f0079 	.inst	0x5f5f0079 ; undefined
 254:	33746e69 	.inst	0x33746e69 ; undefined
 258:	00745f32 	.inst	0x00745f32 ; undefined
 25c:	63784558 	.inst	0x63784558 ; undefined
 260:	6365565f 	.inst	0x6365565f ; undefined
 264:	54726f74 	.inst	0x54726f74 ; undefined
 268:	656c6261 	fnmls	z1.h, p0/m, z19.h, z12.h
 26c:	51524900 	sub	w0, w8, #0x492, lsl #12
 270:	65746e49 	fnmls	z9.h, p3/m, z18.h, z20.h
 274:	70757272 	adr	x18, eb0c3 <__el0_stack+0xc2f83>
 278:	69580074 	ldpsw	x20, x0, [x3, #192]
 27c:	73415f6c 	.inst	0x73415f6c ; undefined
 280:	74726573 	.inst	0x74726573 ; undefined
 284:	74696157 	.inst	0x74696157 ; undefined
 288:	6e6f6c00 	umin	v0.8h, v0.8h, v15.8h
 28c:	6e752067 	usubl2	v7.4s, v3.8h, v21.8h
 290:	6e676973 	.inst	0x6e676973 ; undefined
 294:	69206465 	.inst	0x69206465 ; undefined
 298:	7300746e 	.inst	0x7300746e ; undefined
 29c:	74726f68 	.inst	0x74726f68 ; undefined
 2a0:	736e7520 	.inst	0x736e7520 ; undefined
 2a4:	656e6769 	fnmls	z9.h, p1/m, z27.h, z14.h
 2a8:	6e692064 	usubl2	v4.4s, v3.8h, v9.8h
 2ac:	6e750074 	uaddl2	v20.4s, v3.8h, v21.8h
 2b0:	6e676973 	.inst	0x6e676973 ; undefined
 2b4:	63206465 	.inst	0x63206465 ; undefined
 2b8:	00726168 	.inst	0x00726168 ; undefined
 2bc:	61746144 	.inst	0x61746144 ; undefined
 2c0:	755f5f00 	.inst	0x755f5f00 ; undefined
 2c4:	33746e69 	.inst	0x33746e69 ; undefined
 2c8:	00745f32 	.inst	0x00745f32 ; undefined
 2cc:	5f6c6958 	.inst	0x5f6c6958 ; undefined
 2d0:	65737341 	fnmls	z1.h, p4/m, z26.h, z19.h
 2d4:	74537472 	.inst	0x74537472 ; undefined
 2d8:	73757461 	.inst	0x73757461 ; undefined
 2dc:	51494600 	sub	w0, w16, #0x251, lsl #12
 2e0:	65746e49 	fnmls	z9.h, p3/m, z18.h, z20.h
 2e4:	70757272 	adr	x18, eb133 <__el0_stack+0xc2ff3>
 2e8:	69580074 	ldpsw	x20, x0, [x3, #192]
 2ec:	78455f6c 	ldrh	w12, [x27, #85]!
 2f0:	74706563 	.inst	0x74706563 ; undefined
 2f4:	486e6f69 	.inst	0x486e6f69 ; undefined
 2f8:	6c646e61 	ldnp	d1, d27, [x19, #-448]
 2fc:	53007265 	ubfx	w5, w19, #0, #29
 300:	68636e79 	.inst	0x68636e79 ; undefined
 304:	6f6e6f72 	.inst	0x6f6e6f72 ; undefined
 308:	6e497375 	.inst	0x6e497375 ; undefined
 30c:	72726574 	.inst	0x72726574 ; undefined
 310:	00747075 	.inst	0x00747075 ; undefined
 314:	676e6f6c 	.inst	0x676e6f6c ; undefined
 318:	6e6f6c20 	umin	v0.8h, v1.8h, v15.8h
 31c:	6e692067 	usubl2	v7.4s, v3.8h, v9.8h
 320:	68730074 	.inst	0x68730074 ; undefined
 324:	2074726f 	.inst	0x2074726f ; undefined
 328:	00746e69 	.inst	0x00746e69 ; undefined
 32c:	72724553 	.inst	0x72724553 ; undefined
 330:	6e49726f 	.inst	0x6e49726f ; undefined
 334:	72726574 	.inst	0x72726574 ; undefined
 338:	00747075 	.inst	0x00747075 ; undefined
 33c:	676e6f6c 	.inst	0x676e6f6c ; undefined
 340:	756f6420 	.inst	0x756f6420 ; undefined
 344:	00656c62 	.inst	0x00656c62 ; undefined
 348:	74636576 	.inst	0x74636576 ; undefined
 34c:	2e73726f 	uabdl	v15.4s, v19.4h, v19.4h
 350:	69780063 	ldpsw	x3, x0, [x3, #-64]
 354:	72632d6c 	.inst	0x72632d6c ; undefined
 358:	532e3074 	.inst	0x532e3074 ; undefined
 35c:	6c695800 	ldnp	d0, d22, [x0, #-368]
 360:	6378455f 	.inst	0x6378455f ; undefined
 364:	69747065 	ldpsw	x5, x28, [x3, #-96]
 368:	65526e6f 	fcmeq	p15.h, p3/z, z19.h, z18.h
 36c:	74736967 	.inst	0x74736967 ; undefined
 370:	61487265 	.inst	0x61487265 ; undefined
 374:	656c646e 	fnmls	z14.h, p1/m, z3.h, z12.h
 378:	78450072 	ldurh	w18, [x3, #80]
 37c:	74706563 	.inst	0x74706563 ; undefined
 380:	5f6e6f69 	.inst	0x5f6e6f69 ; undefined
 384:	58006469 	ldr	x9, 1010 <reinit_ivec_pos>
 388:	535f6c69 	.inst	0x535f6c69 ; undefined
 38c:	6f727245 	.inst	0x6f727245 ; undefined
 390:	6f624172 	mls	v18.8h, v11.8h, v2.h[2]
 394:	61487472 	.inst	0x61487472 ; undefined
 398:	656c646e 	fnmls	z14.h, p1/m, z3.h, z12.h
 39c:	69580072 	ldpsw	x18, x0, [x3, #192]
 3a0:	78455f6c 	ldrh	w12, [x27, #85]!
 3a4:	74706563 	.inst	0x74706563 ; undefined
 3a8:	496e6f69 	.inst	0x496e6f69 ; undefined
 3ac:	0074696e 	.inst	0x0074696e ; undefined
 3b0:	5f6c6958 	.inst	0x5f6c6958 ; undefined
 3b4:	65637845 	fnmls	z5.h, p6/m, z2.h, z3.h
 3b8:	6f697470 	uqshl	v16.2d, v3.2d, #41
 3bc:	6c754e6e 	ldnp	d14, d19, [x19, #-176]
 3c0:	6e61486c 	uqxtn2	v12.8h, v3.4s
 3c4:	72656c64 	.inst	0x72656c64 ; undefined
 3c8:	65694400 	fnmla	z0.h, p1/m, z0.h, z9.h
 3cc:	706f6f4c 	adr	x12, df1b7 <__el0_stack+0xb7077>
 3d0:	6c614300 	ldnp	d0, d16, [x24, #-496]
 3d4:	6361426c 	.inst	0x6361426c ; undefined
 3d8:	6665526b 	.inst	0x6665526b ; undefined
 3dc:	6c695800 	ldnp	d0, d22, [x0, #-368]
 3e0:	7465475f 	.inst	0x7465475f ; undefined
 3e4:	65637845 	fnmls	z5.h, p6/m, z2.h, z3.h
 3e8:	6f697470 	uqshl	v16.2d, v3.2d, #41
 3ec:	6765526e 	.inst	0x6765526e ; undefined
 3f0:	65747369 	fnmls	z9.h, p4/m, z27.h, z20.h
 3f4:	6e614872 	uqxtn2	v18.8h, v3.4s
 3f8:	72656c64 	.inst	0x72656c64 ; undefined
 3fc:	6c697800 	ldnp	d0, d30, [x0, #-368]
 400:	6378655f 	.inst	0x6378655f ; undefined
 404:	69747065 	ldpsw	x5, x28, [x3, #-96]
 408:	632e6e6f 	.inst	0x632e6e6f ; undefined
 40c:	6c695800 	ldnp	d0, d22, [x0, #-368]
 410:	6e79535f 	uabal2	v31.4s, v26.8h, v25.8h
 414:	6f624163 	mls	v3.8h, v11.8h, v2.h[2]
 418:	61487472 	.inst	0x61487472 ; undefined
 41c:	656c646e 	fnmls	z14.h, p1/m, z3.h, z12.h
 420:	69580072 	ldpsw	x18, x0, [x3, #192]
 424:	78455f6c 	ldrh	w12, [x27, #85]!
 428:	74706563 	.inst	0x74706563 ; undefined
 42c:	526e6f69 	.inst	0x526e6f69 ; undefined
 430:	766f6d65 	.inst	0x766f6d65 ; undefined
 434:	6e614865 	uqxtn2	v5.8h, v3.4s
 438:	72656c64 	.inst	0x72656c64 ; undefined
 43c:	6e697300 	uabdl2	v0.4s, v24.8h, v9.8h
 440:	00323374 	.inst	0x00323374 ; NYI
 444:	6974706f 	ldpsw	x15, x28, [x3, #-96]
 448:	5f00646e 	.inst	0x5f00646e ; undefined
 44c:	74697865 	.inst	0x74697865 ; undefined
 450:	7300632e 	.inst	0x7300632e ; undefined
 454:	75746174 	.inst	0x75746174 ; undefined
 458:	706f0073 	adr	x19, de467 <__el0_stack+0xb6327>
 45c:	72726574 	.inst	0x72726574 ; undefined
 460:	78655f00 	.inst	0x78655f00 ; undefined
 464:	6f007469 	bic	v9.4s, #0x3, lsl #24
 468:	706f7470 	adr	x16, df2f7 <__el0_stack+0xb71b7>
 46c:	706f0074 	adr	x20, de47b <__el0_stack+0xb633b>
 470:	73657274 	.inst	0x73657274 ; undefined
 474:	6f007465 	bic	v5.4s, #0x3, lsl #24
 478:	72617470 	.inst	0x72617470 ; undefined
 47c:	6e650067 	uaddl2	v7.4s, v3.8h, v5.8h
 480:	6f726976 	umlsl2	v22.4s, v11.8h, v2.h[7]
 484:	735f006e 	.inst	0x735f006e ; undefined
 488:	2e6b7262 	uabdl	v2.4s, v19.4h, v11.4h
 48c:	685f0063 	.inst	0x685f0063 ; undefined
 490:	5f706165 	.inst	0x5f706165 ; undefined
 494:	00646e65 	.inst	0x00646e65 ; undefined
 498:	69755f5f 	ldpsw	xzr, x23, [x26, #-88]
 49c:	5f38746e 	sqshl	s14, s3, #24
 4a0:	61630074 	.inst	0x61630074 ; undefined
 4a4:	5f726464 	.inst	0x5f726464 ; undefined
 4a8:	6e690074 	uaddl2	v20.4s, v3.8h, v9.8h
 4ac:	5f007263 	.inst	0x5f007263 ; undefined
 4b0:	70616568 	adr	x8, c315f <__el0_stack+0x9b01f>
 4b4:	6174735f 	.inst	0x6174735f ; undefined
 4b8:	5f007472 	.inst	0x5f007472 ; undefined
 4bc:	6b726273 	.inst	0x6b726273 ; undefined
 4c0:	61654800 	.inst	0x61654800 ; undefined
 4c4:	646e4570 	.inst	0x646e4570 ; undefined
 4c8:	00727450 	.inst	0x00727450 ; undefined
 4cc:	76657270 	.inst	0x76657270 ; undefined
 4d0:	6165685f 	.inst	0x6165685f ; undefined
 4d4:	Address 0x00000000000004d4 is out of bounds.


Disassembly of section .debug_frame:

0000000000000000 <.debug_frame>:
   0:	0000000c 	.inst	0x0000000c ; undefined
   4:	ffffffff 	.inst	0xffffffff ; undefined
   8:	78040001 	sturh	w1, [x0, #64]
   c:	001f0c1e 	.inst	0x001f0c1e ; undefined
  10:	00000014 	.word	0x00000014
  14:	00000000 	.word	0x00000000
  18:	00003730 	.word	0x00003730
  1c:	0000      	.short	0x0000
  1e:	0000      	.short	0x0000
  20:	00000004 	.word	0x00000004
  24:	00000000 	.word	0x00000000
  28:	0000000c 	.word	0x0000000c
  2c:	ffffffff 	.word	0xffffffff
  30:	78040001 	.word	0x78040001
  34:	001f0c1e 	.word	0x001f0c1e
  38:	00000014 	.word	0x00000014
  3c:	00000028 	.word	0x00000028
  40:	00003738 	.word	0x00003738
  44:	00000000 	.word	0x00000000
  48:	00000010 	.word	0x00000010
  4c:	00000000 	.word	0x00000000
  50:	00000014 	.word	0x00000014
  54:	00000028 	.word	0x00000028
  58:	00003748 	.word	0x00003748
  5c:	00000000 	.word	0x00000000
  60:	00000010 	.word	0x00000010
  64:	00000000 	.word	0x00000000
  68:	00000014 	.word	0x00000014
  6c:	00000028 	.word	0x00000028
  70:	00003758 	.word	0x00003758
  74:	00000000 	.word	0x00000000
  78:	00000010 	.word	0x00000010
  7c:	00000000 	.word	0x00000000
  80:	00000014 	.word	0x00000014
  84:	00000028 	.word	0x00000028
  88:	00003768 	.word	0x00003768
  8c:	00000000 	.word	0x00000000
  90:	00000010 	.word	0x00000010
  94:	00000000 	.word	0x00000000
  98:	0000000c 	.word	0x0000000c
  9c:	ffffffff 	.word	0xffffffff
  a0:	78040001 	.word	0x78040001
  a4:	001f0c1e 	.word	0x001f0c1e
  a8:	00000014 	.word	0x00000014
  ac:	00000098 	.word	0x00000098
  b0:	00003810 	.word	0x00003810
  b4:	00000000 	.word	0x00000000
  b8:	00000004 	.word	0x00000004
  bc:	00000000 	.word	0x00000000
  c0:	00000014 	.word	0x00000014
  c4:	00000098 	.word	0x00000098
  c8:	00003818 	.word	0x00003818
  cc:	00000000 	.word	0x00000000
  d0:	00000004 	.word	0x00000004
  d4:	00000000 	.word	0x00000000
  d8:	00000014 	.word	0x00000014
  dc:	00000098 	.word	0x00000098
  e0:	00003820 	.word	0x00003820
  e4:	00000000 	.word	0x00000000
  e8:	00000004 	.word	0x00000004
  ec:	00000000 	.word	0x00000000
  f0:	00000014 	.word	0x00000014
  f4:	00000098 	.word	0x00000098
  f8:	00003828 	.word	0x00003828
  fc:	00000000 	.word	0x00000000
 100:	00000004 	.word	0x00000004
 104:	00000000 	.word	0x00000000
 108:	00000014 	.word	0x00000014
 10c:	00000098 	.word	0x00000098
 110:	00003830 	.word	0x00003830
 114:	00000000 	.word	0x00000000
 118:	0000001c 	.word	0x0000001c
 11c:	00000000 	.word	0x00000000
 120:	00000014 	.word	0x00000014
 124:	00000098 	.word	0x00000098
 128:	00003850 	.word	0x00003850
 12c:	00000000 	.word	0x00000000
 130:	00000024 	.word	0x00000024
 134:	00000000 	.word	0x00000000
 138:	00000014 	.word	0x00000014
 13c:	00000098 	.word	0x00000098
 140:	00003878 	.word	0x00003878
 144:	00000000 	.word	0x00000000
 148:	00000024 	.word	0x00000024
 14c:	00000000 	.word	0x00000000
 150:	0000000c 	.word	0x0000000c
 154:	ffffffff 	.word	0xffffffff
 158:	78040001 	.word	0x78040001
 15c:	001f0c1e 	.word	0x001f0c1e
 160:	00000014 	.word	0x00000014
 164:	00000150 	.word	0x00000150
 168:	00004c20 	.word	0x00004c20
 16c:	00000000 	.word	0x00000000
 170:	00000004 	.word	0x00000004
 174:	00000000 	.word	0x00000000
 178:	0000000c 	.word	0x0000000c
 17c:	ffffffff 	.word	0xffffffff
 180:	78040001 	.word	0x78040001
 184:	001f0c1e 	.word	0x001f0c1e
 188:	00000014 	.word	0x00000014
 18c:	00000178 	.word	0x00000178
 190:	00004c28 	.word	0x00004c28
 194:	00000000 	.word	0x00000000
 198:	0000004c 	.word	0x0000004c
 19c:	00000000 	.word	0x00000000

Disassembly of section .debug_loc:

0000000000000000 <.debug_loc>:
   0:	00000068 	.inst	0x00000068 ; undefined
   4:	00000000 	.inst	0x00000000 ; undefined
   8:	0000006c 	.inst	0x0000006c ; undefined
   c:	00000000 	.inst	0x00000000 ; undefined
  10:	6c500001 	ldnp	d1, d0, [x0, #256]
  14:	00000000 	.inst	0x00000000 ; undefined
  18:	8c000000 	.inst	0x8c000000 ; undefined
  1c:	00000000 	.inst	0x00000000 ; undefined
  20:	04000000 	add	z0.b, p0/m, z0.b, z0.b
  24:	5001f300 	adr	x0, 3e86 <_malloc_r+0x49e>
  28:	0000009f 	.inst	0x0000009f ; undefined
	...
  38:	00006800 	.inst	0x00006800 ; undefined
  3c:	00000000 	.inst	0x00000000 ; undefined
  40:	00008800 	.inst	0x00008800 ; undefined
  44:	00000000 	.inst	0x00000000 ; undefined
  48:	30000200 	adr	x0, 89 <UNDEF_1_REG+0x6b>
  4c:	0000009f 	.inst	0x0000009f ; undefined
	...
  5c:	00006800 	.inst	0x00006800 ; undefined
  60:	00000000 	.inst	0x00000000 ; undefined
  64:	00008800 	.inst	0x00008800 ; undefined
  68:	00000000 	.inst	0x00000000 ; undefined
  6c:	03000a00 	.inst	0x03000a00 ; undefined
  70:	00003810 	.inst	0x00003810 ; undefined
  74:	00000000 	.inst	0x00000000 ; undefined
  78:	0000009f 	.inst	0x0000009f ; undefined
	...
  88:	00006800 	.inst	0x00006800 ; undefined
  8c:	00000000 	.inst	0x00000000 ; undefined
  90:	00006c00 	.inst	0x00006c00 ; undefined
  94:	00000000 	.inst	0x00000000 ; undefined
  98:	50000100 	adr	x0, ba <UNDEF_1_REG+0x9c>
  9c:	0000006c 	.inst	0x0000006c ; undefined
  a0:	00000000 	.inst	0x00000000 ; undefined
  a4:	00000088 	.inst	0x00000088 ; undefined
  a8:	00000000 	.inst	0x00000000 ; undefined
  ac:	01f30004 	.inst	0x01f30004 ; undefined
  b0:	00009f50 	.inst	0x00009f50 ; undefined
	...
  c0:	00400000 	.inst	0x00400000 ; undefined
  c4:	00000000 	.inst	0x00000000 ; undefined
  c8:	00440000 	.inst	0x00440000 ; undefined
  cc:	00000000 	.inst	0x00000000 ; undefined
  d0:	00010000 	.inst	0x00010000 ; undefined
  d4:	00004450 	.inst	0x00004450 ; undefined
  d8:	00000000 	.inst	0x00000000 ; undefined
  dc:	00006400 	.inst	0x00006400 ; undefined
  e0:	00000000 	.inst	0x00000000 ; undefined
  e4:	f3000400 	.inst	0xf3000400 ; undefined
  e8:	009f5001 	.inst	0x009f5001 ; undefined
	...
  f8:	20000000 	.inst	0x20000000 ; undefined
  fc:	00000000 	.inst	0x00000000 ; undefined
 100:	24000000 	cmphs	p0.b, p0/z, z0.b, z0.b
 104:	00000000 	.inst	0x00000000 ; undefined
 108:	01000000 	.inst	0x01000000 ; undefined
 10c:	00245000 	.inst	0x00245000 ; NYI
 110:	00000000 	.inst	0x00000000 ; undefined
 114:	003c0000 	.inst	0x003c0000 ; NYI
 118:	00000000 	.inst	0x00000000 ; undefined
 11c:	00040000 	.inst	0x00040000 ; undefined
 120:	9f5001f3 	.inst	0x9f5001f3 ; undefined
	...
 13c:	00000010 	.inst	0x00000010 ; undefined
 140:	00000000 	.inst	0x00000000 ; undefined
 144:	10500001 	adr	x1, a0144 <__el0_stack+0x78004>
 148:	00000000 	.inst	0x00000000 ; undefined
 14c:	38000000 	sturb	w0, [x0]
 150:	00000000 	.inst	0x00000000 ; undefined
 154:	04000000 	add	z0.b, p0/m, z0.b, z0.b
 158:	5001f300 	adr	x0, 3fba <_malloc_r+0x5d2>
 15c:	0000389f 	.inst	0x0000389f ; undefined
 160:	00000000 	.inst	0x00000000 ; undefined
 164:	00004c00 	.inst	0x00004c00 ; undefined
 168:	00000000 	.inst	0x00000000 ; undefined
 16c:	50000100 	adr	x0, 18e <UNDEF_1_REG+0x170>
	...
 180:	0000000c 	.inst	0x0000000c ; undefined
 184:	00000000 	.inst	0x00000000 ; undefined
 188:	00000030 	.inst	0x00000030 ; undefined
 18c:	00000000 	.inst	0x00000000 ; undefined
 190:	f8030009 	stur	x9, [x0, #48]
 194:	000000e0 	.inst	0x000000e0 ; undefined
	...
 1a8:	24000000 	cmphs	p0.b, p0/z, z0.b, z0.b
 1ac:	00000000 	.inst	0x00000000 ; undefined
 1b0:	2c000000 	stnp	s0, s0, [x0]
 1b4:	00000000 	.inst	0x00000000 ; undefined
 1b8:	03000000 	.inst	0x03000000 ; undefined
 1bc:	9fff0900 	.inst	0x9fff0900 ; undefined
	...
