
executable_t1_n32_l1.elf:     file format elf32-microblazeel


Disassembly of section .vectors.reset:

00000000 <_start>:
   0:	b0000000 	imm	0
   4:	b8080050 	brai	80	// 50 <_start1>

Disassembly of section .vectors.sw_exception:

00000008 <_vector_sw_exception>:
   8:	b0000000 	imm	0
   c:	b8084544 	brai	17732	// 4544 <_exception_handler>

Disassembly of section .vectors.interrupt:

00000010 <_vector_interrupt>:
  10:	b0000000 	imm	0
  14:	b80868f0 	brai	26864	// 68f0 <__interrupt_handler>

Disassembly of section .vectors.hw_exception:

00000020 <_vector_hw_exception>:
  20:	b0000000 	imm	0
  24:	b808455c 	brai	17756	// 455c <_hw_exception_handler>

Disassembly of section .text:

00000050 <_start1>:
      50:	b0000000 	imm	0
      54:	31a07818 	addik	r13, r0, 30744	// 7818 <_SDA_BASE_>
      58:	b0000000 	imm	0
      5c:	30407148 	addik	r2, r0, 29000	// 7148 <_SDA2_BASE_>
      60:	b0000001 	imm	1
      64:	3020d898 	addik	r1, r0, -10088
      68:	b0000000 	imm	0
      6c:	b9f40130 	brlid	r15, 304	// 19c <_crtinit>
      70:	80000000 	or	r0, r0, r0
      74:	b0000000 	imm	0
      78:	b9f4524c 	brlid	r15, 21068	// 52c4 <exit>
      7c:	30a30000 	addik	r5, r3, 0

00000080 <_exit>:
      80:	b8000000 	bri	0	// 80 <_exit>

00000084 <__do_global_dtors_aux>:
      84:	b0000000 	imm	0
      88:	e0607818 	lbui	r3, r0, 30744	// 7818 <_SDA_BASE_>
      8c:	3021ffe0 	addik	r1, r1, -32
      90:	f9e10000 	swi	r15, r1, 0
      94:	be230094 	bneid	r3, 148		// 128
      98:	fa61001c 	swi	r19, r1, 28
      9c:	b0000000 	imm	0
      a0:	30806ad0 	addik	r4, r0, 27344	// 6ad0 <__CTOR_END__>
      a4:	b0000000 	imm	0
      a8:	32606ad4 	addik	r19, r0, 27348	// 6ad4 <__DTOR_END__>
      ac:	b0000000 	imm	0
      b0:	e860781c 	lwi	r3, r0, 30748	// 781c <dtor_idx.2341>
      b4:	16649800 	rsubk	r19, r4, r19
      b8:	66730202 	bsrai	r19, r19, 2
      bc:	3273ffff 	addik	r19, r19, -1
      c0:	16531803 	cmpu	r18, r19, r3
      c4:	beb2003c 	bgeid	r18, 60		// 100
      c8:	30630001 	addik	r3, r3, 1
      cc:	64830402 	bslli	r4, r3, 2
      d0:	b0000000 	imm	0
      d4:	30846ad0 	addik	r4, r4, 27344
      d8:	e8840000 	lwi	r4, r4, 0
      dc:	b0000000 	imm	0
      e0:	f860781c 	swi	r3, r0, 30748	// 781c <dtor_idx.2341>
      e4:	99fc2000 	brald	r15, r4
      e8:	80000000 	or	r0, r0, r0
      ec:	b0000000 	imm	0
      f0:	e860781c 	lwi	r3, r0, 30748	// 781c <dtor_idx.2341>
      f4:	16531803 	cmpu	r18, r19, r3
      f8:	be52ffd4 	bltid	r18, -44		// cc
      fc:	30630001 	addik	r3, r3, 1
     100:	b0000000 	imm	0
     104:	30600000 	addik	r3, r0, 0
     108:	bc030014 	beqi	r3, 20		// 11c
     10c:	b0000000 	imm	0
     110:	30a0780c 	addik	r5, r0, 30732	// 780c <__data_end>
     114:	99fc1800 	brald	r15, r3
     118:	80000000 	or	r0, r0, r0
     11c:	30600001 	addik	r3, r0, 1
     120:	b0000000 	imm	0
     124:	f0607818 	sbi	r3, r0, 30744	// 7818 <_SDA_BASE_>
     128:	e9e10000 	lwi	r15, r1, 0
     12c:	ea61001c 	lwi	r19, r1, 28
     130:	b60f0008 	rtsd	r15, 8
     134:	30210020 	addik	r1, r1, 32

00000138 <frame_dummy>:
     138:	b0000000 	imm	0
     13c:	30600000 	addik	r3, r0, 0
     140:	3021ffe4 	addik	r1, r1, -28
     144:	be030020 	beqid	r3, 32		// 164
     148:	f9e10000 	swi	r15, r1, 0
     14c:	b0000000 	imm	0
     150:	30a0780c 	addik	r5, r0, 30732	// 780c <__data_end>
     154:	b0000000 	imm	0
     158:	30c07820 	addik	r6, r0, 30752	// 7820 <object.2351>
     15c:	99fc1800 	brald	r15, r3
     160:	80000000 	or	r0, r0, r0
     164:	b0000000 	imm	0
     168:	e8607810 	lwi	r3, r0, 30736	// 7810 <__JCR_END__>
     16c:	be030028 	beqid	r3, 40		// 194
     170:	e9e10000 	lwi	r15, r1, 0
     174:	b0000000 	imm	0
     178:	30600000 	addik	r3, r0, 0
     17c:	bc030018 	beqi	r3, 24		// 194
     180:	b0000000 	imm	0
     184:	30a07810 	addik	r5, r0, 30736	// 7810 <__JCR_END__>
     188:	99fc1800 	brald	r15, r3
     18c:	80000000 	or	r0, r0, r0
     190:	e9e10000 	lwi	r15, r1, 0
     194:	b60f0008 	rtsd	r15, 8
     198:	3021001c 	addik	r1, r1, 28

0000019c <_crtinit>:
     19c:	2021ffec 	addi	r1, r1, -20
     1a0:	f9e10000 	swi	r15, r1, 0
     1a4:	b0000000 	imm	0
     1a8:	20c07818 	addi	r6, r0, 30744	// 7818 <_SDA_BASE_>
     1ac:	b0000000 	imm	0
     1b0:	20e07818 	addi	r7, r0, 30744	// 7818 <_SDA_BASE_>
     1b4:	06463800 	rsub	r18, r6, r7
     1b8:	bc720014 	blei	r18, 20		// 1cc
     1bc:	f8060000 	swi	r0, r6, 0
     1c0:	20c60004 	addi	r6, r6, 4
     1c4:	06463800 	rsub	r18, r6, r7
     1c8:	bc92fff4 	bgti	r18, -12		// 1bc
     1cc:	b0000000 	imm	0
     1d0:	20c07818 	addi	r6, r0, 30744	// 7818 <_SDA_BASE_>
     1d4:	b0000000 	imm	0
     1d8:	20e078a8 	addi	r7, r0, 30888	// 78a8 <__bss_end>
     1dc:	06463800 	rsub	r18, r6, r7
     1e0:	bc720014 	blei	r18, 20		// 1f4
     1e4:	f8060000 	swi	r0, r6, 0
     1e8:	20c60004 	addi	r6, r6, 4
     1ec:	06463800 	rsub	r18, r6, r7
     1f0:	bc92fff4 	bgti	r18, -12		// 1e4
     1f4:	b0000000 	imm	0
     1f8:	b9f4435c 	brlid	r15, 17244	// 4554 <_program_init>
     1fc:	80000000 	or	r0, r0, r0
     200:	b0000000 	imm	0
     204:	b9f46868 	brlid	r15, 26728	// 6a6c <__init>
     208:	80000000 	or	r0, r0, r0
     20c:	20c00000 	addi	r6, r0, 0
     210:	20e00000 	addi	r7, r0, 0
     214:	b0000000 	imm	0
     218:	b9f465e4 	brlid	r15, 26084	// 67fc <main>
     21c:	20a00000 	addi	r5, r0, 0
     220:	32630000 	addik	r19, r3, 0
     224:	b0000000 	imm	0
     228:	b9f46880 	brlid	r15, 26752	// 6aa8 <__fini>
     22c:	80000000 	or	r0, r0, r0
     230:	b0000000 	imm	0
     234:	b9f44318 	brlid	r15, 17176	// 454c <_program_clean>
     238:	80000000 	or	r0, r0, r0
     23c:	c9e10000 	lw	r15, r1, r0
     240:	30730000 	addik	r3, r19, 0
     244:	b60f0008 	rtsd	r15, 8
     248:	20210014 	addi	r1, r1, 20

0000024c <inner_product>:
     24c:	e865004c 	lwi	r3, r5, 76
     250:	e9650030 	lwi	r11, r5, 48
     254:	e905002c 	lwi	r8, r5, 44
     258:	e9230000 	lwi	r9, r3, 0
     25c:	e9430004 	lwi	r10, r3, 4
     260:	30e00001 	addik	r7, r0, 1
     264:	be6b0044 	bleid	r11, 68		// 2a8
     268:	10600000 	addk	r3, r0, r0
     26c:	be680030 	bleid	r8, 48		// 29c
     270:	10800000 	addk	r4, r0, r0
     274:	10c43800 	addk	r6, r4, r7
     278:	64a40402 	bslli	r5, r4, 2
     27c:	64c60402 	bslli	r6, r6, 2
     280:	c8a54800 	lw	r5, r5, r9
     284:	c8c65000 	lw	r6, r6, r10
     288:	30840001 	addik	r4, r4, 1
     28c:	58a62900 	fmul	r5, r6, r5
     290:	16482001 	cmp	r18, r8, r4
     294:	be52ffe0 	bltid	r18, -32		// 274
     298:	58632800 	fadd	r3, r3, r5
     29c:	30e70001 	addik	r7, r7, 1
     2a0:	16475801 	cmp	r18, r7, r11
     2a4:	bcb2ffc8 	bgei	r18, -56		// 26c
     2a8:	b60f0008 	rtsd	r15, 8
     2ac:	80000000 	or	r0, r0, r0

000002b0 <difference_predictors>:
     2b0:	3021ffe8 	addik	r1, r1, -24
     2b4:	fb010010 	swi	r24, r1, 16
     2b8:	fa610004 	swi	r19, r1, 4
     2bc:	fac10008 	swi	r22, r1, 8
     2c0:	fae1000c 	swi	r23, r1, 12
     2c4:	fb210014 	swi	r25, r1, 20
     2c8:	e86500e0 	lwi	r3, r5, 224
     2cc:	e885004c 	lwi	r4, r5, 76
     2d0:	eb250030 	lwi	r25, r5, 48
     2d4:	33000001 	addik	r24, r0, 1
     2d8:	e8630000 	lwi	r3, r3, 0
     2dc:	eae40000 	lwi	r23, r4, 0
     2e0:	be7900cc 	bleid	r25, 204		// 3ac
     2e4:	eac5002c 	lwi	r22, r5, 44
     2e8:	be7600b8 	bleid	r22, 184		// 3a0
     2ec:	10a00000 	addk	r5, r0, r0
     2f0:	60850038 	muli	r4, r5, 56
     2f4:	64c50402 	bslli	r6, r5, 2
     2f8:	31240010 	addik	r9, r4, 16
     2fc:	c8c6b800 	lw	r6, r6, r23
     300:	c9091800 	lw	r8, r9, r3
     304:	30e40014 	addik	r7, r4, 20
     308:	d8c91800 	sw	r6, r9, r3
     30c:	59083080 	frsub	r8, r8, r6
     310:	c9871800 	lw	r12, r7, r3
     314:	30c40018 	addik	r6, r4, 24
     318:	3164001c 	addik	r11, r4, 28
     31c:	31440020 	addik	r10, r4, 32
     320:	598c4080 	frsub	r12, r12, r8
     324:	d9071800 	sw	r8, r7, r3
     328:	ca661800 	lw	r19, r6, r3
     32c:	31240024 	addik	r9, r4, 36
     330:	31040028 	addik	r8, r4, 40
     334:	5a736080 	frsub	r19, r19, r12
     338:	d9861800 	sw	r12, r6, r3
     33c:	c98b1800 	lw	r12, r11, r3
     340:	30e4002c 	addik	r7, r4, 44
     344:	30c40030 	addik	r6, r4, 48
     348:	598c9880 	frsub	r12, r12, r19
     34c:	da6b1800 	sw	r19, r11, r3
     350:	c96a1800 	lw	r11, r10, r3
     354:	10832000 	addk	r4, r3, r4
     358:	30a50001 	addik	r5, r5, 1
     35c:	596b6080 	frsub	r11, r11, r12
     360:	d98a1800 	sw	r12, r10, r3
     364:	c9491800 	lw	r10, r9, r3
     368:	594a5880 	frsub	r10, r10, r11
     36c:	d9691800 	sw	r11, r9, r3
     370:	c9281800 	lw	r9, r8, r3
     374:	59295080 	frsub	r9, r9, r10
     378:	d9481800 	sw	r10, r8, r3
     37c:	c9071800 	lw	r8, r7, r3
     380:	59084880 	frsub	r8, r8, r9
     384:	d9271800 	sw	r9, r7, r3
     388:	c8e61800 	lw	r7, r6, r3
     38c:	58e74080 	frsub	r7, r7, r8
     390:	f8e40034 	swi	r7, r4, 52
     394:	16562801 	cmp	r18, r22, r5
     398:	be52ff58 	bltid	r18, -168		// 2f0
     39c:	d9061800 	sw	r8, r6, r3
     3a0:	33180001 	addik	r24, r24, 1
     3a4:	1658c801 	cmp	r18, r24, r25
     3a8:	bcb2ff40 	bgei	r18, -192		// 2e8
     3ac:	e8630000 	lwi	r3, r3, 0
     3b0:	ea610004 	lwi	r19, r1, 4
     3b4:	eac10008 	lwi	r22, r1, 8
     3b8:	eae1000c 	lwi	r23, r1, 12
     3bc:	eb010010 	lwi	r24, r1, 16
     3c0:	eb210014 	lwi	r25, r1, 20
     3c4:	b60f0008 	rtsd	r15, 8
     3c8:	30210018 	addik	r1, r1, 24

000003cc <pic_2d>:
     3cc:	3021ffc0 	addik	r1, r1, -64
     3d0:	fa610014 	swi	r19, r1, 20
     3d4:	fac10018 	swi	r22, r1, 24
     3d8:	fae1001c 	swi	r23, r1, 28
     3dc:	fb010020 	swi	r24, r1, 32
     3e0:	fb210024 	swi	r25, r1, 36
     3e4:	fb410028 	swi	r26, r1, 40
     3e8:	fb61002c 	swi	r27, r1, 44
     3ec:	fb810030 	swi	r28, r1, 48
     3f0:	fba10034 	swi	r29, r1, 52
     3f4:	fbc10038 	swi	r30, r1, 56
     3f8:	fbe1003c 	swi	r31, r1, 60
     3fc:	30600001 	addik	r3, r0, 1
     400:	e8e50030 	lwi	r7, r5, 48
     404:	f8610008 	swi	r3, r1, 8
     408:	e865004c 	lwi	r3, r5, 76
     40c:	f8e1000c 	swi	r7, r1, 12
     410:	e88500dc 	lwi	r4, r5, 220
     414:	e8c50050 	lwi	r6, r5, 80
     418:	e8e30000 	lwi	r7, r3, 0
     41c:	ebe30004 	lwi	r31, r3, 4
     420:	eac30008 	lwi	r22, r3, 8
     424:	ea63000c 	lwi	r19, r3, 12
     428:	eb030010 	lwi	r24, r3, 16
     42c:	eae30014 	lwi	r23, r3, 20
     430:	e861000c 	lwi	r3, r1, 12
     434:	ebc60000 	lwi	r30, r6, 0
     438:	eb660004 	lwi	r27, r6, 4
     43c:	eb440004 	lwi	r26, r4, 4
     440:	eba40008 	lwi	r29, r4, 8
     444:	eb24000c 	lwi	r25, r4, 12
     448:	be630124 	bleid	r3, 292		// 56c
     44c:	eb85002c 	lwi	r28, r5, 44
     450:	fba10010 	swi	r29, r1, 16
     454:	13a70000 	addk	r29, r7, r0
     458:	fb810004 	swi	r28, r1, 4
     45c:	e8a10004 	lwi	r5, r1, 4
     460:	be6500f4 	bleid	r5, 244		// 554
     464:	11800000 	addk	r12, r0, r0
     468:	eb810010 	lwi	r28, r1, 16
     46c:	646c0402 	bslli	r3, r12, 2
     470:	c8c39800 	lw	r6, r3, r19
     474:	c883b000 	lw	r4, r3, r22
     478:	c8e3c000 	lw	r7, r3, r24
     47c:	58c60300 	fint	r6, r6
     480:	318c0001 	addik	r12, r12, 1
     484:	58840300 	fint	r4, r4
     488:	a4c6003f 	andi	r6, r6, 63
     48c:	64c60406 	bslli	r6, r6, 6
     490:	a484003f 	andi	r4, r4, 63
     494:	10862000 	addk	r4, r6, r4
     498:	64840402 	bslli	r4, r4, 2
     49c:	c8a4d000 	lw	r5, r4, r26
     4a0:	58a72800 	fadd	r5, r7, r5
     4a4:	d8a3c000 	sw	r5, r3, r24
     4a8:	c8a3b800 	lw	r5, r3, r23
     4ac:	c884e000 	lw	r4, r4, r28
     4b0:	58852000 	fadd	r4, r5, r4
     4b4:	d883b800 	sw	r4, r3, r23
     4b8:	c8a3b000 	lw	r5, r3, r22
     4bc:	c883c000 	lw	r4, r3, r24
     4c0:	58852000 	fadd	r4, r5, r4
     4c4:	d883b000 	sw	r4, r3, r22
     4c8:	c8a39800 	lw	r5, r3, r19
     4cc:	c883b800 	lw	r4, r3, r23
     4d0:	58852000 	fadd	r4, r5, r4
     4d4:	d8839800 	sw	r4, r3, r19
     4d8:	c963b000 	lw	r11, r3, r22
     4dc:	58840300 	fint	r4, r4
     4e0:	58ab0300 	fint	r5, r11
     4e4:	a504003f 	andi	r8, r4, 63
     4e8:	30c80020 	addik	r6, r8, 32
     4ec:	64c60402 	bslli	r6, r6, 2
     4f0:	a485003f 	andi	r4, r5, 63
     4f4:	30e40020 	addik	r7, r4, 32
     4f8:	64e70402 	bslli	r7, r7, 2
     4fc:	c927e800 	lw	r9, r7, r29
     500:	c947f000 	lw	r10, r7, r30
     504:	c8a6d800 	lw	r5, r6, r27
     508:	58eb4800 	fadd	r7, r11, r9
     50c:	10845000 	addk	r4, r4, r10
     510:	11082800 	addk	r8, r8, r5
     514:	65080406 	bslli	r8, r8, 6
     518:	d8e3b000 	sw	r7, r3, r22
     51c:	c8e39800 	lw	r7, r3, r19
     520:	c8a6f800 	lw	r5, r6, r31
     524:	10882000 	addk	r4, r8, r4
     528:	64840402 	bslli	r4, r4, 2
     52c:	58a72800 	fadd	r5, r7, r5
     530:	e8e10004 	lwi	r7, r1, 4
     534:	d8a39800 	sw	r5, r3, r19
     538:	c864c800 	lw	r3, r4, r25
     53c:	b0003f80 	imm	16256
     540:	30a00000 	addik	r5, r0, 0
     544:	58632800 	fadd	r3, r3, r5
     548:	16476001 	cmp	r18, r7, r12
     54c:	be52ff20 	bltid	r18, -224		// 46c
     550:	d864c800 	sw	r3, r4, r25
     554:	e8610008 	lwi	r3, r1, 8
     558:	e881000c 	lwi	r4, r1, 12
     55c:	30630001 	addik	r3, r3, 1
     560:	16432001 	cmp	r18, r3, r4
     564:	beb2fef8 	bgeid	r18, -264		// 45c
     568:	f8610008 	swi	r3, r1, 8
     56c:	e8760000 	lwi	r3, r22, 0
     570:	e8d90000 	lwi	r6, r25, 0
     574:	e8b30000 	lwi	r5, r19, 0
     578:	e8980000 	lwi	r4, r24, 0
     57c:	58c61800 	fadd	r6, r6, r3
     580:	e8770000 	lwi	r3, r23, 0
     584:	ea610014 	lwi	r19, r1, 20
     588:	eac10018 	lwi	r22, r1, 24
     58c:	eae1001c 	lwi	r23, r1, 28
     590:	58a62800 	fadd	r5, r6, r5
     594:	eb010020 	lwi	r24, r1, 32
     598:	eb210024 	lwi	r25, r1, 36
     59c:	eb410028 	lwi	r26, r1, 40
     5a0:	eb61002c 	lwi	r27, r1, 44
     5a4:	58852000 	fadd	r4, r5, r4
     5a8:	eb810030 	lwi	r28, r1, 48
     5ac:	eba10034 	lwi	r29, r1, 52
     5b0:	ebc10038 	lwi	r30, r1, 56
     5b4:	ebe1003c 	lwi	r31, r1, 60
     5b8:	58641800 	fadd	r3, r4, r3
     5bc:	b60f0008 	rtsd	r15, 8
     5c0:	30210040 	addik	r1, r1, 64

000005c4 <pic_1d>:
     5c4:	3021ffc4 	addik	r1, r1, -60
     5c8:	fa610010 	swi	r19, r1, 16
     5cc:	fac10014 	swi	r22, r1, 20
     5d0:	fae10018 	swi	r23, r1, 24
     5d4:	fb01001c 	swi	r24, r1, 28
     5d8:	fb210020 	swi	r25, r1, 32
     5dc:	fb410024 	swi	r26, r1, 36
     5e0:	fb610028 	swi	r27, r1, 40
     5e4:	fb81002c 	swi	r28, r1, 44
     5e8:	fba10030 	swi	r29, r1, 48
     5ec:	fbc10034 	swi	r30, r1, 52
     5f0:	fbe10038 	swi	r31, r1, 56
     5f4:	e865004c 	lwi	r3, r5, 76
     5f8:	e8850050 	lwi	r4, r5, 80
     5fc:	e965002c 	lwi	r11, r5, 44
     600:	e8a50030 	lwi	r5, r5, 48
     604:	e9830000 	lwi	r12, r3, 0
     608:	e9230004 	lwi	r9, r3, 4
     60c:	f8a1000c 	swi	r5, r1, 12
     610:	eb630008 	lwi	r27, r3, 8
     614:	eae3000c 	lwi	r23, r3, 12
     618:	eb830010 	lwi	r28, r3, 16
     61c:	eb030014 	lwi	r24, r3, 20
     620:	eac30018 	lwi	r22, r3, 24
     624:	eb23001c 	lwi	r25, r3, 28
     628:	ea630020 	lwi	r19, r3, 32
     62c:	e9430024 	lwi	r10, r3, 36
     630:	ebc40000 	lwi	r30, r4, 0
     634:	be6b0068 	bleid	r11, 104		// 69c
     638:	eb440004 	lwi	r26, r4, 4
     63c:	b000c2c8 	imm	-15672
     640:	30e00000 	addik	r7, r0, 0
     644:	b810001c 	brid	28		// 660
     648:	10800000 	addk	r4, r0, r0
     64c:	58a50280 	flt	r5, r5
     650:	30840001 	addik	r4, r4, 1
     654:	164b2001 	cmp	r18, r11, r4
     658:	beb20044 	bgeid	r18, 68		// 69c
     65c:	d8a3d800 	sw	r5, r3, r27
     660:	64640402 	bslli	r3, r4, 2
     664:	c8c3b000 	lw	r6, r3, r22
     668:	c8a3f000 	lw	r5, r3, r30
     66c:	58c63900 	fmul	r6, r6, r7
     670:	bea5ffdc 	bgeid	r5, -36		// 64c
     674:	d8c3b000 	sw	r6, r3, r22
     678:	a4c50001 	andi	r6, r5, 1
     67c:	90a50041 	srl	r5, r5
     680:	80c62800 	or	r6, r6, r5
     684:	58a60280 	flt	r5, r6
     688:	30840001 	addik	r4, r4, 1
     68c:	58a52800 	fadd	r5, r5, r5
     690:	164b2001 	cmp	r18, r11, r4
     694:	be52ffcc 	bltid	r18, -52		// 660
     698:	d8a3d800 	sw	r5, r3, r27
     69c:	e881000c 	lwi	r4, r1, 12
     6a0:	30600001 	addik	r3, r0, 1
     6a4:	be640194 	bleid	r4, 404		// 838
     6a8:	f8610004 	swi	r3, r1, 4
     6ac:	b0004f00 	imm	20224
     6b0:	33a00000 	addik	r29, r0, 0
     6b4:	33ebffff 	addik	r31, r11, -1
     6b8:	be8b003c 	bgtid	r11, 60		// 6f4
     6bc:	10e00000 	addk	r7, r0, r0
     6c0:	b8100164 	brid	356		// 824
     6c4:	e8c10004 	lwi	r6, r1, 4
     6c8:	58830280 	flt	r4, r3
     6cc:	3063ffff 	addik	r3, r3, -1
     6d0:	64630402 	bslli	r3, r3, 2
     6d4:	d885b800 	sw	r4, r5, r23
     6d8:	c883e000 	lw	r4, r3, r28
     6dc:	30e70001 	addik	r7, r7, 1
     6e0:	d885c000 	sw	r4, r5, r24
     6e4:	c863b000 	lw	r3, r3, r22
     6e8:	164b3801 	cmp	r18, r11, r7
     6ec:	beb20040 	bgeid	r18, 64		// 72c
     6f0:	d865c800 	sw	r3, r5, r25
     6f4:	64a70402 	bslli	r5, r7, 2
     6f8:	10c00000 	addk	r6, r0, r0
     6fc:	d8c56000 	sw	r6, r5, r12
     700:	d8c54800 	sw	r6, r5, r9
     704:	c865d800 	lw	r3, r5, r27
     708:	58630300 	fint	r3, r3
     70c:	bea3ffbc 	bgeid	r3, -68		// 6c8
     710:	d865f000 	sw	r3, r5, r30
     714:	a4830001 	andi	r4, r3, 1
     718:	90c30041 	srl	r6, r3
     71c:	80843000 	or	r4, r4, r6
     720:	58840280 	flt	r4, r4
     724:	b810ffa8 	brid	-88		// 6cc
     728:	58842000 	fadd	r4, r4, r4
     72c:	11000000 	addk	r8, r0, r0
     730:	fbc10008 	swi	r30, r1, 8
     734:	13ca0000 	addk	r30, r10, r0
     738:	11480000 	addk	r10, r8, r0
     73c:	64aa0402 	bslli	r5, r10, 2
     740:	c8c5b800 	lw	r6, r5, r23
     744:	c8854800 	lw	r4, r5, r9
     748:	c8e5c800 	lw	r7, r5, r25
     74c:	c865c000 	lw	r3, r5, r24
     750:	58862080 	frsub	r4, r6, r4
     754:	c8c56000 	lw	r6, r5, r12
     758:	58843900 	fmul	r4, r4, r7
     75c:	58641800 	fadd	r3, r4, r3
     760:	58633000 	fadd	r3, r3, r6
     764:	b0003a83 	imm	14979
     768:	30c0126f 	addik	r6, r0, 4719
     76c:	58833000 	fadd	r4, r3, r6
     770:	d8656000 	sw	r3, r5, r12
     774:	c8654800 	lw	r3, r5, r9
     778:	58641800 	fadd	r3, r4, r3
     77c:	589d1a60 	fcmp.ge	r4, r29, r3
     780:	be2400f0 	bneid	r4, 240		// 870
     784:	d8654800 	sw	r3, r5, r9
     788:	58830300 	fint	r4, r3
     78c:	be4400fc 	bltid	r4, 252		// 888
     790:	a4c40001 	andi	r6, r4, 1
     794:	58c40280 	flt	r6, r4
     798:	8484f800 	and	r4, r4, r31
     79c:	30840001 	addik	r4, r4, 1
     7a0:	58661880 	frsub	r3, r6, r3
     7a4:	d8659800 	sw	r3, r5, r19
     7a8:	be440108 	bltid	r4, 264		// 8b0
     7ac:	d885d000 	sw	r4, r5, r26
     7b0:	58840280 	flt	r4, r4
     7b4:	58632000 	fadd	r3, r3, r4
     7b8:	314a0001 	addik	r10, r10, 1
     7bc:	164b5001 	cmp	r18, r11, r10
     7c0:	be52ff7c 	bltid	r18, -132		// 73c
     7c4:	d8654800 	sw	r3, r5, r9
     7c8:	115e0000 	addk	r10, r30, r0
     7cc:	ebc10008 	lwi	r30, r1, 8
     7d0:	11000000 	addk	r8, r0, r0
     7d4:	64c80402 	bslli	r6, r8, 2
     7d8:	b0003f80 	imm	16256
     7dc:	30a00000 	addik	r5, r0, 0
     7e0:	c8e6d000 	lw	r7, r6, r26
     7e4:	c8669800 	lw	r3, r6, r19
     7e8:	31080001 	addik	r8, r8, 1
     7ec:	3087ffff 	addik	r4, r7, -1
     7f0:	58632880 	frsub	r3, r3, r5
     7f4:	64840402 	bslli	r4, r4, 2
     7f8:	64e70402 	bslli	r7, r7, 2
     7fc:	c8a45000 	lw	r5, r4, r10
     800:	58651800 	fadd	r3, r5, r3
     804:	d8645000 	sw	r3, r4, r10
     808:	c8875000 	lw	r4, r7, r10
     80c:	c8669800 	lw	r3, r6, r19
     810:	58641800 	fadd	r3, r4, r3
     814:	164b4001 	cmp	r18, r11, r8
     818:	be52ffbc 	bltid	r18, -68		// 7d4
     81c:	d8675000 	sw	r3, r7, r10
     820:	e8c10004 	lwi	r6, r1, 4
     824:	e861000c 	lwi	r3, r1, 12
     828:	30c60001 	addik	r6, r6, 1
     82c:	16461801 	cmp	r18, r6, r3
     830:	beb2fe88 	bgeid	r18, -376		// 6b8
     834:	f8c10004 	swi	r6, r1, 4
     838:	e86a0000 	lwi	r3, r10, 0
     83c:	ea610010 	lwi	r19, r1, 16
     840:	eac10014 	lwi	r22, r1, 20
     844:	eae10018 	lwi	r23, r1, 24
     848:	eb01001c 	lwi	r24, r1, 28
     84c:	eb210020 	lwi	r25, r1, 32
     850:	eb410024 	lwi	r26, r1, 36
     854:	eb610028 	lwi	r27, r1, 40
     858:	eb81002c 	lwi	r28, r1, 44
     85c:	eba10030 	lwi	r29, r1, 48
     860:	ebc10034 	lwi	r30, r1, 52
     864:	ebe10038 	lwi	r31, r1, 56
     868:	b60f0008 	rtsd	r15, 8
     86c:	3021003c 	addik	r1, r1, 60
     870:	589d1880 	frsub	r4, r29, r3
     874:	58840300 	fint	r4, r4
     878:	b0008000 	imm	-32768
     87c:	30840000 	addik	r4, r4, 0
     880:	bea4ff14 	bgeid	r4, -236		// 794
     884:	a4c40001 	andi	r6, r4, 1
     888:	90e40041 	srl	r7, r4
     88c:	80c63800 	or	r6, r6, r7
     890:	58c60280 	flt	r6, r6
     894:	8484f800 	and	r4, r4, r31
     898:	30840001 	addik	r4, r4, 1
     89c:	58c63000 	fadd	r6, r6, r6
     8a0:	58661880 	frsub	r3, r6, r3
     8a4:	d8659800 	sw	r3, r5, r19
     8a8:	bea4ff08 	bgeid	r4, -248		// 7b0
     8ac:	d885d000 	sw	r4, r5, r26
     8b0:	a5040001 	andi	r8, r4, 1
     8b4:	90e40041 	srl	r7, r4
     8b8:	81083800 	or	r8, r8, r7
     8bc:	58880280 	flt	r4, r8
     8c0:	b810fef4 	brid	-268		// 7b4
     8c4:	58842000 	fadd	r4, r4, r4

000008c8 <lin_recurrence>:
     8c8:	3021fff8 	addik	r1, r1, -8
     8cc:	fa610004 	swi	r19, r1, 4
     8d0:	e865004c 	lwi	r3, r5, 76
     8d4:	ea650030 	lwi	r19, r5, 48
     8d8:	31800001 	addik	r12, r0, 1
     8dc:	e8c30000 	lwi	r6, r3, 0
     8e0:	e9030004 	lwi	r8, r3, 4
     8e4:	e9430008 	lwi	r10, r3, 8
     8e8:	e8860000 	lwi	r4, r6, 0
     8ec:	e8660004 	lwi	r3, r6, 4
     8f0:	e8e5002c 	lwi	r7, r5, 44
     8f4:	be730074 	bleid	r19, 116		// 968
     8f8:	58632180 	fdiv	r3, r3, r4
     8fc:	be670060 	bleid	r7, 96		// 95c
     900:	10a00000 	addk	r5, r0, r0
     904:	64850402 	bslli	r4, r5, 2
     908:	c9244000 	lw	r9, r4, r8
     90c:	c9643000 	lw	r11, r4, r6
     910:	30a50001 	addik	r5, r5, 1
     914:	59234900 	fmul	r9, r3, r9
     918:	59295800 	fadd	r9, r9, r11
     91c:	d9245000 	sw	r9, r4, r10
     920:	16472801 	cmp	r18, r7, r5
     924:	be52ffe0 	bltid	r18, -32		// 904
     928:	58634880 	frsub	r3, r3, r9
     92c:	30a00001 	addik	r5, r0, 1
     930:	14853800 	rsubk	r4, r5, r7
     934:	64840402 	bslli	r4, r4, 2
     938:	c9244000 	lw	r9, r4, r8
     93c:	c9643000 	lw	r11, r4, r6
     940:	30a50001 	addik	r5, r5, 1
     944:	59234900 	fmul	r9, r3, r9
     948:	59295800 	fadd	r9, r9, r11
     94c:	d9245000 	sw	r9, r4, r10
     950:	16453801 	cmp	r18, r5, r7
     954:	beb2ffdc 	bgeid	r18, -36		// 930
     958:	58634880 	frsub	r3, r3, r9
     95c:	318c0001 	addik	r12, r12, 1
     960:	164c9801 	cmp	r18, r12, r19
     964:	bcb2ff98 	bgei	r18, -104		// 8fc
     968:	ea610004 	lwi	r19, r1, 4
     96c:	b60f0008 	rtsd	r15, 8
     970:	30210008 	addik	r1, r1, 8

00000974 <tri_diagonal_fini>:
     974:	3021ffe0 	addik	r1, r1, -32
     978:	f9e10000 	swi	r15, r1, 0
     97c:	fa61001c 	swi	r19, r1, 28
     980:	e865004c 	lwi	r3, r5, 76
     984:	12650000 	addk	r19, r5, r0
     988:	b0000000 	imm	0
     98c:	b9f449a4 	brlid	r15, 18852	// 5330 <free>
     990:	e8a30000 	lwi	r5, r3, 0
     994:	e873004c 	lwi	r3, r19, 76
     998:	b0000000 	imm	0
     99c:	b9f44994 	brlid	r15, 18836	// 5330 <free>
     9a0:	e8a30004 	lwi	r5, r3, 4
     9a4:	e873004c 	lwi	r3, r19, 76
     9a8:	b0000000 	imm	0
     9ac:	b9f44984 	brlid	r15, 18820	// 5330 <free>
     9b0:	e8a30008 	lwi	r5, r3, 8
     9b4:	e9e10000 	lwi	r15, r1, 0
     9b8:	ea61001c 	lwi	r19, r1, 28
     9bc:	b60f0008 	rtsd	r15, 8
     9c0:	30210020 	addik	r1, r1, 32

000009c4 <hydro_2d_implicit_fini>:
     9c4:	3021ffd8 	addik	r1, r1, -40
     9c8:	fae10024 	swi	r23, r1, 36
     9cc:	12e50000 	addk	r23, r5, r0
     9d0:	fa61001c 	swi	r19, r1, 28
     9d4:	fac10020 	swi	r22, r1, 32
     9d8:	f9e10000 	swi	r15, r1, 0
     9dc:	32c00006 	addik	r22, r0, 6
     9e0:	12600000 	addk	r19, r0, r0
     9e4:	e89700dc 	lwi	r4, r23, 220
     9e8:	64730402 	bslli	r3, r19, 2
     9ec:	c8a32000 	lw	r5, r3, r4
     9f0:	32d6ffff 	addik	r22, r22, -1
     9f4:	b0000000 	imm	0
     9f8:	b9f44938 	brlid	r15, 18744	// 5330 <free>
     9fc:	32730001 	addik	r19, r19, 1
     a00:	be36ffe4 	bneid	r22, -28		// 9e4
     a04:	e9e10000 	lwi	r15, r1, 0
     a08:	ea61001c 	lwi	r19, r1, 28
     a0c:	eac10020 	lwi	r22, r1, 32
     a10:	eae10024 	lwi	r23, r1, 36
     a14:	b60f0008 	rtsd	r15, 8
     a18:	30210028 	addik	r1, r1, 40

00000a1c <matmul_fini>:
     a1c:	3021ffe0 	addik	r1, r1, -32
     a20:	f9e10000 	swi	r15, r1, 0
     a24:	fa61001c 	swi	r19, r1, 28
     a28:	e86500dc 	lwi	r3, r5, 220
     a2c:	12650000 	addk	r19, r5, r0
     a30:	b0000000 	imm	0
     a34:	b9f448fc 	brlid	r15, 18684	// 5330 <free>
     a38:	e8a30000 	lwi	r5, r3, 0
     a3c:	e87300dc 	lwi	r3, r19, 220
     a40:	b0000000 	imm	0
     a44:	b9f448ec 	brlid	r15, 18668	// 5330 <free>
     a48:	e8a30004 	lwi	r5, r3, 4
     a4c:	e87300dc 	lwi	r3, r19, 220
     a50:	b0000000 	imm	0
     a54:	b9f448dc 	brlid	r15, 18652	// 5330 <free>
     a58:	e8a30008 	lwi	r5, r3, 8
     a5c:	e9e10000 	lwi	r15, r1, 0
     a60:	ea61001c 	lwi	r19, r1, 28
     a64:	b60f0008 	rtsd	r15, 8
     a68:	30210020 	addik	r1, r1, 32

00000a6c <lin_recurrence_fini>:
     a6c:	3021ffe0 	addik	r1, r1, -32
     a70:	f9e10000 	swi	r15, r1, 0
     a74:	fa61001c 	swi	r19, r1, 28
     a78:	e865004c 	lwi	r3, r5, 76
     a7c:	12650000 	addk	r19, r5, r0
     a80:	b0000000 	imm	0
     a84:	b9f448ac 	brlid	r15, 18604	// 5330 <free>
     a88:	e8a30000 	lwi	r5, r3, 0
     a8c:	e873004c 	lwi	r3, r19, 76
     a90:	b0000000 	imm	0
     a94:	b9f4489c 	brlid	r15, 18588	// 5330 <free>
     a98:	e8a30004 	lwi	r5, r3, 4
     a9c:	e873004c 	lwi	r3, r19, 76
     aa0:	b0000000 	imm	0
     aa4:	b9f4488c 	brlid	r15, 18572	// 5330 <free>
     aa8:	e8a30008 	lwi	r5, r3, 8
     aac:	e9e10000 	lwi	r15, r1, 0
     ab0:	ea61001c 	lwi	r19, r1, 28
     ab4:	b60f0008 	rtsd	r15, 8
     ab8:	30210020 	addik	r1, r1, 32

00000abc <hydro_2d_fini>:
     abc:	3021ffd8 	addik	r1, r1, -40
     ac0:	fae10024 	swi	r23, r1, 36
     ac4:	12e50000 	addk	r23, r5, r0
     ac8:	fa61001c 	swi	r19, r1, 28
     acc:	fac10020 	swi	r22, r1, 32
     ad0:	f9e10000 	swi	r15, r1, 0
     ad4:	32c0000a 	addik	r22, r0, 10
     ad8:	12600000 	addk	r19, r0, r0
     adc:	e89700dc 	lwi	r4, r23, 220
     ae0:	64730402 	bslli	r3, r19, 2
     ae4:	c8a32000 	lw	r5, r3, r4
     ae8:	32d6ffff 	addik	r22, r22, -1
     aec:	b0000000 	imm	0
     af0:	b9f44840 	brlid	r15, 18496	// 5330 <free>
     af4:	32730001 	addik	r19, r19, 1
     af8:	be36ffe4 	bneid	r22, -28		// adc
     afc:	e9e10000 	lwi	r15, r1, 0
     b00:	ea61001c 	lwi	r19, r1, 28
     b04:	eac10020 	lwi	r22, r1, 32
     b08:	eae10024 	lwi	r23, r1, 36
     b0c:	b60f0008 	rtsd	r15, 8
     b10:	30210028 	addik	r1, r1, 40

00000b14 <pic_1d_fini>:
     b14:	3021ffd8 	addik	r1, r1, -40
     b18:	fae10024 	swi	r23, r1, 36
     b1c:	12e50000 	addk	r23, r5, r0
     b20:	fa61001c 	swi	r19, r1, 28
     b24:	fac10020 	swi	r22, r1, 32
     b28:	f9e10000 	swi	r15, r1, 0
     b2c:	32c0000a 	addik	r22, r0, 10
     b30:	12600000 	addk	r19, r0, r0
     b34:	e897004c 	lwi	r4, r23, 76
     b38:	64730402 	bslli	r3, r19, 2
     b3c:	c8a32000 	lw	r5, r3, r4
     b40:	32d6ffff 	addik	r22, r22, -1
     b44:	b0000000 	imm	0
     b48:	b9f447e8 	brlid	r15, 18408	// 5330 <free>
     b4c:	32730001 	addik	r19, r19, 1
     b50:	bc36ffe4 	bnei	r22, -28		// b34
     b54:	e8770050 	lwi	r3, r23, 80
     b58:	b0000000 	imm	0
     b5c:	b9f447d4 	brlid	r15, 18388	// 5330 <free>
     b60:	e8a30000 	lwi	r5, r3, 0
     b64:	e8770050 	lwi	r3, r23, 80
     b68:	b0000000 	imm	0
     b6c:	b9f447c4 	brlid	r15, 18372	// 5330 <free>
     b70:	e8a30004 	lwi	r5, r3, 4
     b74:	e9e10000 	lwi	r15, r1, 0
     b78:	ea61001c 	lwi	r19, r1, 28
     b7c:	eac10020 	lwi	r22, r1, 32
     b80:	eae10024 	lwi	r23, r1, 36
     b84:	b60f0008 	rtsd	r15, 8
     b88:	30210028 	addik	r1, r1, 40

00000b8c <pic_2d_fini>:
     b8c:	3021ffd8 	addik	r1, r1, -40
     b90:	fa61001c 	swi	r19, r1, 28
     b94:	12650000 	addk	r19, r5, r0
     b98:	fac10020 	swi	r22, r1, 32
     b9c:	fae10024 	swi	r23, r1, 36
     ba0:	f9e10000 	swi	r15, r1, 0
     ba4:	32e00006 	addik	r23, r0, 6
     ba8:	12c00000 	addk	r22, r0, r0
     bac:	e893004c 	lwi	r4, r19, 76
     bb0:	64760402 	bslli	r3, r22, 2
     bb4:	c8a32000 	lw	r5, r3, r4
     bb8:	32f7ffff 	addik	r23, r23, -1
     bbc:	b0000000 	imm	0
     bc0:	b9f44770 	brlid	r15, 18288	// 5330 <free>
     bc4:	32d60001 	addik	r22, r22, 1
     bc8:	bc37ffe4 	bnei	r23, -28		// bac
     bcc:	e8730050 	lwi	r3, r19, 80
     bd0:	b0000000 	imm	0
     bd4:	b9f4475c 	brlid	r15, 18268	// 5330 <free>
     bd8:	e8a30000 	lwi	r5, r3, 0
     bdc:	e8730050 	lwi	r3, r19, 80
     be0:	b0000000 	imm	0
     be4:	b9f4474c 	brlid	r15, 18252	// 5330 <free>
     be8:	e8a30004 	lwi	r5, r3, 4
     bec:	e87300dc 	lwi	r3, r19, 220
     bf0:	b0000000 	imm	0
     bf4:	b9f4473c 	brlid	r15, 18236	// 5330 <free>
     bf8:	e8a30004 	lwi	r5, r3, 4
     bfc:	e87300dc 	lwi	r3, r19, 220
     c00:	b0000000 	imm	0
     c04:	b9f4472c 	brlid	r15, 18220	// 5330 <free>
     c08:	e8a30008 	lwi	r5, r3, 8
     c0c:	e87300dc 	lwi	r3, r19, 220
     c10:	b0000000 	imm	0
     c14:	b9f4471c 	brlid	r15, 18204	// 5330 <free>
     c18:	e8a3000c 	lwi	r5, r3, 12
     c1c:	e9e10000 	lwi	r15, r1, 0
     c20:	ea61001c 	lwi	r19, r1, 28
     c24:	eac10020 	lwi	r22, r1, 32
     c28:	eae10024 	lwi	r23, r1, 36
     c2c:	b60f0008 	rtsd	r15, 8
     c30:	30210028 	addik	r1, r1, 40

00000c34 <difference_predictors_fini>:
     c34:	3021ffe0 	addik	r1, r1, -32
     c38:	f9e10000 	swi	r15, r1, 0
     c3c:	fa61001c 	swi	r19, r1, 28
     c40:	e865004c 	lwi	r3, r5, 76
     c44:	12650000 	addk	r19, r5, r0
     c48:	b0000000 	imm	0
     c4c:	b9f446e4 	brlid	r15, 18148	// 5330 <free>
     c50:	e8a30000 	lwi	r5, r3, 0
     c54:	e87300e0 	lwi	r3, r19, 224
     c58:	b0000000 	imm	0
     c5c:	b9f446d4 	brlid	r15, 18132	// 5330 <free>
     c60:	e8a30000 	lwi	r5, r3, 0
     c64:	e9e10000 	lwi	r15, r1, 0
     c68:	ea61001c 	lwi	r19, r1, 28
     c6c:	b60f0008 	rtsd	r15, 8
     c70:	30210020 	addik	r1, r1, 32

00000c74 <integrate_predictors_fini>:
     c74:	3021ffe0 	addik	r1, r1, -32
     c78:	f9e10000 	swi	r15, r1, 0
     c7c:	fa61001c 	swi	r19, r1, 28
     c80:	e865004c 	lwi	r3, r5, 76
     c84:	12650000 	addk	r19, r5, r0
     c88:	b0000000 	imm	0
     c8c:	b9f446a4 	brlid	r15, 18084	// 5330 <free>
     c90:	e8a30000 	lwi	r5, r3, 0
     c94:	e87300e0 	lwi	r3, r19, 224
     c98:	b0000000 	imm	0
     c9c:	b9f44694 	brlid	r15, 18068	// 5330 <free>
     ca0:	e8a30000 	lwi	r5, r3, 0
     ca4:	e9e10000 	lwi	r15, r1, 0
     ca8:	ea61001c 	lwi	r19, r1, 28
     cac:	b60f0008 	rtsd	r15, 8
     cb0:	30210020 	addik	r1, r1, 32

00000cb4 <state_fragment_fini>:
     cb4:	3021ffd8 	addik	r1, r1, -40
     cb8:	fae10024 	swi	r23, r1, 36
     cbc:	12e50000 	addk	r23, r5, r0
     cc0:	fa61001c 	swi	r19, r1, 28
     cc4:	fac10020 	swi	r22, r1, 32
     cc8:	f9e10000 	swi	r15, r1, 0
     ccc:	32c00004 	addik	r22, r0, 4
     cd0:	12600000 	addk	r19, r0, r0
     cd4:	e897004c 	lwi	r4, r23, 76
     cd8:	64730402 	bslli	r3, r19, 2
     cdc:	c8a32000 	lw	r5, r3, r4
     ce0:	32d6ffff 	addik	r22, r22, -1
     ce4:	b0000000 	imm	0
     ce8:	b9f44648 	brlid	r15, 17992	// 5330 <free>
     cec:	32730001 	addik	r19, r19, 1
     cf0:	be36ffe4 	bneid	r22, -28		// cd4
     cf4:	e9e10000 	lwi	r15, r1, 0
     cf8:	ea61001c 	lwi	r19, r1, 28
     cfc:	eac10020 	lwi	r22, r1, 32
     d00:	eae10024 	lwi	r23, r1, 36
     d04:	b60f0008 	rtsd	r15, 8
     d08:	30210028 	addik	r1, r1, 40

00000d0c <linear_recurrence_fini>:
     d0c:	3021ffe0 	addik	r1, r1, -32
     d10:	f9e10000 	swi	r15, r1, 0
     d14:	fa61001c 	swi	r19, r1, 28
     d18:	e865004c 	lwi	r3, r5, 76
     d1c:	12650000 	addk	r19, r5, r0
     d20:	b0000000 	imm	0
     d24:	b9f4460c 	brlid	r15, 17932	// 5330 <free>
     d28:	e8a30000 	lwi	r5, r3, 0
     d2c:	e87300dc 	lwi	r3, r19, 220
     d30:	b0000000 	imm	0
     d34:	b9f445fc 	brlid	r15, 17916	// 5330 <free>
     d38:	e8a30000 	lwi	r5, r3, 0
     d3c:	e9e10000 	lwi	r15, r1, 0
     d40:	ea61001c 	lwi	r19, r1, 28
     d44:	b60f0008 	rtsd	r15, 8
     d48:	30210020 	addik	r1, r1, 32

00000d4c <inner_product_fini>:
     d4c:	3021ffe0 	addik	r1, r1, -32
     d50:	f9e10000 	swi	r15, r1, 0
     d54:	fa61001c 	swi	r19, r1, 28
     d58:	e865004c 	lwi	r3, r5, 76
     d5c:	12650000 	addk	r19, r5, r0
     d60:	b0000000 	imm	0
     d64:	b9f445cc 	brlid	r15, 17868	// 5330 <free>
     d68:	e8a30000 	lwi	r5, r3, 0
     d6c:	e873004c 	lwi	r3, r19, 76
     d70:	b0000000 	imm	0
     d74:	b9f445bc 	brlid	r15, 17852	// 5330 <free>
     d78:	e8a30004 	lwi	r5, r3, 4
     d7c:	e9e10000 	lwi	r15, r1, 0
     d80:	ea61001c 	lwi	r19, r1, 28
     d84:	b60f0008 	rtsd	r15, 8
     d88:	30210020 	addik	r1, r1, 32

00000d8c <cholesky_fini>:
     d8c:	3021ffe0 	addik	r1, r1, -32
     d90:	f9e10000 	swi	r15, r1, 0
     d94:	fa61001c 	swi	r19, r1, 28
     d98:	e865004c 	lwi	r3, r5, 76
     d9c:	12650000 	addk	r19, r5, r0
     da0:	b0000000 	imm	0
     da4:	b9f4458c 	brlid	r15, 17804	// 5330 <free>
     da8:	e8a30000 	lwi	r5, r3, 0
     dac:	e873004c 	lwi	r3, r19, 76
     db0:	b0000000 	imm	0
     db4:	b9f4457c 	brlid	r15, 17788	// 5330 <free>
     db8:	e8a30004 	lwi	r5, r3, 4
     dbc:	e9e10000 	lwi	r15, r1, 0
     dc0:	ea61001c 	lwi	r19, r1, 28
     dc4:	b60f0008 	rtsd	r15, 8
     dc8:	30210020 	addik	r1, r1, 32

00000dcc <hydro_fragment_fini>:
     dcc:	3021ffd8 	addik	r1, r1, -40
     dd0:	fae10024 	swi	r23, r1, 36
     dd4:	12e50000 	addk	r23, r5, r0
     dd8:	fa61001c 	swi	r19, r1, 28
     ddc:	fac10020 	swi	r22, r1, 32
     de0:	f9e10000 	swi	r15, r1, 0
     de4:	32c00004 	addik	r22, r0, 4
     de8:	12600000 	addk	r19, r0, r0
     dec:	e897004c 	lwi	r4, r23, 76
     df0:	64730402 	bslli	r3, r19, 2
     df4:	c8a32000 	lw	r5, r3, r4
     df8:	32d6ffff 	addik	r22, r22, -1
     dfc:	b0000000 	imm	0
     e00:	b9f44530 	brlid	r15, 17712	// 5330 <free>
     e04:	32730001 	addik	r19, r19, 1
     e08:	be36ffe4 	bneid	r22, -28		// dec
     e0c:	e9e10000 	lwi	r15, r1, 0
     e10:	ea61001c 	lwi	r19, r1, 28
     e14:	eac10020 	lwi	r22, r1, 32
     e18:	eae10024 	lwi	r23, r1, 36
     e1c:	b60f0008 	rtsd	r15, 8
     e20:	30210028 	addik	r1, r1, 40

00000e24 <tri_diagonal_init>:
     e24:	3021ffd0 	addik	r1, r1, -48
     e28:	fa61001c 	swi	r19, r1, 28
     e2c:	fac10020 	swi	r22, r1, 32
     e30:	fae10024 	swi	r23, r1, 36
     e34:	f9e10000 	swi	r15, r1, 0
     e38:	fb010028 	swi	r24, r1, 40
     e3c:	fb21002c 	swi	r25, r1, 44
     e40:	12650000 	addk	r19, r5, r0
     e44:	e8a50028 	lwi	r5, r5, 40
     e48:	32e00003 	addik	r23, r0, 3
     e4c:	12c00000 	addk	r22, r0, r0
     e50:	f8b3002c 	swi	r5, r19, 44
     e54:	b0000000 	imm	0
     e58:	30e06b1c 	addik	r7, r0, 27420
     e5c:	eb33004c 	lwi	r25, r19, 76
     e60:	67160402 	bslli	r24, r22, 2
     e64:	30c00004 	addik	r6, r0, 4
     e68:	b0000000 	imm	0
     e6c:	b9f42744 	brlid	r15, 10052	// 35b0 <qmalloc>
     e70:	310004a2 	addik	r8, r0, 1186
     e74:	d878c800 	sw	r3, r24, r25
     e78:	e873004c 	lwi	r3, r19, 76
     e7c:	10b30000 	addk	r5, r19, r0
     e80:	e8f3002c 	lwi	r7, r19, 44
     e84:	c8d81800 	lw	r6, r24, r3
     e88:	32f7ffff 	addik	r23, r23, -1
     e8c:	b0000000 	imm	0
     e90:	b9f42780 	brlid	r15, 10112	// 3610 <reinit_vec>
     e94:	32d60001 	addik	r22, r22, 1
     e98:	be170010 	beqid	r23, 16		// ea8
     e9c:	e9e10000 	lwi	r15, r1, 0
     ea0:	b810ffb4 	brid	-76		// e54
     ea4:	e8b3002c 	lwi	r5, r19, 44
     ea8:	ea61001c 	lwi	r19, r1, 28
     eac:	eac10020 	lwi	r22, r1, 32
     eb0:	eae10024 	lwi	r23, r1, 36
     eb4:	eb010028 	lwi	r24, r1, 40
     eb8:	eb21002c 	lwi	r25, r1, 44
     ebc:	b60f0008 	rtsd	r15, 8
     ec0:	30210030 	addik	r1, r1, 48

00000ec4 <lin_recurrence_init>:
     ec4:	3021ffd0 	addik	r1, r1, -48
     ec8:	fa61001c 	swi	r19, r1, 28
     ecc:	fac10020 	swi	r22, r1, 32
     ed0:	fae10024 	swi	r23, r1, 36
     ed4:	f9e10000 	swi	r15, r1, 0
     ed8:	fb010028 	swi	r24, r1, 40
     edc:	fb21002c 	swi	r25, r1, 44
     ee0:	12650000 	addk	r19, r5, r0
     ee4:	e8a50028 	lwi	r5, r5, 40
     ee8:	32e00003 	addik	r23, r0, 3
     eec:	12c00000 	addk	r22, r0, r0
     ef0:	f8b3002c 	swi	r5, r19, 44
     ef4:	b0000000 	imm	0
     ef8:	30e06b1c 	addik	r7, r0, 27420
     efc:	eb33004c 	lwi	r25, r19, 76
     f00:	67160402 	bslli	r24, r22, 2
     f04:	30c00004 	addik	r6, r0, 4
     f08:	b0000000 	imm	0
     f0c:	b9f426a4 	brlid	r15, 9892	// 35b0 <qmalloc>
     f10:	310003bd 	addik	r8, r0, 957
     f14:	d878c800 	sw	r3, r24, r25
     f18:	32f7ffff 	addik	r23, r23, -1
     f1c:	be170010 	beqid	r23, 16		// f2c
     f20:	32d60001 	addik	r22, r22, 1
     f24:	b810ffd0 	brid	-48		// ef4
     f28:	e8b3002c 	lwi	r5, r19, 44
     f2c:	e873004c 	lwi	r3, r19, 76
     f30:	10b30000 	addk	r5, r19, r0
     f34:	e8f3002c 	lwi	r7, r19, 44
     f38:	b0000000 	imm	0
     f3c:	b9f426d4 	brlid	r15, 9940	// 3610 <reinit_vec>
     f40:	e8c30000 	lwi	r6, r3, 0
     f44:	e873004c 	lwi	r3, r19, 76
     f48:	10b30000 	addk	r5, r19, r0
     f4c:	e8f3002c 	lwi	r7, r19, 44
     f50:	b0000000 	imm	0
     f54:	b9f426bc 	brlid	r15, 9916	// 3610 <reinit_vec>
     f58:	e8c30004 	lwi	r6, r3, 4
     f5c:	e9e10000 	lwi	r15, r1, 0
     f60:	ea61001c 	lwi	r19, r1, 28
     f64:	eac10020 	lwi	r22, r1, 32
     f68:	eae10024 	lwi	r23, r1, 36
     f6c:	eb010028 	lwi	r24, r1, 40
     f70:	eb21002c 	lwi	r25, r1, 44
     f74:	b60f0008 	rtsd	r15, 8
     f78:	30210030 	addik	r1, r1, 48

00000f7c <hydro_2d_init>:
     f7c:	3021ffd0 	addik	r1, r1, -48
     f80:	fa61001c 	swi	r19, r1, 28
     f84:	fac10020 	swi	r22, r1, 32
     f88:	fae10024 	swi	r23, r1, 36
     f8c:	f9e10000 	swi	r15, r1, 0
     f90:	fb010028 	swi	r24, r1, 40
     f94:	fb21002c 	swi	r25, r1, 44
     f98:	12650000 	addk	r19, r5, r0
     f9c:	e8a50028 	lwi	r5, r5, 40
     fa0:	30600007 	addik	r3, r0, 7
     fa4:	32c0000a 	addik	r22, r0, 10
     fa8:	48a32802 	idivu	r5, r3, r5
     fac:	12e00000 	addk	r23, r0, r0
     fb0:	b810000c 	brid	12		// fbc
     fb4:	f8b3002c 	swi	r5, r19, 44
     fb8:	e8b3002c 	lwi	r5, r19, 44
     fbc:	60a50007 	muli	r5, r5, 7
     fc0:	b0000000 	imm	0
     fc4:	30e06b1c 	addik	r7, r0, 27420
     fc8:	67170402 	bslli	r24, r23, 2
     fcc:	eb3300dc 	lwi	r25, r19, 220
     fd0:	30c00004 	addik	r6, r0, 4
     fd4:	b0000000 	imm	0
     fd8:	b9f425d8 	brlid	r15, 9688	// 35b0 <qmalloc>
     fdc:	31000336 	addik	r8, r0, 822
     fe0:	d878c800 	sw	r3, r24, r25
     fe4:	32d6ffff 	addik	r22, r22, -1
     fe8:	be36ffd0 	bneid	r22, -48		// fb8
     fec:	32f70001 	addik	r23, r23, 1
     ff0:	e87300dc 	lwi	r3, r19, 220
     ff4:	e8f3002c 	lwi	r7, r19, 44
     ff8:	10b30000 	addk	r5, r19, r0
     ffc:	e8c30008 	lwi	r6, r3, 8
    1000:	b0000000 	imm	0
    1004:	b9f4260c 	brlid	r15, 9740	// 3610 <reinit_vec>
    1008:	60e70007 	muli	r7, r7, 7
    100c:	e87300dc 	lwi	r3, r19, 220
    1010:	e8f3002c 	lwi	r7, r19, 44
    1014:	10b30000 	addk	r5, r19, r0
    1018:	e8c3000c 	lwi	r6, r3, 12
    101c:	b0000000 	imm	0
    1020:	b9f425f0 	brlid	r15, 9712	// 3610 <reinit_vec>
    1024:	60e70007 	muli	r7, r7, 7
    1028:	e87300dc 	lwi	r3, r19, 220
    102c:	e8f3002c 	lwi	r7, r19, 44
    1030:	10b30000 	addk	r5, r19, r0
    1034:	e8c30010 	lwi	r6, r3, 16
    1038:	b0000000 	imm	0
    103c:	b9f425d4 	brlid	r15, 9684	// 3610 <reinit_vec>
    1040:	60e70007 	muli	r7, r7, 7
    1044:	e87300dc 	lwi	r3, r19, 220
    1048:	e8f3002c 	lwi	r7, r19, 44
    104c:	10b30000 	addk	r5, r19, r0
    1050:	e8c30014 	lwi	r6, r3, 20
    1054:	b0000000 	imm	0
    1058:	b9f425b8 	brlid	r15, 9656	// 3610 <reinit_vec>
    105c:	60e70007 	muli	r7, r7, 7
    1060:	e87300dc 	lwi	r3, r19, 220
    1064:	e8f3002c 	lwi	r7, r19, 44
    1068:	10b30000 	addk	r5, r19, r0
    106c:	e8c30020 	lwi	r6, r3, 32
    1070:	b0000000 	imm	0
    1074:	b9f4259c 	brlid	r15, 9628	// 3610 <reinit_vec>
    1078:	60e70007 	muli	r7, r7, 7
    107c:	e893002c 	lwi	r4, r19, 44
    1080:	60840007 	muli	r4, r4, 7
    1084:	be04003c 	beqid	r4, 60		// 10c0
    1088:	e9e10000 	lwi	r15, r1, 0
    108c:	e87300dc 	lwi	r3, r19, 220
    1090:	e8c30018 	lwi	r6, r3, 24
    1094:	e8a3001c 	lwi	r5, r3, 28
    1098:	10760000 	addk	r3, r22, r0
    109c:	66d60402 	bslli	r22, r22, 2
    10a0:	10e00000 	addk	r7, r0, r0
    10a4:	d8f63000 	sw	r7, r22, r6
    10a8:	30630001 	addik	r3, r3, 1
    10ac:	d8f62800 	sw	r7, r22, r5
    10b0:	16441803 	cmpu	r18, r4, r3
    10b4:	be52ffe8 	bltid	r18, -24		// 109c
    10b8:	12c30000 	addk	r22, r3, r0
    10bc:	e9e10000 	lwi	r15, r1, 0
    10c0:	ea61001c 	lwi	r19, r1, 28
    10c4:	eac10020 	lwi	r22, r1, 32
    10c8:	eae10024 	lwi	r23, r1, 36
    10cc:	eb010028 	lwi	r24, r1, 40
    10d0:	eb21002c 	lwi	r25, r1, 44
    10d4:	b60f0008 	rtsd	r15, 8
    10d8:	30210030 	addik	r1, r1, 48

000010dc <difference_predictors_init>:
    10dc:	3021ffdc 	addik	r1, r1, -36
    10e0:	f9e10000 	swi	r15, r1, 0
    10e4:	fa61001c 	swi	r19, r1, 28
    10e8:	fac10020 	swi	r22, r1, 32
    10ec:	e8850028 	lwi	r4, r5, 40
    10f0:	3060000e 	addik	r3, r0, 14
    10f4:	12650000 	addk	r19, r5, r0
    10f8:	48632002 	idivu	r3, r3, r4
    10fc:	eac5004c 	lwi	r22, r5, 76
    1100:	b0000000 	imm	0
    1104:	30e06b1c 	addik	r7, r0, 27420
    1108:	310001c2 	addik	r8, r0, 450
    110c:	30c00004 	addik	r6, r0, 4
    1110:	10a30000 	addk	r5, r3, r0
    1114:	b0000000 	imm	0
    1118:	b9f42498 	brlid	r15, 9368	// 35b0 <qmalloc>
    111c:	f873002c 	swi	r3, r19, 44
    1120:	f8760000 	swi	r3, r22, 0
    1124:	e873004c 	lwi	r3, r19, 76
    1128:	10b30000 	addk	r5, r19, r0
    112c:	e8f3002c 	lwi	r7, r19, 44
    1130:	b0000000 	imm	0
    1134:	b9f424dc 	brlid	r15, 9436	// 3610 <reinit_vec>
    1138:	e8c30000 	lwi	r6, r3, 0
    113c:	e8b30028 	lwi	r5, r19, 40
    1140:	b0000000 	imm	0
    1144:	30e06b1c 	addik	r7, r0, 27420
    1148:	ead300e0 	lwi	r22, r19, 224
    114c:	310001c6 	addik	r8, r0, 454
    1150:	b0000000 	imm	0
    1154:	b9f4245c 	brlid	r15, 9308	// 35b0 <qmalloc>
    1158:	30c00004 	addik	r6, r0, 4
    115c:	f8760000 	swi	r3, r22, 0
    1160:	e87300e0 	lwi	r3, r19, 224
    1164:	10b30000 	addk	r5, r19, r0
    1168:	e8f30028 	lwi	r7, r19, 40
    116c:	b0000000 	imm	0
    1170:	b9f424a0 	brlid	r15, 9376	// 3610 <reinit_vec>
    1174:	e8c30000 	lwi	r6, r3, 0
    1178:	e9e10000 	lwi	r15, r1, 0
    117c:	ea61001c 	lwi	r19, r1, 28
    1180:	eac10020 	lwi	r22, r1, 32
    1184:	b60f0008 	rtsd	r15, 8
    1188:	30210024 	addik	r1, r1, 36

0000118c <integrate_predictors>:
    118c:	3021ffb0 	addik	r1, r1, -80
    1190:	f9e10000 	swi	r15, r1, 0
    1194:	fae1002c 	swi	r23, r1, 44
    1198:	fa610024 	swi	r19, r1, 36
    119c:	fac10028 	swi	r22, r1, 40
    11a0:	fb010030 	swi	r24, r1, 48
    11a4:	fb210034 	swi	r25, r1, 52
    11a8:	fb410038 	swi	r26, r1, 56
    11ac:	fb61003c 	swi	r27, r1, 60
    11b0:	fb810040 	swi	r28, r1, 64
    11b4:	fba10044 	swi	r29, r1, 68
    11b8:	fbc10048 	swi	r30, r1, 72
    11bc:	fbe1004c 	swi	r31, r1, 76
    11c0:	e885004c 	lwi	r4, r5, 76
    11c4:	e86500e0 	lwi	r3, r5, 224
    11c8:	eb45002c 	lwi	r26, r5, 44
    11cc:	ea640000 	lwi	r19, r4, 0
    11d0:	e8850030 	lwi	r4, r5, 48
    11d4:	12e50000 	addk	r23, r5, r0
    11d8:	10d30000 	addk	r6, r19, r0
    11dc:	eac30000 	lwi	r22, r3, 0
    11e0:	30e0001e 	addik	r7, r0, 30
    11e4:	b0000000 	imm	0
    11e8:	b9f42428 	brlid	r15, 9256	// 3610 <reinit_vec>
    11ec:	f8810020 	swi	r4, r1, 32
    11f0:	10b70000 	addk	r5, r23, r0
    11f4:	10d60000 	addk	r6, r22, r0
    11f8:	b0000000 	imm	0
    11fc:	b9f42414 	brlid	r15, 9236	// 3610 <reinit_vec>
    1200:	60fa000d 	muli	r7, r26, 13
    1204:	e8810020 	lwi	r4, r1, 32
    1208:	30600001 	addik	r3, r0, 1
    120c:	be6400cc 	bleid	r4, 204		// 12d8
    1210:	f861001c 	swi	r3, r1, 28
    1214:	be7a00ac 	bleid	r26, 172		// 12c0
    1218:	10800000 	addk	r4, r0, r0
    121c:	60a40034 	muli	r5, r4, 52
    1220:	e933006c 	lwi	r9, r19, 108
    1224:	10762800 	addk	r3, r22, r5
    1228:	e8e30030 	lwi	r7, r3, 48
    122c:	e8c3002c 	lwi	r6, r3, 44
    1230:	eb330070 	lwi	r25, r19, 112
    1234:	e9030028 	lwi	r8, r3, 40
    1238:	58c93100 	fmul	r6, r9, r6
    123c:	eb130068 	lwi	r24, r19, 104
    1240:	eae30024 	lwi	r23, r3, 36
    1244:	ebf30064 	lwi	r31, r19, 100
    1248:	e9830020 	lwi	r12, r3, 32
    124c:	5b393900 	fmul	r25, r25, r7
    1250:	ebd30060 	lwi	r30, r19, 96
    1254:	e963001c 	lwi	r11, r3, 28
    1258:	ebb3005c 	lwi	r29, r19, 92
    125c:	e9230018 	lwi	r9, r3, 24
    1260:	5b184100 	fmul	r24, r24, r8
    1264:	e9430010 	lwi	r10, r3, 16
    1268:	e9030014 	lwi	r8, r3, 20
    126c:	eb930058 	lwi	r28, r19, 88
    1270:	eb730000 	lwi	r27, r19, 0
    1274:	5b393000 	fadd	r25, r25, r6
    1278:	e8c30008 	lwi	r6, r3, 8
    127c:	30840001 	addik	r4, r4, 1
    1280:	5affb900 	fmul	r23, r31, r23
    1284:	58f9c000 	fadd	r7, r25, r24
    1288:	599e6100 	fmul	r12, r30, r12
    128c:	58e7b800 	fadd	r7, r7, r23
    1290:	597d5900 	fmul	r11, r29, r11
    1294:	58e76000 	fadd	r7, r7, r12
    1298:	593c4900 	fmul	r9, r28, r9
    129c:	58e75800 	fadd	r7, r7, r11
    12a0:	590a4000 	fadd	r8, r10, r8
    12a4:	58e74800 	fadd	r7, r7, r9
    12a8:	5868d900 	fmul	r3, r8, r27
    12ac:	58671800 	fadd	r3, r7, r3
    12b0:	58633000 	fadd	r3, r3, r6
    12b4:	165a2001 	cmp	r18, r26, r4
    12b8:	be52ff64 	bltid	r18, -156		// 121c
    12bc:	d865b000 	sw	r3, r5, r22
    12c0:	e861001c 	lwi	r3, r1, 28
    12c4:	e8810020 	lwi	r4, r1, 32
    12c8:	30630001 	addik	r3, r3, 1
    12cc:	16432001 	cmp	r18, r3, r4
    12d0:	beb2ff44 	bgeid	r18, -188		// 1214
    12d4:	f861001c 	swi	r3, r1, 28
    12d8:	be7a0024 	bleid	r26, 36		// 12fc
    12dc:	10600000 	addk	r3, r0, r0
    12e0:	10800000 	addk	r4, r0, r0
    12e4:	60a40034 	muli	r5, r4, 52
    12e8:	30840001 	addik	r4, r4, 1
    12ec:	c8a5b000 	lw	r5, r5, r22
    12f0:	165a2001 	cmp	r18, r26, r4
    12f4:	be52fff0 	bltid	r18, -16		// 12e4
    12f8:	58632800 	fadd	r3, r3, r5
    12fc:	e9e10000 	lwi	r15, r1, 0
    1300:	ea610024 	lwi	r19, r1, 36
    1304:	eac10028 	lwi	r22, r1, 40
    1308:	eae1002c 	lwi	r23, r1, 44
    130c:	eb010030 	lwi	r24, r1, 48
    1310:	eb210034 	lwi	r25, r1, 52
    1314:	eb410038 	lwi	r26, r1, 56
    1318:	eb61003c 	lwi	r27, r1, 60
    131c:	eb810040 	lwi	r28, r1, 64
    1320:	eba10044 	lwi	r29, r1, 68
    1324:	ebc10048 	lwi	r30, r1, 72
    1328:	ebe1004c 	lwi	r31, r1, 76
    132c:	b60f0008 	rtsd	r15, 8
    1330:	30210050 	addik	r1, r1, 80

00001334 <integrate_predictors_init>:
    1334:	3021ffdc 	addik	r1, r1, -36
    1338:	f9e10000 	swi	r15, r1, 0
    133c:	fa61001c 	swi	r19, r1, 28
    1340:	fac10020 	swi	r22, r1, 32
    1344:	e8850028 	lwi	r4, r5, 40
    1348:	3060000d 	addik	r3, r0, 13
    134c:	12650000 	addk	r19, r5, r0
    1350:	48632002 	idivu	r3, r3, r4
    1354:	b0000000 	imm	0
    1358:	30e06b1c 	addik	r7, r0, 27420
    135c:	eac5004c 	lwi	r22, r5, 76
    1360:	31000182 	addik	r8, r0, 386
    1364:	30a0001e 	addik	r5, r0, 30
    1368:	30c00004 	addik	r6, r0, 4
    136c:	b0000000 	imm	0
    1370:	b9f42240 	brlid	r15, 8768	// 35b0 <qmalloc>
    1374:	f873002c 	swi	r3, r19, 44
    1378:	f8760000 	swi	r3, r22, 0
    137c:	e873004c 	lwi	r3, r19, 76
    1380:	10b30000 	addk	r5, r19, r0
    1384:	30e0001e 	addik	r7, r0, 30
    1388:	b0000000 	imm	0
    138c:	b9f42284 	brlid	r15, 8836	// 3610 <reinit_vec>
    1390:	e8c30000 	lwi	r6, r3, 0
    1394:	e8b30028 	lwi	r5, r19, 40
    1398:	b0000000 	imm	0
    139c:	30e06b1c 	addik	r7, r0, 27420
    13a0:	ead300e0 	lwi	r22, r19, 224
    13a4:	31000186 	addik	r8, r0, 390
    13a8:	b0000000 	imm	0
    13ac:	b9f42204 	brlid	r15, 8708	// 35b0 <qmalloc>
    13b0:	30c00004 	addik	r6, r0, 4
    13b4:	f8760000 	swi	r3, r22, 0
    13b8:	e87300e0 	lwi	r3, r19, 224
    13bc:	10b30000 	addk	r5, r19, r0
    13c0:	e8f30028 	lwi	r7, r19, 40
    13c4:	b0000000 	imm	0
    13c8:	b9f42248 	brlid	r15, 8776	// 3610 <reinit_vec>
    13cc:	e8c30000 	lwi	r6, r3, 0
    13d0:	e9e10000 	lwi	r15, r1, 0
    13d4:	ea61001c 	lwi	r19, r1, 28
    13d8:	eac10020 	lwi	r22, r1, 32
    13dc:	b60f0008 	rtsd	r15, 8
    13e0:	30210024 	addik	r1, r1, 36

000013e4 <state_fragment_init>:
    13e4:	3021ffd0 	addik	r1, r1, -48
    13e8:	fa61001c 	swi	r19, r1, 28
    13ec:	fac10020 	swi	r22, r1, 32
    13f0:	fae10024 	swi	r23, r1, 36
    13f4:	f9e10000 	swi	r15, r1, 0
    13f8:	fb010028 	swi	r24, r1, 40
    13fc:	fb21002c 	swi	r25, r1, 44
    1400:	12650000 	addk	r19, r5, r0
    1404:	e8a50028 	lwi	r5, r5, 40
    1408:	32e00004 	addik	r23, r0, 4
    140c:	12c00000 	addk	r22, r0, r0
    1410:	f8b3002c 	swi	r5, r19, 44
    1414:	b0000000 	imm	0
    1418:	30e06b1c 	addik	r7, r0, 27420
    141c:	eb33004c 	lwi	r25, r19, 76
    1420:	67160402 	bslli	r24, r22, 2
    1424:	30a5000a 	addik	r5, r5, 10
    1428:	30c00004 	addik	r6, r0, 4
    142c:	b0000000 	imm	0
    1430:	b9f42180 	brlid	r15, 8576	// 35b0 <qmalloc>
    1434:	31000142 	addik	r8, r0, 322
    1438:	d878c800 	sw	r3, r24, r25
    143c:	32f7ffff 	addik	r23, r23, -1
    1440:	be170010 	beqid	r23, 16		// 1450
    1444:	32d60001 	addik	r22, r22, 1
    1448:	b810ffcc 	brid	-52		// 1414
    144c:	e8b3002c 	lwi	r5, r19, 44
    1450:	e873004c 	lwi	r3, r19, 76
    1454:	e8f3002c 	lwi	r7, r19, 44
    1458:	10b30000 	addk	r5, r19, r0
    145c:	e8c30000 	lwi	r6, r3, 0
    1460:	b0000000 	imm	0
    1464:	b9f421ac 	brlid	r15, 8620	// 3610 <reinit_vec>
    1468:	30e7000a 	addik	r7, r7, 10
    146c:	e873004c 	lwi	r3, r19, 76
    1470:	e8f3002c 	lwi	r7, r19, 44
    1474:	10b30000 	addk	r5, r19, r0
    1478:	e8c30004 	lwi	r6, r3, 4
    147c:	b0000000 	imm	0
    1480:	b9f42190 	brlid	r15, 8592	// 3610 <reinit_vec>
    1484:	30e7000a 	addik	r7, r7, 10
    1488:	e873004c 	lwi	r3, r19, 76
    148c:	e8f3002c 	lwi	r7, r19, 44
    1490:	10b30000 	addk	r5, r19, r0
    1494:	e8c30008 	lwi	r6, r3, 8
    1498:	b0000000 	imm	0
    149c:	b9f42174 	brlid	r15, 8564	// 3610 <reinit_vec>
    14a0:	30e7000a 	addik	r7, r7, 10
    14a4:	e9e10000 	lwi	r15, r1, 0
    14a8:	ea61001c 	lwi	r19, r1, 28
    14ac:	eac10020 	lwi	r22, r1, 32
    14b0:	eae10024 	lwi	r23, r1, 36
    14b4:	eb010028 	lwi	r24, r1, 40
    14b8:	eb21002c 	lwi	r25, r1, 44
    14bc:	b60f0008 	rtsd	r15, 8
    14c0:	30210030 	addik	r1, r1, 48

000014c4 <linear_recurrence_init>:
    14c4:	3021ffdc 	addik	r1, r1, -36
    14c8:	fa61001c 	swi	r19, r1, 28
    14cc:	f9e10000 	swi	r15, r1, 0
    14d0:	fac10020 	swi	r22, r1, 32
    14d4:	12650000 	addk	r19, r5, r0
    14d8:	e8a50028 	lwi	r5, r5, 40
    14dc:	64a50402 	bslli	r5, r5, 2
    14e0:	bc450120 	blti	r5, 288		// 1600
    14e4:	58a50280 	flt	r5, r5
    14e8:	11600000 	addk	r11, r0, r0
    14ec:	586b2a20 	fcmp.eq	r3, r11, r5
    14f0:	be230104 	bneid	r3, 260		// 15f4
    14f4:	30800013 	addik	r4, r0, 19
    14f8:	b0004120 	imm	16672
    14fc:	30600000 	addik	r3, r0, 0
    1500:	b0003727 	imm	14119
    1504:	3140c5ac 	addik	r10, r0, -14932
    1508:	58632980 	fdiv	r3, r3, r5
    150c:	10e00000 	addk	r7, r0, r0
    1510:	bc27003c 	bnei	r7, 60		// 154c
    1514:	58c31900 	fmul	r6, r3, r3
    1518:	59031800 	fadd	r8, r3, r3
    151c:	58c62880 	frsub	r6, r6, r5
    1520:	58c83180 	fdiv	r6, r8, r6
    1524:	58633000 	fadd	r3, r3, r6
    1528:	58c31900 	fmul	r6, r3, r3
    152c:	58c62880 	frsub	r6, r6, r5
    1530:	590b3260 	fcmp.ge	r8, r11, r6
    1534:	b0008000 	imm	-32768
    1538:	31260000 	addik	r9, r6, 0
    153c:	bc280008 	bnei	r8, 8		// 1544
    1540:	10c90000 	addk	r6, r9, r0
    1544:	58ca3230 	fcmp.le	r6, r10, r6
    1548:	bc060008 	beqi	r6, 8		// 1550
    154c:	30e00001 	addik	r7, r0, 1
    1550:	3084ffff 	addik	r4, r4, -1
    1554:	bc24ffbc 	bnei	r4, -68		// 1510
    1558:	58a30300 	fint	r5, r3
    155c:	10650000 	addk	r3, r5, r0
    1560:	b0000000 	imm	0
    1564:	30e06b1c 	addik	r7, r0, 27420
    1568:	ead3004c 	lwi	r22, r19, 76
    156c:	31000105 	addik	r8, r0, 261
    1570:	30c00004 	addik	r6, r0, 4
    1574:	b0000000 	imm	0
    1578:	b9f42038 	brlid	r15, 8248	// 35b0 <qmalloc>
    157c:	f873002c 	swi	r3, r19, 44
    1580:	f8760000 	swi	r3, r22, 0
    1584:	e873004c 	lwi	r3, r19, 76
    1588:	10b30000 	addk	r5, r19, r0
    158c:	e8f3002c 	lwi	r7, r19, 44
    1590:	b0000000 	imm	0
    1594:	b9f4207c 	brlid	r15, 8316	// 3610 <reinit_vec>
    1598:	e8c30000 	lwi	r6, r3, 0
    159c:	e8b3002c 	lwi	r5, r19, 44
    15a0:	b0000000 	imm	0
    15a4:	30e06b1c 	addik	r7, r0, 27420
    15a8:	ead300dc 	lwi	r22, r19, 220
    15ac:	40a52800 	mul	r5, r5, r5
    15b0:	31000108 	addik	r8, r0, 264
    15b4:	b0000000 	imm	0
    15b8:	b9f41ff8 	brlid	r15, 8184	// 35b0 <qmalloc>
    15bc:	30c00004 	addik	r6, r0, 4
    15c0:	f8760000 	swi	r3, r22, 0
    15c4:	e8f3002c 	lwi	r7, r19, 44
    15c8:	e87300dc 	lwi	r3, r19, 220
    15cc:	10b30000 	addk	r5, r19, r0
    15d0:	40e73800 	mul	r7, r7, r7
    15d4:	b0000000 	imm	0
    15d8:	b9f42038 	brlid	r15, 8248	// 3610 <reinit_vec>
    15dc:	e8c30000 	lwi	r6, r3, 0
    15e0:	e9e10000 	lwi	r15, r1, 0
    15e4:	ea61001c 	lwi	r19, r1, 28
    15e8:	eac10020 	lwi	r22, r1, 32
    15ec:	b60f0008 	rtsd	r15, 8
    15f0:	30210024 	addik	r1, r1, 36
    15f4:	10600000 	addk	r3, r0, r0
    15f8:	b810ff68 	brid	-152		// 1560
    15fc:	10a30000 	addk	r5, r3, r0
    1600:	90a50041 	srl	r5, r5
    1604:	58a50280 	flt	r5, r5
    1608:	b810fee0 	brid	-288		// 14e8
    160c:	58a52800 	fadd	r5, r5, r5

00001610 <inner_product_init>:
    1610:	3021ffdc 	addik	r1, r1, -36
    1614:	f9e10000 	swi	r15, r1, 0
    1618:	fa61001c 	swi	r19, r1, 28
    161c:	fac10020 	swi	r22, r1, 32
    1620:	e8650028 	lwi	r3, r5, 40
    1624:	12650000 	addk	r19, r5, r0
    1628:	eac5004c 	lwi	r22, r5, 76
    162c:	b0000000 	imm	0
    1630:	30e06b1c 	addik	r7, r0, 27420
    1634:	10a30000 	addk	r5, r3, r0
    1638:	310000a5 	addik	r8, r0, 165
    163c:	30c00004 	addik	r6, r0, 4
    1640:	b0000000 	imm	0
    1644:	b9f41f6c 	brlid	r15, 8044	// 35b0 <qmalloc>
    1648:	f873002c 	swi	r3, r19, 44
    164c:	f8760000 	swi	r3, r22, 0
    1650:	e873004c 	lwi	r3, r19, 76
    1654:	10b30000 	addk	r5, r19, r0
    1658:	e8f30028 	lwi	r7, r19, 40
    165c:	b0000000 	imm	0
    1660:	b9f41fb0 	brlid	r15, 8112	// 3610 <reinit_vec>
    1664:	e8c30000 	lwi	r6, r3, 0
    1668:	e8b30030 	lwi	r5, r19, 48
    166c:	e8730028 	lwi	r3, r19, 40
    1670:	b0000000 	imm	0
    1674:	30e06b1c 	addik	r7, r0, 27420
    1678:	ead3004c 	lwi	r22, r19, 76
    167c:	310000a8 	addik	r8, r0, 168
    1680:	10a51800 	addk	r5, r5, r3
    1684:	b0000000 	imm	0
    1688:	b9f41f28 	brlid	r15, 7976	// 35b0 <qmalloc>
    168c:	30c00004 	addik	r6, r0, 4
    1690:	f8760004 	swi	r3, r22, 4
    1694:	e893004c 	lwi	r4, r19, 76
    1698:	e8f30030 	lwi	r7, r19, 48
    169c:	e8730028 	lwi	r3, r19, 40
    16a0:	10b30000 	addk	r5, r19, r0
    16a4:	e8c40004 	lwi	r6, r4, 4
    16a8:	b0000000 	imm	0
    16ac:	b9f41f64 	brlid	r15, 8036	// 3610 <reinit_vec>
    16b0:	10e71800 	addk	r7, r7, r3
    16b4:	e9e10000 	lwi	r15, r1, 0
    16b8:	ea61001c 	lwi	r19, r1, 28
    16bc:	eac10020 	lwi	r22, r1, 32
    16c0:	b60f0008 	rtsd	r15, 8
    16c4:	30210024 	addik	r1, r1, 36

000016c8 <cholesky_init>:
    16c8:	3021ffdc 	addik	r1, r1, -36
    16cc:	f9e10000 	swi	r15, r1, 0
    16d0:	fa61001c 	swi	r19, r1, 28
    16d4:	fac10020 	swi	r22, r1, 32
    16d8:	12650000 	addk	r19, r5, r0
    16dc:	e8650028 	lwi	r3, r5, 40
    16e0:	b0000000 	imm	0
    16e4:	30e06b1c 	addik	r7, r0, 27420
    16e8:	eac5004c 	lwi	r22, r5, 76
    16ec:	30c00004 	addik	r6, r0, 4
    16f0:	3100005e 	addik	r8, r0, 94
    16f4:	30a3000a 	addik	r5, r3, 10
    16f8:	b0000000 	imm	0
    16fc:	b9f41eb4 	brlid	r15, 7860	// 35b0 <qmalloc>
    1700:	f873002c 	swi	r3, r19, 44
    1704:	e8b3002c 	lwi	r5, r19, 44
    1708:	b0000000 	imm	0
    170c:	30e06b1c 	addik	r7, r0, 27420
    1710:	f8760000 	swi	r3, r22, 0
    1714:	ead3004c 	lwi	r22, r19, 76
    1718:	3100005e 	addik	r8, r0, 94
    171c:	30a5000a 	addik	r5, r5, 10
    1720:	b0000000 	imm	0
    1724:	b9f41e8c 	brlid	r15, 7820	// 35b0 <qmalloc>
    1728:	30c00004 	addik	r6, r0, 4
    172c:	f8760004 	swi	r3, r22, 4
    1730:	e873004c 	lwi	r3, r19, 76
    1734:	10b30000 	addk	r5, r19, r0
    1738:	e8f30028 	lwi	r7, r19, 40
    173c:	b0000000 	imm	0
    1740:	b9f41ed0 	brlid	r15, 7888	// 3610 <reinit_vec>
    1744:	e8c30000 	lwi	r6, r3, 0
    1748:	e873004c 	lwi	r3, r19, 76
    174c:	10b30000 	addk	r5, r19, r0
    1750:	e8f30028 	lwi	r7, r19, 40
    1754:	b0000000 	imm	0
    1758:	b9f41eb8 	brlid	r15, 7864	// 3610 <reinit_vec>
    175c:	e8c30004 	lwi	r6, r3, 4
    1760:	e9e10000 	lwi	r15, r1, 0
    1764:	ea61001c 	lwi	r19, r1, 28
    1768:	eac10020 	lwi	r22, r1, 32
    176c:	b60f0008 	rtsd	r15, 8
    1770:	30210024 	addik	r1, r1, 36

00001774 <hydro_fragment_init>:
    1774:	3021ffd0 	addik	r1, r1, -48
    1778:	fa61001c 	swi	r19, r1, 28
    177c:	f9e10000 	swi	r15, r1, 0
    1780:	fac10020 	swi	r22, r1, 32
    1784:	fae10024 	swi	r23, r1, 36
    1788:	fb010028 	swi	r24, r1, 40
    178c:	fb21002c 	swi	r25, r1, 44
    1790:	12650000 	addk	r19, r5, r0
    1794:	e8a50028 	lwi	r5, r5, 40
    1798:	30600064 	addik	r3, r0, 100
    179c:	16451803 	cmpu	r18, r5, r3
    17a0:	beb20010 	bgeid	r18, 16		// 17b0
    17a4:	f8b3002c 	swi	r5, r19, 44
    17a8:	30a5ff9d 	addik	r5, r5, -99
    17ac:	f8b3002c 	swi	r5, r19, 44
    17b0:	32e00003 	addik	r23, r0, 3
    17b4:	12c00000 	addk	r22, r0, r0
    17b8:	b0000000 	imm	0
    17bc:	30e06b1c 	addik	r7, r0, 27420
    17c0:	eb33004c 	lwi	r25, r19, 76
    17c4:	67160402 	bslli	r24, r22, 2
    17c8:	30a50015 	addik	r5, r5, 21
    17cc:	30c00004 	addik	r6, r0, 4
    17d0:	b0000000 	imm	0
    17d4:	b9f41ddc 	brlid	r15, 7644	// 35b0 <qmalloc>
    17d8:	3100001f 	addik	r8, r0, 31
    17dc:	d878c800 	sw	r3, r24, r25
    17e0:	32f7ffff 	addik	r23, r23, -1
    17e4:	be170010 	beqid	r23, 16		// 17f4
    17e8:	32d60001 	addik	r22, r22, 1
    17ec:	b810ffcc 	brid	-52		// 17b8
    17f0:	e8b3002c 	lwi	r5, r19, 44
    17f4:	30a00004 	addik	r5, r0, 4
    17f8:	10c50000 	addk	r6, r5, r0
    17fc:	b0000000 	imm	0
    1800:	30e06b1c 	addik	r7, r0, 27420
    1804:	ead3004c 	lwi	r22, r19, 76
    1808:	b0000000 	imm	0
    180c:	b9f41da4 	brlid	r15, 7588	// 35b0 <qmalloc>
    1810:	31000023 	addik	r8, r0, 35
    1814:	f876000c 	swi	r3, r22, 12
    1818:	e873004c 	lwi	r3, r19, 76
    181c:	e8f3002c 	lwi	r7, r19, 44
    1820:	10b30000 	addk	r5, r19, r0
    1824:	e8c30000 	lwi	r6, r3, 0
    1828:	b0000000 	imm	0
    182c:	b9f41de4 	brlid	r15, 7652	// 3610 <reinit_vec>
    1830:	30e7000b 	addik	r7, r7, 11
    1834:	e873004c 	lwi	r3, r19, 76
    1838:	e8f3002c 	lwi	r7, r19, 44
    183c:	10b30000 	addk	r5, r19, r0
    1840:	e8c30004 	lwi	r6, r3, 4
    1844:	b0000000 	imm	0
    1848:	b9f41dc8 	brlid	r15, 7624	// 3610 <reinit_vec>
    184c:	30e7000b 	addik	r7, r7, 11
    1850:	e873004c 	lwi	r3, r19, 76
    1854:	e8f3002c 	lwi	r7, r19, 44
    1858:	10b30000 	addk	r5, r19, r0
    185c:	e8c30008 	lwi	r6, r3, 8
    1860:	b0000000 	imm	0
    1864:	b9f41dac 	brlid	r15, 7596	// 3610 <reinit_vec>
    1868:	30e7000b 	addik	r7, r7, 11
    186c:	e873004c 	lwi	r3, r19, 76
    1870:	10b30000 	addk	r5, r19, r0
    1874:	30e00004 	addik	r7, r0, 4
    1878:	b0000000 	imm	0
    187c:	b9f41d94 	brlid	r15, 7572	// 3610 <reinit_vec>
    1880:	e8c3000c 	lwi	r6, r3, 12
    1884:	e9e10000 	lwi	r15, r1, 0
    1888:	ea61001c 	lwi	r19, r1, 28
    188c:	eac10020 	lwi	r22, r1, 32
    1890:	eae10024 	lwi	r23, r1, 36
    1894:	eb010028 	lwi	r24, r1, 40
    1898:	eb21002c 	lwi	r25, r1, 44
    189c:	b60f0008 	rtsd	r15, 8
    18a0:	30210030 	addik	r1, r1, 48

000018a4 <hydro_2d_implicit_init>:
    18a4:	3021ffd0 	addik	r1, r1, -48
    18a8:	fa61001c 	swi	r19, r1, 28
    18ac:	fac10020 	swi	r22, r1, 32
    18b0:	fae10024 	swi	r23, r1, 36
    18b4:	f9e10000 	swi	r15, r1, 0
    18b8:	fb010028 	swi	r24, r1, 40
    18bc:	fb21002c 	swi	r25, r1, 44
    18c0:	12650000 	addk	r19, r5, r0
    18c4:	e8a50028 	lwi	r5, r5, 40
    18c8:	30600006 	addik	r3, r0, 6
    18cc:	b0000000 	imm	0
    18d0:	30e06b1c 	addik	r7, r0, 27420
    18d4:	48632802 	idivu	r3, r3, r5
    18d8:	eb1300dc 	lwi	r24, r19, 220
    18dc:	30c00004 	addik	r6, r0, 4
    18e0:	31000452 	addik	r8, r0, 1106
    18e4:	32e00005 	addik	r23, r0, 5
    18e8:	32c00001 	addik	r22, r0, 1
    18ec:	10a32800 	addk	r5, r3, r5
    18f0:	b0000000 	imm	0
    18f4:	b9f41cbc 	brlid	r15, 7356	// 35b0 <qmalloc>
    18f8:	f873002c 	swi	r3, r19, 44
    18fc:	f8780000 	swi	r3, r24, 0
    1900:	e87300dc 	lwi	r3, r19, 220
    1904:	e8d30028 	lwi	r6, r19, 40
    1908:	b0000000 	imm	0
    190c:	b9f41fa0 	brlid	r15, 8096	// 38ac <zero_vec>
    1910:	e8a30000 	lwi	r5, r3, 0
    1914:	e8b30028 	lwi	r5, r19, 40
    1918:	b0000000 	imm	0
    191c:	30e06b1c 	addik	r7, r0, 27420
    1920:	eb3300dc 	lwi	r25, r19, 220
    1924:	67160402 	bslli	r24, r22, 2
    1928:	30c00004 	addik	r6, r0, 4
    192c:	b0000000 	imm	0
    1930:	b9f41c80 	brlid	r15, 7296	// 35b0 <qmalloc>
    1934:	31000458 	addik	r8, r0, 1112
    1938:	d878c800 	sw	r3, r24, r25
    193c:	e87300dc 	lwi	r3, r19, 220
    1940:	10b30000 	addk	r5, r19, r0
    1944:	e8f30028 	lwi	r7, r19, 40
    1948:	c8d81800 	lw	r6, r24, r3
    194c:	32f7ffff 	addik	r23, r23, -1
    1950:	b0000000 	imm	0
    1954:	b9f41cbc 	brlid	r15, 7356	// 3610 <reinit_vec>
    1958:	32d60001 	addik	r22, r22, 1
    195c:	be37ffb8 	bneid	r23, -72		// 1914
    1960:	e9e10000 	lwi	r15, r1, 0
    1964:	ea61001c 	lwi	r19, r1, 28
    1968:	eac10020 	lwi	r22, r1, 32
    196c:	eae10024 	lwi	r23, r1, 36
    1970:	eb010028 	lwi	r24, r1, 40
    1974:	eb21002c 	lwi	r25, r1, 44
    1978:	b60f0008 	rtsd	r15, 8
    197c:	30210030 	addik	r1, r1, 48

00001980 <matmul_init>:
    1980:	3021ffdc 	addik	r1, r1, -36
    1984:	f9e10000 	swi	r15, r1, 0
    1988:	fa61001c 	swi	r19, r1, 28
    198c:	fac10020 	swi	r22, r1, 32
    1990:	12650000 	addk	r19, r5, r0
    1994:	e8a50028 	lwi	r5, r5, 40
    1998:	30600019 	addik	r3, r0, 25
    199c:	b0000000 	imm	0
    19a0:	30e06b1c 	addik	r7, r0, 27420
    19a4:	48632802 	idivu	r3, r3, r5
    19a8:	ead300dc 	lwi	r22, r19, 220
    19ac:	30c00004 	addik	r6, r0, 4
    19b0:	3100040b 	addik	r8, r0, 1035
    19b4:	b0000000 	imm	0
    19b8:	b9f41bf8 	brlid	r15, 7160	// 35b0 <qmalloc>
    19bc:	f873002c 	swi	r3, r19, 44
    19c0:	e8b30028 	lwi	r5, r19, 40
    19c4:	b0000000 	imm	0
    19c8:	30e06b1c 	addik	r7, r0, 27420
    19cc:	f8760000 	swi	r3, r22, 0
    19d0:	ead300dc 	lwi	r22, r19, 220
    19d4:	30c00004 	addik	r6, r0, 4
    19d8:	b0000000 	imm	0
    19dc:	b9f41bd4 	brlid	r15, 7124	// 35b0 <qmalloc>
    19e0:	3100040c 	addik	r8, r0, 1036
    19e4:	e8930030 	lwi	r4, r19, 48
    19e8:	e8b30028 	lwi	r5, r19, 40
    19ec:	b0000000 	imm	0
    19f0:	30e06b1c 	addik	r7, r0, 27420
    19f4:	f8760004 	swi	r3, r22, 4
    19f8:	ead300dc 	lwi	r22, r19, 220
    19fc:	3100040d 	addik	r8, r0, 1037
    1a00:	10a52000 	addk	r5, r5, r4
    1a04:	b0000000 	imm	0
    1a08:	b9f41ba8 	brlid	r15, 7080	// 35b0 <qmalloc>
    1a0c:	30c00004 	addik	r6, r0, 4
    1a10:	f8760008 	swi	r3, r22, 8
    1a14:	e87300dc 	lwi	r3, r19, 220
    1a18:	e8d30028 	lwi	r6, r19, 40
    1a1c:	b0000000 	imm	0
    1a20:	b9f41e8c 	brlid	r15, 7820	// 38ac <zero_vec>
    1a24:	e8a30000 	lwi	r5, r3, 0
    1a28:	e87300dc 	lwi	r3, r19, 220
    1a2c:	10b30000 	addk	r5, r19, r0
    1a30:	e8f30028 	lwi	r7, r19, 40
    1a34:	b0000000 	imm	0
    1a38:	b9f41bd8 	brlid	r15, 7128	// 3610 <reinit_vec>
    1a3c:	e8c30004 	lwi	r6, r3, 4
    1a40:	e89300dc 	lwi	r4, r19, 220
    1a44:	e8f30028 	lwi	r7, r19, 40
    1a48:	e8730030 	lwi	r3, r19, 48
    1a4c:	10b30000 	addk	r5, r19, r0
    1a50:	e8c40008 	lwi	r6, r4, 8
    1a54:	b0000000 	imm	0
    1a58:	b9f41bb8 	brlid	r15, 7096	// 3610 <reinit_vec>
    1a5c:	10e71800 	addk	r7, r7, r3
    1a60:	e9e10000 	lwi	r15, r1, 0
    1a64:	ea61001c 	lwi	r19, r1, 28
    1a68:	eac10020 	lwi	r22, r1, 32
    1a6c:	b60f0008 	rtsd	r15, 8
    1a70:	30210024 	addik	r1, r1, 36

00001a74 <pic_1d_init>:
    1a74:	3021ffd0 	addik	r1, r1, -48
    1a78:	fa61001c 	swi	r19, r1, 28
    1a7c:	fac10020 	swi	r22, r1, 32
    1a80:	fae10024 	swi	r23, r1, 36
    1a84:	f9e10000 	swi	r15, r1, 0
    1a88:	fb010028 	swi	r24, r1, 40
    1a8c:	fb21002c 	swi	r25, r1, 44
    1a90:	e8650028 	lwi	r3, r5, 40
    1a94:	12650000 	addk	r19, r5, r0
    1a98:	32e0000a 	addik	r23, r0, 10
    1a9c:	3063ffff 	addik	r3, r3, -1
    1aa0:	90830041 	srl	r4, r3
    1aa4:	80641800 	or	r3, r4, r3
    1aa8:	64830002 	bsrli	r4, r3, 2
    1aac:	80641800 	or	r3, r4, r3
    1ab0:	64830004 	bsrli	r4, r3, 4
    1ab4:	80641800 	or	r3, r4, r3
    1ab8:	64830008 	bsrli	r4, r3, 8
    1abc:	80641800 	or	r3, r4, r3
    1ac0:	64a30010 	bsrli	r5, r3, 16
    1ac4:	80a51800 	or	r5, r5, r3
    1ac8:	30a50001 	addik	r5, r5, 1
    1acc:	90a50041 	srl	r5, r5
    1ad0:	12c00000 	addk	r22, r0, r0
    1ad4:	f8b3002c 	swi	r5, r19, 44
    1ad8:	b0000000 	imm	0
    1adc:	30e06b1c 	addik	r7, r0, 27420
    1ae0:	eb33004c 	lwi	r25, r19, 76
    1ae4:	67160402 	bslli	r24, r22, 2
    1ae8:	310002ba 	addik	r8, r0, 698
    1aec:	b0000000 	imm	0
    1af0:	b9f41ac0 	brlid	r15, 6848	// 35b0 <qmalloc>
    1af4:	30c00004 	addik	r6, r0, 4
    1af8:	d878c800 	sw	r3, r24, r25
    1afc:	e873004c 	lwi	r3, r19, 76
    1b00:	e8d3002c 	lwi	r6, r19, 44
    1b04:	32f7ffff 	addik	r23, r23, -1
    1b08:	c8b81800 	lw	r5, r24, r3
    1b0c:	b0000000 	imm	0
    1b10:	b9f41d9c 	brlid	r15, 7580	// 38ac <zero_vec>
    1b14:	32d60001 	addik	r22, r22, 1
    1b18:	be37ffc0 	bneid	r23, -64		// 1ad8
    1b1c:	e8b3002c 	lwi	r5, r19, 44
    1b20:	b0000000 	imm	0
    1b24:	30e06b1c 	addik	r7, r0, 27420
    1b28:	ead30050 	lwi	r22, r19, 80
    1b2c:	30c00004 	addik	r6, r0, 4
    1b30:	b0000000 	imm	0
    1b34:	b9f41a7c 	brlid	r15, 6780	// 35b0 <qmalloc>
    1b38:	310002c0 	addik	r8, r0, 704
    1b3c:	e8b3002c 	lwi	r5, r19, 44
    1b40:	f8760000 	swi	r3, r22, 0
    1b44:	b0000000 	imm	0
    1b48:	30e06b1c 	addik	r7, r0, 27420
    1b4c:	ead30050 	lwi	r22, r19, 80
    1b50:	310002c0 	addik	r8, r0, 704
    1b54:	b0000000 	imm	0
    1b58:	b9f41a58 	brlid	r15, 6744	// 35b0 <qmalloc>
    1b5c:	30c00004 	addik	r6, r0, 4
    1b60:	f8760004 	swi	r3, r22, 4
    1b64:	e873004c 	lwi	r3, r19, 76
    1b68:	10b30000 	addk	r5, r19, r0
    1b6c:	e8f3002c 	lwi	r7, r19, 44
    1b70:	b0000000 	imm	0
    1b74:	b9f41a9c 	brlid	r15, 6812	// 3610 <reinit_vec>
    1b78:	e8c30018 	lwi	r6, r3, 24
    1b7c:	e8730050 	lwi	r3, r19, 80
    1b80:	e8f3002c 	lwi	r7, r19, 44
    1b84:	10b30000 	addk	r5, r19, r0
    1b88:	e8c30000 	lwi	r6, r3, 0
    1b8c:	b0000000 	imm	0
    1b90:	b9f41afc 	brlid	r15, 6908	// 368c <reinit_ivec_pos>
    1b94:	3107ffff 	addik	r8, r7, -1
    1b98:	e9e10000 	lwi	r15, r1, 0
    1b9c:	ea61001c 	lwi	r19, r1, 28
    1ba0:	eac10020 	lwi	r22, r1, 32
    1ba4:	eae10024 	lwi	r23, r1, 36
    1ba8:	eb010028 	lwi	r24, r1, 40
    1bac:	eb21002c 	lwi	r25, r1, 44
    1bb0:	b60f0008 	rtsd	r15, 8
    1bb4:	30210030 	addik	r1, r1, 48

00001bb8 <pic_2d_init>:
    1bb8:	3021ffd0 	addik	r1, r1, -48
    1bbc:	fa61001c 	swi	r19, r1, 28
    1bc0:	12650000 	addk	r19, r5, r0
    1bc4:	f9e10000 	swi	r15, r1, 0
    1bc8:	fae10024 	swi	r23, r1, 36
    1bcc:	fb010028 	swi	r24, r1, 40
    1bd0:	fac10020 	swi	r22, r1, 32
    1bd4:	fb21002c 	swi	r25, r1, 44
    1bd8:	e8730028 	lwi	r3, r19, 40
    1bdc:	b0000000 	imm	0
    1be0:	30e06b1c 	addik	r7, r0, 27420
    1be4:	ead3004c 	lwi	r22, r19, 76
    1be8:	30a00064 	addik	r5, r0, 100
    1bec:	30c00004 	addik	r6, r0, 4
    1bf0:	3100021d 	addik	r8, r0, 541
    1bf4:	b0000000 	imm	0
    1bf8:	b9f419b8 	brlid	r15, 6584	// 35b0 <qmalloc>
    1bfc:	f873002c 	swi	r3, r19, 44
    1c00:	f8760000 	swi	r3, r22, 0
    1c04:	b0000000 	imm	0
    1c08:	30e06b1c 	addik	r7, r0, 27420
    1c0c:	ead3004c 	lwi	r22, r19, 76
    1c10:	3100021e 	addik	r8, r0, 542
    1c14:	30a00064 	addik	r5, r0, 100
    1c18:	b0000000 	imm	0
    1c1c:	b9f41994 	brlid	r15, 6548	// 35b0 <qmalloc>
    1c20:	30c00004 	addik	r6, r0, 4
    1c24:	f8760004 	swi	r3, r22, 4
    1c28:	e873004c 	lwi	r3, r19, 76
    1c2c:	10b30000 	addk	r5, r19, r0
    1c30:	30e00064 	addik	r7, r0, 100
    1c34:	e8c30000 	lwi	r6, r3, 0
    1c38:	32c00001 	addik	r22, r0, 1
    1c3c:	b0000000 	imm	0
    1c40:	b9f419d0 	brlid	r15, 6608	// 3610 <reinit_vec>
    1c44:	32e00003 	addik	r23, r0, 3
    1c48:	e873004c 	lwi	r3, r19, 76
    1c4c:	10b30000 	addk	r5, r19, r0
    1c50:	30e00064 	addik	r7, r0, 100
    1c54:	b0000000 	imm	0
    1c58:	b9f419b8 	brlid	r15, 6584	// 3610 <reinit_vec>
    1c5c:	e8c30004 	lwi	r6, r3, 4
    1c60:	b0000000 	imm	0
    1c64:	30e06b1c 	addik	r7, r0, 27420
    1c68:	eb130050 	lwi	r24, r19, 80
    1c6c:	30a00064 	addik	r5, r0, 100
    1c70:	30c00004 	addik	r6, r0, 4
    1c74:	b0000000 	imm	0
    1c78:	b9f41938 	brlid	r15, 6456	// 35b0 <qmalloc>
    1c7c:	31000223 	addik	r8, r0, 547
    1c80:	f8780000 	swi	r3, r24, 0
    1c84:	b0000000 	imm	0
    1c88:	30e06b1c 	addik	r7, r0, 27420
    1c8c:	eb130050 	lwi	r24, r19, 80
    1c90:	30a00064 	addik	r5, r0, 100
    1c94:	30c00004 	addik	r6, r0, 4
    1c98:	b0000000 	imm	0
    1c9c:	b9f41914 	brlid	r15, 6420	// 35b0 <qmalloc>
    1ca0:	31000224 	addik	r8, r0, 548
    1ca4:	f8780004 	swi	r3, r24, 4
    1ca8:	e8730050 	lwi	r3, r19, 80
    1cac:	10b30000 	addk	r5, r19, r0
    1cb0:	11160000 	addk	r8, r22, r0
    1cb4:	e8c30000 	lwi	r6, r3, 0
    1cb8:	b0000000 	imm	0
    1cbc:	b9f41a5c 	brlid	r15, 6748	// 3718 <reinit_ivec>
    1cc0:	30e00064 	addik	r7, r0, 100
    1cc4:	e8730050 	lwi	r3, r19, 80
    1cc8:	10b30000 	addk	r5, r19, r0
    1ccc:	11160000 	addk	r8, r22, r0
    1cd0:	e8c30004 	lwi	r6, r3, 4
    1cd4:	b0000000 	imm	0
    1cd8:	b9f41a40 	brlid	r15, 6720	// 3718 <reinit_ivec>
    1cdc:	30e00064 	addik	r7, r0, 100
    1ce0:	b0000000 	imm	0
    1ce4:	30e06b1c 	addik	r7, r0, 27420
    1ce8:	eb3300dc 	lwi	r25, r19, 220
    1cec:	67160402 	bslli	r24, r22, 2
    1cf0:	30a01004 	addik	r5, r0, 4100
    1cf4:	30c00004 	addik	r6, r0, 4
    1cf8:	b0000000 	imm	0
    1cfc:	b9f418b4 	brlid	r15, 6324	// 35b0 <qmalloc>
    1d00:	3100022c 	addik	r8, r0, 556
    1d04:	d878c800 	sw	r3, r24, r25
    1d08:	e87300dc 	lwi	r3, r19, 220
    1d0c:	10b30000 	addk	r5, r19, r0
    1d10:	32f7ffff 	addik	r23, r23, -1
    1d14:	c8d81800 	lw	r6, r24, r3
    1d18:	30e01004 	addik	r7, r0, 4100
    1d1c:	b0000000 	imm	0
    1d20:	b9f418f0 	brlid	r15, 6384	// 3610 <reinit_vec>
    1d24:	32d60001 	addik	r22, r22, 1
    1d28:	bc37ffb8 	bnei	r23, -72		// 1ce0
    1d2c:	32c00004 	addik	r22, r0, 4
    1d30:	32e00002 	addik	r23, r0, 2
    1d34:	e8b3002c 	lwi	r5, r19, 44
    1d38:	b0000000 	imm	0
    1d3c:	30e06b1c 	addik	r7, r0, 27420
    1d40:	eb33004c 	lwi	r25, r19, 76
    1d44:	67170402 	bslli	r24, r23, 2
    1d48:	30c00004 	addik	r6, r0, 4
    1d4c:	b0000000 	imm	0
    1d50:	b9f41860 	brlid	r15, 6240	// 35b0 <qmalloc>
    1d54:	31000232 	addik	r8, r0, 562
    1d58:	d878c800 	sw	r3, r24, r25
    1d5c:	32d6ffff 	addik	r22, r22, -1
    1d60:	be36ffd4 	bneid	r22, -44		// 1d34
    1d64:	32f70001 	addik	r23, r23, 1
    1d68:	e8d3002c 	lwi	r6, r19, 44
    1d6c:	be060058 	beqid	r6, 88		// 1dc4
    1d70:	e9e10000 	lwi	r15, r1, 0
    1d74:	e893004c 	lwi	r4, r19, 76
    1d78:	10760000 	addk	r3, r22, r0
    1d7c:	b0003f00 	imm	16128
    1d80:	30a00000 	addik	r5, r0, 0
    1d84:	e9440008 	lwi	r10, r4, 8
    1d88:	e924000c 	lwi	r9, r4, 12
    1d8c:	e9040010 	lwi	r8, r4, 16
    1d90:	e8e40014 	lwi	r7, r4, 20
    1d94:	10960000 	addk	r4, r22, r0
    1d98:	64630402 	bslli	r3, r3, 2
    1d9c:	11600000 	addk	r11, r0, r0
    1da0:	d9635000 	sw	r11, r3, r10
    1da4:	d8a34800 	sw	r5, r3, r9
    1da8:	d9634000 	sw	r11, r3, r8
    1dac:	30840001 	addik	r4, r4, 1
    1db0:	d8a33800 	sw	r5, r3, r7
    1db4:	16462003 	cmpu	r18, r6, r4
    1db8:	be52ffe0 	bltid	r18, -32		// 1d98
    1dbc:	10640000 	addk	r3, r4, r0
    1dc0:	e9e10000 	lwi	r15, r1, 0
    1dc4:	ea61001c 	lwi	r19, r1, 28
    1dc8:	eac10020 	lwi	r22, r1, 32
    1dcc:	eae10024 	lwi	r23, r1, 36
    1dd0:	eb010028 	lwi	r24, r1, 40
    1dd4:	eb21002c 	lwi	r25, r1, 44
    1dd8:	b60f0008 	rtsd	r15, 8
    1ddc:	30210030 	addik	r1, r1, 48

00001de0 <get_array_feedback>:
    1de0:	be060050 	beqid	r6, 80		// 1e30
    1de4:	10600000 	addk	r3, r0, r0
    1de8:	bc660040 	blei	r6, 64		// 1e28
    1dec:	b810001c 	brid	28		// 1e08
    1df0:	10800000 	addk	r4, r0, r0
    1df4:	c8e82800 	lw	r7, r8, r5
    1df8:	30840001 	addik	r4, r4, 1
    1dfc:	16462001 	cmp	r18, r6, r4
    1e00:	beb20028 	bgeid	r18, 40		// 1e28
    1e04:	58633800 	fadd	r3, r3, r7
    1e08:	a4e40001 	andi	r7, r4, 1
    1e0c:	be27ffe8 	bneid	r7, -24		// 1df4
    1e10:	65040402 	bslli	r8, r4, 2
    1e14:	c8e82800 	lw	r7, r8, r5
    1e18:	30840001 	addik	r4, r4, 1
    1e1c:	16462001 	cmp	r18, r6, r4
    1e20:	be52ffe8 	bltid	r18, -24		// 1e08
    1e24:	58671880 	frsub	r3, r7, r3
    1e28:	58c60280 	flt	r6, r6
    1e2c:	58661980 	fdiv	r3, r6, r3
    1e30:	b60f0008 	rtsd	r15, 8
    1e34:	80000000 	or	r0, r0, r0

00001e38 <hydro_fragment>:
    1e38:	3021ffd0 	addik	r1, r1, -48
    1e3c:	fb010028 	swi	r24, r1, 40
    1e40:	f9e10000 	swi	r15, r1, 0
    1e44:	fa61001c 	swi	r19, r1, 28
    1e48:	fac10020 	swi	r22, r1, 32
    1e4c:	fae10024 	swi	r23, r1, 36
    1e50:	fb21002c 	swi	r25, r1, 44
    1e54:	e865004c 	lwi	r3, r5, 76
    1e58:	eb250030 	lwi	r25, r5, 48
    1e5c:	e8c5002c 	lwi	r6, r5, 44
    1e60:	e883000c 	lwi	r4, r3, 12
    1e64:	33000001 	addik	r24, r0, 1
    1e68:	e8a30000 	lwi	r5, r3, 0
    1e6c:	e9030004 	lwi	r8, r3, 4
    1e70:	e8e30008 	lwi	r7, r3, 8
    1e74:	eac40000 	lwi	r22, r4, 0
    1e78:	ea640004 	lwi	r19, r4, 4
    1e7c:	be190060 	beqid	r25, 96		// 1edc
    1e80:	e9840008 	lwi	r12, r4, 8
    1e84:	be06004c 	beqid	r6, 76		// 1ed0
    1e88:	10600000 	addk	r3, r0, r0
    1e8c:	3143000a 	addik	r10, r3, 10
    1e90:	3123000b 	addik	r9, r3, 11
    1e94:	654a0402 	bslli	r10, r10, 2
    1e98:	65290402 	bslli	r9, r9, 2
    1e9c:	64830402 	bslli	r4, r3, 2
    1ea0:	c96a3800 	lw	r11, r10, r7
    1ea4:	c9493800 	lw	r10, r9, r7
    1ea8:	cae44000 	lw	r23, r4, r8
    1eac:	59735900 	fmul	r11, r19, r11
    1eb0:	30630001 	addik	r3, r3, 1
    1eb4:	594c5100 	fmul	r10, r12, r10
    1eb8:	592b5000 	fadd	r9, r11, r10
    1ebc:	5929b900 	fmul	r9, r9, r23
    1ec0:	5929b000 	fadd	r9, r9, r22
    1ec4:	16461803 	cmpu	r18, r6, r3
    1ec8:	be52ffc4 	bltid	r18, -60		// 1e8c
    1ecc:	d9242800 	sw	r9, r4, r5
    1ed0:	33180001 	addik	r24, r24, 1
    1ed4:	1658c803 	cmpu	r18, r24, r25
    1ed8:	bcb2ffac 	bgei	r18, -84		// 1e84
    1edc:	b9f4ff04 	brlid	r15, -252	// 1de0 <get_array_feedback>
    1ee0:	80000000 	or	r0, r0, r0
    1ee4:	10800000 	addk	r4, r0, r0
    1ee8:	58632000 	fadd	r3, r3, r4
    1eec:	e9e10000 	lwi	r15, r1, 0
    1ef0:	ea61001c 	lwi	r19, r1, 28
    1ef4:	eac10020 	lwi	r22, r1, 32
    1ef8:	eae10024 	lwi	r23, r1, 36
    1efc:	eb010028 	lwi	r24, r1, 40
    1f00:	eb21002c 	lwi	r25, r1, 44
    1f04:	b60f0008 	rtsd	r15, 8
    1f08:	30210030 	addik	r1, r1, 48

00001f0c <cholesky>:
    1f0c:	3021ffcc 	addik	r1, r1, -52
    1f10:	f9e10000 	swi	r15, r1, 0
    1f14:	fa61001c 	swi	r19, r1, 28
    1f18:	fac10020 	swi	r22, r1, 32
    1f1c:	fae10024 	swi	r23, r1, 36
    1f20:	fb010028 	swi	r24, r1, 40
    1f24:	fb21002c 	swi	r25, r1, 44
    1f28:	fb410030 	swi	r26, r1, 48
    1f2c:	e865004c 	lwi	r3, r5, 76
    1f30:	eb050030 	lwi	r24, r5, 48
    1f34:	eb45002c 	lwi	r26, r5, 44
    1f38:	e9030004 	lwi	r8, r3, 4
    1f3c:	be180098 	beqid	r24, 152		// 1fd4
    1f40:	e8a30000 	lwi	r5, r3, 0
    1f44:	933a0041 	srl	r25, r26
    1f48:	32e00001 	addik	r23, r0, 1
    1f4c:	12d90000 	addk	r22, r25, r0
    1f50:	10600000 	addk	r3, r0, r0
    1f54:	11561800 	addk	r10, r22, r3
    1f58:	30630001 	addik	r3, r3, 1
    1f5c:	164a1803 	cmpu	r18, r10, r3
    1f60:	beb2005c 	bgeid	r18, 92		// 1fbc
    1f64:	92d60041 	srl	r22, r22
    1f68:	308affff 	addik	r4, r10, -1
    1f6c:	3183ffff 	addik	r12, r3, -1
    1f70:	64e30402 	bslli	r7, r3, 2
    1f74:	658c0402 	bslli	r12, r12, 2
    1f78:	ca674000 	lw	r19, r7, r8
    1f7c:	c96c2800 	lw	r11, r12, r5
    1f80:	31230001 	addik	r9, r3, 1
    1f84:	65290402 	bslli	r9, r9, 2
    1f88:	59735900 	fmul	r11, r19, r11
    1f8c:	c8c94000 	lw	r6, r9, r8
    1f90:	ca672800 	lw	r19, r7, r5
    1f94:	c9892800 	lw	r12, r9, r5
    1f98:	30840001 	addik	r4, r4, 1
    1f9c:	64e40402 	bslli	r7, r4, 2
    1fa0:	596b9880 	frsub	r11, r11, r19
    1fa4:	30630002 	addik	r3, r3, 2
    1fa8:	59266100 	fmul	r9, r6, r12
    1fac:	59295880 	frsub	r9, r9, r11
    1fb0:	164a1803 	cmpu	r18, r10, r3
    1fb4:	be52ffb8 	bltid	r18, -72		// 1f6c
    1fb8:	d9272800 	sw	r9, r7, r5
    1fbc:	be36ff98 	bneid	r22, -104		// 1f54
    1fc0:	106a0000 	addk	r3, r10, r0
    1fc4:	32f70001 	addik	r23, r23, 1
    1fc8:	1657c003 	cmpu	r18, r23, r24
    1fcc:	beb2ff84 	bgeid	r18, -124		// 1f50
    1fd0:	12d90000 	addk	r22, r25, r0
    1fd4:	b9f4fe0c 	brlid	r15, -500	// 1de0 <get_array_feedback>
    1fd8:	10da0000 	addk	r6, r26, r0
    1fdc:	e9e10000 	lwi	r15, r1, 0
    1fe0:	ea61001c 	lwi	r19, r1, 28
    1fe4:	eac10020 	lwi	r22, r1, 32
    1fe8:	eae10024 	lwi	r23, r1, 36
    1fec:	eb010028 	lwi	r24, r1, 40
    1ff0:	eb21002c 	lwi	r25, r1, 44
    1ff4:	eb410030 	lwi	r26, r1, 48
    1ff8:	b60f0008 	rtsd	r15, 8
    1ffc:	30210034 	addik	r1, r1, 52

00002000 <state_fragment>:
    2000:	3021ffc0 	addik	r1, r1, -64
    2004:	fb810038 	swi	r28, r1, 56
    2008:	f9e10000 	swi	r15, r1, 0
    200c:	fa61001c 	swi	r19, r1, 28
    2010:	fac10020 	swi	r22, r1, 32
    2014:	fae10024 	swi	r23, r1, 36
    2018:	fb010028 	swi	r24, r1, 40
    201c:	fb21002c 	swi	r25, r1, 44
    2020:	fb410030 	swi	r26, r1, 48
    2024:	fb610034 	swi	r27, r1, 52
    2028:	fba1003c 	swi	r29, r1, 60
    202c:	e865004c 	lwi	r3, r5, 76
    2030:	eba50030 	lwi	r29, r5, 48
    2034:	e8c5002c 	lwi	r6, r5, 44
    2038:	33800001 	addik	r28, r0, 1
    203c:	e8830000 	lwi	r4, r3, 0
    2040:	e9630004 	lwi	r11, r3, 4
    2044:	e9830008 	lwi	r12, r3, 8
    2048:	be7d00d4 	bleid	r29, 212		// 211c
    204c:	e8a3000c 	lwi	r5, r3, 12
    2050:	b0003e99 	imm	16025
    2054:	3100999a 	addik	r8, r0, -26214
    2058:	b0003e80 	imm	16000
    205c:	31400000 	addik	r10, r0, 0
    2060:	be6600b0 	bleid	r6, 176		// 2110
    2064:	10600000 	addk	r3, r0, r0
    2068:	31230004 	addik	r9, r3, 4
    206c:	65290402 	bslli	r9, r9, 2
    2070:	64e30402 	bslli	r7, r3, 2
    2074:	cae92000 	lw	r23, r9, r4
    2078:	32c30005 	addik	r22, r3, 5
    207c:	31230001 	addik	r9, r3, 1
    2080:	5af74100 	fmul	r23, r23, r8
    2084:	66690402 	bslli	r19, r9, 2
    2088:	66d60402 	bslli	r22, r22, 2
    208c:	ca732000 	lw	r19, r19, r4
    2090:	cad62000 	lw	r22, r22, r4
    2094:	33030002 	addik	r24, r3, 2
    2098:	5a734100 	fmul	r19, r19, r8
    209c:	67180402 	bslli	r24, r24, 2
    20a0:	cb182000 	lw	r24, r24, r4
    20a4:	33230006 	addik	r25, r3, 6
    20a8:	5af7b000 	fadd	r23, r23, r22
    20ac:	67390402 	bslli	r25, r25, 2
    20b0:	cac75800 	lw	r22, r7, r11
    20b4:	cb392000 	lw	r25, r25, r4
    20b8:	5a73c000 	fadd	r19, r19, r24
    20bc:	30630003 	addik	r3, r3, 3
    20c0:	64630402 	bslli	r3, r3, 2
    20c4:	cb676000 	lw	r27, r7, r12
    20c8:	5af74100 	fmul	r23, r23, r8
    20cc:	cb032000 	lw	r24, r3, r4
    20d0:	cb472000 	lw	r26, r7, r4
    20d4:	10690000 	addk	r3, r9, r0
    20d8:	5ad64100 	fmul	r22, r22, r8
    20dc:	5a734100 	fmul	r19, r19, r8
    20e0:	5af7c800 	fadd	r23, r23, r25
    20e4:	5ad6d800 	fadd	r22, r22, r27
    20e8:	5a73c000 	fadd	r19, r19, r24
    20ec:	5af75100 	fmul	r23, r23, r10
    20f0:	5ad64100 	fmul	r22, r22, r8
    20f4:	5a73b800 	fadd	r19, r19, r23
    20f8:	5936d000 	fadd	r9, r22, r26
    20fc:	5a735100 	fmul	r19, r19, r10
    2100:	59299800 	fadd	r9, r9, r19
    2104:	16461801 	cmp	r18, r6, r3
    2108:	be52ff60 	bltid	r18, -160		// 2068
    210c:	d9272800 	sw	r9, r7, r5
    2110:	339c0001 	addik	r28, r28, 1
    2114:	165ce801 	cmp	r18, r28, r29
    2118:	bcb2ff48 	bgei	r18, -184		// 2060
    211c:	b9f4fcc4 	brlid	r15, -828	// 1de0 <get_array_feedback>
    2120:	80000000 	or	r0, r0, r0
    2124:	10800000 	addk	r4, r0, r0
    2128:	58632000 	fadd	r3, r3, r4
    212c:	e9e10000 	lwi	r15, r1, 0
    2130:	ea61001c 	lwi	r19, r1, 28
    2134:	eac10020 	lwi	r22, r1, 32
    2138:	eae10024 	lwi	r23, r1, 36
    213c:	eb010028 	lwi	r24, r1, 40
    2140:	eb21002c 	lwi	r25, r1, 44
    2144:	eb410030 	lwi	r26, r1, 48
    2148:	eb610034 	lwi	r27, r1, 52
    214c:	eb810038 	lwi	r28, r1, 56
    2150:	eba1003c 	lwi	r29, r1, 60
    2154:	b60f0008 	rtsd	r15, 8
    2158:	30210040 	addik	r1, r1, 64

0000215c <hydro_2d>:
    215c:	3021ff78 	addik	r1, r1, -136
    2160:	f9e10000 	swi	r15, r1, 0
    2164:	fa61005c 	swi	r19, r1, 92
    2168:	fac10060 	swi	r22, r1, 96
    216c:	fae10064 	swi	r23, r1, 100
    2170:	fb010068 	swi	r24, r1, 104
    2174:	fb21006c 	swi	r25, r1, 108
    2178:	fb410070 	swi	r26, r1, 112
    217c:	fb610074 	swi	r27, r1, 116
    2180:	fb810078 	swi	r28, r1, 120
    2184:	fba1007c 	swi	r29, r1, 124
    2188:	fbc10080 	swi	r30, r1, 128
    218c:	fbe10084 	swi	r31, r1, 132
    2190:	30600001 	addik	r3, r0, 1
    2194:	f8610038 	swi	r3, r1, 56
    2198:	e86500dc 	lwi	r3, r5, 220
    219c:	e8850030 	lwi	r4, r5, 48
    21a0:	e8a5002c 	lwi	r5, r5, 44
    21a4:	eac30000 	lwi	r22, r3, 0
    21a8:	f8810048 	swi	r4, r1, 72
    21ac:	e8830004 	lwi	r4, r3, 4
    21b0:	fac1003c 	swi	r22, r1, 60
    21b4:	eac30008 	lwi	r22, r3, 8
    21b8:	f8810040 	swi	r4, r1, 64
    21bc:	e883000c 	lwi	r4, r3, 12
    21c0:	fac1004c 	swi	r22, r1, 76
    21c4:	eac30010 	lwi	r22, r3, 16
    21c8:	f8810050 	swi	r4, r1, 80
    21cc:	e8830018 	lwi	r4, r3, 24
    21d0:	fac10054 	swi	r22, r1, 84
    21d4:	eac3001c 	lwi	r22, r3, 28
    21d8:	f8a10020 	swi	r5, r1, 32
    21dc:	e8a30014 	lwi	r5, r3, 20
    21e0:	e8630020 	lwi	r3, r3, 32
    21e4:	f8810044 	swi	r4, r1, 68
    21e8:	fac1001c 	swi	r22, r1, 28
    21ec:	f8610058 	swi	r3, r1, 88
    21f0:	e8610048 	lwi	r3, r1, 72
    21f4:	be630368 	bleid	r3, 872		// 255c
    21f8:	ebe10058 	lwi	r31, r1, 88
    21fc:	33400005 	addik	r26, r0, 5
    2200:	fb410024 	swi	r26, r1, 36
    2204:	ebc1003c 	lwi	r30, r1, 60
    2208:	ea61004c 	lwi	r19, r1, 76
    220c:	eac10050 	lwi	r22, r1, 80
    2210:	eae10054 	lwi	r23, r1, 84
    2214:	eb210020 	lwi	r25, r1, 32
    2218:	eb410040 	lwi	r26, r1, 64
    221c:	31800001 	addik	r12, r0, 1
    2220:	fbe10028 	swi	r31, r1, 40
    2224:	30600001 	addik	r3, r0, 1
    2228:	16591801 	cmp	r18, r25, r3
    222c:	beb200d0 	bgeid	r18, 208		// 22fc
    2230:	13ec1800 	addk	r31, r12, r3
    2234:	306cffff 	addik	r3, r12, -1
    2238:	33ec0001 	addik	r31, r12, 1
    223c:	43b91800 	mul	r29, r25, r3
    2240:	33000001 	addik	r24, r0, 1
    2244:	4399f800 	mul	r28, r25, r31
    2248:	43796000 	mul	r27, r25, r12
    224c:	1078e000 	addk	r3, r24, r28
    2250:	3063ffff 	addik	r3, r3, -1
    2254:	64830402 	bslli	r4, r3, 2
    2258:	c864b000 	lw	r3, r4, r22
    225c:	c9449800 	lw	r10, r4, r19
    2260:	1138d800 	addk	r9, r24, r27
    2264:	30c9ffff 	addik	r6, r9, -1
    2268:	594a1800 	fadd	r10, r10, r3
    226c:	64c60402 	bslli	r6, r6, 2
    2270:	65290402 	bslli	r9, r9, 2
    2274:	c8e69800 	lw	r7, r6, r19
    2278:	c9862800 	lw	r12, r6, r5
    227c:	59475080 	frsub	r10, r7, r10
    2280:	c906b000 	lw	r8, r6, r22
    2284:	c8692800 	lw	r3, r9, r5
    2288:	c964b800 	lw	r11, r4, r23
    228c:	c8e6b800 	lw	r7, r6, r23
    2290:	58636000 	fadd	r3, r3, r12
    2294:	1098e800 	addk	r4, r24, r29
    2298:	65840402 	bslli	r12, r4, 2
    229c:	33180001 	addik	r24, r24, 1
    22a0:	59085080 	frsub	r8, r8, r10
    22a4:	58e75800 	fadd	r7, r7, r11
    22a8:	58681900 	fmul	r3, r8, r3
    22ac:	58671980 	fdiv	r3, r7, r3
    22b0:	d869f000 	sw	r3, r9, r30
    22b4:	c8e6b000 	lw	r7, r6, r22
    22b8:	c9069800 	lw	r8, r6, r19
    22bc:	c8899800 	lw	r4, r9, r19
    22c0:	c869b000 	lw	r3, r9, r22
    22c4:	59083800 	fadd	r8, r8, r7
    22c8:	c9692800 	lw	r11, r9, r5
    22cc:	c8ec2800 	lw	r7, r12, r5
    22d0:	c949b800 	lw	r10, r9, r23
    22d4:	c8c6b800 	lw	r6, r6, r23
    22d8:	58eb3800 	fadd	r7, r11, r7
    22dc:	58844080 	frsub	r4, r4, r8
    22e0:	58ca3000 	fadd	r6, r10, r6
    22e4:	58832080 	frsub	r4, r3, r4
    22e8:	58643900 	fmul	r3, r4, r7
    22ec:	58661980 	fdiv	r3, r6, r3
    22f0:	1659c001 	cmp	r18, r25, r24
    22f4:	be52ff58 	bltid	r18, -168		// 224c
    22f8:	d869d000 	sw	r3, r9, r26
    22fc:	e8810024 	lwi	r4, r1, 36
    2300:	3084ffff 	addik	r4, r4, -1
    2304:	be040010 	beqid	r4, 16		// 2314
    2308:	f8810024 	swi	r4, r1, 36
    230c:	b810ff18 	brid	-232		// 2224
    2310:	119f0000 	addk	r12, r31, r0
    2314:	eac10020 	lwi	r22, r1, 32
    2318:	30800005 	addik	r4, r0, 5
    231c:	f8810030 	swi	r4, r1, 48
    2320:	30600001 	addik	r3, r0, 1
    2324:	ebe10028 	lwi	r31, r1, 40
    2328:	33200001 	addik	r25, r0, 1
    232c:	eb41003c 	lwi	r26, r1, 60
    2330:	eb610040 	lwi	r27, r1, 64
    2334:	16561801 	cmp	r18, r22, r3
    2338:	beb2017c 	bgeid	r18, 380		// 24b4
    233c:	eba10044 	lwi	r29, r1, 68
    2340:	eac10020 	lwi	r22, r1, 32
    2344:	3079ffff 	addik	r3, r25, -1
    2348:	30990001 	addik	r4, r25, 1
    234c:	40761800 	mul	r3, r22, r3
    2350:	13dd0000 	addk	r30, r29, r0
    2354:	4336c800 	mul	r25, r22, r25
    2358:	f8610024 	swi	r3, r1, 36
    235c:	40762000 	mul	r3, r22, r4
    2360:	f8810034 	swi	r4, r1, 52
    2364:	33800001 	addik	r28, r0, 1
    2368:	f8610028 	swi	r3, r1, 40
    236c:	fb21002c 	swi	r25, r1, 44
    2370:	e881002c 	lwi	r4, r1, 44
    2374:	107c2000 	addk	r3, r28, r4
    2378:	30c30001 	addik	r6, r3, 1
    237c:	3083ffff 	addik	r4, r3, -1
    2380:	65230402 	bslli	r9, r3, 2
    2384:	66c40402 	bslli	r22, r4, 2
    2388:	67260402 	bslli	r25, r6, 2
    238c:	c969f800 	lw	r11, r9, r31
    2390:	caf6f800 	lw	r23, r22, r31
    2394:	c8f9f800 	lw	r7, r25, r31
    2398:	e8610024 	lwi	r3, r1, 36
    239c:	5af75880 	frsub	r23, r23, r11
    23a0:	c956d000 	lw	r10, r22, r26
    23a4:	10dc1800 	addk	r6, r28, r3
    23a8:	67060402 	bslli	r24, r6, 2
    23ac:	58e75880 	frsub	r7, r7, r11
    23b0:	ca69d000 	lw	r19, r9, r26
    23b4:	c918f800 	lw	r8, r24, r31
    23b8:	e8810028 	lwi	r4, r1, 40
    23bc:	e861001c 	lwi	r3, r1, 28
    23c0:	59085880 	frsub	r8, r8, r11
    23c4:	10dc2000 	addk	r6, r28, r4
    23c8:	65860402 	bslli	r12, r6, 2
    23cc:	c88cf800 	lw	r4, r12, r31
    23d0:	5a679900 	fmul	r19, r7, r19
    23d4:	c8e9d800 	lw	r7, r9, r27
    23d8:	c8ccd800 	lw	r6, r12, r27
    23dc:	cba91800 	lw	r29, r9, r3
    23e0:	339c0001 	addik	r28, r28, 1
    23e4:	59575100 	fmul	r10, r23, r10
    23e8:	58e83900 	fmul	r7, r8, r7
    23ec:	594a9880 	frsub	r10, r10, r19
    23f0:	58845880 	frsub	r4, r4, r11
    23f4:	58e75080 	frsub	r7, r7, r10
    23f8:	58843100 	fmul	r4, r4, r6
    23fc:	58672000 	fadd	r3, r7, r4
    2400:	b0003b86 	imm	15238
    2404:	3080594b 	addik	r4, r0, 22859
    2408:	58632100 	fmul	r3, r3, r4
    240c:	e881001c 	lwi	r4, r1, 28
    2410:	587d1800 	fadd	r3, r29, r3
    2414:	d8692000 	sw	r3, r9, r4
    2418:	ca692800 	lw	r19, r9, r5
    241c:	c8f92800 	lw	r7, r25, r5
    2420:	c9762800 	lw	r11, r22, r5
    2424:	c916d000 	lw	r8, r22, r26
    2428:	59479880 	frsub	r10, r7, r19
    242c:	cae9d000 	lw	r23, r9, r26
    2430:	c8f82800 	lw	r7, r24, r5
    2434:	c88c2800 	lw	r4, r12, r5
    2438:	c8c9d800 	lw	r6, r9, r27
    243c:	596b9880 	frsub	r11, r11, r19
    2440:	c98cd800 	lw	r12, r12, r27
    2444:	cac9f000 	lw	r22, r9, r30
    2448:	594ab900 	fmul	r10, r10, r23
    244c:	590b4100 	fmul	r8, r11, r8
    2450:	58e79880 	frsub	r7, r7, r19
    2454:	59085080 	frsub	r8, r8, r10
    2458:	58c73100 	fmul	r6, r7, r6
    245c:	58849880 	frsub	r4, r4, r19
    2460:	58c64080 	frsub	r6, r6, r8
    2464:	58846100 	fmul	r4, r4, r12
    2468:	58662000 	fadd	r3, r6, r4
    246c:	b0003b86 	imm	15238
    2470:	3080594b 	addik	r4, r0, 22859
    2474:	58632100 	fmul	r3, r3, r4
    2478:	58761800 	fadd	r3, r22, r3
    247c:	eac10020 	lwi	r22, r1, 32
    2480:	1656e001 	cmp	r18, r22, r28
    2484:	be52feec 	bltid	r18, -276		// 2370
    2488:	d869f000 	sw	r3, r9, r30
    248c:	e8610030 	lwi	r3, r1, 48
    2490:	13be0000 	addk	r29, r30, r0
    2494:	3063ffff 	addik	r3, r3, -1
    2498:	be030034 	beqid	r3, 52		// 24cc
    249c:	f8610030 	swi	r3, r1, 48
    24a0:	eac10020 	lwi	r22, r1, 32
    24a4:	30600001 	addik	r3, r0, 1
    24a8:	16561801 	cmp	r18, r22, r3
    24ac:	be52fe98 	bltid	r18, -360		// 2344
    24b0:	eb210034 	lwi	r25, r1, 52
    24b4:	13391800 	addk	r25, r25, r3
    24b8:	e8610030 	lwi	r3, r1, 48
    24bc:	fb210034 	swi	r25, r1, 52
    24c0:	3063ffff 	addik	r3, r3, -1
    24c4:	be23ffdc 	bneid	r3, -36		// 24a0
    24c8:	f8610030 	swi	r3, r1, 48
    24cc:	e9810044 	lwi	r12, r1, 68
    24d0:	ea61001c 	lwi	r19, r1, 28
    24d4:	e9010020 	lwi	r8, r1, 32
    24d8:	31200005 	addik	r9, r0, 5
    24dc:	31400001 	addik	r10, r0, 1
    24e0:	30600001 	addik	r3, r0, 1
    24e4:	16481801 	cmp	r18, r8, r3
    24e8:	bcb20050 	bgei	r18, 80		// 2538
    24ec:	41685000 	mul	r11, r8, r10
    24f0:	10e30000 	addk	r7, r3, r0
    24f4:	10675800 	addk	r3, r7, r11
    24f8:	64830402 	bslli	r4, r3, 2
    24fc:	b0003b72 	imm	15218
    2500:	32c07bb3 	addik	r22, r0, 31667
    2504:	c8649800 	lw	r3, r4, r19
    2508:	c8c42800 	lw	r6, r4, r5
    250c:	30e70001 	addik	r7, r7, 1
    2510:	5863b100 	fmul	r3, r3, r22
    2514:	58661800 	fadd	r3, r6, r3
    2518:	d8642800 	sw	r3, r4, r5
    251c:	c8646000 	lw	r3, r4, r12
    2520:	c8c4f800 	lw	r6, r4, r31
    2524:	5863b100 	fmul	r3, r3, r22
    2528:	58661800 	fadd	r3, r6, r3
    252c:	16483801 	cmp	r18, r8, r7
    2530:	be52ffc4 	bltid	r18, -60		// 24f4
    2534:	d864f800 	sw	r3, r4, r31
    2538:	3129ffff 	addik	r9, r9, -1
    253c:	be29ffa4 	bneid	r9, -92		// 24e0
    2540:	314a0001 	addik	r10, r10, 1
    2544:	e8810038 	lwi	r4, r1, 56
    2548:	eac10048 	lwi	r22, r1, 72
    254c:	30840001 	addik	r4, r4, 1
    2550:	1644b001 	cmp	r18, r4, r22
    2554:	beb2fca8 	bgeid	r18, -856		// 21fc
    2558:	f8810038 	swi	r4, r1, 56
    255c:	e8610020 	lwi	r3, r1, 32
    2560:	12c00000 	addk	r22, r0, r0
    2564:	62630006 	muli	r19, r3, 6
    2568:	b9f4f878 	brlid	r15, -1928	// 1de0 <get_array_feedback>
    256c:	10d30000 	addk	r6, r19, r0
    2570:	5ac3b000 	fadd	r22, r3, r22
    2574:	10d30000 	addk	r6, r19, r0
    2578:	b9f4f868 	brlid	r15, -1944	// 1de0 <get_array_feedback>
    257c:	e8a10058 	lwi	r5, r1, 88
    2580:	5863b000 	fadd	r3, r3, r22
    2584:	e9e10000 	lwi	r15, r1, 0
    2588:	ea61005c 	lwi	r19, r1, 92
    258c:	eac10060 	lwi	r22, r1, 96
    2590:	eae10064 	lwi	r23, r1, 100
    2594:	eb010068 	lwi	r24, r1, 104
    2598:	eb21006c 	lwi	r25, r1, 108
    259c:	eb410070 	lwi	r26, r1, 112
    25a0:	eb610074 	lwi	r27, r1, 116
    25a4:	eb810078 	lwi	r28, r1, 120
    25a8:	eba1007c 	lwi	r29, r1, 124
    25ac:	ebc10080 	lwi	r30, r1, 128
    25b0:	ebe10084 	lwi	r31, r1, 132
    25b4:	b60f0008 	rtsd	r15, 8
    25b8:	30210088 	addik	r1, r1, 136

000025bc <matmul>:
    25bc:	3021ffc8 	addik	r1, r1, -56
    25c0:	f9e10000 	swi	r15, r1, 0
    25c4:	fa61001c 	swi	r19, r1, 28
    25c8:	fac10020 	swi	r22, r1, 32
    25cc:	fae10024 	swi	r23, r1, 36
    25d0:	fb010028 	swi	r24, r1, 40
    25d4:	fb21002c 	swi	r25, r1, 44
    25d8:	fb410030 	swi	r26, r1, 48
    25dc:	fb610034 	swi	r27, r1, 52
    25e0:	e86500dc 	lwi	r3, r5, 220
    25e4:	eb650030 	lwi	r27, r5, 48
    25e8:	e8c5002c 	lwi	r6, r5, 44
    25ec:	31800001 	addik	r12, r0, 1
    25f0:	e8a30000 	lwi	r5, r3, 0
    25f4:	eb230004 	lwi	r25, r3, 4
    25f8:	be7b0094 	bleid	r27, 148		// 268c
    25fc:	ea630008 	lwi	r19, r3, 8
    2600:	33400019 	addik	r26, r0, 25
    2604:	11600000 	addk	r11, r0, r0
    2608:	43065800 	mul	r24, r6, r11
    260c:	32e00019 	addik	r23, r0, 25
    2610:	11400000 	addk	r10, r0, r0
    2614:	bc660050 	blei	r6, 80		// 2664
    2618:	10eac000 	addk	r7, r10, r24
    261c:	64e70402 	bslli	r7, r7, 2
    2620:	10600000 	addk	r3, r0, r0
    2624:	10f93800 	addk	r7, r25, r7
    2628:	60830019 	muli	r4, r3, 25
    262c:	eac70000 	lwi	r22, r7, 0
    2630:	112c2000 	addk	r9, r12, r4
    2634:	11295800 	addk	r9, r9, r11
    2638:	65290402 	bslli	r9, r9, 2
    263c:	c9099800 	lw	r8, r9, r19
    2640:	10845000 	addk	r4, r4, r10
    2644:	64840402 	bslli	r4, r4, 2
    2648:	59164100 	fmul	r8, r22, r8
    264c:	c9242800 	lw	r9, r4, r5
    2650:	30630001 	addik	r3, r3, 1
    2654:	59094000 	fadd	r8, r9, r8
    2658:	16461801 	cmp	r18, r6, r3
    265c:	be52ffcc 	bltid	r18, -52		// 2628
    2660:	d9042800 	sw	r8, r4, r5
    2664:	32f7ffff 	addik	r23, r23, -1
    2668:	be37ffac 	bneid	r23, -84		// 2614
    266c:	314a0001 	addik	r10, r10, 1
    2670:	335affff 	addik	r26, r26, -1
    2674:	be3aff94 	bneid	r26, -108		// 2608
    2678:	316b0001 	addik	r11, r11, 1
    267c:	318c0001 	addik	r12, r12, 1
    2680:	164cd801 	cmp	r18, r12, r27
    2684:	beb2ff80 	bgeid	r18, -128		// 2604
    2688:	33400019 	addik	r26, r0, 25
    268c:	b9f4f754 	brlid	r15, -2220	// 1de0 <get_array_feedback>
    2690:	60c60019 	muli	r6, r6, 25
    2694:	e9e10000 	lwi	r15, r1, 0
    2698:	ea61001c 	lwi	r19, r1, 28
    269c:	eac10020 	lwi	r22, r1, 32
    26a0:	eae10024 	lwi	r23, r1, 36
    26a4:	eb010028 	lwi	r24, r1, 40
    26a8:	eb21002c 	lwi	r25, r1, 44
    26ac:	eb410030 	lwi	r26, r1, 48
    26b0:	eb610034 	lwi	r27, r1, 52
    26b4:	b60f0008 	rtsd	r15, 8
    26b8:	30210038 	addik	r1, r1, 56

000026bc <hydro_2d_implicit>:
    26bc:	3021ffac 	addik	r1, r1, -84
    26c0:	f9e10000 	swi	r15, r1, 0
    26c4:	fa610028 	swi	r19, r1, 40
    26c8:	fac1002c 	swi	r22, r1, 44
    26cc:	fae10030 	swi	r23, r1, 48
    26d0:	fb010034 	swi	r24, r1, 52
    26d4:	fb210038 	swi	r25, r1, 56
    26d8:	fb41003c 	swi	r26, r1, 60
    26dc:	fb610040 	swi	r27, r1, 64
    26e0:	fb810044 	swi	r28, r1, 68
    26e4:	fba10048 	swi	r29, r1, 72
    26e8:	fbc1004c 	swi	r30, r1, 76
    26ec:	fbe10050 	swi	r31, r1, 80
    26f0:	30600001 	addik	r3, r0, 1
    26f4:	e8850030 	lwi	r4, r5, 48
    26f8:	f8610020 	swi	r3, r1, 32
    26fc:	e86500dc 	lwi	r3, r5, 220
    2700:	f8810024 	swi	r4, r1, 36
    2704:	eb45002c 	lwi	r26, r5, 44
    2708:	eb230000 	lwi	r25, r3, 0
    270c:	eb630004 	lwi	r27, r3, 4
    2710:	eb830008 	lwi	r28, r3, 8
    2714:	eba3000c 	lwi	r29, r3, 12
    2718:	ebc30010 	lwi	r30, r3, 16
    271c:	be6400f8 	bleid	r4, 248		// 2814
    2720:	ebe30014 	lwi	r31, r3, 20
    2724:	33000005 	addik	r24, r0, 5
    2728:	32e00001 	addik	r23, r0, 1
    272c:	30600001 	addik	r3, r0, 1
    2730:	165a1801 	cmp	r18, r26, r3
    2734:	bcb20124 	bgei	r18, 292		// 2858
    2738:	3077ffff 	addik	r3, r23, -1
    273c:	42dab800 	mul	r22, r26, r23
    2740:	32f70001 	addik	r23, r23, 1
    2744:	419ab800 	mul	r12, r26, r23
    2748:	fae1001c 	swi	r23, r1, 28
    274c:	427a1800 	mul	r19, r26, r3
    2750:	12ec0000 	addk	r23, r12, r0
    2754:	31600001 	addik	r11, r0, 1
    2758:	10abb000 	addk	r5, r11, r22
    275c:	106bb800 	addk	r3, r11, r23
    2760:	108b9800 	addk	r4, r11, r19
    2764:	64e50402 	bslli	r7, r5, 2
    2768:	64840402 	bslli	r4, r4, 2
    276c:	64630402 	bslli	r3, r3, 2
    2770:	c8c7d800 	lw	r6, r7, r27
    2774:	c863c800 	lw	r3, r3, r25
    2778:	c944c800 	lw	r10, r4, r25
    277c:	c907e800 	lw	r8, r7, r29
    2780:	59833100 	fmul	r12, r3, r6
    2784:	30c50001 	addik	r6, r5, 1
    2788:	65260402 	bslli	r9, r6, 2
    278c:	c887e000 	lw	r4, r7, r28
    2790:	594a4100 	fmul	r10, r10, r8
    2794:	c909c800 	lw	r8, r9, r25
    2798:	30a5ffff 	addik	r5, r5, -1
    279c:	64a50402 	bslli	r5, r5, 2
    27a0:	59082100 	fmul	r8, r8, r4
    27a4:	c8a5c800 	lw	r5, r5, r25
    27a8:	c887f000 	lw	r4, r7, r30
    27ac:	c867f800 	lw	r3, r7, r31
    27b0:	c927c800 	lw	r9, r7, r25
    27b4:	58cc5000 	fadd	r6, r12, r10
    27b8:	316b0001 	addik	r11, r11, 1
    27bc:	58a52100 	fmul	r5, r5, r4
    27c0:	58864000 	fadd	r4, r6, r8
    27c4:	58842800 	fadd	r4, r4, r5
    27c8:	58641800 	fadd	r3, r4, r3
    27cc:	b0003e33 	imm	15923
    27d0:	30803333 	addik	r4, r0, 13107
    27d4:	58691880 	frsub	r3, r9, r3
    27d8:	58632100 	fmul	r3, r3, r4
    27dc:	58691800 	fadd	r3, r9, r3
    27e0:	165a5801 	cmp	r18, r26, r11
    27e4:	be52ff74 	bltid	r18, -140		// 2758
    27e8:	d867c800 	sw	r3, r7, r25
    27ec:	eae1001c 	lwi	r23, r1, 28
    27f0:	3318ffff 	addik	r24, r24, -1
    27f4:	be38ff3c 	bneid	r24, -196		// 2730
    27f8:	30600001 	addik	r3, r0, 1
    27fc:	e8810020 	lwi	r4, r1, 32
    2800:	e8610024 	lwi	r3, r1, 36
    2804:	30840001 	addik	r4, r4, 1
    2808:	16441801 	cmp	r18, r4, r3
    280c:	beb2ff18 	bgeid	r18, -232		// 2724
    2810:	f8810020 	swi	r4, r1, 32
    2814:	10b90000 	addk	r5, r25, r0
    2818:	b9f4f5c8 	brlid	r15, -2616	// 1de0 <get_array_feedback>
    281c:	10da0000 	addk	r6, r26, r0
    2820:	e9e10000 	lwi	r15, r1, 0
    2824:	ea610028 	lwi	r19, r1, 40
    2828:	eac1002c 	lwi	r22, r1, 44
    282c:	eae10030 	lwi	r23, r1, 48
    2830:	eb010034 	lwi	r24, r1, 52
    2834:	eb210038 	lwi	r25, r1, 56
    2838:	eb41003c 	lwi	r26, r1, 60
    283c:	eb610040 	lwi	r27, r1, 64
    2840:	eb810044 	lwi	r28, r1, 68
    2844:	eba10048 	lwi	r29, r1, 72
    2848:	ebc1004c 	lwi	r30, r1, 76
    284c:	ebe10050 	lwi	r31, r1, 80
    2850:	b60f0008 	rtsd	r15, 8
    2854:	30210054 	addik	r1, r1, 84
    2858:	b810ff98 	brid	-104		// 27f0
    285c:	12f71800 	addk	r23, r23, r3

00002860 <tri_diagonal>:
    2860:	3021ffdc 	addik	r1, r1, -36
    2864:	fac10020 	swi	r22, r1, 32
    2868:	f9e10000 	swi	r15, r1, 0
    286c:	fa61001c 	swi	r19, r1, 28
    2870:	e865004c 	lwi	r3, r5, 76
    2874:	ea650030 	lwi	r19, r5, 48
    2878:	31800001 	addik	r12, r0, 1
    287c:	e8c5002c 	lwi	r6, r5, 44
    2880:	12cc0000 	addk	r22, r12, r0
    2884:	e8a30000 	lwi	r5, r3, 0
    2888:	e9030004 	lwi	r8, r3, 4
    288c:	be730050 	bleid	r19, 80		// 28dc
    2890:	e8e30008 	lwi	r7, r3, 8
    2894:	1646b001 	cmp	r18, r6, r22
    2898:	beb20038 	bgeid	r18, 56		// 28d0
    289c:	30800001 	addik	r4, r0, 1
    28a0:	3144ffff 	addik	r10, r4, -1
    28a4:	64640402 	bslli	r3, r4, 2
    28a8:	654a0402 	bslli	r10, r10, 2
    28ac:	c9234000 	lw	r9, r3, r8
    28b0:	c94a2800 	lw	r10, r10, r5
    28b4:	c9633800 	lw	r11, r3, r7
    28b8:	30840001 	addik	r4, r4, 1
    28bc:	592a4880 	frsub	r9, r10, r9
    28c0:	592b4900 	fmul	r9, r11, r9
    28c4:	16462001 	cmp	r18, r6, r4
    28c8:	be52ffd8 	bltid	r18, -40		// 28a0
    28cc:	d9232800 	sw	r9, r3, r5
    28d0:	318c0001 	addik	r12, r12, 1
    28d4:	164c9801 	cmp	r18, r12, r19
    28d8:	bcb2ffbc 	bgei	r18, -68		// 2894
    28dc:	b9f4f504 	brlid	r15, -2812	// 1de0 <get_array_feedback>
    28e0:	80000000 	or	r0, r0, r0
    28e4:	e9e10000 	lwi	r15, r1, 0
    28e8:	ea61001c 	lwi	r19, r1, 28
    28ec:	eac10020 	lwi	r22, r1, 32
    28f0:	b60f0008 	rtsd	r15, 8
    28f4:	30210024 	addik	r1, r1, 36

000028f8 <linear_recurrence>:
    28f8:	3021ffd4 	addik	r1, r1, -44
    28fc:	f9e10000 	swi	r15, r1, 0
    2900:	fa61001c 	swi	r19, r1, 28
    2904:	fac10020 	swi	r22, r1, 32
    2908:	fae10024 	swi	r23, r1, 36
    290c:	fb010028 	swi	r24, r1, 40
    2910:	e8c500dc 	lwi	r6, r5, 220
    2914:	ea65002c 	lwi	r19, r5, 44
    2918:	e885004c 	lwi	r4, r5, 76
    291c:	eae60000 	lwi	r23, r6, 0
    2920:	40f39800 	mul	r7, r19, r19
    2924:	eb050030 	lwi	r24, r5, 48
    2928:	10d70000 	addk	r6, r23, r0
    292c:	b0000000 	imm	0
    2930:	b9f40ce0 	brlid	r15, 3296	// 3610 <reinit_vec>
    2934:	eac40000 	lwi	r22, r4, 0
    2938:	30c00001 	addik	r6, r0, 1
    293c:	be78006c 	bleid	r24, 108		// 29a8
    2940:	11260000 	addk	r9, r6, r0
    2944:	16534801 	cmp	r18, r19, r9
    2948:	beb20054 	bgeid	r18, 84		// 299c
    294c:	30800001 	addik	r4, r0, 1
    2950:	64a40402 	bslli	r5, r4, 2
    2954:	10600000 	addk	r3, r0, r0
    2958:	10b62800 	addk	r5, r22, r5
    295c:	41039800 	mul	r8, r3, r19
    2960:	14e32000 	rsubk	r7, r3, r4
    2964:	11082000 	addk	r8, r8, r4
    2968:	30e7ffff 	addik	r7, r7, -1
    296c:	65080402 	bslli	r8, r8, 2
    2970:	64e70402 	bslli	r7, r7, 2
    2974:	c908b800 	lw	r8, r8, r23
    2978:	c8e7b000 	lw	r7, r7, r22
    297c:	30630001 	addik	r3, r3, 1
    2980:	58e83900 	fmul	r7, r8, r7
    2984:	16441801 	cmp	r18, r4, r3
    2988:	be52ffd4 	bltid	r18, -44		// 295c
    298c:	f8e50000 	swi	r7, r5, 0
    2990:	30840001 	addik	r4, r4, 1
    2994:	16532001 	cmp	r18, r19, r4
    2998:	bc52ffb8 	blti	r18, -72		// 2950
    299c:	30c60001 	addik	r6, r6, 1
    29a0:	1646c001 	cmp	r18, r6, r24
    29a4:	bcb2ffa0 	bgei	r18, -96		// 2944
    29a8:	10b60000 	addk	r5, r22, r0
    29ac:	b9f4f434 	brlid	r15, -3020	// 1de0 <get_array_feedback>
    29b0:	10d30000 	addk	r6, r19, r0
    29b4:	e9e10000 	lwi	r15, r1, 0
    29b8:	ea61001c 	lwi	r19, r1, 28
    29bc:	eac10020 	lwi	r22, r1, 32
    29c0:	eae10024 	lwi	r23, r1, 36
    29c4:	eb010028 	lwi	r24, r1, 40
    29c8:	b60f0008 	rtsd	r15, 8
    29cc:	3021002c 	addik	r1, r1, 44

000029d0 <init_preset_0>:
    29d0:	3021ffe4 	addik	r1, r1, -28
    29d4:	f9e10000 	swi	r15, r1, 0
    29d8:	3080000e 	addik	r4, r0, 14
    29dc:	f8850000 	swi	r4, r5, 0
    29e0:	b0000464 	imm	1124
    29e4:	30805ca3 	addik	r4, r0, 23715
    29e8:	b0000000 	imm	0
    29ec:	30c07240 	addik	r6, r0, 29248	// 7240 <ref_data_index>
    29f0:	30600001 	addik	r3, r0, 1
    29f4:	f8850034 	swi	r4, r5, 52
    29f8:	30800020 	addik	r4, r0, 32	// 20 <_vector_hw_exception>
    29fc:	f8850028 	swi	r4, r5, 40
    2a00:	f8650014 	swi	r3, r5, 20
    2a04:	f8650030 	swi	r3, r5, 48
    2a08:	30e00180 	addik	r7, r0, 384
    2a0c:	b0000000 	imm	0
    2a10:	b9f4095c 	brlid	r15, 2396	// 336c <mmemcpy>
    2a14:	30a506e8 	addik	r5, r5, 1768
    2a18:	e9e10000 	lwi	r15, r1, 0
    2a1c:	b60f0008 	rtsd	r15, 8
    2a20:	3021001c 	addik	r1, r1, 28

00002a24 <startWrapTmr>:
    2a24:	30600001 	addik	r3, r0, 1
    2a28:	b000a033 	imm	-24525
    2a2c:	f8608010 	swi	r3, r0, -32752
    2a30:	b000a032 	imm	-24526
    2a34:	f8608018 	swi	r3, r0, -32744
    2a38:	b60f0008 	rtsd	r15, 8
    2a3c:	80000000 	or	r0, r0, r0

00002a40 <stopWrapTmr>:
    2a40:	b000a033 	imm	-24525
    2a44:	e8608010 	lwi	r3, r0, -32752
    2a48:	b0000000 	imm	0
    2a4c:	f8607838 	swi	r3, r0, 30776	// 7838 <wrap_cputmr>
    2a50:	b000a033 	imm	-24525
    2a54:	e8608028 	lwi	r3, r0, -32728
    2a58:	b0000000 	imm	0
    2a5c:	f860783c 	swi	r3, r0, 30780	// 783c <wrap_cputmr_ovf>
    2a60:	b000a032 	imm	-24526
    2a64:	e8608018 	lwi	r3, r0, -32744
    2a68:	b0000000 	imm	0
    2a6c:	f8607840 	swi	r3, r0, 30784	// 7840 <wrap_rputmr>
    2a70:	b000a032 	imm	-24526
    2a74:	e8608040 	lwi	r3, r0, -32704
    2a78:	b0000000 	imm	0
    2a7c:	f8607844 	swi	r3, r0, 30788	// 7844 <wrap_rputmr_ovf>
    2a80:	b60f0008 	rtsd	r15, 8
    2a84:	80000000 	or	r0, r0, r0

00002a88 <getRPUTmr>:
    2a88:	b000a032 	imm	-24526
    2a8c:	e8608008 	lwi	r3, r0, -32760
    2a90:	b0000000 	imm	0
    2a94:	f8607848 	swi	r3, r0, 30792	// 7848 <rputmr>
    2a98:	b60f0008 	rtsd	r15, 8
    2a9c:	80000000 	or	r0, r0, r0

00002aa0 <getInjTmr>:
    2aa0:	b000a033 	imm	-24525
    2aa4:	e8608008 	lwi	r3, r0, -32760
    2aa8:	b0000000 	imm	0
    2aac:	f860784c 	swi	r3, r0, 30796	// 784c <injtmr>
    2ab0:	b60f0008 	rtsd	r15, 8
    2ab4:	80000000 	or	r0, r0, r0

00002ab8 <getInjTmrOvf>:
    2ab8:	b000a033 	imm	-24525
    2abc:	e8608020 	lwi	r3, r0, -32736
    2ac0:	b0000000 	imm	0
    2ac4:	f8607850 	swi	r3, r0, 30800	// 7850 <injtmr_ofv>
    2ac8:	b60f0008 	rtsd	r15, 8
    2acc:	80000000 	or	r0, r0, r0

00002ad0 <getInjWaitTmr>:
    2ad0:	b000a033 	imm	-24525
    2ad4:	e860800c 	lwi	r3, r0, -32756
    2ad8:	b0000000 	imm	0
    2adc:	f8607854 	swi	r3, r0, 30804	// 7854 <injwaittmr>
    2ae0:	b60f0008 	rtsd	r15, 8
    2ae4:	80000000 	or	r0, r0, r0

00002ae8 <getIterations>:
    2ae8:	b000a032 	imm	-24526
    2aec:	e8608014 	lwi	r3, r0, -32748
    2af0:	b0000000 	imm	0
    2af4:	f8607858 	swi	r3, r0, 30808	// 7858 <itcount>
    2af8:	b60f0008 	rtsd	r15, 8
    2afc:	80000000 	or	r0, r0, r0

00002b00 <getRPUCalls>:
    2b00:	b000a032 	imm	-24526
    2b04:	e860801c 	lwi	r3, r0, -32740
    2b08:	b0000000 	imm	0
    2b0c:	f860785c 	swi	r3, r0, 30812	// 785c <rputmrenable>
    2b10:	b60f0008 	rtsd	r15, 8
    2b14:	80000000 	or	r0, r0, r0

00002b18 <getInjCalls>:
    2b18:	b000a033 	imm	-24525
    2b1c:	e8608014 	lwi	r3, r0, -32748
    2b20:	b0000000 	imm	0
    2b24:	f8607860 	swi	r3, r0, 30816	// 7860 <injtmrenable>
    2b28:	b60f0008 	rtsd	r15, 8
    2b2c:	80000000 	or	r0, r0, r0

00002b30 <getPortUsage>:
    2b30:	b000a032 	imm	-24526
    2b34:	e860800c 	lwi	r3, r0, -32756
    2b38:	f8650000 	swi	r3, r5, 0
    2b3c:	b000a032 	imm	-24526
    2b40:	e8608010 	lwi	r3, r0, -32752
    2b44:	b60f0008 	rtsd	r15, 8
    2b48:	f8660000 	swi	r3, r6, 0

00002b4c <resetTmrs>:
    2b4c:	30600001 	addik	r3, r0, 1
    2b50:	b000a032 	imm	-24526
    2b54:	f8608000 	swi	r3, r0, -32768
    2b58:	b000a033 	imm	-24525
    2b5c:	f8608000 	swi	r3, r0, -32768
    2b60:	b60f0008 	rtsd	r15, 8
    2b64:	80000000 	or	r0, r0, r0

00002b68 <getWrapTimer>:
    2b68:	b0000000 	imm	0
    2b6c:	e8607838 	lwi	r3, r0, 30776	// 7838 <wrap_cputmr>
    2b70:	b60f0008 	rtsd	r15, 8
    2b74:	80000000 	or	r0, r0, r0

00002b78 <getWrapTimerOvf>:
    2b78:	b0000000 	imm	0
    2b7c:	e860783c 	lwi	r3, r0, 30780	// 783c <wrap_cputmr_ovf>
    2b80:	b60f0008 	rtsd	r15, 8
    2b84:	80000000 	or	r0, r0, r0

00002b88 <isaac>:
    2b88:	3021fff4 	addik	r1, r1, -12
    2b8c:	fac10008 	swi	r22, r1, 8
    2b90:	eac5080c 	lwi	r22, r5, 2060
    2b94:	e8e50808 	lwi	r7, r5, 2056
    2b98:	fa610004 	swi	r19, r1, 4
    2b9c:	32d60001 	addik	r22, r22, 1
    2ba0:	31000100 	addik	r8, r0, 256
    2ba4:	10800000 	addk	r4, r0, r0
    2ba8:	e8650804 	lwi	r3, r5, 2052
    2bac:	b810006c 	brid	108		// 2c18
    2bb0:	10f63800 	addk	r7, r22, r7
    2bb4:	88731800 	xor	r3, r19, r3
    2bb8:	31640080 	addik	r11, r4, 128
    2bbc:	a56b00ff 	andi	r11, r11, 255
    2bc0:	316b0101 	addik	r11, r11, 257
    2bc4:	656b0402 	bslli	r11, r11, 2
    2bc8:	654a0402 	bslli	r10, r10, 2
    2bcc:	a4c903fc 	andi	r6, r9, 1020
    2bd0:	30c60404 	addik	r6, r6, 1028
    2bd4:	c8c62800 	lw	r6, r6, r5
    2bd8:	c96b2800 	lw	r11, r11, r5
    2bdc:	30840001 	addik	r4, r4, 1
    2be0:	10e73000 	addk	r7, r7, r6
    2be4:	10635800 	addk	r3, r3, r11
    2be8:	10e71800 	addk	r7, r7, r3
    2bec:	6567000a 	bsrli	r11, r7, 10
    2bf0:	64c40402 	bslli	r6, r4, 2
    2bf4:	a56b00ff 	andi	r11, r11, 255
    2bf8:	316b0101 	addik	r11, r11, 257
    2bfc:	656b0402 	bslli	r11, r11, 2
    2c00:	d8ea2800 	sw	r7, r10, r5
    2c04:	c8eb2800 	lw	r7, r11, r5
    2c08:	3108ffff 	addik	r8, r8, -1
    2c0c:	10e93800 	addk	r7, r9, r7
    2c10:	be080050 	beqid	r8, 80		// 2c60
    2c14:	d8e62800 	sw	r7, r6, r5
    2c18:	31440101 	addik	r10, r4, 257
    2c1c:	a4c40003 	andi	r6, r4, 3
    2c20:	652a0402 	bslli	r9, r10, 2
    2c24:	66630402 	bslli	r19, r3, 2
    2c28:	a9660002 	xori	r11, r6, 2
    2c2c:	a9860003 	xori	r12, r6, 3
    2c30:	be0bff84 	beqid	r11, -124		// 2bb4
    2c34:	c9292800 	lw	r9, r9, r5
    2c38:	65630010 	bsrli	r11, r3, 16
    2c3c:	be0c001c 	beqid	r12, 28		// 2c58
    2c40:	a8c60001 	xori	r6, r6, 1
    2c44:	6583040d 	bslli	r12, r3, 13
    2c48:	be060010 	beqid	r6, 16		// 2c58
    2c4c:	65630006 	bsrli	r11, r3, 6
    2c50:	b810ff68 	brid	-152		// 2bb8
    2c54:	886c1800 	xor	r3, r12, r3
    2c58:	b810ff60 	brid	-160		// 2bb8
    2c5c:	886b1800 	xor	r3, r11, r3
    2c60:	fac5080c 	swi	r22, r5, 2060
    2c64:	ea610004 	lwi	r19, r1, 4
    2c68:	eac10008 	lwi	r22, r1, 8
    2c6c:	f8650804 	swi	r3, r5, 2052
    2c70:	f8e50808 	swi	r7, r5, 2056
    2c74:	b60f0008 	rtsd	r15, 8
    2c78:	3021000c 	addik	r1, r1, 12

00002c7c <store_sp>:
    2c7c:	e4e60002 	lhui	r7, r6, 2
    2c80:	e9060004 	lwi	r8, r6, 4
    2c84:	10600000 	addk	r3, r0, r0
    2c88:	e8860008 	lwi	r4, r6, 8
    2c8c:	be28007c 	bneid	r8, 124		// 2d08
    2c90:	90e70061 	sext16	r7, r7
    2c94:	b00000ff 	imm	255
    2c98:	3120ffff 	addik	r9, r0, -1
    2c9c:	16444803 	cmpu	r18, r4, r9
    2ca0:	bc520068 	blti	r18, 104		// 2d08
    2ca4:	b0000080 	imm	128
    2ca8:	a5240000 	andi	r9, r4, 0
    2cac:	be090048 	beqid	r9, 72		// 2cf4
    2cb0:	3127007e 	addik	r9, r7, 126
    2cb4:	10680000 	addk	r3, r8, r0
    2cb8:	310000fd 	addik	r8, r0, 253
    2cbc:	16494003 	cmpu	r18, r9, r8
    2cc0:	be520048 	bltid	r18, 72		// 2d08
    2cc4:	30e7007f 	addik	r7, r7, 127
    2cc8:	e0660000 	lbui	r3, r6, 0
    2ccc:	be030010 	beqid	r3, 16		// 2cdc
    2cd0:	64e70417 	bslli	r7, r7, 23
    2cd4:	b0008000 	imm	-32768
    2cd8:	a0e70000 	ori	r7, r7, 0
    2cdc:	b000007f 	imm	127
    2ce0:	a484ffff 	andi	r4, r4, -1
    2ce4:	80e72000 	or	r7, r7, r4
    2ce8:	f8e50000 	swi	r7, r5, 0
    2cec:	b60f0008 	rtsd	r15, 8
    2cf0:	30600001 	addik	r3, r0, 1
    2cf4:	88e71c00 	pcmpeq	r7, r7, r3
    2cf8:	bc07000c 	beqi	r7, 12		// 2d04
    2cfc:	88641c00 	pcmpeq	r3, r4, r3
    2d00:	bc230010 	bnei	r3, 16		// 2d10
    2d04:	10600000 	addk	r3, r0, r0
    2d08:	b60f0008 	rtsd	r15, 8
    2d0c:	80000000 	or	r0, r0, r0
    2d10:	e0860000 	lbui	r4, r6, 0
    2d14:	30600001 	addik	r3, r0, 1
    2d18:	6484041f 	bslli	r4, r4, 31
    2d1c:	b60f0008 	rtsd	r15, 8
    2d20:	f8850000 	swi	r4, r5, 0

00002d24 <load_sp>:
    2d24:	10600000 	addk	r3, r0, r0
    2d28:	88661c00 	pcmpeq	r3, r6, r3
    2d2c:	bc230060 	bnei	r3, 96		// 2d8c
    2d30:	88651c00 	pcmpeq	r3, r5, r3
    2d34:	bc230058 	bnei	r3, 88		// 2d8c
    2d38:	e8a50000 	lwi	r5, r5, 0
    2d3c:	f0660000 	sbi	r3, r6, 0
    2d40:	f8660004 	swi	r3, r6, 4
    2d44:	64850017 	bsrli	r4, r5, 23
    2d48:	b000007f 	imm	127
    2d4c:	a4e5ffff 	andi	r7, r5, -1
    2d50:	a48400ff 	andi	r4, r4, 255
    2d54:	f8e60008 	swi	r7, r6, 8
    2d58:	a86400ff 	xori	r3, r4, 255
    2d5c:	be030034 	beqid	r3, 52		// 2d90
    2d60:	f4860002 	shi	r4, r6, 2
    2d64:	be040034 	beqid	r4, 52		// 2d98
    2d68:	30600001 	addik	r3, r0, 1
    2d6c:	64a5001f 	bsrli	r5, r5, 31
    2d70:	b0000080 	imm	128
    2d74:	a0e70000 	ori	r7, r7, 0
    2d78:	3084ff81 	addik	r4, r4, -127
    2d7c:	f8e60008 	swi	r7, r6, 8
    2d80:	f4860002 	shi	r4, r6, 2
    2d84:	b60f0008 	rtsd	r15, 8
    2d88:	f0a60000 	sbi	r5, r6, 0
    2d8c:	10600000 	addk	r3, r0, r0
    2d90:	b60f0008 	rtsd	r15, 8
    2d94:	80000000 	or	r0, r0, r0
    2d98:	be27fff8 	bneid	r7, -8		// 2d90
    2d9c:	10640000 	addk	r3, r4, r0
    2da0:	64a5001f 	bsrli	r5, r5, 31
    2da4:	30600001 	addik	r3, r0, 1
    2da8:	b60f0008 	rtsd	r15, 8
    2dac:	f0a60000 	sbi	r5, r6, 0

00002db0 <rand_fini>:
    2db0:	3021ffe4 	addik	r1, r1, -28
    2db4:	f9e10000 	swi	r15, r1, 0
    2db8:	b0000000 	imm	0
    2dbc:	b9f42574 	brlid	r15, 9588	// 5330 <free>
    2dc0:	80000000 	or	r0, r0, r0
    2dc4:	e9e10000 	lwi	r15, r1, 0
    2dc8:	b60f0008 	rtsd	r15, 8
    2dcc:	3021001c 	addik	r1, r1, 28

00002dd0 <rand_init>:
    2dd0:	3021ffc8 	addik	r1, r1, -56
    2dd4:	fac10020 	swi	r22, r1, 32
    2dd8:	fae10024 	swi	r23, r1, 36
    2ddc:	12c70000 	addk	r22, r7, r0
    2de0:	12e80000 	addk	r23, r8, r0
    2de4:	fb010028 	swi	r24, r1, 40
    2de8:	fb21002c 	swi	r25, r1, 44
    2dec:	13090000 	addk	r24, r9, r0
    2df0:	132a0000 	addk	r25, r10, r0
    2df4:	fb410030 	swi	r26, r1, 48
    2df8:	13450000 	addk	r26, r5, r0
    2dfc:	30a00834 	addik	r5, r0, 2100
    2e00:	f9e10000 	swi	r15, r1, 0
    2e04:	fa61001c 	swi	r19, r1, 28
    2e08:	fb610034 	swi	r27, r1, 52
    2e0c:	b0000000 	imm	0
    2e10:	b9f424f4 	brlid	r15, 9460	// 5304 <malloc>
    2e14:	636600ff 	muli	r27, r6, 255
    2e18:	10f60000 	addk	r7, r22, r0
    2e1c:	11170000 	addk	r8, r23, r0
    2e20:	10b80000 	addk	r5, r24, r0
    2e24:	10d90000 	addk	r6, r25, r0
    2e28:	fb630814 	swi	r27, r3, 2068
    2e2c:	b0000000 	imm	0
    2e30:	b9f41bc4 	brlid	r15, 7108	// 49f4 <__subdf3>
    2e34:	12630000 	addk	r19, r3, r0
    2e38:	10a40000 	addk	r5, r4, r0
    2e3c:	10c50000 	addk	r6, r5, r0
    2e40:	b0000000 	imm	0
    2e44:	b9f41c2c 	brlid	r15, 7212	// 4a70 <__truncdfsf2>
    2e48:	10a30000 	addk	r5, r3, r0
    2e4c:	10b60000 	addk	r5, r22, r0
    2e50:	10d70000 	addk	r6, r23, r0
    2e54:	b0000000 	imm	0
    2e58:	b9f41c18 	brlid	r15, 7192	// 4a70 <__truncdfsf2>
    2e5c:	f8730818 	swi	r3, r19, 2072
    2e60:	be3b0010 	bneid	r27, 16		// 2e70
    2e64:	f873081c 	swi	r3, r19, 2076
    2e68:	3060ffff 	addik	r3, r0, -1
    2e6c:	f8730814 	swi	r3, r19, 2068
    2e70:	10fa0000 	addk	r7, r26, r0
    2e74:	117a0000 	addk	r11, r26, r0
    2e78:	115a0000 	addk	r10, r26, r0
    2e7c:	113a0000 	addk	r9, r26, r0
    2e80:	111a0000 	addk	r8, r26, r0
    2e84:	10da0000 	addk	r6, r26, r0
    2e88:	109a0000 	addk	r4, r26, r0
    2e8c:	10ba0000 	addk	r5, r26, r0
    2e90:	f813080c 	swi	r0, r19, 2060
    2e94:	f8130808 	swi	r0, r19, 2056
    2e98:	f8130804 	swi	r0, r19, 2052
    2e9c:	fb530810 	swi	r26, r19, 2064
    2ea0:	f8130000 	swi	r0, r19, 0
    2ea4:	30600004 	addik	r3, r0, 4
    2ea8:	66c4040b 	bslli	r22, r4, 11
    2eac:	65860002 	bsrli	r12, r6, 2
    2eb0:	88b62800 	xor	r5, r22, r5
    2eb4:	10862000 	addk	r4, r6, r4
    2eb8:	11054000 	addk	r8, r5, r8
    2ebc:	888c2000 	xor	r4, r12, r4
    2ec0:	11244800 	addk	r9, r4, r9
    2ec4:	66c80408 	bslli	r22, r8, 8
    2ec8:	65890010 	bsrli	r12, r9, 16
    2ecc:	10c83000 	addk	r6, r8, r6
    2ed0:	88d63000 	xor	r6, r22, r6
    2ed4:	11094000 	addk	r8, r9, r8
    2ed8:	11465000 	addk	r10, r6, r10
    2edc:	890c4000 	xor	r8, r12, r8
    2ee0:	11685800 	addk	r11, r8, r11
    2ee4:	66ca040a 	bslli	r22, r10, 10
    2ee8:	658b0004 	bsrli	r12, r11, 4
    2eec:	112a4800 	addk	r9, r10, r9
    2ef0:	89364800 	xor	r9, r22, r9
    2ef4:	114b5000 	addk	r10, r11, r10
    2ef8:	10e93800 	addk	r7, r9, r7
    2efc:	894c5000 	xor	r10, r12, r10
    2f00:	10aa2800 	addk	r5, r10, r5
    2f04:	66c70408 	bslli	r22, r7, 8
    2f08:	65850009 	bsrli	r12, r5, 9
    2f0c:	11675800 	addk	r11, r7, r11
    2f10:	89765800 	xor	r11, r22, r11
    2f14:	10e53800 	addk	r7, r5, r7
    2f18:	108b2000 	addk	r4, r11, r4
    2f1c:	88ec3800 	xor	r7, r12, r7
    2f20:	3063ffff 	addik	r3, r3, -1
    2f24:	10c73000 	addk	r6, r7, r6
    2f28:	be23ff80 	bneid	r3, -128		// 2ea8
    2f2c:	10a42800 	addk	r5, r4, r5
    2f30:	31800020 	addik	r12, r0, 32	// 20 <_vector_hw_exception>
    2f34:	66c4040b 	bslli	r22, r4, 11
    2f38:	66e60002 	bsrli	r23, r6, 2
    2f3c:	88b62800 	xor	r5, r22, r5
    2f40:	11054000 	addk	r8, r5, r8
    2f44:	66c80408 	bslli	r22, r8, 8
    2f48:	10862000 	addk	r4, r6, r4
    2f4c:	88972000 	xor	r4, r23, r4
    2f50:	10c83000 	addk	r6, r8, r6
    2f54:	11244800 	addk	r9, r4, r9
    2f58:	88d63000 	xor	r6, r22, r6
    2f5c:	11465000 	addk	r10, r6, r10
    2f60:	66e90010 	bsrli	r23, r9, 16
    2f64:	66ca040a 	bslli	r22, r10, 10
    2f68:	11094000 	addk	r8, r9, r8
    2f6c:	89174000 	xor	r8, r23, r8
    2f70:	112a4800 	addk	r9, r10, r9
    2f74:	11685800 	addk	r11, r8, r11
    2f78:	89364800 	xor	r9, r22, r9
    2f7c:	10e93800 	addk	r7, r9, r7
    2f80:	66eb0004 	bsrli	r23, r11, 4
    2f84:	66c70408 	bslli	r22, r7, 8
    2f88:	114b5000 	addk	r10, r11, r10
    2f8c:	89575000 	xor	r10, r23, r10
    2f90:	11675800 	addk	r11, r7, r11
    2f94:	10aa2800 	addk	r5, r10, r5
    2f98:	89765800 	xor	r11, r22, r11
    2f9c:	33230101 	addik	r25, r3, 257
    2fa0:	66e50009 	bsrli	r23, r5, 9
    2fa4:	67390402 	bslli	r25, r25, 2
    2fa8:	108b2000 	addk	r4, r11, r4
    2fac:	32c30102 	addik	r22, r3, 258
    2fb0:	66d60402 	bslli	r22, r22, 2
    2fb4:	33030103 	addik	r24, r3, 259
    2fb8:	10e53800 	addk	r7, r5, r7
    2fbc:	10a42800 	addk	r5, r4, r5
    2fc0:	d8b99800 	sw	r5, r25, r19
    2fc4:	88f73800 	xor	r7, r23, r7
    2fc8:	67180402 	bslli	r24, r24, 2
    2fcc:	32e30104 	addik	r23, r3, 260
    2fd0:	d8969800 	sw	r4, r22, r19
    2fd4:	66f70402 	bslli	r23, r23, 2
    2fd8:	32c30105 	addik	r22, r3, 261
    2fdc:	10c73000 	addk	r6, r7, r6
    2fe0:	d8d89800 	sw	r6, r24, r19
    2fe4:	66d60402 	bslli	r22, r22, 2
    2fe8:	33030106 	addik	r24, r3, 262
    2fec:	d9179800 	sw	r8, r23, r19
    2ff0:	67180402 	bslli	r24, r24, 2
    2ff4:	32e30107 	addik	r23, r3, 263
    2ff8:	d9369800 	sw	r9, r22, r19
    2ffc:	66f70402 	bslli	r23, r23, 2
    3000:	32c30108 	addik	r22, r3, 264
    3004:	d9589800 	sw	r10, r24, r19
    3008:	66d60402 	bslli	r22, r22, 2
    300c:	d9779800 	sw	r11, r23, r19
    3010:	d8f69800 	sw	r7, r22, r19
    3014:	318cffff 	addik	r12, r12, -1
    3018:	be2cff1c 	bneid	r12, -228		// 2f34
    301c:	30630008 	addik	r3, r3, 8
    3020:	b9f4fb68 	brlid	r15, -1176	// 2b88 <isaac>
    3024:	10b30000 	addk	r5, r19, r0
    3028:	10730000 	addk	r3, r19, r0
    302c:	e9e10000 	lwi	r15, r1, 0
    3030:	ea61001c 	lwi	r19, r1, 28
    3034:	eac10020 	lwi	r22, r1, 32
    3038:	eae10024 	lwi	r23, r1, 36
    303c:	eb010028 	lwi	r24, r1, 40
    3040:	eb21002c 	lwi	r25, r1, 44
    3044:	eb410030 	lwi	r26, r1, 48
    3048:	eb610034 	lwi	r27, r1, 52
    304c:	b60f0008 	rtsd	r15, 8
    3050:	30210038 	addik	r1, r1, 56

00003054 <rand_intparts_init>:
    3054:	3021ffd4 	addik	r1, r1, -44
    3058:	fa61001c 	swi	r19, r1, 28
    305c:	fac10020 	swi	r22, r1, 32
    3060:	fae10024 	swi	r23, r1, 36
    3064:	fb010028 	swi	r24, r1, 40
    3068:	12e80000 	addk	r23, r8, r0
    306c:	13070000 	addk	r24, r7, r0
    3070:	12c90000 	addk	r22, r9, r0
    3074:	10e00000 	addk	r7, r0, r0
    3078:	11000000 	addk	r8, r0, r0
    307c:	126a0000 	addk	r19, r10, r0
    3080:	11270000 	addk	r9, r7, r0
    3084:	f9e10000 	swi	r15, r1, 0
    3088:	b9f4fd48 	brlid	r15, -696	// 2dd0 <rand_init>
    308c:	11480000 	addk	r10, r8, r0
    3090:	e8a10048 	lwi	r5, r1, 72
    3094:	fb030820 	swi	r24, r3, 2080
    3098:	fae30824 	swi	r23, r3, 2084
    309c:	f6c30828 	shi	r22, r3, 2088
    30a0:	fa63082c 	swi	r19, r3, 2092
    30a4:	f8a30830 	swi	r5, r3, 2096
    30a8:	e9e10000 	lwi	r15, r1, 0
    30ac:	ea61001c 	lwi	r19, r1, 28
    30b0:	eac10020 	lwi	r22, r1, 32
    30b4:	eae10024 	lwi	r23, r1, 36
    30b8:	eb010028 	lwi	r24, r1, 40
    30bc:	b60f0008 	rtsd	r15, 8
    30c0:	3021002c 	addik	r1, r1, 44

000030c4 <random_u32>:
    30c4:	3021ffe0 	addik	r1, r1, -32
    30c8:	fa61001c 	swi	r19, r1, 28
    30cc:	f9e10000 	swi	r15, r1, 0
    30d0:	12650000 	addk	r19, r5, r0
    30d4:	be050030 	beqid	r5, 48		// 3104
    30d8:	10650000 	addk	r3, r5, r0
    30dc:	e8650000 	lwi	r3, r5, 0
    30e0:	e8850814 	lwi	r4, r5, 2068
    30e4:	30630001 	addik	r3, r3, 1
    30e8:	16432003 	cmpu	r18, r3, r4
    30ec:	be520028 	bltid	r18, 40		// 3114
    30f0:	f8650000 	swi	r3, r5, 0
    30f4:	a46300ff 	andi	r3, r3, 255
    30f8:	30630001 	addik	r3, r3, 1
    30fc:	64630402 	bslli	r3, r3, 2
    3100:	c8639800 	lw	r3, r3, r19
    3104:	e9e10000 	lwi	r15, r1, 0
    3108:	ea61001c 	lwi	r19, r1, 28
    310c:	b60f0008 	rtsd	r15, 8
    3110:	30210020 	addik	r1, r1, 32
    3114:	b9f4fa74 	brlid	r15, -1420	// 2b88 <isaac>
    3118:	80000000 	or	r0, r0, r0
    311c:	10600000 	addk	r3, r0, r0
    3120:	b810ffd8 	brid	-40		// 30f8
    3124:	f8130000 	swi	r0, r19, 0

00003128 <random_u32_vector>:
    3128:	3021ffd4 	addik	r1, r1, -44
    312c:	fa61001c 	swi	r19, r1, 28
    3130:	b0002000 	imm	8192
    3134:	30e00000 	addik	r7, r0, 0
    3138:	b000c202 	imm	-15870
    313c:	3100a05f 	addik	r8, r0, -24481
    3140:	12650000 	addk	r19, r5, r0
    3144:	b0002000 	imm	8192
    3148:	31200000 	addik	r9, r0, 0
    314c:	b0004202 	imm	16898
    3150:	3140a05f 	addik	r10, r0, -24481
    3154:	10a60000 	addk	r5, r6, r0
    3158:	30c00100 	addik	r6, r0, 256
    315c:	f9e10000 	swi	r15, r1, 0
    3160:	fae10024 	swi	r23, r1, 36
    3164:	fb010028 	swi	r24, r1, 40
    3168:	b9f4fc68 	brlid	r15, -920	// 2dd0 <rand_init>
    316c:	fac10020 	swi	r22, r1, 32
    3170:	64b30402 	bslli	r5, r19, 2
    3174:	b0000000 	imm	0
    3178:	b9f4218c 	brlid	r15, 8588	// 5304 <malloc>
    317c:	13030000 	addk	r24, r3, r0
    3180:	be13002c 	beqid	r19, 44		// 31ac
    3184:	12e30000 	addk	r23, r3, r0
    3188:	b810000c 	brid	12		// 3194
    318c:	3273ffff 	addik	r19, r19, -1
    3190:	12640000 	addk	r19, r4, r0
    3194:	10b80000 	addk	r5, r24, r0
    3198:	b9f4ff2c 	brlid	r15, -212	// 30c4 <random_u32>
    319c:	66d30402 	bslli	r22, r19, 2
    31a0:	d876b800 	sw	r3, r22, r23
    31a4:	be33ffec 	bneid	r19, -20		// 3190
    31a8:	3093ffff 	addik	r4, r19, -1
    31ac:	b0000000 	imm	0
    31b0:	b9f42180 	brlid	r15, 8576	// 5330 <free>
    31b4:	10b80000 	addk	r5, r24, r0
    31b8:	10770000 	addk	r3, r23, r0
    31bc:	e9e10000 	lwi	r15, r1, 0
    31c0:	ea61001c 	lwi	r19, r1, 28
    31c4:	eac10020 	lwi	r22, r1, 32
    31c8:	eae10024 	lwi	r23, r1, 36
    31cc:	eb010028 	lwi	r24, r1, 40
    31d0:	b60f0008 	rtsd	r15, 8
    31d4:	3021002c 	addik	r1, r1, 44

000031d8 <random_u16>:
    31d8:	3021ffe4 	addik	r1, r1, -28
    31dc:	f9e10000 	swi	r15, r1, 0
    31e0:	b9f4fee4 	brlid	r15, -284	// 30c4 <random_u32>
    31e4:	80000000 	or	r0, r0, r0
    31e8:	e9e10000 	lwi	r15, r1, 0
    31ec:	b0000000 	imm	0
    31f0:	a463ffff 	andi	r3, r3, -1
    31f4:	b60f0008 	rtsd	r15, 8
    31f8:	3021001c 	addik	r1, r1, 28

000031fc <precise_random_f32>:
    31fc:	3021ffcc 	addik	r1, r1, -52
    3200:	fa61002c 	swi	r19, r1, 44
    3204:	f9e10000 	swi	r15, r1, 0
    3208:	fac10030 	swi	r22, r1, 48
    320c:	eac50820 	lwi	r22, r5, 2080
    3210:	12650000 	addk	r19, r5, r0
    3214:	be560018 	bltid	r22, 24		// 322c
    3218:	30600001 	addik	r3, r0, 1
    321c:	b9f4fea8 	brlid	r15, -344	// 30c4 <random_u32>
    3220:	a6d60001 	andi	r22, r22, 1
    3224:	84761800 	and	r3, r22, r3
    3228:	bc23009c 	bnei	r3, 156		// 32c4
    322c:	ead30824 	lwi	r22, r19, 2084
    3230:	f0610020 	sbi	r3, r1, 32
    3234:	be560020 	bltid	r22, 32		// 3254
    3238:	3060ffff 	addik	r3, r0, -1
    323c:	10b30000 	addk	r5, r19, r0
    3240:	b9f4fe84 	brlid	r15, -380	// 30c4 <random_u32>
    3244:	a6d60001 	andi	r22, r22, 1
    3248:	84761800 	and	r3, r22, r3
    324c:	14630000 	rsubk	r3, r3, r0
    3250:	a0630001 	ori	r3, r3, 1
    3254:	10b30000 	addk	r5, r19, r0
    3258:	b9f4fe6c 	brlid	r15, -404	// 30c4 <random_u32>
    325c:	f4610022 	shi	r3, r1, 34
    3260:	10b30000 	addk	r5, r19, r0
    3264:	e6c10022 	lhui	r22, r1, 34
    3268:	b9f4fe5c 	brlid	r15, -420	// 30c4 <random_u32>
    326c:	f8610028 	swi	r3, r1, 40
    3270:	e4b30828 	lhui	r5, r19, 2088
    3274:	e8930830 	lwi	r4, r19, 2096
    3278:	30c10020 	addik	r6, r1, 32
    327c:	84632800 	and	r3, r3, r5
    3280:	e8a10028 	lwi	r5, r1, 40
    3284:	30630001 	addik	r3, r3, 1
    3288:	40761800 	mul	r3, r22, r3
    328c:	84842800 	and	r4, r4, r5
    3290:	b0000080 	imm	128
    3294:	a0840000 	ori	r4, r4, 0
    3298:	30a1001c 	addik	r5, r1, 28
    329c:	f4610022 	shi	r3, r1, 34
    32a0:	f8810028 	swi	r4, r1, 40
    32a4:	b9f4f9d8 	brlid	r15, -1576	// 2c7c <store_sp>
    32a8:	f8010024 	swi	r0, r1, 36
    32ac:	e861001c 	lwi	r3, r1, 28
    32b0:	e9e10000 	lwi	r15, r1, 0
    32b4:	ea61002c 	lwi	r19, r1, 44
    32b8:	eac10030 	lwi	r22, r1, 48
    32bc:	b60f0008 	rtsd	r15, 8
    32c0:	30210034 	addik	r1, r1, 52
    32c4:	b810ff68 	brid	-152		// 322c
    32c8:	30600001 	addik	r3, r0, 1

000032cc <fromint_random_f32_vector>:
    32cc:	3021ffd0 	addik	r1, r1, -48
    32d0:	fae10024 	swi	r23, r1, 36
    32d4:	12e50000 	addk	r23, r5, r0
    32d8:	64a50402 	bslli	r5, r5, 2
    32dc:	fb010028 	swi	r24, r1, 40
    32e0:	fb21002c 	swi	r25, r1, 44
    32e4:	f9e10000 	swi	r15, r1, 0
    32e8:	fa61001c 	swi	r19, r1, 28
    32ec:	fac10020 	swi	r22, r1, 32
    32f0:	b0000000 	imm	0
    32f4:	b9f42010 	brlid	r15, 8208	// 5304 <malloc>
    32f8:	13260000 	addk	r25, r6, r0
    32fc:	be770028 	bleid	r23, 40		// 3324
    3300:	13030000 	addk	r24, r3, r0
    3304:	12600000 	addk	r19, r0, r0
    3308:	10b90000 	addk	r5, r25, r0
    330c:	b9f4fef0 	brlid	r15, -272	// 31fc <precise_random_f32>
    3310:	66d30402 	bslli	r22, r19, 2
    3314:	32730001 	addik	r19, r19, 1
    3318:	16579801 	cmp	r18, r23, r19
    331c:	be52ffec 	bltid	r18, -20		// 3308
    3320:	d876c000 	sw	r3, r22, r24
    3324:	10780000 	addk	r3, r24, r0
    3328:	e9e10000 	lwi	r15, r1, 0
    332c:	ea61001c 	lwi	r19, r1, 28
    3330:	eac10020 	lwi	r22, r1, 32
    3334:	eae10024 	lwi	r23, r1, 36
    3338:	eb010028 	lwi	r24, r1, 40
    333c:	eb21002c 	lwi	r25, r1, 44
    3340:	b60f0008 	rtsd	r15, 8
    3344:	30210030 	addik	r1, r1, 48

00003348 <mmemset>:
    3348:	be07001c 	beqid	r7, 28		// 3364
    334c:	10600000 	addk	r3, r0, r0
    3350:	f0c50000 	sbi	r6, r5, 0
    3354:	30630001 	addik	r3, r3, 1
    3358:	16471803 	cmpu	r18, r7, r3
    335c:	be52fff4 	bltid	r18, -12		// 3350
    3360:	30a50001 	addik	r5, r5, 1
    3364:	b60f0008 	rtsd	r15, 8
    3368:	80000000 	or	r0, r0, r0

0000336c <mmemcpy>:
    336c:	be070024 	beqid	r7, 36		// 3390
    3370:	10600000 	addk	r3, r0, r0
    3374:	e0860000 	lbui	r4, r6, 0
    3378:	30630001 	addik	r3, r3, 1
    337c:	30c60001 	addik	r6, r6, 1
    3380:	f0850000 	sbi	r4, r5, 0
    3384:	16471803 	cmpu	r18, r7, r3
    3388:	be52ffec 	bltid	r18, -20		// 3374
    338c:	30a50001 	addik	r5, r5, 1
    3390:	b60f0008 	rtsd	r15, 8
    3394:	80000000 	or	r0, r0, r0

00003398 <mexit>:
    3398:	11050000 	addk	r8, r5, r0
    339c:	b0000000 	imm	0
    33a0:	30a06be8 	addik	r5, r0, 27624
    33a4:	3021ffe4 	addik	r1, r1, -28
    33a8:	f9e10000 	swi	r15, r1, 0
    33ac:	b0000000 	imm	0
    33b0:	b9f40d7c 	brlid	r15, 3452	// 412c <xil_printf>
    33b4:	80000000 	or	r0, r0, r0
    33b8:	b0000000 	imm	0
    33bc:	b9f41f08 	brlid	r15, 7944	// 52c4 <exit>
    33c0:	30a00001 	addik	r5, r0, 1

000033c4 <verifyResults>:
    33c4:	3021ffc8 	addik	r1, r1, -56
    33c8:	fac1002c 	swi	r22, r1, 44
    33cc:	12c50000 	addk	r22, r5, r0
    33d0:	b0000000 	imm	0
    33d4:	30a06bfc 	addik	r5, r0, 27644
    33d8:	f9e10000 	swi	r15, r1, 0
    33dc:	fa610028 	swi	r19, r1, 40
    33e0:	fae10030 	swi	r23, r1, 48
    33e4:	b0000000 	imm	0
    33e8:	b9f40d44 	brlid	r15, 3396	// 412c <xil_printf>
    33ec:	fb010034 	swi	r24, r1, 52
    33f0:	e8960000 	lwi	r4, r22, 0
    33f4:	be0400b4 	beqid	r4, 180		// 34a8
    33f8:	33000001 	addik	r24, r0, 1
    33fc:	10600000 	addk	r3, r0, r0
    3400:	b8100018 	brid	24		// 3418
    3404:	12630000 	addk	r19, r3, r0
    3408:	32730001 	addik	r19, r19, 1
    340c:	16449803 	cmpu	r18, r4, r19
    3410:	beb20098 	bgeid	r18, 152		// 34a8
    3414:	10730000 	addk	r3, r19, r0
    3418:	e8d60014 	lwi	r6, r22, 20
    341c:	44b89c00 	bsll	r5, r24, r19
    3420:	84a53000 	and	r5, r5, r6
    3424:	be05ffe4 	beqid	r5, -28		// 3408
    3428:	30a30017 	addik	r5, r3, 23
    342c:	64a50402 	bslli	r5, r5, 2
    3430:	6063000c 	muli	r3, r3, 12
    3434:	30c1001c 	addik	r6, r1, 28
    3438:	10b62800 	addk	r5, r22, r5
    343c:	b000ffff 	imm	-1
    3440:	b9f4f8e4 	brlid	r15, -1820	// 2d24 <load_sp>
    3444:	32e306e8 	addik	r23, r3, 1768
    3448:	30d30199 	addik	r6, r19, 409
    344c:	64c60402 	bslli	r6, r6, 2
    3450:	6093000c 	muli	r4, r19, 12
    3454:	d806b000 	sw	r0, r6, r22
    3458:	c937b000 	lw	r9, r23, r22
    345c:	e861001c 	lwi	r3, r1, 28
    3460:	10962000 	addk	r4, r22, r4
    3464:	e9010020 	lwi	r8, r1, 32
    3468:	89291800 	xor	r9, r9, r3
    346c:	b000ffff 	imm	-1
    3470:	a52900ff 	andi	r9, r9, 255
    3474:	e8e10024 	lwi	r7, r1, 36
    3478:	30a40868 	addik	r5, r4, 2152
    347c:	be090048 	beqid	r9, 72		// 34c4
    3480:	12f6b800 	addk	r23, r22, r23
    3484:	e861001c 	lwi	r3, r1, 28
    3488:	32730001 	addik	r19, r19, 1
    348c:	f8640868 	swi	r3, r4, 2152
    3490:	e8960000 	lwi	r4, r22, 0
    3494:	f9050004 	swi	r8, r5, 4
    3498:	f8e50008 	swi	r7, r5, 8
    349c:	16449803 	cmpu	r18, r4, r19
    34a0:	be52ff78 	bltid	r18, -136		// 3418
    34a4:	10730000 	addk	r3, r19, r0
    34a8:	e9e10000 	lwi	r15, r1, 0
    34ac:	ea610028 	lwi	r19, r1, 40
    34b0:	eac1002c 	lwi	r22, r1, 44
    34b4:	eae10030 	lwi	r23, r1, 48
    34b8:	eb010034 	lwi	r24, r1, 52
    34bc:	b60f0008 	rtsd	r15, 8
    34c0:	30210038 	addik	r1, r1, 56
    34c4:	e8770004 	lwi	r3, r23, 4
    34c8:	88681800 	xor	r3, r8, r3
    34cc:	be23ffbc 	bneid	r3, -68		// 3488
    34d0:	e861001c 	lwi	r3, r1, 28
    34d4:	e8770008 	lwi	r3, r23, 8
    34d8:	88671800 	xor	r3, r7, r3
    34dc:	bc23ffa8 	bnei	r3, -88		// 3484
    34e0:	30600001 	addik	r3, r0, 1
    34e4:	b810ffa0 	brid	-96		// 3484
    34e8:	d866b000 	sw	r3, r6, r22

000034ec <freeDataBanks>:
    34ec:	3021ffe0 	addik	r1, r1, -32
    34f0:	fa61001c 	swi	r19, r1, 28
    34f4:	f9e10000 	swi	r15, r1, 0
    34f8:	12650000 	addk	r19, r5, r0
    34fc:	e8a5004c 	lwi	r5, r5, 76
    3500:	bc050010 	beqi	r5, 16		// 3510
    3504:	b0000000 	imm	0
    3508:	b9f41e28 	brlid	r15, 7720	// 5330 <free>
    350c:	80000000 	or	r0, r0, r0
    3510:	e8b30050 	lwi	r5, r19, 80
    3514:	bc050010 	beqi	r5, 16		// 3524
    3518:	b0000000 	imm	0
    351c:	b9f41e14 	brlid	r15, 7700	// 5330 <free>
    3520:	80000000 	or	r0, r0, r0
    3524:	e8b30054 	lwi	r5, r19, 84
    3528:	bc050010 	beqi	r5, 16		// 3538
    352c:	b0000000 	imm	0
    3530:	b9f41e00 	brlid	r15, 7680	// 5330 <free>
    3534:	80000000 	or	r0, r0, r0
    3538:	e8b30058 	lwi	r5, r19, 88
    353c:	bc050010 	beqi	r5, 16		// 354c
    3540:	b0000000 	imm	0
    3544:	b9f41dec 	brlid	r15, 7660	// 5330 <free>
    3548:	80000000 	or	r0, r0, r0
    354c:	e8b300dc 	lwi	r5, r19, 220
    3550:	bc050010 	beqi	r5, 16		// 3560
    3554:	b0000000 	imm	0
    3558:	b9f41dd8 	brlid	r15, 7640	// 5330 <free>
    355c:	80000000 	or	r0, r0, r0
    3560:	e8b300e0 	lwi	r5, r19, 224
    3564:	bc050010 	beqi	r5, 16		// 3574
    3568:	b0000000 	imm	0
    356c:	b9f41dc4 	brlid	r15, 7620	// 5330 <free>
    3570:	80000000 	or	r0, r0, r0
    3574:	e8b30048 	lwi	r5, r19, 72
    3578:	bc050010 	beqi	r5, 16		// 3588
    357c:	b0000000 	imm	0
    3580:	b9f41db0 	brlid	r15, 7600	// 5330 <free>
    3584:	80000000 	or	r0, r0, r0
    3588:	e8b30044 	lwi	r5, r19, 68
    358c:	be050018 	beqid	r5, 24		// 35a4
    3590:	e9e10000 	lwi	r15, r1, 0
    3594:	b0000000 	imm	0
    3598:	b9f41d98 	brlid	r15, 7576	// 5330 <free>
    359c:	80000000 	or	r0, r0, r0
    35a0:	e9e10000 	lwi	r15, r1, 0
    35a4:	ea61001c 	lwi	r19, r1, 28
    35a8:	b60f0008 	rtsd	r15, 8
    35ac:	30210020 	addik	r1, r1, 32

000035b0 <qmalloc>:
    35b0:	3021ffd8 	addik	r1, r1, -40
    35b4:	fa61001c 	swi	r19, r1, 28
    35b8:	12650000 	addk	r19, r5, r0
    35bc:	40a53000 	mul	r5, r5, r6
    35c0:	fac10020 	swi	r22, r1, 32
    35c4:	fae10024 	swi	r23, r1, 36
    35c8:	f9e10000 	swi	r15, r1, 0
    35cc:	12e70000 	addk	r23, r7, r0
    35d0:	b0000000 	imm	0
    35d4:	b9f41d30 	brlid	r15, 7472	// 5304 <malloc>
    35d8:	12c80000 	addk	r22, r8, r0
    35dc:	be03001c 	beqid	r3, 28		// 35f8
    35e0:	e9e10000 	lwi	r15, r1, 0
    35e4:	ea61001c 	lwi	r19, r1, 28
    35e8:	eac10020 	lwi	r22, r1, 32
    35ec:	eae10024 	lwi	r23, r1, 36
    35f0:	b60f0008 	rtsd	r15, 8
    35f4:	30210028 	addik	r1, r1, 40
    35f8:	bc73ffec 	blei	r19, -20		// 35e4
    35fc:	b0000000 	imm	0
    3600:	30a06c14 	addik	r5, r0, 27668
    3604:	10d70000 	addk	r6, r23, r0
    3608:	b9f4fd90 	brlid	r15, -624	// 3398 <mexit>
    360c:	10f60000 	addk	r7, r22, r0

00003610 <reinit_vec>:
    3610:	3021ffd8 	addik	r1, r1, -40
    3614:	fa61001c 	swi	r19, r1, 28
    3618:	fac10020 	swi	r22, r1, 32
    361c:	fae10024 	swi	r23, r1, 36
    3620:	f9e10000 	swi	r15, r1, 0
    3624:	12e50000 	addk	r23, r5, r0
    3628:	12c70000 	addk	r22, r7, r0
    362c:	e8a50040 	lwi	r5, r5, 64
    3630:	b000ffff 	imm	-1
    3634:	b9f4fa90 	brlid	r15, -1392	// 30c4 <random_u32>
    3638:	12660000 	addk	r19, r6, r0
    363c:	bc760034 	blei	r22, 52		// 3670
    3640:	11030000 	addk	r8, r3, r0
    3644:	e9370044 	lwi	r9, r23, 68
    3648:	10800000 	addk	r4, r0, r0
    364c:	a4a803ff 	andi	r5, r8, 1023
    3650:	64a50402 	bslli	r5, r5, 2
    3654:	65440402 	bslli	r10, r4, 2
    3658:	c8654800 	lw	r3, r5, r9
    365c:	30840001 	addik	r4, r4, 1
    3660:	31080001 	addik	r8, r8, 1
    3664:	16562001 	cmp	r18, r22, r4
    3668:	be52ffe4 	bltid	r18, -28		// 364c
    366c:	d86a9800 	sw	r3, r10, r19
    3670:	10730000 	addk	r3, r19, r0
    3674:	e9e10000 	lwi	r15, r1, 0
    3678:	ea61001c 	lwi	r19, r1, 28
    367c:	eac10020 	lwi	r22, r1, 32
    3680:	eae10024 	lwi	r23, r1, 36
    3684:	b60f0008 	rtsd	r15, 8
    3688:	30210028 	addik	r1, r1, 40

0000368c <reinit_ivec_pos>:
    368c:	3021ffd4 	addik	r1, r1, -44
    3690:	fa61001c 	swi	r19, r1, 28
    3694:	fac10020 	swi	r22, r1, 32
    3698:	fae10024 	swi	r23, r1, 36
    369c:	fb010028 	swi	r24, r1, 40
    36a0:	f9e10000 	swi	r15, r1, 0
    36a4:	13050000 	addk	r24, r5, r0
    36a8:	12670000 	addk	r19, r7, r0
    36ac:	e8a50040 	lwi	r5, r5, 64
    36b0:	12c60000 	addk	r22, r6, r0
    36b4:	b000ffff 	imm	-1
    36b8:	b9f4fa0c 	brlid	r15, -1524	// 30c4 <random_u32>
    36bc:	12e80000 	addk	r23, r8, r0
    36c0:	be730040 	bleid	r19, 64		// 3700
    36c4:	e9e10000 	lwi	r15, r1, 0
    36c8:	e8d80048 	lwi	r6, r24, 72
    36cc:	10800000 	addk	r4, r0, r0
    36d0:	a52303ff 	andi	r9, r3, 1023
    36d4:	65290402 	bslli	r9, r9, 2
    36d8:	64a40402 	bslli	r5, r4, 2
    36dc:	c9293000 	lw	r9, r9, r6
    36e0:	30840001 	addik	r4, r4, 1
    36e4:	30630001 	addik	r3, r3, 1
    36e8:	85374800 	and	r9, r23, r9
    36ec:	31290001 	addik	r9, r9, 1
    36f0:	16532001 	cmp	r18, r19, r4
    36f4:	be52ffdc 	bltid	r18, -36		// 36d0
    36f8:	d925b000 	sw	r9, r5, r22
    36fc:	e9e10000 	lwi	r15, r1, 0
    3700:	ea61001c 	lwi	r19, r1, 28
    3704:	eac10020 	lwi	r22, r1, 32
    3708:	eae10024 	lwi	r23, r1, 36
    370c:	eb010028 	lwi	r24, r1, 40
    3710:	b60f0008 	rtsd	r15, 8
    3714:	3021002c 	addik	r1, r1, 44

00003718 <reinit_ivec>:
    3718:	3021ffd4 	addik	r1, r1, -44
    371c:	fa61001c 	swi	r19, r1, 28
    3720:	fac10020 	swi	r22, r1, 32
    3724:	fae10024 	swi	r23, r1, 36
    3728:	fb010028 	swi	r24, r1, 40
    372c:	f9e10000 	swi	r15, r1, 0
    3730:	13050000 	addk	r24, r5, r0
    3734:	12670000 	addk	r19, r7, r0
    3738:	e8a50040 	lwi	r5, r5, 64
    373c:	12c60000 	addk	r22, r6, r0
    3740:	b000ffff 	imm	-1
    3744:	b9f4f980 	brlid	r15, -1664	// 30c4 <random_u32>
    3748:	12e80000 	addk	r23, r8, r0
    374c:	be73003c 	bleid	r19, 60		// 3788
    3750:	e9e10000 	lwi	r15, r1, 0
    3754:	e8d80048 	lwi	r6, r24, 72
    3758:	10800000 	addk	r4, r0, r0
    375c:	a52303ff 	andi	r9, r3, 1023
    3760:	65290402 	bslli	r9, r9, 2
    3764:	64a40402 	bslli	r5, r4, 2
    3768:	c9293000 	lw	r9, r9, r6
    376c:	30840001 	addik	r4, r4, 1
    3770:	30630001 	addik	r3, r3, 1
    3774:	8529b800 	and	r9, r9, r23
    3778:	16532001 	cmp	r18, r19, r4
    377c:	be52ffe0 	bltid	r18, -32		// 375c
    3780:	d925b000 	sw	r9, r5, r22
    3784:	e9e10000 	lwi	r15, r1, 0
    3788:	ea61001c 	lwi	r19, r1, 28
    378c:	eac10020 	lwi	r22, r1, 32
    3790:	eae10024 	lwi	r23, r1, 36
    3794:	eb010028 	lwi	r24, r1, 40
    3798:	b60f0008 	rtsd	r15, 8
    379c:	3021002c 	addik	r1, r1, 44

000037a0 <reinit_ivec_short>:
    37a0:	3021ffd4 	addik	r1, r1, -44
    37a4:	fa61001c 	swi	r19, r1, 28
    37a8:	fac10020 	swi	r22, r1, 32
    37ac:	fae10024 	swi	r23, r1, 36
    37b0:	fb010028 	swi	r24, r1, 40
    37b4:	f9e10000 	swi	r15, r1, 0
    37b8:	13050000 	addk	r24, r5, r0
    37bc:	12670000 	addk	r19, r7, r0
    37c0:	e8a50040 	lwi	r5, r5, 64
    37c4:	12c60000 	addk	r22, r6, r0
    37c8:	b000ffff 	imm	-1
    37cc:	b9f4f8f8 	brlid	r15, -1800	// 30c4 <random_u32>
    37d0:	12e80000 	addk	r23, r8, r0
    37d4:	be73003c 	bleid	r19, 60		// 3810
    37d8:	e9e10000 	lwi	r15, r1, 0
    37dc:	e8d80048 	lwi	r6, r24, 72
    37e0:	10800000 	addk	r4, r0, r0
    37e4:	a4a303ff 	andi	r5, r3, 1023
    37e8:	64a50402 	bslli	r5, r5, 2
    37ec:	c9253000 	lw	r9, r5, r6
    37f0:	10a42000 	addk	r5, r4, r4
    37f4:	30840001 	addik	r4, r4, 1
    37f8:	85374800 	and	r9, r23, r9
    37fc:	d525b000 	sh	r9, r5, r22
    3800:	16532001 	cmp	r18, r19, r4
    3804:	be52ffe0 	bltid	r18, -32		// 37e4
    3808:	30630001 	addik	r3, r3, 1
    380c:	e9e10000 	lwi	r15, r1, 0
    3810:	ea61001c 	lwi	r19, r1, 28
    3814:	eac10020 	lwi	r22, r1, 32
    3818:	eae10024 	lwi	r23, r1, 36
    381c:	eb010028 	lwi	r24, r1, 40
    3820:	b60f0008 	rtsd	r15, 8
    3824:	3021002c 	addik	r1, r1, 44

00003828 <reinit_ivec_char>:
    3828:	3021ffd4 	addik	r1, r1, -44
    382c:	fa61001c 	swi	r19, r1, 28
    3830:	fac10020 	swi	r22, r1, 32
    3834:	fae10024 	swi	r23, r1, 36
    3838:	fb010028 	swi	r24, r1, 40
    383c:	f9e10000 	swi	r15, r1, 0
    3840:	12650000 	addk	r19, r5, r0
    3844:	12c70000 	addk	r22, r7, r0
    3848:	e8a50040 	lwi	r5, r5, 64
    384c:	12e60000 	addk	r23, r6, r0
    3850:	b000ffff 	imm	-1
    3854:	b9f4f870 	brlid	r15, -1936	// 30c4 <random_u32>
    3858:	13080000 	addk	r24, r8, r0
    385c:	be760038 	bleid	r22, 56		// 3894
    3860:	e9e10000 	lwi	r15, r1, 0
    3864:	10800000 	addk	r4, r0, r0
    3868:	a4a303ff 	andi	r5, r3, 1023
    386c:	e8d30048 	lwi	r6, r19, 72
    3870:	64a50402 	bslli	r5, r5, 2
    3874:	c8a53000 	lw	r5, r5, r6
    3878:	84b82800 	and	r5, r24, r5
    387c:	d0a4b800 	sb	r5, r4, r23
    3880:	30840001 	addik	r4, r4, 1
    3884:	16562001 	cmp	r18, r22, r4
    3888:	be52ffe0 	bltid	r18, -32		// 3868
    388c:	30630001 	addik	r3, r3, 1
    3890:	e9e10000 	lwi	r15, r1, 0
    3894:	ea61001c 	lwi	r19, r1, 28
    3898:	eac10020 	lwi	r22, r1, 32
    389c:	eae10024 	lwi	r23, r1, 36
    38a0:	eb010028 	lwi	r24, r1, 40
    38a4:	b60f0008 	rtsd	r15, 8
    38a8:	3021002c 	addik	r1, r1, 44

000038ac <zero_vec>:
    38ac:	bc660020 	blei	r6, 32		// 38cc
    38b0:	10600000 	addk	r3, r0, r0
    38b4:	64830402 	bslli	r4, r3, 2
    38b8:	10e00000 	addk	r7, r0, r0
    38bc:	30630001 	addik	r3, r3, 1
    38c0:	16461801 	cmp	r18, r6, r3
    38c4:	be52fff0 	bltid	r18, -16		// 38b4
    38c8:	d8e42800 	sw	r7, r4, r5
    38cc:	b60f0008 	rtsd	r15, 8
    38d0:	80000000 	or	r0, r0, r0

000038d4 <initParameters_fromPreset>:
    38d4:	3021ffd8 	addik	r1, r1, -40
    38d8:	b000000f 	imm	15
    38dc:	3060ffff 	addik	r3, r0, -1
    38e0:	fa610020 	swi	r19, r1, 32
    38e4:	126a0000 	addk	r19, r10, r0
    38e8:	f9e10000 	swi	r15, r1, 0
    38ec:	fac10024 	swi	r22, r1, 36
    38f0:	f861001c 	swi	r3, r1, 28
    38f4:	f8f30008 	swi	r7, r19, 8
    38f8:	30e00001 	addik	r7, r0, 1
    38fc:	e8b30034 	lwi	r5, r19, 52
    3900:	f913000c 	swi	r8, r19, 12
    3904:	11070000 	addk	r8, r7, r0
    3908:	11400000 	addk	r10, r0, r0
    390c:	f8f3003c 	swi	r7, r19, 60
    3910:	f8d30004 	swi	r6, r19, 4
    3914:	f9330010 	swi	r9, r19, 16
    3918:	30c00100 	addik	r6, r0, 256
    391c:	b000ffff 	imm	-1
    3920:	b9f4f734 	brlid	r15, -2252	// 3054 <rand_intparts_init>
    3924:	3120000a 	addik	r9, r0, 10
    3928:	10c30000 	addk	r6, r3, r0
    392c:	12c30000 	addk	r22, r3, r0
    3930:	b000ffff 	imm	-1
    3934:	b9f4f998 	brlid	r15, -1640	// 32cc <fromint_random_f32_vector>
    3938:	30a00400 	addik	r5, r0, 1024
    393c:	10b60000 	addk	r5, r22, r0
    3940:	b000ffff 	imm	-1
    3944:	b9f4f46c 	brlid	r15, -2964	// 2db0 <rand_fini>
    3948:	f8730044 	swi	r3, r19, 68
    394c:	e8d30044 	lwi	r6, r19, 68
    3950:	b0003f81 	imm	16257
    3954:	314047ae 	addik	r10, r0, 18350
    3958:	b0003f7d 	imm	16253
    395c:	306070a4 	addik	r3, r0, 28836
    3960:	30a00400 	addik	r5, r0, 1024
    3964:	b8100020 	brid	32		// 3984
    3968:	10800000 	addk	r4, r0, r0
    396c:	c8e83000 	lw	r7, r8, r6
    3970:	30a5ffff 	addik	r5, r5, -1
    3974:	30840001 	addik	r4, r4, 1
    3978:	58e33880 	frsub	r7, r3, r7
    397c:	be050030 	beqid	r5, 48		// 39ac
    3980:	d8e83000 	sw	r7, r8, r6
    3984:	65040402 	bslli	r8, r4, 2
    3988:	a5240001 	andi	r9, r4, 1
    398c:	be29ffe0 	bneid	r9, -32		// 396c
    3990:	10e80000 	addk	r7, r8, r0
    3994:	c9083000 	lw	r8, r8, r6
    3998:	30a5ffff 	addik	r5, r5, -1
    399c:	30840001 	addik	r4, r4, 1
    39a0:	590a4080 	frsub	r8, r10, r8
    39a4:	be25ffe0 	bneid	r5, -32		// 3984
    39a8:	d9073000 	sw	r8, r7, r6
    39ac:	e8d30034 	lwi	r6, r19, 52
    39b0:	b000ffff 	imm	-1
    39b4:	b9f4f774 	brlid	r15, -2188	// 3128 <random_u32_vector>
    39b8:	30a00400 	addik	r5, r0, 1024
    39bc:	e8930028 	lwi	r4, r19, 40
    39c0:	f8730048 	swi	r3, r19, 72
    39c4:	e8d30030 	lwi	r6, r19, 48
    39c8:	30640001 	addik	r3, r4, 1
    39cc:	64a30402 	bslli	r5, r3, 2
    39d0:	64640403 	bslli	r3, r4, 3
    39d4:	10a53000 	addk	r5, r5, r6
    39d8:	f8730024 	swi	r3, r19, 36
    39dc:	f8930018 	swi	r4, r19, 24
    39e0:	f893001c 	swi	r4, r19, 28
    39e4:	f8b30020 	swi	r5, r19, 32
    39e8:	10730000 	addk	r3, r19, r0
    39ec:	e9e10000 	lwi	r15, r1, 0
    39f0:	ea610020 	lwi	r19, r1, 32
    39f4:	eac10024 	lwi	r22, r1, 36
    39f8:	b60f0008 	rtsd	r15, 8
    39fc:	30210028 	addik	r1, r1, 40

00003a00 <runAll>:
    3a00:	3021ffbc 	addik	r1, r1, -68
    3a04:	fa61001c 	swi	r19, r1, 28
    3a08:	f9e10000 	swi	r15, r1, 0
    3a0c:	fac10020 	swi	r22, r1, 32
    3a10:	fae10024 	swi	r23, r1, 36
    3a14:	fb010028 	swi	r24, r1, 40
    3a18:	fb21002c 	swi	r25, r1, 44
    3a1c:	fb410030 	swi	r26, r1, 48
    3a20:	fb610034 	swi	r27, r1, 52
    3a24:	fb810038 	swi	r28, r1, 56
    3a28:	fba1003c 	swi	r29, r1, 60
    3a2c:	fbc10040 	swi	r30, r1, 64
    3a30:	be0502d0 	beqid	r5, 720		// 3d00
    3a34:	12650000 	addk	r19, r5, r0
    3a38:	b0000000 	imm	0
    3a3c:	30e06c3c 	addik	r7, r0, 27708
    3a40:	30a0000a 	addik	r5, r0, 10
    3a44:	30c00004 	addik	r6, r0, 4
    3a48:	b9f4fb68 	brlid	r15, -1176	// 35b0 <qmalloc>
    3a4c:	3100008b 	addik	r8, r0, 139
    3a50:	b0000000 	imm	0
    3a54:	30e06c3c 	addik	r7, r0, 27708
    3a58:	30a0000a 	addik	r5, r0, 10
    3a5c:	30c00004 	addik	r6, r0, 4
    3a60:	3100008e 	addik	r8, r0, 142
    3a64:	b9f4fb4c 	brlid	r15, -1204	// 35b0 <qmalloc>
    3a68:	f873004c 	swi	r3, r19, 76
    3a6c:	b0000000 	imm	0
    3a70:	30e06c3c 	addik	r7, r0, 27708
    3a74:	30a0000a 	addik	r5, r0, 10
    3a78:	30c00004 	addik	r6, r0, 4
    3a7c:	31000091 	addik	r8, r0, 145
    3a80:	b9f4fb30 	brlid	r15, -1232	// 35b0 <qmalloc>
    3a84:	f8730050 	swi	r3, r19, 80
    3a88:	b0000000 	imm	0
    3a8c:	30e06c3c 	addik	r7, r0, 27708
    3a90:	30a0000a 	addik	r5, r0, 10
    3a94:	30c00004 	addik	r6, r0, 4
    3a98:	31000094 	addik	r8, r0, 148
    3a9c:	b9f4fb14 	brlid	r15, -1260	// 35b0 <qmalloc>
    3aa0:	f8730054 	swi	r3, r19, 84
    3aa4:	b0000000 	imm	0
    3aa8:	30e06c3c 	addik	r7, r0, 27708
    3aac:	30a0000a 	addik	r5, r0, 10
    3ab0:	30c00004 	addik	r6, r0, 4
    3ab4:	31000097 	addik	r8, r0, 151
    3ab8:	b9f4faf8 	brlid	r15, -1288	// 35b0 <qmalloc>
    3abc:	f8730058 	swi	r3, r19, 88
    3ac0:	b0000000 	imm	0
    3ac4:	30e06c3c 	addik	r7, r0, 27708
    3ac8:	30a0000a 	addik	r5, r0, 10
    3acc:	f87300dc 	swi	r3, r19, 220
    3ad0:	30c00004 	addik	r6, r0, 4
    3ad4:	b9f4fadc 	brlid	r15, -1316	// 35b0 <qmalloc>
    3ad8:	3100009a 	addik	r8, r0, 154
    3adc:	e8b30000 	lwi	r5, r19, 0
    3ae0:	64a50402 	bslli	r5, r5, 2
    3ae4:	be050024 	beqid	r5, 36		// 3b08
    3ae8:	f87300e0 	swi	r3, r19, 224
    3aec:	3093005c 	addik	r4, r19, 92
    3af0:	10600000 	addk	r3, r0, r0
    3af4:	f0040000 	sbi	r0, r4, 0
    3af8:	30630001 	addik	r3, r3, 1
    3afc:	16451803 	cmpu	r18, r5, r3
    3b00:	be52fff4 	bltid	r18, -12		// 3af4
    3b04:	30840001 	addik	r4, r4, 1
    3b08:	b000ffff 	imm	-1
    3b0c:	b9f4f05c 	brlid	r15, -4004	// 2b68 <getWrapTimer>
    3b10:	80000000 	or	r0, r0, r0
    3b14:	e8930000 	lwi	r4, r19, 0
    3b18:	ebb30004 	lwi	r29, r19, 4
    3b1c:	eb730008 	lwi	r27, r19, 8
    3b20:	eb93000c 	lwi	r28, r19, 12
    3b24:	be040180 	beqid	r4, 384		// 3ca4
    3b28:	ebd30010 	lwi	r30, r19, 16
    3b2c:	13000000 	addk	r24, r0, r0
    3b30:	12d80000 	addk	r22, r24, r0
    3b34:	b8100018 	brid	24		// 3b4c
    3b38:	33200001 	addik	r25, r0, 1
    3b3c:	32d60001 	addik	r22, r22, 1
    3b40:	1644b003 	cmpu	r18, r4, r22
    3b44:	beb20160 	bgeid	r18, 352		// 3ca4
    3b48:	13160000 	addk	r24, r22, r0
    3b4c:	e8b30014 	lwi	r5, r19, 20
    3b50:	4479b400 	bsll	r3, r25, r22
    3b54:	84632800 	and	r3, r3, r5
    3b58:	be03ffe4 	beqid	r3, -28		// 3b3c
    3b5c:	66f80402 	bslli	r23, r24, 2
    3b60:	b0000000 	imm	0
    3b64:	30a06c60 	addik	r5, r0, 27744
    3b68:	b0000000 	imm	0
    3b6c:	b9f405c0 	brlid	r15, 1472	// 412c <xil_printf>
    3b70:	c8d7e800 	lw	r6, r23, r29
    3b74:	c877e000 	lw	r3, r23, r28
    3b78:	99fc1800 	brald	r15, r3
    3b7c:	10b30000 	addk	r5, r19, r0
    3b80:	b000ffff 	imm	-1
    3b84:	b9f4eea0 	brlid	r15, -4448	// 2a24 <startWrapTmr>
    3b88:	80000000 	or	r0, r0, r0
    3b8c:	c877d800 	lw	r3, r23, r27
    3b90:	99fc1800 	brald	r15, r3
    3b94:	10b30000 	addk	r5, r19, r0
    3b98:	13430000 	addk	r26, r3, r0
    3b9c:	b000ffff 	imm	-1
    3ba0:	b9f4eea0 	brlid	r15, -4448	// 2a40 <stopWrapTmr>
    3ba4:	80000000 	or	r0, r0, r0
    3ba8:	c877f000 	lw	r3, r23, r30
    3bac:	99fc1800 	brald	r15, r3
    3bb0:	10b30000 	addk	r5, r19, r0
    3bb4:	e87306e4 	lwi	r3, r19, 1764
    3bb8:	30960017 	addik	r4, r22, 23
    3bbc:	64840402 	bslli	r4, r4, 2
    3bc0:	5863d000 	fadd	r3, r3, r26
    3bc4:	db449800 	sw	r26, r4, r19
    3bc8:	b000ffff 	imm	-1
    3bcc:	b9f4ef9c 	brlid	r15, -4196	// 2b68 <getWrapTimer>
    3bd0:	f87306e4 	swi	r3, r19, 1764
    3bd4:	30960039 	addik	r4, r22, 57
    3bd8:	64840402 	bslli	r4, r4, 2
    3bdc:	b000ffff 	imm	-1
    3be0:	b9f4eec0 	brlid	r15, -4416	// 2aa0 <getInjTmr>
    3be4:	d8649800 	sw	r3, r4, r19
    3be8:	30960079 	addik	r4, r22, 121
    3bec:	64840402 	bslli	r4, r4, 2
    3bf0:	b000ffff 	imm	-1
    3bf4:	b9f4ee94 	brlid	r15, -4460	// 2a88 <getRPUTmr>
    3bf8:	d8649800 	sw	r3, r4, r19
    3bfc:	309600b9 	addik	r4, r22, 185
    3c00:	64840402 	bslli	r4, r4, 2
    3c04:	b000ffff 	imm	-1
    3c08:	b9f4eee0 	brlid	r15, -4384	// 2ae8 <getIterations>
    3c0c:	d8649800 	sw	r3, r4, r19
    3c10:	30960139 	addik	r4, r22, 313
    3c14:	64840402 	bslli	r4, r4, 2
    3c18:	b000ffff 	imm	-1
    3c1c:	b9f4eefc 	brlid	r15, -4356	// 2b18 <getInjCalls>
    3c20:	d8649800 	sw	r3, r4, r19
    3c24:	309600f9 	addik	r4, r22, 249
    3c28:	64840402 	bslli	r4, r4, 2
    3c2c:	b000ffff 	imm	-1
    3c30:	b9f4eed0 	brlid	r15, -4400	// 2b00 <getRPUCalls>
    3c34:	d8649800 	sw	r3, r4, r19
    3c38:	30960119 	addik	r4, r22, 281
    3c3c:	30b80159 	addik	r5, r24, 345
    3c40:	33180179 	addik	r24, r24, 377
    3c44:	64840402 	bslli	r4, r4, 2
    3c48:	64d80402 	bslli	r6, r24, 2
    3c4c:	64a50402 	bslli	r5, r5, 2
    3c50:	10d33000 	addk	r6, r19, r6
    3c54:	10b32800 	addk	r5, r19, r5
    3c58:	b000ffff 	imm	-1
    3c5c:	b9f4eed4 	brlid	r15, -4396	// 2b30 <getPortUsage>
    3c60:	d8649800 	sw	r3, r4, r19
    3c64:	b000ffff 	imm	-1
    3c68:	b9f4ef10 	brlid	r15, -4336	// 2b78 <getWrapTimerOvf>
    3c6c:	80000000 	or	r0, r0, r0
    3c70:	30960059 	addik	r4, r22, 89
    3c74:	64840402 	bslli	r4, r4, 2
    3c78:	b000ffff 	imm	-1
    3c7c:	b9f4ee3c 	brlid	r15, -4548	// 2ab8 <getInjTmrOvf>
    3c80:	d8649800 	sw	r3, r4, r19
    3c84:	30b60099 	addik	r5, r22, 153
    3c88:	64a50402 	bslli	r5, r5, 2
    3c8c:	e8930000 	lwi	r4, r19, 0
    3c90:	32d60001 	addik	r22, r22, 1
    3c94:	d8659800 	sw	r3, r5, r19
    3c98:	1644b003 	cmpu	r18, r4, r22
    3c9c:	be52feb0 	bltid	r18, -336		// 3b4c
    3ca0:	13160000 	addk	r24, r22, r0
    3ca4:	b9f4f848 	brlid	r15, -1976	// 34ec <freeDataBanks>
    3ca8:	10b30000 	addk	r5, r19, r0
    3cac:	e873003c 	lwi	r3, r19, 60
    3cb0:	be030010 	beqid	r3, 16		// 3cc0
    3cb4:	e9e10000 	lwi	r15, r1, 0
    3cb8:	e8730038 	lwi	r3, r19, 56
    3cbc:	bc030034 	beqi	r3, 52		// 3cf0
    3cc0:	ea61001c 	lwi	r19, r1, 28
    3cc4:	eac10020 	lwi	r22, r1, 32
    3cc8:	eae10024 	lwi	r23, r1, 36
    3ccc:	eb010028 	lwi	r24, r1, 40
    3cd0:	eb21002c 	lwi	r25, r1, 44
    3cd4:	eb410030 	lwi	r26, r1, 48
    3cd8:	eb610034 	lwi	r27, r1, 52
    3cdc:	eb810038 	lwi	r28, r1, 56
    3ce0:	eba1003c 	lwi	r29, r1, 60
    3ce4:	ebc10040 	lwi	r30, r1, 64
    3ce8:	b60f0008 	rtsd	r15, 8
    3cec:	30210044 	addik	r1, r1, 68
    3cf0:	b9f4f6d4 	brlid	r15, -2348	// 33c4 <verifyResults>
    3cf4:	10b30000 	addk	r5, r19, r0
    3cf8:	b810ffc8 	brid	-56		// 3cc0
    3cfc:	e9e10000 	lwi	r15, r1, 0
    3d00:	b0000000 	imm	0
    3d04:	30a06c2c 	addik	r5, r0, 27692
    3d08:	b0000000 	imm	0
    3d0c:	30c06c3c 	addik	r6, r0, 27708
    3d10:	b9f4f688 	brlid	r15, -2424	// 3398 <mexit>
    3d14:	30e00084 	addik	r7, r0, 132	// 84 <__do_global_dtors_aux>

00003d18 <printResults>:
    3d18:	3021ff74 	addik	r1, r1, -140
    3d1c:	fac10064 	swi	r22, r1, 100
    3d20:	12c50000 	addk	r22, r5, r0
    3d24:	f9e10000 	swi	r15, r1, 0
    3d28:	fa610060 	swi	r19, r1, 96
    3d2c:	fae10068 	swi	r23, r1, 104
    3d30:	fb01006c 	swi	r24, r1, 108
    3d34:	fb210070 	swi	r25, r1, 112
    3d38:	fb410074 	swi	r26, r1, 116
    3d3c:	fb610078 	swi	r27, r1, 120
    3d40:	fb81007c 	swi	r28, r1, 124
    3d44:	fba10080 	swi	r29, r1, 128
    3d48:	fbc10084 	swi	r30, r1, 132
    3d4c:	fbe10088 	swi	r31, r1, 136
    3d50:	e8d60014 	lwi	r6, r22, 20
    3d54:	b0000000 	imm	0
    3d58:	30a06c80 	addik	r5, r0, 27776
    3d5c:	e8f60028 	lwi	r7, r22, 40
    3d60:	b0000000 	imm	0
    3d64:	b9f403c8 	brlid	r15, 968	// 412c <xil_printf>
    3d68:	e9160030 	lwi	r8, r22, 48
    3d6c:	e8d60000 	lwi	r6, r22, 0
    3d70:	be060198 	beqid	r6, 408		// 3f08
    3d74:	10600000 	addk	r3, r0, r0
    3d78:	b8100088 	brid	136		// 3e00
    3d7c:	12630000 	addk	r19, r3, r0
    3d80:	f9610028 	swi	r11, r1, 40
    3d84:	eba10058 	lwi	r29, r1, 88
    3d88:	e9610054 	lwi	r11, r1, 84
    3d8c:	fb81001c 	swi	r28, r1, 28
    3d90:	fae10020 	swi	r23, r1, 32
    3d94:	f9810024 	swi	r12, r1, 36
    3d98:	c2ebb000 	lbu	r23, r11, r22
    3d9c:	e59d0002 	lhui	r12, r29, 2
    3da0:	c164b000 	lbu	r11, r4, r22
    3da4:	92f70060 	sext8	r23, r23
    3da8:	918c0061 	sext16	r12, r12
    3dac:	e4830002 	lhui	r4, r3, 2
    3db0:	fb61002c 	swi	r27, r1, 44
    3db4:	fb410030 	swi	r26, r1, 48
    3db8:	fb210034 	swi	r25, r1, 52
    3dbc:	fb010038 	swi	r24, r1, 56
    3dc0:	fae1003c 	swi	r23, r1, 60
    3dc4:	f9810040 	swi	r12, r1, 64
    3dc8:	e99d0008 	lwi	r12, r29, 8
    3dcc:	916b0060 	sext8	r11, r11
    3dd0:	90840061 	sext16	r4, r4
    3dd4:	f9810044 	swi	r12, r1, 68
    3dd8:	f9610048 	swi	r11, r1, 72
    3ddc:	f881004c 	swi	r4, r1, 76
    3de0:	e8630008 	lwi	r3, r3, 8
    3de4:	b0000000 	imm	0
    3de8:	b9f40344 	brlid	r15, 836	// 412c <xil_printf>
    3dec:	f8610050 	swi	r3, r1, 80
    3df0:	e8d60000 	lwi	r6, r22, 0
    3df4:	16469803 	cmpu	r18, r6, r19
    3df8:	beb20110 	bgeid	r18, 272		// 3f08
    3dfc:	10730000 	addk	r3, r19, r0
    3e00:	30930199 	addik	r4, r19, 409
    3e04:	64840402 	bslli	r4, r4, 2
    3e08:	31000001 	addik	r8, r0, 1
    3e0c:	44e89c00 	bsll	r7, r8, r19
    3e10:	31130179 	addik	r8, r19, 377
    3e14:	f8810058 	swi	r4, r1, 88
    3e18:	67a80402 	bslli	r29, r8, 2
    3e1c:	6083000c 	muli	r4, r3, 12
    3e20:	e9160014 	lwi	r8, r22, 20
    3e24:	64630402 	bslli	r3, r3, 2
    3e28:	84e74000 	and	r7, r7, r8
    3e2c:	310406e8 	addik	r8, r4, 1768
    3e30:	33930039 	addik	r28, r19, 57
    3e34:	33730059 	addik	r27, r19, 89
    3e38:	33530079 	addik	r26, r19, 121
    3e3c:	33330099 	addik	r25, r19, 153
    3e40:	331300b9 	addik	r24, r19, 185
    3e44:	32f300d9 	addik	r23, r19, 217
    3e48:	31930139 	addik	r12, r19, 313
    3e4c:	31730119 	addik	r11, r19, 281
    3e50:	315300f9 	addik	r10, r19, 249
    3e54:	31330159 	addik	r9, r19, 345
    3e58:	f9010054 	swi	r8, r1, 84
    3e5c:	b0000000 	imm	0
    3e60:	30a06c9c 	addik	r5, r0, 27804
    3e64:	679c0402 	bslli	r28, r28, 2
    3e68:	677b0402 	bslli	r27, r27, 2
    3e6c:	675a0402 	bslli	r26, r26, 2
    3e70:	67390402 	bslli	r25, r25, 2
    3e74:	67180402 	bslli	r24, r24, 2
    3e78:	66f70402 	bslli	r23, r23, 2
    3e7c:	658c0402 	bslli	r12, r12, 2
    3e80:	656b0402 	bslli	r11, r11, 2
    3e84:	67ea0402 	bslli	r31, r10, 2
    3e88:	67c90402 	bslli	r30, r9, 2
    3e8c:	32730001 	addik	r19, r19, 1
    3e90:	be07ff64 	beqid	r7, -156		// 3df4
    3e94:	30840868 	addik	r4, r4, 2152
    3e98:	e8e10058 	lwi	r7, r1, 88
    3e9c:	c959b000 	lw	r10, r25, r22
    3ea0:	cb3db000 	lw	r25, r29, r22
    3ea4:	c8c7b000 	lw	r6, r7, r22
    3ea8:	e8f60004 	lwi	r7, r22, 4
    3eac:	11164000 	addk	r8, r22, r8
    3eb0:	a8c60001 	xori	r6, r6, 1
    3eb4:	f8c1005c 	swi	r6, r1, 92
    3eb8:	eba1005c 	lwi	r29, r1, 92
    3ebc:	f9010058 	swi	r8, r1, 88
    3ec0:	c8c33800 	lw	r6, r3, r7
    3ec4:	c91bb000 	lw	r8, r27, r22
    3ec8:	c8fcb000 	lw	r7, r28, r22
    3ecc:	c93ab000 	lw	r9, r26, r22
    3ed0:	cb98b000 	lw	r28, r24, r22
    3ed4:	10762000 	addk	r3, r22, r4
    3ed8:	caf7b000 	lw	r23, r23, r22
    3edc:	c98cb000 	lw	r12, r12, r22
    3ee0:	cb7fb000 	lw	r27, r31, r22
    3ee4:	cb5eb000 	lw	r26, r30, r22
    3ee8:	b0000000 	imm	0
    3eec:	33006c78 	addik	r24, r0, 27768
    3ef0:	be3dfe90 	bneid	r29, -368		// 3d80
    3ef4:	c96bb000 	lw	r11, r11, r22
    3ef8:	b0000000 	imm	0
    3efc:	33006c70 	addik	r24, r0, 27760
    3f00:	b810fe84 	brid	-380		// 3d84
    3f04:	f9610028 	swi	r11, r1, 40
    3f08:	e9e10000 	lwi	r15, r1, 0
    3f0c:	ea610060 	lwi	r19, r1, 96
    3f10:	eac10064 	lwi	r22, r1, 100
    3f14:	eae10068 	lwi	r23, r1, 104
    3f18:	eb01006c 	lwi	r24, r1, 108
    3f1c:	eb210070 	lwi	r25, r1, 112
    3f20:	eb410074 	lwi	r26, r1, 116
    3f24:	eb610078 	lwi	r27, r1, 120
    3f28:	eb81007c 	lwi	r28, r1, 124
    3f2c:	eba10080 	lwi	r29, r1, 128
    3f30:	ebc10084 	lwi	r30, r1, 132
    3f34:	ebe10088 	lwi	r31, r1, 136
    3f38:	b60f0008 	rtsd	r15, 8
    3f3c:	3021008c 	addik	r1, r1, 140

00003f40 <padding>:
    3f40:	3021ffdc 	addik	r1, r1, -36
    3f44:	14650000 	rsubk	r3, r5, r0
    3f48:	fa61001c 	swi	r19, r1, 28
    3f4c:	f9e10000 	swi	r15, r1, 0
    3f50:	fac10020 	swi	r22, r1, 32
    3f54:	80a32800 	or	r5, r3, r5
    3f58:	bea5004c 	bgeid	r5, 76		// 3fa4
    3f5c:	12660000 	addk	r19, r6, r0
    3f60:	e8660010 	lwi	r3, r6, 16
    3f64:	14830000 	rsubk	r4, r3, r0
    3f68:	80641800 	or	r3, r4, r3
    3f6c:	bea3003c 	bgeid	r3, 60		// 3fa8
    3f70:	e9e10000 	lwi	r15, r1, 0
    3f74:	eac60000 	lwi	r22, r6, 0
    3f78:	e8660004 	lwi	r3, r6, 4
    3f7c:	1643b001 	cmp	r18, r3, r22
    3f80:	bcb20028 	bgei	r18, 40		// 3fa8
    3f84:	e0b3000c 	lbui	r5, r19, 12
    3f88:	32d60001 	addik	r22, r22, 1
    3f8c:	b0000000 	imm	0
    3f90:	b9f42a18 	brlid	r15, 10776	// 69a8 <outbyte>
    3f94:	90a50060 	sext8	r5, r5
    3f98:	e8730004 	lwi	r3, r19, 4
    3f9c:	1643b001 	cmp	r18, r3, r22
    3fa0:	bc52ffe4 	blti	r18, -28		// 3f84
    3fa4:	e9e10000 	lwi	r15, r1, 0
    3fa8:	ea61001c 	lwi	r19, r1, 28
    3fac:	eac10020 	lwi	r22, r1, 32
    3fb0:	b60f0008 	rtsd	r15, 8
    3fb4:	30210024 	addik	r1, r1, 36

00003fb8 <outnum>:
    3fb8:	3021ff94 	addik	r1, r1, -108
    3fbc:	a866000a 	xori	r3, r6, 10
    3fc0:	fae10058 	swi	r23, r1, 88
    3fc4:	12e60000 	addk	r23, r6, r0
    3fc8:	b0000000 	imm	0
    3fcc:	e8c06d44 	lwi	r6, r0, 27972
    3fd0:	14830000 	rsubk	r4, r3, r0
    3fd4:	fb410064 	swi	r26, r1, 100
    3fd8:	f8c1001c 	swi	r6, r1, 28
    3fdc:	b0000000 	imm	0
    3fe0:	e8c06d48 	lwi	r6, r0, 27976
    3fe4:	f9e10000 	swi	r15, r1, 0
    3fe8:	fa610050 	swi	r19, r1, 80
    3fec:	f8c10020 	swi	r6, r1, 32
    3ff0:	b0000000 	imm	0
    3ff4:	e8c06d4c 	lwi	r6, r0, 27980
    3ff8:	fac10054 	swi	r22, r1, 84
    3ffc:	fb01005c 	swi	r24, r1, 92
    4000:	f8c10024 	swi	r6, r1, 36
    4004:	b0000000 	imm	0
    4008:	e8c06d50 	lwi	r6, r0, 27984
    400c:	fb210060 	swi	r25, r1, 96
    4010:	fb610068 	swi	r27, r1, 104
    4014:	f8c10028 	swi	r6, r1, 40
    4018:	b0000000 	imm	0
    401c:	e0c06d54 	lbui	r6, r0, 27988
    4020:	80641800 	or	r3, r4, r3
    4024:	13470000 	addk	r26, r7, r0
    4028:	be43000c 	bltid	r3, 12		// 4034
    402c:	f0c1002c 	sbi	r6, r1, 44
    4030:	bc4500f0 	blti	r5, 240		// 4120
    4034:	12650000 	addk	r19, r5, r0
    4038:	13600000 	addk	r27, r0, r0
    403c:	33210030 	addik	r25, r1, 48
    4040:	b810000c 	brid	12		// 404c
    4044:	12d90000 	addk	r22, r25, r0
    4048:	12d80000 	addk	r22, r24, r0
    404c:	10b30000 	addk	r5, r19, r0
    4050:	10d70000 	addk	r6, r23, r0
    4054:	b0000000 	imm	0
    4058:	b9f40b3c 	brlid	r15, 2876	// 4b94 <__umodsi3>
    405c:	33160001 	addik	r24, r22, 1
    4060:	10611800 	addk	r3, r1, r3
    4064:	e063001c 	lbui	r3, r3, 28
    4068:	10b30000 	addk	r5, r19, r0
    406c:	10d70000 	addk	r6, r23, r0
    4070:	b0000000 	imm	0
    4074:	b9f40a78 	brlid	r15, 2680	// 4aec <__udivsi3>
    4078:	f0760000 	sbi	r3, r22, 0
    407c:	be23ffcc 	bneid	r3, -52		// 4048
    4080:	12630000 	addk	r19, r3, r0
    4084:	be1b0010 	beqid	r27, 16		// 4094
    4088:	3060002d 	addik	r3, r0, 45
    408c:	f0760001 	sbi	r3, r22, 1
    4090:	33160002 	addik	r24, r22, 2
    4094:	10b90000 	addk	r5, r25, r0
    4098:	f0180000 	sbi	r0, r24, 0
    409c:	b0000000 	imm	0
    40a0:	b9f41bc8 	brlid	r15, 7112	// 5c68 <strlen>
    40a4:	3278ffff 	addik	r19, r24, -1
    40a8:	e89a0014 	lwi	r4, r26, 20
    40ac:	10da0000 	addk	r6, r26, r0
    40b0:	f87a0000 	swi	r3, r26, 0
    40b4:	14a40000 	rsubk	r5, r4, r0
    40b8:	80a52000 	or	r5, r5, r4
    40bc:	a8a5ffff 	xori	r5, r5, -1
    40c0:	b9f4fe80 	brlid	r15, -384	// 3f40 <padding>
    40c4:	64a5001f 	bsrli	r5, r5, 31
    40c8:	16599803 	cmpu	r18, r25, r19
    40cc:	bc520020 	blti	r18, 32		// 40ec
    40d0:	e0b30000 	lbui	r5, r19, 0
    40d4:	3273ffff 	addik	r19, r19, -1
    40d8:	b0000000 	imm	0
    40dc:	b9f428cc 	brlid	r15, 10444	// 69a8 <outbyte>
    40e0:	90a50060 	sext8	r5, r5
    40e4:	16599803 	cmpu	r18, r25, r19
    40e8:	bcb2ffe8 	bgei	r18, -24		// 40d0
    40ec:	e8ba0014 	lwi	r5, r26, 20
    40f0:	b9f4fe50 	brlid	r15, -432	// 3f40 <padding>
    40f4:	10da0000 	addk	r6, r26, r0
    40f8:	e9e10000 	lwi	r15, r1, 0
    40fc:	ea610050 	lwi	r19, r1, 80
    4100:	eac10054 	lwi	r22, r1, 84
    4104:	eae10058 	lwi	r23, r1, 88
    4108:	eb01005c 	lwi	r24, r1, 92
    410c:	eb210060 	lwi	r25, r1, 96
    4110:	eb410064 	lwi	r26, r1, 100
    4114:	eb610068 	lwi	r27, r1, 104
    4118:	b60f0008 	rtsd	r15, 8
    411c:	3021006c 	addik	r1, r1, 108
    4120:	16650000 	rsubk	r19, r5, r0
    4124:	b810ff18 	brid	-232		// 403c
    4128:	33600001 	addik	r27, r0, 1

0000412c <xil_printf>:
    412c:	f8a10004 	swi	r5, r1, 4
    4130:	f8c10008 	swi	r6, r1, 8
    4134:	f8e1000c 	swi	r7, r1, 12
    4138:	f9010010 	swi	r8, r1, 16
    413c:	f9210014 	swi	r9, r1, 20
    4140:	f9410018 	swi	r10, r1, 24
    4144:	3021ffb0 	addik	r1, r1, -80
    4148:	fac10038 	swi	r22, r1, 56
    414c:	fb010040 	swi	r24, r1, 64
    4150:	f9e10000 	swi	r15, r1, 0
    4154:	fa610034 	swi	r19, r1, 52
    4158:	fae1003c 	swi	r23, r1, 60
    415c:	fb210044 	swi	r25, r1, 68
    4160:	fb410048 	swi	r26, r1, 72
    4164:	fb61004c 	swi	r27, r1, 76
    4168:	12c50000 	addk	r22, r5, r0
    416c:	e0a50000 	lbui	r5, r5, 0
    4170:	90a50060 	sext8	r5, r5
    4174:	be050120 	beqid	r5, 288		// 4294
    4178:	33010058 	addik	r24, r1, 88
    417c:	33400053 	addik	r26, r0, 83
    4180:	b8100024 	brid	36		// 41a4
    4184:	33600068 	addik	r27, r0, 104
    4188:	b0000000 	imm	0
    418c:	b9f4281c 	brlid	r15, 10268	// 69a8 <outbyte>
    4190:	12760000 	addk	r19, r22, r0
    4194:	e0b30001 	lbui	r5, r19, 1
    4198:	90a50060 	sext8	r5, r5
    419c:	be0500f8 	beqid	r5, 248		// 4294
    41a0:	32d30001 	addik	r22, r19, 1
    41a4:	a8650025 	xori	r3, r5, 37
    41a8:	be23ffe0 	bneid	r3, -32		// 4188
    41ac:	12e30000 	addk	r23, r3, r0
    41b0:	e0b60001 	lbui	r5, r22, 1
    41b4:	b0000000 	imm	0
    41b8:	e88072f4 	lwi	r4, r0, 29428	// 72f4 <__ctype_ptr__>
    41bc:	f861002c 	swi	r3, r1, 44
    41c0:	f8610030 	swi	r3, r1, 48
    41c4:	30600020 	addik	r3, r0, 32	// 20 <_vector_hw_exception>
    41c8:	90a50060 	sext8	r5, r5
    41cc:	f0610028 	sbi	r3, r1, 40
    41d0:	30607fff 	addik	r3, r0, 32767
    41d4:	f8610024 	swi	r3, r1, 36
    41d8:	10642800 	addk	r3, r4, r5
    41dc:	e0630001 	lbui	r3, r3, 1
    41e0:	a4c30004 	andi	r6, r3, 4
    41e4:	be06005c 	beqid	r6, 92		// 4240
    41e8:	32760001 	addik	r19, r22, 1
    41ec:	be17022c 	beqid	r23, 556		// 4418
    41f0:	a8650030 	xori	r3, r5, 48
    41f4:	10c00000 	addk	r6, r0, r0
    41f8:	e0730001 	lbui	r3, r19, 1
    41fc:	3105ffd0 	addik	r8, r5, -48
    4200:	65260402 	bslli	r9, r6, 2
    4204:	90a30060 	sext8	r5, r3
    4208:	10642800 	addk	r3, r4, r5
    420c:	e0e30001 	lbui	r7, r3, 1
    4210:	10c93000 	addk	r6, r9, r6
    4214:	10c63000 	addk	r6, r6, r6
    4218:	a4e70004 	andi	r7, r7, 4
    421c:	10c64000 	addk	r6, r6, r8
    4220:	be27ffd8 	bneid	r7, -40		// 41f8
    4224:	32730001 	addik	r19, r19, 1
    4228:	f8c10024 	swi	r6, r1, 36
    422c:	32d3ffff 	addik	r22, r19, -1
    4230:	e0630001 	lbui	r3, r3, 1
    4234:	a4c30004 	andi	r6, r3, 4
    4238:	be26ffb4 	bneid	r6, -76		// 41ec
    423c:	32760001 	addik	r19, r22, 1
    4240:	a4630003 	andi	r3, r3, 3
    4244:	a8c30001 	xori	r6, r3, 1
    4248:	be060240 	beqid	r6, 576		// 4488
    424c:	10650000 	addk	r3, r5, r0
    4250:	3063ffdb 	addik	r3, r3, -37
    4254:	1643d003 	cmpu	r18, r3, r26
    4258:	be52ff3c 	bltid	r18, -196		// 4194
    425c:	64630402 	bslli	r3, r3, 2
    4260:	b0000000 	imm	0
    4264:	30636d58 	addik	r3, r3, 27992
    4268:	e8630000 	lwi	r3, r3, 0
    426c:	98081800 	bra	r3
    4270:	e8b80000 	lwi	r5, r24, 0
    4274:	30c00010 	addik	r6, r0, 16	// 10 <_vector_interrupt>
    4278:	30e1001c 	addik	r7, r1, 28
    427c:	b9f4fd3c 	brlid	r15, -708	// 3fb8 <outnum>
    4280:	33180004 	addik	r24, r24, 4
    4284:	e0b30001 	lbui	r5, r19, 1
    4288:	90a50060 	sext8	r5, r5
    428c:	be25ff18 	bneid	r5, -232		// 41a4
    4290:	32d30001 	addik	r22, r19, 1
    4294:	e9e10000 	lwi	r15, r1, 0
    4298:	ea610034 	lwi	r19, r1, 52
    429c:	eac10038 	lwi	r22, r1, 56
    42a0:	eae1003c 	lwi	r23, r1, 60
    42a4:	eb010040 	lwi	r24, r1, 64
    42a8:	eb210044 	lwi	r25, r1, 68
    42ac:	eb410048 	lwi	r26, r1, 72
    42b0:	eb61004c 	lwi	r27, r1, 76
    42b4:	b60f0008 	rtsd	r15, 8
    42b8:	30210050 	addik	r1, r1, 80
    42bc:	ead80000 	lwi	r22, r24, 0
    42c0:	33180004 	addik	r24, r24, 4
    42c4:	b0000000 	imm	0
    42c8:	b9f419a0 	brlid	r15, 6560	// 5c68 <strlen>
    42cc:	10b60000 	addk	r5, r22, r0
    42d0:	e8810030 	lwi	r4, r1, 48
    42d4:	30c1001c 	addik	r6, r1, 28
    42d8:	f861001c 	swi	r3, r1, 28
    42dc:	14a40000 	rsubk	r5, r4, r0
    42e0:	80a52000 	or	r5, r5, r4
    42e4:	a8a5ffff 	xori	r5, r5, -1
    42e8:	b9f4fc58 	brlid	r15, -936	// 3f40 <padding>
    42ec:	64a5001f 	bsrli	r5, r5, 31
    42f0:	e0760000 	lbui	r3, r22, 0
    42f4:	be03004c 	beqid	r3, 76		// 4340
    42f8:	e8610024 	lwi	r3, r1, 36
    42fc:	3083ffff 	addik	r4, r3, -1
    4300:	be230020 	bneid	r3, 32		// 4320
    4304:	f8810024 	swi	r4, r1, 36
    4308:	b810003c 	brid	60		// 4344
    430c:	e8a10030 	lwi	r5, r1, 48
    4310:	3083ffff 	addik	r4, r3, -1
    4314:	be03002c 	beqid	r3, 44		// 4340
    4318:	f8810024 	swi	r4, r1, 36
    431c:	12d70000 	addk	r22, r23, r0
    4320:	e0b60000 	lbui	r5, r22, 0
    4324:	32f60001 	addik	r23, r22, 1
    4328:	b0000000 	imm	0
    432c:	b9f4267c 	brlid	r15, 9852	// 69a8 <outbyte>
    4330:	90a50060 	sext8	r5, r5
    4334:	e0760001 	lbui	r3, r22, 1
    4338:	be23ffd8 	bneid	r3, -40		// 4310
    433c:	e8610024 	lwi	r3, r1, 36
    4340:	e8a10030 	lwi	r5, r1, 48
    4344:	b9f4fbfc 	brlid	r15, -1028	// 3f40 <padding>
    4348:	30c1001c 	addik	r6, r1, 28
    434c:	b810fe4c 	brid	-436		// 4198
    4350:	e0b30001 	lbui	r5, r19, 1
    4354:	e0b60002 	lbui	r5, r22, 2
    4358:	12d30000 	addk	r22, r19, r0
    435c:	90a50060 	sext8	r5, r5
    4360:	b810fe7c 	brid	-388		// 41dc
    4364:	10642800 	addk	r3, r4, r5
    4368:	e8b80000 	lwi	r5, r24, 0
    436c:	30c0000a 	addik	r6, r0, 10
    4370:	30e1001c 	addik	r7, r1, 28
    4374:	b9f4fc44 	brlid	r15, -956	// 3fb8 <outnum>
    4378:	33180004 	addik	r24, r24, 4
    437c:	b810ff0c 	brid	-244		// 4288
    4380:	e0b30001 	lbui	r5, r19, 1
    4384:	e8b80000 	lwi	r5, r24, 0
    4388:	33180004 	addik	r24, r24, 4
    438c:	b0000000 	imm	0
    4390:	b9f42618 	brlid	r15, 9752	// 69a8 <outbyte>
    4394:	90a50060 	sext8	r5, r5
    4398:	b810fe00 	brid	-512		// 4198
    439c:	e0b30001 	lbui	r5, r19, 1
    43a0:	a8650068 	xori	r3, r5, 104
    43a4:	bc230124 	bnei	r3, 292		// 44c8
    43a8:	b0000000 	imm	0
    43ac:	b9f425fc 	brlid	r15, 9724	// 69a8 <outbyte>
    43b0:	30a00008 	addik	r5, r0, 8	// 8 <_vector_sw_exception>
    43b4:	e0b60003 	lbui	r5, r22, 3
    43b8:	b0000000 	imm	0
    43bc:	e88072f4 	lwi	r4, r0, 29428	// 72f4 <__ctype_ptr__>
    43c0:	32d60002 	addik	r22, r22, 2
    43c4:	90a50060 	sext8	r5, r5
    43c8:	b810fe14 	brid	-492		// 41dc
    43cc:	10642800 	addk	r3, r4, r5
    43d0:	e0b60002 	lbui	r5, r22, 2
    43d4:	32e00001 	addik	r23, r0, 1
    43d8:	12d30000 	addk	r22, r19, r0
    43dc:	90a50060 	sext8	r5, r5
    43e0:	b810fdfc 	brid	-516		// 41dc
    43e4:	10642800 	addk	r3, r4, r5
    43e8:	e0b60002 	lbui	r5, r22, 2
    43ec:	30600001 	addik	r3, r0, 1
    43f0:	f8610030 	swi	r3, r1, 48
    43f4:	90a50060 	sext8	r5, r5
    43f8:	12d30000 	addk	r22, r19, r0
    43fc:	b810fde0 	brid	-544		// 41dc
    4400:	10642800 	addk	r3, r4, r5
    4404:	b0000000 	imm	0
    4408:	b9f425a0 	brlid	r15, 9632	// 69a8 <outbyte>
    440c:	30a00025 	addik	r5, r0, 37
    4410:	b810fd88 	brid	-632		// 4198
    4414:	e0b30001 	lbui	r5, r19, 1
    4418:	be030078 	beqid	r3, 120		// 4490
    441c:	30600030 	addik	r3, r0, 48
    4420:	e0760001 	lbui	r3, r22, 1
    4424:	90630060 	sext8	r3, r3
    4428:	10c41800 	addk	r6, r4, r3
    442c:	e0c60001 	lbui	r6, r6, 1
    4430:	a4c60004 	andi	r6, r6, 4
    4434:	bc060078 	beqi	r6, 120		// 44ac
    4438:	10c00000 	addk	r6, r0, r0
    443c:	e0b30001 	lbui	r5, r19, 1
    4440:	30e3ffd0 	addik	r7, r3, -48
    4444:	65060402 	bslli	r8, r6, 2
    4448:	90650060 	sext8	r3, r5
    444c:	10a41800 	addk	r5, r4, r3
    4450:	e0a50001 	lbui	r5, r5, 1
    4454:	10c83000 	addk	r6, r8, r6
    4458:	10c63000 	addk	r6, r6, r6
    445c:	a4a50004 	andi	r5, r5, 4
    4460:	10c63800 	addk	r6, r6, r7
    4464:	be25ffd8 	bneid	r5, -40		// 443c
    4468:	32730001 	addik	r19, r19, 1
    446c:	10a30000 	addk	r5, r3, r0
    4470:	30600001 	addik	r3, r0, 1
    4474:	f861002c 	swi	r3, r1, 44
    4478:	f8c10020 	swi	r6, r1, 32
    447c:	10642800 	addk	r3, r4, r5
    4480:	b810fdb0 	brid	-592		// 4230
    4484:	32d3ffff 	addik	r22, r19, -1
    4488:	b810fdc8 	brid	-568		// 4250
    448c:	30650020 	addik	r3, r5, 32
    4490:	f0610028 	sbi	r3, r1, 40
    4494:	e0760001 	lbui	r3, r22, 1
    4498:	90630060 	sext8	r3, r3
    449c:	10c41800 	addk	r6, r4, r3
    44a0:	e0c60001 	lbui	r6, r6, 1
    44a4:	a4c60004 	andi	r6, r6, 4
    44a8:	bc26ff90 	bnei	r6, -112		// 4438
    44ac:	10650000 	addk	r3, r5, r0
    44b0:	f8c10020 	swi	r6, r1, 32
    44b4:	10a30000 	addk	r5, r3, r0
    44b8:	30600001 	addik	r3, r0, 1
    44bc:	f861002c 	swi	r3, r1, 44
    44c0:	b810ffc0 	brid	-64		// 4480
    44c4:	10642800 	addk	r3, r4, r5
    44c8:	1645d801 	cmp	r18, r5, r27
    44cc:	be520024 	bltid	r18, 36		// 44f0
    44d0:	a865006e 	xori	r3, r5, 110
    44d4:	a8650061 	xori	r3, r5, 97
    44d8:	bc230038 	bnei	r3, 56		// 4510
    44dc:	b0000000 	imm	0
    44e0:	b9f424c8 	brlid	r15, 9416	// 69a8 <outbyte>
    44e4:	30a00007 	addik	r5, r0, 7
    44e8:	b810fed0 	brid	-304		// 43b8
    44ec:	e0b60003 	lbui	r5, r22, 3
    44f0:	bc030034 	beqi	r3, 52		// 4524
    44f4:	a8650072 	xori	r3, r5, 114
    44f8:	bc230018 	bnei	r3, 24		// 4510
    44fc:	b0000000 	imm	0
    4500:	b9f424a8 	brlid	r15, 9384	// 69a8 <outbyte>
    4504:	30a0000d 	addik	r5, r0, 13
    4508:	b810feb0 	brid	-336		// 43b8
    450c:	e0b60003 	lbui	r5, r22, 3
    4510:	b0000000 	imm	0
    4514:	b9f42494 	brlid	r15, 9364	// 69a8 <outbyte>
    4518:	80000000 	or	r0, r0, r0
    451c:	b810fe9c 	brid	-356		// 43b8
    4520:	e0b60003 	lbui	r5, r22, 3
    4524:	b0000000 	imm	0
    4528:	b9f42480 	brlid	r15, 9344	// 69a8 <outbyte>
    452c:	30a0000d 	addik	r5, r0, 13
    4530:	b0000000 	imm	0
    4534:	b9f42474 	brlid	r15, 9332	// 69a8 <outbyte>
    4538:	30a0000a 	addik	r5, r0, 10
    453c:	b810fe7c 	brid	-388		// 43b8
    4540:	e0b60003 	lbui	r5, r22, 3

00004544 <_exception_handler>:
    4544:	216b0008 	addi	r11, r11, 8
    4548:	98085800 	bra	r11

0000454c <_program_clean>:
    454c:	b60f0008 	rtsd	r15, 8
    4550:	80000000 	or	r0, r0, r0

00004554 <_program_init>:
    4554:	b60f0008 	rtsd	r15, 8
    4558:	80000000 	or	r0, r0, r0

0000455c <_hw_exception_handler>:
    455c:	b8000000 	bri	0	// 455c <_hw_exception_handler>

00004560 <_fpadd_parts>:
    4560:	3021ffe4 	addik	r1, r1, -28
    4564:	fac10004 	swi	r22, r1, 4
    4568:	fae10008 	swi	r23, r1, 8
    456c:	fb01000c 	swi	r24, r1, 12
    4570:	fb210010 	swi	r25, r1, 16
    4574:	fb410014 	swi	r26, r1, 20
    4578:	fb610018 	swi	r27, r1, 24
    457c:	e8850000 	lwi	r4, r5, 0
    4580:	31200001 	addik	r9, r0, 1
    4584:	10650000 	addk	r3, r5, r0
    4588:	16444803 	cmpu	r18, r4, r9
    458c:	beb20108 	bgeid	r18, 264		// 4694
    4590:	11070000 	addk	r8, r7, r0
    4594:	e8a60000 	lwi	r5, r6, 0
    4598:	16454803 	cmpu	r18, r5, r9
    459c:	beb202f4 	bgeid	r18, 756		// 4890
    45a0:	a8e40004 	xori	r7, r4, 4
    45a4:	be0703b0 	beqid	r7, 944		// 4954
    45a8:	a8e50004 	xori	r7, r5, 4
    45ac:	be0702e4 	beqid	r7, 740		// 4890
    45b0:	a8a50002 	xori	r5, r5, 2
    45b4:	be050228 	beqid	r5, 552		// 47dc
    45b8:	a8a40002 	xori	r5, r4, 2
    45bc:	a8840002 	xori	r4, r4, 2
    45c0:	be0402d0 	beqid	r4, 720		// 4890
    45c4:	3180003f 	addik	r12, r0, 63
    45c8:	e8e30008 	lwi	r7, r3, 8
    45cc:	e9260008 	lwi	r9, r6, 8
    45d0:	eac3000c 	lwi	r22, r3, 12
    45d4:	eae30010 	lwi	r23, r3, 16
    45d8:	14893800 	rsubk	r4, r9, r7
    45dc:	6544021f 	bsrai	r10, r4, 31
    45e0:	88aa2000 	xor	r5, r10, r4
    45e4:	14aa2800 	rsubk	r5, r10, r5
    45e8:	e946000c 	lwi	r10, r6, 12
    45ec:	e9660010 	lwi	r11, r6, 16
    45f0:	16456001 	cmp	r18, r5, r12
    45f4:	bc5200c0 	blti	r18, 192		// 46b4
    45f8:	bc6402bc 	blei	r4, 700		// 48b4
    45fc:	a4850020 	andi	r4, r5, 32
    4600:	be040230 	beqid	r4, 560		// 4830
    4604:	118b5800 	addk	r12, r11, r11
    4608:	13200000 	addk	r25, r0, r0
    460c:	30800001 	addik	r4, r0, 1
    4610:	13590000 	addk	r26, r25, r0
    4614:	470b2800 	bsrl	r24, r11, r5
    4618:	47642c00 	bsll	r27, r4, r5
    461c:	30a0ffff 	addik	r5, r0, -1
    4620:	3080ffff 	addik	r4, r0, -1
    4624:	035a2000 	add	r26, r26, r4
    4628:	0b7b2800 	addc	r27, r27, r5
    462c:	857b5800 	and	r11, r27, r11
    4630:	855a5000 	and	r10, r26, r10
    4634:	814a5800 	or	r10, r10, r11
    4638:	148a0000 	rsubk	r4, r10, r0
    463c:	80845000 	or	r4, r4, r10
    4640:	6544001f 	bsrli	r10, r4, 31
    4644:	e8630004 	lwi	r3, r3, 4
    4648:	e8860004 	lwi	r4, r6, 4
    464c:	11600000 	addk	r11, r0, r0
    4650:	814ac000 	or	r10, r10, r24
    4654:	88832000 	xor	r4, r3, r4
    4658:	be240080 	bneid	r4, 128		// 46d8
    465c:	816bc800 	or	r11, r11, r25
    4660:	f8680004 	swi	r3, r8, 4
    4664:	30600003 	addik	r3, r0, 3
    4668:	f8680000 	swi	r3, r8, 0
    466c:	b0001fff 	imm	8191
    4670:	3060ffff 	addik	r3, r0, -1
    4674:	008ab000 	add	r4, r10, r22
    4678:	08abb800 	addc	r5, r11, r23
    467c:	f8e80008 	swi	r7, r8, 8
    4680:	f888000c 	swi	r4, r8, 12
    4684:	f8a80010 	swi	r5, r8, 16
    4688:	16451803 	cmpu	r18, r5, r3
    468c:	bc52010c 	blti	r18, 268		// 4798
    4690:	10680000 	addk	r3, r8, r0
    4694:	eac10004 	lwi	r22, r1, 4
    4698:	eae10008 	lwi	r23, r1, 8
    469c:	eb01000c 	lwi	r24, r1, 12
    46a0:	eb210010 	lwi	r25, r1, 16
    46a4:	eb410014 	lwi	r26, r1, 20
    46a8:	eb610018 	lwi	r27, r1, 24
    46ac:	b60f0008 	rtsd	r15, 8
    46b0:	3021001c 	addik	r1, r1, 28
    46b4:	16474801 	cmp	r18, r7, r9
    46b8:	bc520168 	blti	r18, 360		// 4820
    46bc:	10e90000 	addk	r7, r9, r0
    46c0:	32e00000 	addik	r23, r0, 0
    46c4:	32c00000 	addik	r22, r0, 0
    46c8:	e8630004 	lwi	r3, r3, 4
    46cc:	e8860004 	lwi	r4, r6, 4
    46d0:	88832000 	xor	r4, r3, r4
    46d4:	bc04ff8c 	beqi	r4, -116		// 4660
    46d8:	bc03018c 	beqi	r3, 396		// 4864
    46dc:	04965000 	rsub	r4, r22, r10
    46e0:	0cb75800 	rsubc	r5, r23, r11
    46e4:	be450190 	bltid	r5, 400		// 4874
    46e8:	30600001 	addik	r3, r0, 1
    46ec:	f8080004 	swi	r0, r8, 4
    46f0:	f8e80008 	swi	r7, r8, 8
    46f4:	f888000c 	swi	r4, r8, 12
    46f8:	f8a80010 	swi	r5, r8, 16
    46fc:	b0000fff 	imm	4095
    4700:	3060ffff 	addik	r3, r0, -1
    4704:	30e0ffff 	addik	r7, r0, -1
    4708:	30c0ffff 	addik	r6, r0, -1
    470c:	00c43000 	add	r6, r4, r6
    4710:	08e53800 	addc	r7, r5, r7
    4714:	16471803 	cmpu	r18, r7, r3
    4718:	be520068 	bltid	r18, 104		// 4780
    471c:	88671800 	xor	r3, r7, r3
    4720:	bc0301f4 	beqi	r3, 500		// 4914
    4724:	e8680008 	lwi	r3, r8, 8
    4728:	b0000fff 	imm	4095
    472c:	3180ffff 	addik	r12, r0, -1
    4730:	3160ffff 	addik	r11, r0, -1
    4734:	3140ffff 	addik	r10, r0, -1
    4738:	b810000c 	brid	12		// 4744
    473c:	32c0fffe 	addik	r22, r0, -2
    4740:	bc090114 	beqi	r9, 276		// 4854
    4744:	11242000 	addk	r9, r4, r4
    4748:	64e4001f 	bsrli	r7, r4, 31
    474c:	10890000 	addk	r4, r9, r0
    4750:	10c52800 	addk	r6, r5, r5
    4754:	80a73000 	or	r5, r7, r6
    4758:	00c45000 	add	r6, r4, r10
    475c:	08e55800 	addc	r7, r5, r11
    4760:	b0000fff 	imm	4095
    4764:	a927ffff 	xori	r9, r7, -1
    4768:	16476003 	cmpu	r18, r7, r12
    476c:	beb2ffd4 	bgeid	r18, -44		// 4740
    4770:	3063ffff 	addik	r3, r3, -1
    4774:	f888000c 	swi	r4, r8, 12
    4778:	f8a80010 	swi	r5, r8, 16
    477c:	f8680008 	swi	r3, r8, 8
    4780:	30600003 	addik	r3, r0, 3
    4784:	f8680000 	swi	r3, r8, 0
    4788:	b0001fff 	imm	8191
    478c:	3060ffff 	addik	r3, r0, -1
    4790:	16451803 	cmpu	r18, r5, r3
    4794:	bcb2fefc 	bgei	r18, -260		// 4690
    4798:	e8680008 	lwi	r3, r8, 8
    479c:	6525041f 	bslli	r9, r5, 31
    47a0:	31600000 	addik	r11, r0, 0
    47a4:	31400001 	addik	r10, r0, 1
    47a8:	90c40041 	srl	r6, r4
    47ac:	80c93000 	or	r6, r9, r6
    47b0:	85445000 	and	r10, r4, r10
    47b4:	85655800 	and	r11, r5, r11
    47b8:	90e50041 	srl	r7, r5
    47bc:	30630001 	addik	r3, r3, 1
    47c0:	80ca3000 	or	r6, r10, r6
    47c4:	80eb3800 	or	r7, r11, r7
    47c8:	f8680008 	swi	r3, r8, 8
    47cc:	f8c8000c 	swi	r6, r8, 12
    47d0:	f8e80010 	swi	r7, r8, 16
    47d4:	b810fec0 	brid	-320		// 4694
    47d8:	10680000 	addk	r3, r8, r0
    47dc:	be25febc 	bneid	r5, -324		// 4698
    47e0:	eac10004 	lwi	r22, r1, 4
    47e4:	e9430004 	lwi	r10, r3, 4
    47e8:	e9230008 	lwi	r9, r3, 8
    47ec:	e8e3000c 	lwi	r7, r3, 12
    47f0:	e8a30010 	lwi	r5, r3, 16
    47f4:	f9480004 	swi	r10, r8, 4
    47f8:	f8880000 	swi	r4, r8, 0
    47fc:	e8630004 	lwi	r3, r3, 4
    4800:	e8860004 	lwi	r4, r6, 4
    4804:	f9280008 	swi	r9, r8, 8
    4808:	f8e8000c 	swi	r7, r8, 12
    480c:	84641800 	and	r3, r4, r3
    4810:	f8680004 	swi	r3, r8, 4
    4814:	f8a80010 	swi	r5, r8, 16
    4818:	b810fe7c 	brid	-388		// 4694
    481c:	10680000 	addk	r3, r8, r0
    4820:	31600000 	addik	r11, r0, 0
    4824:	31400000 	addik	r10, r0, 0
    4828:	b810fea4 	brid	-348		// 46cc
    482c:	e8630004 	lwi	r3, r3, 4
    4830:	a925ffff 	xori	r9, r5, -1
    4834:	452c4c00 	bsll	r9, r12, r9
    4838:	470a2800 	bsrl	r24, r10, r5
    483c:	472b2800 	bsrl	r25, r11, r5
    4840:	13640000 	addk	r27, r4, r0
    4844:	30800001 	addik	r4, r0, 1
    4848:	8309c000 	or	r24, r9, r24
    484c:	b810fdd0 	brid	-560		// 461c
    4850:	47442c00 	bsll	r26, r4, r5
    4854:	1646b003 	cmpu	r18, r6, r22
    4858:	bcb2feec 	bgei	r18, -276		// 4744
    485c:	b810ff1c 	brid	-228		// 4778
    4860:	f888000c 	swi	r4, r8, 12
    4864:	048ab000 	rsub	r4, r10, r22
    4868:	0cabb800 	rsubc	r5, r11, r23
    486c:	bea5fe80 	bgeid	r5, -384		// 46ec
    4870:	30600001 	addik	r3, r0, 1
    4874:	04840000 	rsub	r4, r4, r0
    4878:	0ca50000 	rsubc	r5, r5, r0
    487c:	f8680004 	swi	r3, r8, 4
    4880:	f8e80008 	swi	r7, r8, 8
    4884:	f888000c 	swi	r4, r8, 12
    4888:	f8a80010 	swi	r5, r8, 16
    488c:	b800fe70 	bri	-400		// 46fc
    4890:	10660000 	addk	r3, r6, r0
    4894:	eac10004 	lwi	r22, r1, 4
    4898:	eae10008 	lwi	r23, r1, 8
    489c:	eb01000c 	lwi	r24, r1, 12
    48a0:	eb210010 	lwi	r25, r1, 16
    48a4:	eb410014 	lwi	r26, r1, 20
    48a8:	eb610018 	lwi	r27, r1, 24
    48ac:	b60f0008 	rtsd	r15, 8
    48b0:	3021001c 	addik	r1, r1, 28
    48b4:	be04fe14 	beqid	r4, -492		// 46c8
    48b8:	a4850020 	andi	r4, r5, 32
    48bc:	be04007c 	beqid	r4, 124		// 4938
    48c0:	10e72800 	addk	r7, r7, r5
    48c4:	47172800 	bsrl	r24, r23, r5
    48c8:	be240060 	bneid	r4, 96		// 4928
    48cc:	13200000 	addk	r25, r0, r0
    48d0:	13640000 	addk	r27, r4, r0
    48d4:	30800001 	addik	r4, r0, 1
    48d8:	47442c00 	bsll	r26, r4, r5
    48dc:	30a0ffff 	addik	r5, r0, -1
    48e0:	3080ffff 	addik	r4, r0, -1
    48e4:	035a2000 	add	r26, r26, r4
    48e8:	0b7b2800 	addc	r27, r27, r5
    48ec:	86fbb800 	and	r23, r27, r23
    48f0:	86dab000 	and	r22, r26, r22
    48f4:	82d6b800 	or	r22, r22, r23
    48f8:	14960000 	rsubk	r4, r22, r0
    48fc:	8084b000 	or	r4, r4, r22
    4900:	66c4001f 	bsrli	r22, r4, 31
    4904:	12e00000 	addk	r23, r0, r0
    4908:	82d6c000 	or	r22, r22, r24
    490c:	b810fdbc 	brid	-580		// 46c8
    4910:	82f7c800 	or	r23, r23, r25
    4914:	3060fffe 	addik	r3, r0, -2
    4918:	16461803 	cmpu	r18, r6, r3
    491c:	bcb2fe08 	bgei	r18, -504		// 4724
    4920:	b810fe64 	brid	-412		// 4784
    4924:	30600003 	addik	r3, r0, 3
    4928:	30800001 	addik	r4, r0, 1
    492c:	47642c00 	bsll	r27, r4, r5
    4930:	b810ffac 	brid	-84		// 48dc
    4934:	13590000 	addk	r26, r25, r0
    4938:	1197b800 	addk	r12, r23, r23
    493c:	a925ffff 	xori	r9, r5, -1
    4940:	452c4c00 	bsll	r9, r12, r9
    4944:	47162800 	bsrl	r24, r22, r5
    4948:	47372800 	bsrl	r25, r23, r5
    494c:	b810ff84 	brid	-124		// 48d0
    4950:	8309c000 	or	r24, r9, r24
    4954:	a8a50004 	xori	r5, r5, 4
    4958:	be25fd40 	bneid	r5, -704		// 4698
    495c:	eac10004 	lwi	r22, r1, 4
    4960:	e8a30004 	lwi	r5, r3, 4
    4964:	e8860004 	lwi	r4, r6, 4
    4968:	88852000 	xor	r4, r5, r4
    496c:	be04fd30 	beqid	r4, -720		// 469c
    4970:	eae10008 	lwi	r23, r1, 8
    4974:	b0000000 	imm	0
    4978:	30606ea8 	addik	r3, r0, 28328	// 6ea8 <__thenan_df>
    497c:	b810fd24 	brid	-732		// 46a0
    4980:	eb01000c 	lwi	r24, r1, 12

00004984 <__adddf3>:
    4984:	11450000 	addk	r10, r5, r0
    4988:	11660000 	addk	r11, r6, r0
    498c:	11280000 	addk	r9, r8, r0
    4990:	11070000 	addk	r8, r7, r0
    4994:	3021ff98 	addik	r1, r1, -104
    4998:	30c10054 	addik	r6, r1, 84
    499c:	f9e10000 	swi	r15, r1, 0
    49a0:	f9410024 	swi	r10, r1, 36
    49a4:	f9610028 	swi	r11, r1, 40
    49a8:	f901001c 	swi	r8, r1, 28
    49ac:	f9210020 	swi	r9, r1, 32
    49b0:	b0000000 	imm	0
    49b4:	b9f405c8 	brlid	r15, 1480	// 4f7c <__unpack_d>
    49b8:	30a10024 	addik	r5, r1, 36
    49bc:	30c10040 	addik	r6, r1, 64
    49c0:	b0000000 	imm	0
    49c4:	b9f405b8 	brlid	r15, 1464	// 4f7c <__unpack_d>
    49c8:	30a1001c 	addik	r5, r1, 28
    49cc:	30a10054 	addik	r5, r1, 84
    49d0:	30c10040 	addik	r6, r1, 64
    49d4:	b9f4fb8c 	brlid	r15, -1140	// 4560 <_fpadd_parts>
    49d8:	30e1002c 	addik	r7, r1, 44
    49dc:	b0000000 	imm	0
    49e0:	b9f402a0 	brlid	r15, 672	// 4c80 <__pack_d>
    49e4:	10a30000 	addk	r5, r3, r0
    49e8:	e9e10000 	lwi	r15, r1, 0
    49ec:	b60f0008 	rtsd	r15, 8
    49f0:	30210068 	addik	r1, r1, 104

000049f4 <__subdf3>:
    49f4:	11450000 	addk	r10, r5, r0
    49f8:	11660000 	addk	r11, r6, r0
    49fc:	11280000 	addk	r9, r8, r0
    4a00:	11070000 	addk	r8, r7, r0
    4a04:	3021ff98 	addik	r1, r1, -104
    4a08:	30c10054 	addik	r6, r1, 84
    4a0c:	f9e10000 	swi	r15, r1, 0
    4a10:	f9410024 	swi	r10, r1, 36
    4a14:	f9610028 	swi	r11, r1, 40
    4a18:	f901001c 	swi	r8, r1, 28
    4a1c:	f9210020 	swi	r9, r1, 32
    4a20:	b0000000 	imm	0
    4a24:	b9f40558 	brlid	r15, 1368	// 4f7c <__unpack_d>
    4a28:	30a10024 	addik	r5, r1, 36
    4a2c:	30c10040 	addik	r6, r1, 64
    4a30:	b0000000 	imm	0
    4a34:	b9f40548 	brlid	r15, 1352	// 4f7c <__unpack_d>
    4a38:	30a1001c 	addik	r5, r1, 28
    4a3c:	e8610044 	lwi	r3, r1, 68
    4a40:	30a10054 	addik	r5, r1, 84
    4a44:	30c10040 	addik	r6, r1, 64
    4a48:	30e1002c 	addik	r7, r1, 44
    4a4c:	a8630001 	xori	r3, r3, 1
    4a50:	b9f4fb10 	brlid	r15, -1264	// 4560 <_fpadd_parts>
    4a54:	f8610044 	swi	r3, r1, 68
    4a58:	b0000000 	imm	0
    4a5c:	b9f40224 	brlid	r15, 548	// 4c80 <__pack_d>
    4a60:	10a30000 	addk	r5, r3, r0
    4a64:	e9e10000 	lwi	r15, r1, 0
    4a68:	b60f0008 	rtsd	r15, 8
    4a6c:	30210068 	addik	r1, r1, 104

00004a70 <__truncdfsf2>:
    4a70:	11050000 	addk	r8, r5, r0
    4a74:	11260000 	addk	r9, r6, r0
    4a78:	3021ffc8 	addik	r1, r1, -56
    4a7c:	30a1001c 	addik	r5, r1, 28
    4a80:	f901001c 	swi	r8, r1, 28
    4a84:	f9210020 	swi	r9, r1, 32
    4a88:	f9e10000 	swi	r15, r1, 0
    4a8c:	b0000000 	imm	0
    4a90:	b9f404ec 	brlid	r15, 1260	// 4f7c <__unpack_d>
    4a94:	30c10024 	addik	r6, r1, 36
    4a98:	e8810030 	lwi	r4, r1, 48
    4a9c:	e8a10034 	lwi	r5, r1, 52
    4aa0:	30e00000 	addik	r7, r0, 0
    4aa4:	b0003fff 	imm	16383
    4aa8:	30c0ffff 	addik	r6, r0, -1
    4aac:	65050402 	bslli	r8, r5, 2
    4ab0:	6464001e 	bsrli	r3, r4, 30
    4ab4:	84a53800 	and	r5, r5, r7
    4ab8:	84843000 	and	r4, r4, r6
    4abc:	80842800 	or	r4, r4, r5
    4ac0:	be04000c 	beqid	r4, 12		// 4acc
    4ac4:	81081800 	or	r8, r8, r3
    4ac8:	a1080001 	ori	r8, r8, 1
    4acc:	e8a10024 	lwi	r5, r1, 36
    4ad0:	e8c10028 	lwi	r6, r1, 40
    4ad4:	b0000000 	imm	0
    4ad8:	b9f40178 	brlid	r15, 376	// 4c50 <__make_fp>
    4adc:	e8e1002c 	lwi	r7, r1, 44
    4ae0:	e9e10000 	lwi	r15, r1, 0
    4ae4:	b60f0008 	rtsd	r15, 8
    4ae8:	30210038 	addik	r1, r1, 56

00004aec <__udivsi3>:
    4aec:	3021fff4 	addik	r1, r1, -12
    4af0:	fba10000 	swi	r29, r1, 0
    4af4:	fbc10004 	swi	r30, r1, 4
    4af8:	fbe10008 	swi	r31, r1, 8
    4afc:	bc060080 	beqi	r6, 128		// 4b7c
    4b00:	be05007c 	beqid	r5, 124		// 4b7c
    4b04:	33c00000 	addik	r30, r0, 0
    4b08:	33a00020 	addik	r29, r0, 32	// 20 <_vector_hw_exception>
    4b0c:	06453000 	rsub	r18, r5, r6
    4b10:	be120070 	beqid	r18, 112		// 4b80
    4b14:	30600001 	addik	r3, r0, 1
    4b18:	8a453000 	xor	r18, r5, r6
    4b1c:	beb20010 	bgeid	r18, 16		// 4b2c
    4b20:	00600000 	add	r3, r0, r0
    4b24:	bc46005c 	blti	r6, 92		// 4b80
    4b28:	b800000c 	bri	12		// 4b34
    4b2c:	06462800 	rsub	r18, r6, r5
    4b30:	bc520050 	blti	r18, 80		// 4b80
    4b34:	bc86000c 	bgti	r6, 12		// 4b40
    4b38:	b8100048 	brid	72		// 4b80
    4b3c:	30600001 	addik	r3, r0, 1
    4b40:	bc450010 	blti	r5, 16		// 4b50
    4b44:	00a52800 	add	r5, r5, r5
    4b48:	be85fffc 	bgtid	r5, -4		// 4b44
    4b4c:	33bdffff 	addik	r29, r29, -1
    4b50:	00a52800 	add	r5, r5, r5
    4b54:	0bdef000 	addc	r30, r30, r30
    4b58:	07e6f000 	rsub	r31, r6, r30
    4b5c:	bc5f000c 	blti	r31, 12		// 4b68
    4b60:	83c0f800 	or	r30, r0, r31
    4b64:	30630001 	addik	r3, r3, 1
    4b68:	33bdffff 	addik	r29, r29, -1
    4b6c:	bc1d000c 	beqi	r29, 12		// 4b78
    4b70:	00631800 	add	r3, r3, r3
    4b74:	b800ffdc 	bri	-36		// 4b50
    4b78:	b8000008 	bri	8		// 4b80
    4b7c:	80600000 	or	r3, r0, r0
    4b80:	eba10000 	lwi	r29, r1, 0
    4b84:	ebc10004 	lwi	r30, r1, 4
    4b88:	ebe10008 	lwi	r31, r1, 8
    4b8c:	b60f0008 	rtsd	r15, 8
    4b90:	3021000c 	addik	r1, r1, 12

00004b94 <__umodsi3>:
    4b94:	3021fff4 	addik	r1, r1, -12
    4b98:	fba10000 	swi	r29, r1, 0
    4b9c:	fbc10004 	swi	r30, r1, 4
    4ba0:	fbe10008 	swi	r31, r1, 8
    4ba4:	bc060094 	beqi	r6, 148		// 4c38
    4ba8:	be050090 	beqid	r5, 144		// 4c38
    4bac:	30600000 	addik	r3, r0, 0
    4bb0:	33c00000 	addik	r30, r0, 0
    4bb4:	33a00020 	addik	r29, r0, 32	// 20 <_vector_hw_exception>
    4bb8:	06453000 	rsub	r18, r5, r6
    4bbc:	bc120080 	beqi	r18, 128		// 4c3c
    4bc0:	8a453000 	xor	r18, r5, r6
    4bc4:	beb20010 	bgeid	r18, 16		// 4bd4
    4bc8:	30650000 	addik	r3, r5, 0
    4bcc:	bc460070 	blti	r6, 112		// 4c3c
    4bd0:	b800000c 	bri	12		// 4bdc
    4bd4:	06453000 	rsub	r18, r5, r6
    4bd8:	bc920064 	bgti	r18, 100		// 4c3c
    4bdc:	be860020 	bgtid	r6, 32		// 4bfc
    4be0:	30600000 	addik	r3, r0, 0
    4be4:	b0007fff 	imm	32767
    4be8:	3240ffff 	addik	r18, r0, -1
    4bec:	84a59000 	and	r5, r5, r18
    4bf0:	84c69000 	and	r6, r6, r18
    4bf4:	b8100048 	brid	72		// 4c3c
    4bf8:	04662800 	rsub	r3, r6, r5
    4bfc:	bc450010 	blti	r5, 16		// 4c0c
    4c00:	00a52800 	add	r5, r5, r5
    4c04:	bea5fffc 	bgeid	r5, -4		// 4c00
    4c08:	33bdffff 	addik	r29, r29, -1
    4c0c:	00a52800 	add	r5, r5, r5
    4c10:	08631800 	addc	r3, r3, r3
    4c14:	07e61800 	rsub	r31, r6, r3
    4c18:	bc5f000c 	blti	r31, 12		// 4c24
    4c1c:	8060f800 	or	r3, r0, r31
    4c20:	33de0001 	addik	r30, r30, 1
    4c24:	33bdffff 	addik	r29, r29, -1
    4c28:	bc1d000c 	beqi	r29, 12		// 4c34
    4c2c:	03def000 	add	r30, r30, r30
    4c30:	b800ffdc 	bri	-36		// 4c0c
    4c34:	b8000008 	bri	8		// 4c3c
    4c38:	80600000 	or	r3, r0, r0
    4c3c:	eba10000 	lwi	r29, r1, 0
    4c40:	ebc10004 	lwi	r30, r1, 4
    4c44:	ebe10008 	lwi	r31, r1, 8
    4c48:	b60f0008 	rtsd	r15, 8
    4c4c:	3021000c 	addik	r1, r1, 12

00004c50 <__make_fp>:
    4c50:	3021ffd4 	addik	r1, r1, -44
    4c54:	f8a1001c 	swi	r5, r1, 28
    4c58:	30a1001c 	addik	r5, r1, 28
    4c5c:	f9e10000 	swi	r15, r1, 0
    4c60:	f8c10020 	swi	r6, r1, 32
    4c64:	f8e10024 	swi	r7, r1, 36
    4c68:	b0000000 	imm	0
    4c6c:	b9f404d0 	brlid	r15, 1232	// 513c <__pack_f>
    4c70:	f9010028 	swi	r8, r1, 40
    4c74:	e9e10000 	lwi	r15, r1, 0
    4c78:	b60f0008 	rtsd	r15, 8
    4c7c:	3021002c 	addik	r1, r1, 44

00004c80 <__pack_d>:
    4c80:	3021ffd0 	addik	r1, r1, -48
    4c84:	f9e10000 	swi	r15, r1, 0
    4c88:	fa61001c 	swi	r19, r1, 28
    4c8c:	fac10020 	swi	r22, r1, 32
    4c90:	fae10024 	swi	r23, r1, 36
    4c94:	fb010028 	swi	r24, r1, 40
    4c98:	fb21002c 	swi	r25, r1, 44
    4c9c:	e8650000 	lwi	r3, r5, 0
    4ca0:	30800001 	addik	r4, r0, 1
    4ca4:	eac5000c 	lwi	r22, r5, 12
    4ca8:	eae50010 	lwi	r23, r5, 16
    4cac:	16432003 	cmpu	r18, r3, r4
    4cb0:	beb20160 	bgeid	r18, 352		// 4e10
    4cb4:	ea650004 	lwi	r19, r5, 4
    4cb8:	a8830004 	xori	r4, r3, 4
    4cbc:	be040138 	beqid	r4, 312		// 4df4
    4cc0:	a8630002 	xori	r3, r3, 2
    4cc4:	be030098 	beqid	r3, 152		// 4d5c
    4cc8:	8076b800 	or	r3, r22, r23
    4ccc:	be030090 	beqid	r3, 144		// 4d5c
    4cd0:	3080fc02 	addik	r4, r0, -1022
    4cd4:	e8650008 	lwi	r3, r5, 8
    4cd8:	16441801 	cmp	r18, r4, r3
    4cdc:	bc52016c 	blti	r18, 364		// 4e48
    4ce0:	308003ff 	addik	r4, r0, 1023
    4ce4:	16432001 	cmp	r18, r3, r4
    4ce8:	bc52010c 	blti	r18, 268		// 4df4
    4cec:	30a00000 	addik	r5, r0, 0
    4cf0:	308000ff 	addik	r4, r0, 255
    4cf4:	84962000 	and	r4, r22, r4
    4cf8:	a8c40080 	xori	r6, r4, 128
    4cfc:	be0600c8 	beqid	r6, 200		// 4dc4
    4d00:	84b72800 	and	r5, r23, r5
    4d04:	30a00000 	addik	r5, r0, 0
    4d08:	3080007f 	addik	r4, r0, 127
    4d0c:	02d62000 	add	r22, r22, r4
    4d10:	0af72800 	addc	r23, r23, r5
    4d14:	b0001fff 	imm	8191
    4d18:	3080ffff 	addik	r4, r0, -1
    4d1c:	16572003 	cmpu	r18, r23, r4
    4d20:	be52008c 	bltid	r18, 140		// 4dac
    4d24:	90b60041 	srl	r5, r22
    4d28:	306303ff 	addik	r3, r3, 1023
    4d2c:	65170418 	bslli	r8, r23, 24
    4d30:	64960008 	bsrli	r4, r22, 8
    4d34:	64b70008 	bsrli	r5, r23, 8
    4d38:	64e30414 	bslli	r7, r3, 20
    4d3c:	b000000f 	imm	15
    4d40:	3160ffff 	addik	r11, r0, -1
    4d44:	3140ffff 	addik	r10, r0, -1
    4d48:	80882000 	or	r4, r8, r4
    4d4c:	85445000 	and	r10, r4, r10
    4d50:	85655800 	and	r11, r5, r11
    4d54:	b8100018 	brid	24		// 4d6c
    4d58:	10c00000 	addk	r6, r0, r0
    4d5c:	30e00000 	addik	r7, r0, 0
    4d60:	30c00000 	addik	r6, r0, 0
    4d64:	11460000 	addk	r10, r6, r0
    4d68:	11670000 	addk	r11, r7, r0
    4d6c:	6533041f 	bslli	r9, r19, 31
    4d70:	80ca3000 	or	r6, r10, r6
    4d74:	80eb3800 	or	r7, r11, r7
    4d78:	10a00000 	addk	r5, r0, r0
    4d7c:	81062800 	or	r8, r6, r5
    4d80:	81274800 	or	r9, r7, r9
    4d84:	10680000 	addk	r3, r8, r0
    4d88:	10890000 	addk	r4, r9, r0
    4d8c:	e9e10000 	lwi	r15, r1, 0
    4d90:	ea61001c 	lwi	r19, r1, 28
    4d94:	eac10020 	lwi	r22, r1, 32
    4d98:	eae10024 	lwi	r23, r1, 36
    4d9c:	eb010028 	lwi	r24, r1, 40
    4da0:	eb21002c 	lwi	r25, r1, 44
    4da4:	b60f0008 	rtsd	r15, 8
    4da8:	30210030 	addik	r1, r1, 48
    4dac:	64d7041f 	bslli	r6, r23, 31
    4db0:	90970041 	srl	r4, r23
    4db4:	82c62800 	or	r22, r6, r5
    4db8:	12e40000 	addk	r23, r4, r0
    4dbc:	b810ff70 	brid	-144		// 4d2c
    4dc0:	30630400 	addik	r3, r3, 1024
    4dc4:	bc25ff40 	bnei	r5, -192		// 4d04
    4dc8:	30a00000 	addik	r5, r0, 0
    4dcc:	30800100 	addik	r4, r0, 256
    4dd0:	84962000 	and	r4, r22, r4
    4dd4:	84b72800 	and	r5, r23, r5
    4dd8:	80842800 	or	r4, r4, r5
    4ddc:	bc04ff38 	beqi	r4, -200		// 4d14
    4de0:	30a00000 	addik	r5, r0, 0
    4de4:	30800080 	addik	r4, r0, 128	// 80 <_exit>
    4de8:	02d62000 	add	r22, r22, r4
    4dec:	0af72800 	addc	r23, r23, r5
    4df0:	b800ff24 	bri	-220		// 4d14
    4df4:	b0007ff0 	imm	32752
    4df8:	30e00000 	addik	r7, r0, 0
    4dfc:	30c00000 	addik	r6, r0, 0
    4e00:	31600000 	addik	r11, r0, 0
    4e04:	31400000 	addik	r10, r0, 0
    4e08:	b810ff68 	brid	-152		// 4d70
    4e0c:	6533041f 	bslli	r9, r19, 31
    4e10:	b0000008 	imm	8
    4e14:	31600000 	addik	r11, r0, 0
    4e18:	31400000 	addik	r10, r0, 0
    4e1c:	b000000f 	imm	15
    4e20:	30a0ffff 	addik	r5, r0, -1
    4e24:	3080ffff 	addik	r4, r0, -1
    4e28:	81565000 	or	r10, r22, r10
    4e2c:	81775800 	or	r11, r23, r11
    4e30:	854a2000 	and	r10, r10, r4
    4e34:	b0007ff0 	imm	32752
    4e38:	30e00000 	addik	r7, r0, 0
    4e3c:	30c00000 	addik	r6, r0, 0
    4e40:	b810ff2c 	brid	-212		// 4d6c
    4e44:	856b2800 	and	r11, r11, r5
    4e48:	17032000 	rsubk	r24, r3, r4
    4e4c:	30600038 	addik	r3, r0, 56
    4e50:	30a00000 	addik	r5, r0, 0
    4e54:	30800000 	addik	r4, r0, 0
    4e58:	16581801 	cmp	r18, r24, r3
    4e5c:	be520108 	bltid	r18, 264		// 4f64
    4e60:	10f80000 	addk	r7, r24, r0
    4e64:	10b60000 	addk	r5, r22, r0
    4e68:	b0000000 	imm	0
    4e6c:	b9f40240 	brlid	r15, 576	// 50ac <__lshrdi3>
    4e70:	10d70000 	addk	r6, r23, r0
    4e74:	10f80000 	addk	r7, r24, r0
    4e78:	30c00000 	addik	r6, r0, 0
    4e7c:	30a00001 	addik	r5, r0, 1
    4e80:	13030000 	addk	r24, r3, r0
    4e84:	b0000000 	imm	0
    4e88:	b9f4026c 	brlid	r15, 620	// 50f4 <__ashldi3>
    4e8c:	13240000 	addk	r25, r4, r0
    4e90:	10a40000 	addk	r5, r4, r0
    4e94:	10830000 	addk	r4, r3, r0
    4e98:	30e0ffff 	addik	r7, r0, -1
    4e9c:	30c0ffff 	addik	r6, r0, -1
    4ea0:	00843000 	add	r4, r4, r6
    4ea4:	08a53800 	addc	r5, r5, r7
    4ea8:	86c4b000 	and	r22, r4, r22
    4eac:	86e5b800 	and	r23, r5, r23
    4eb0:	82d6b800 	or	r22, r22, r23
    4eb4:	14760000 	rsubk	r3, r22, r0
    4eb8:	82c3b000 	or	r22, r3, r22
    4ebc:	64d6001f 	bsrli	r6, r22, 31
    4ec0:	10e00000 	addk	r7, r0, r0
    4ec4:	8086c000 	or	r4, r6, r24
    4ec8:	80a7c800 	or	r5, r7, r25
    4ecc:	30e00000 	addik	r7, r0, 0
    4ed0:	30c000ff 	addik	r6, r0, 255
    4ed4:	84c43000 	and	r6, r4, r6
    4ed8:	a8660080 	xori	r3, r6, 128
    4edc:	be230088 	bneid	r3, 136		// 4f64
    4ee0:	84e53800 	and	r7, r5, r7
    4ee4:	bc270080 	bnei	r7, 128		// 4f64
    4ee8:	30e00000 	addik	r7, r0, 0
    4eec:	30c00100 	addik	r6, r0, 256
    4ef0:	84c43000 	and	r6, r4, r6
    4ef4:	84e53800 	and	r7, r5, r7
    4ef8:	80c63800 	or	r6, r6, r7
    4efc:	be06001c 	beqid	r6, 28		// 4f18
    4f00:	64650418 	bslli	r3, r5, 24
    4f04:	30e00000 	addik	r7, r0, 0
    4f08:	30c00080 	addik	r6, r0, 128	// 80 <_exit>
    4f0c:	00843000 	add	r4, r4, r6
    4f10:	08a53800 	addc	r5, r5, r7
    4f14:	64650418 	bslli	r3, r5, 24
    4f18:	64c40008 	bsrli	r6, r4, 8
    4f1c:	64e50008 	bsrli	r7, r5, 8
    4f20:	80c33000 	or	r6, r3, r6
    4f24:	b0000fff 	imm	4095
    4f28:	3060ffff 	addik	r3, r0, -1
    4f2c:	b000000f 	imm	15
    4f30:	3160ffff 	addik	r11, r0, -1
    4f34:	3140ffff 	addik	r10, r0, -1
    4f38:	85465000 	and	r10, r6, r10
    4f3c:	31200000 	addik	r9, r0, 0
    4f40:	31000001 	addik	r8, r0, 1
    4f44:	16451803 	cmpu	r18, r5, r3
    4f48:	be520010 	bltid	r18, 16		// 4f58
    4f4c:	85675800 	and	r11, r7, r11
    4f50:	31200000 	addik	r9, r0, 0
    4f54:	31000000 	addik	r8, r0, 0
    4f58:	64e80414 	bslli	r7, r8, 20
    4f5c:	b810fe10 	brid	-496		// 4d6c
    4f60:	10c00000 	addk	r6, r0, r0
    4f64:	30e00000 	addik	r7, r0, 0
    4f68:	30c0007f 	addik	r6, r0, 127
    4f6c:	00843000 	add	r4, r4, r6
    4f70:	08a53800 	addc	r5, r5, r7
    4f74:	b810ffa4 	brid	-92		// 4f18
    4f78:	64650418 	bslli	r3, r5, 24

00004f7c <__unpack_d>:
    4f7c:	e9050000 	lwi	r8, r5, 0
    4f80:	e9250004 	lwi	r9, r5, 4
    4f84:	6489001f 	bsrli	r4, r9, 31
    4f88:	64690014 	bsrli	r3, r9, 20
    4f8c:	f8860004 	swi	r4, r6, 4
    4f90:	a46307ff 	andi	r3, r3, 2047
    4f94:	b000000f 	imm	15
    4f98:	30a0ffff 	addik	r5, r0, -1
    4f9c:	3080ffff 	addik	r4, r0, -1
    4fa0:	84882000 	and	r4, r8, r4
    4fa4:	be230060 	bneid	r3, 96		// 5004
    4fa8:	84a92800 	and	r5, r9, r5
    4fac:	80642800 	or	r3, r4, r5
    4fb0:	be0300a0 	beqid	r3, 160		// 5050
    4fb4:	64e40018 	bsrli	r7, r4, 24
    4fb8:	64650408 	bslli	r3, r5, 8
    4fbc:	64840408 	bslli	r4, r4, 8
    4fc0:	b0000fff 	imm	4095
    4fc4:	3100ffff 	addik	r8, r0, -1
    4fc8:	30a00003 	addik	r5, r0, 3
    4fcc:	f8a60000 	swi	r5, r6, 0
    4fd0:	80671800 	or	r3, r7, r3
    4fd4:	30a0fc02 	addik	r5, r0, -1022
    4fd8:	64e4001f 	bsrli	r7, r4, 31
    4fdc:	10631800 	addk	r3, r3, r3
    4fe0:	80671800 	or	r3, r7, r3
    4fe4:	10842000 	addk	r4, r4, r4
    4fe8:	16434003 	cmpu	r18, r3, r8
    4fec:	beb2ffec 	bgeid	r18, -20		// 4fd8
    4ff0:	30a5ffff 	addik	r5, r5, -1
    4ff4:	f8a60008 	swi	r5, r6, 8
    4ff8:	f886000c 	swi	r4, r6, 12
    4ffc:	b60f0008 	rtsd	r15, 8
    5000:	f8660010 	swi	r3, r6, 16
    5004:	a8e307ff 	xori	r7, r3, 2047
    5008:	be070054 	beqid	r7, 84		// 505c
    500c:	64e40018 	bsrli	r7, r4, 24
    5010:	65250408 	bslli	r9, r5, 8
    5014:	65040408 	bslli	r8, r4, 8
    5018:	30800003 	addik	r4, r0, 3
    501c:	81274800 	or	r9, r7, r9
    5020:	f8860000 	swi	r4, r6, 0
    5024:	b0001000 	imm	4096
    5028:	30a00000 	addik	r5, r0, 0
    502c:	30800000 	addik	r4, r0, 0
    5030:	3063fc01 	addik	r3, r3, -1023
    5034:	81082000 	or	r8, r8, r4
    5038:	81292800 	or	r9, r9, r5
    503c:	f8660008 	swi	r3, r6, 8
    5040:	f906000c 	swi	r8, r6, 12
    5044:	f9260010 	swi	r9, r6, 16
    5048:	b60f0008 	rtsd	r15, 8
    504c:	80000000 	or	r0, r0, r0
    5050:	30600002 	addik	r3, r0, 2
    5054:	b60f0008 	rtsd	r15, 8
    5058:	f8660000 	swi	r3, r6, 0
    505c:	80642800 	or	r3, r4, r5
    5060:	be03003c 	beqid	r3, 60		// 509c
    5064:	30600004 	addik	r3, r0, 4
    5068:	b0000008 	imm	8
    506c:	31200000 	addik	r9, r0, 0
    5070:	31000000 	addik	r8, r0, 0
    5074:	85044000 	and	r8, r4, r8
    5078:	85254800 	and	r9, r5, r9
    507c:	81084800 	or	r8, r8, r9
    5080:	be080024 	beqid	r8, 36		// 50a4
    5084:	30600001 	addik	r3, r0, 1
    5088:	f8660000 	swi	r3, r6, 0
    508c:	f886000c 	swi	r4, r6, 12
    5090:	f8a60010 	swi	r5, r6, 16
    5094:	b60f0008 	rtsd	r15, 8
    5098:	80000000 	or	r0, r0, r0
    509c:	b60f0008 	rtsd	r15, 8
    50a0:	f8660000 	swi	r3, r6, 0
    50a4:	b810ffe8 	brid	-24		// 508c
    50a8:	f9060000 	swi	r8, r6, 0

000050ac <__lshrdi3>:
    50ac:	10650000 	addk	r3, r5, r0
    50b0:	be070028 	beqid	r7, 40		// 50d8
    50b4:	10860000 	addk	r4, r6, r0
    50b8:	30c00020 	addik	r6, r0, 32	// 20 <_vector_hw_exception>
    50bc:	14a73000 	rsubk	r5, r7, r6
    50c0:	bc650020 	blei	r5, 32		// 50e0
    50c4:	44633800 	bsrl	r3, r3, r7
    50c8:	44e43800 	bsrl	r7, r4, r7
    50cc:	44a42c00 	bsll	r5, r4, r5
    50d0:	10870000 	addk	r4, r7, r0
    50d4:	80651800 	or	r3, r5, r3
    50d8:	b60f0008 	rtsd	r15, 8
    50dc:	80000000 	or	r0, r0, r0
    50e0:	14650000 	rsubk	r3, r5, r0
    50e4:	10e00000 	addk	r7, r0, r0
    50e8:	44641800 	bsrl	r3, r4, r3
    50ec:	b60f0008 	rtsd	r15, 8
    50f0:	10870000 	addk	r4, r7, r0

000050f4 <__ashldi3>:
    50f4:	10650000 	addk	r3, r5, r0
    50f8:	be070028 	beqid	r7, 40		// 5120
    50fc:	10860000 	addk	r4, r6, r0
    5100:	30c00020 	addik	r6, r0, 32	// 20 <_vector_hw_exception>
    5104:	14a73000 	rsubk	r5, r7, r6
    5108:	bc650020 	blei	r5, 32		// 5128
    510c:	44843c00 	bsll	r4, r4, r7
    5110:	44e33c00 	bsll	r7, r3, r7
    5114:	44a32800 	bsrl	r5, r3, r5
    5118:	10670000 	addk	r3, r7, r0
    511c:	80852000 	or	r4, r5, r4
    5120:	b60f0008 	rtsd	r15, 8
    5124:	80000000 	or	r0, r0, r0
    5128:	14850000 	rsubk	r4, r5, r0
    512c:	10e00000 	addk	r7, r0, r0
    5130:	44832400 	bsll	r4, r3, r4
    5134:	b60f0008 	rtsd	r15, 8
    5138:	10670000 	addk	r3, r7, r0

0000513c <__pack_f>:
    513c:	e8650000 	lwi	r3, r5, 0
    5140:	30e00001 	addik	r7, r0, 1
    5144:	e885000c 	lwi	r4, r5, 12
    5148:	16433803 	cmpu	r18, r3, r7
    514c:	beb200b8 	bgeid	r18, 184		// 5204
    5150:	e9050004 	lwi	r8, r5, 4
    5154:	a8c30004 	xori	r6, r3, 4
    5158:	bc0600cc 	beqi	r6, 204		// 5224
    515c:	a8630002 	xori	r3, r3, 2
    5160:	bc030074 	beqi	r3, 116		// 51d4
    5164:	be040060 	beqid	r4, 96		// 51c4
    5168:	6468041f 	bslli	r3, r8, 31
    516c:	e8c50008 	lwi	r6, r5, 8
    5170:	3060ff82 	addik	r3, r0, -126
    5174:	16433001 	cmp	r18, r3, r6
    5178:	bc5200bc 	blti	r18, 188		// 5234
    517c:	3060007f 	addik	r3, r0, 127
    5180:	16461801 	cmp	r18, r6, r3
    5184:	bc520128 	blti	r18, 296		// 52ac
    5188:	84641800 	and	r3, r4, r3
    518c:	a8630040 	xori	r3, r3, 64
    5190:	be03005c 	beqid	r3, 92		// 51ec
    5194:	a4640080 	andi	r3, r4, 128
    5198:	3084003f 	addik	r4, r4, 63
    519c:	bc44005c 	blti	r4, 92		// 51f8
    51a0:	30c6007f 	addik	r6, r6, 127
    51a4:	64a40007 	bsrli	r5, r4, 7
    51a8:	64860417 	bslli	r4, r6, 23
    51ac:	b000007f 	imm	127
    51b0:	a4a5ffff 	andi	r5, r5, -1
    51b4:	6468041f 	bslli	r3, r8, 31
    51b8:	80852000 	or	r4, r5, r4
    51bc:	b60f0008 	rtsd	r15, 8
    51c0:	80641800 	or	r3, r4, r3
    51c4:	10a40000 	addk	r5, r4, r0
    51c8:	80852000 	or	r4, r5, r4
    51cc:	b60f0008 	rtsd	r15, 8
    51d0:	80641800 	or	r3, r4, r3
    51d4:	10a30000 	addk	r5, r3, r0
    51d8:	10830000 	addk	r4, r3, r0
    51dc:	6468041f 	bslli	r3, r8, 31
    51e0:	80852000 	or	r4, r5, r4
    51e4:	b60f0008 	rtsd	r15, 8
    51e8:	80641800 	or	r3, r4, r3
    51ec:	bc03ffb0 	beqi	r3, -80		// 519c
    51f0:	30840040 	addik	r4, r4, 64
    51f4:	bca4ffac 	bgei	r4, -84		// 51a0
    51f8:	90840041 	srl	r4, r4
    51fc:	b810ffa8 	brid	-88		// 51a4
    5200:	30c60080 	addik	r6, r6, 128
    5204:	b0000010 	imm	16
    5208:	a0840000 	ori	r4, r4, 0
    520c:	b000007f 	imm	127
    5210:	a4a4ffff 	andi	r5, r4, -1
    5214:	b0007f80 	imm	32640
    5218:	30800000 	addik	r4, r0, 0
    521c:	b810ff9c 	brid	-100		// 51b8
    5220:	6468041f 	bslli	r3, r8, 31
    5224:	b0007f80 	imm	32640
    5228:	30800000 	addik	r4, r0, 0
    522c:	b810ff88 	brid	-120		// 51b4
    5230:	10a60000 	addk	r5, r6, r0
    5234:	14c61800 	rsubk	r6, r6, r3
    5238:	30a00019 	addik	r5, r0, 25
    523c:	16462801 	cmp	r18, r6, r5
    5240:	be52007c 	bltid	r18, 124		// 52bc
    5244:	10600000 	addk	r3, r0, r0
    5248:	44673400 	bsll	r3, r7, r6
    524c:	44c43000 	bsrl	r6, r4, r6
    5250:	3063ffff 	addik	r3, r3, -1
    5254:	84832000 	and	r4, r3, r4
    5258:	14640000 	rsubk	r3, r4, r0
    525c:	80632000 	or	r3, r3, r4
    5260:	6463001f 	bsrli	r3, r3, 31
    5264:	80633000 	or	r3, r3, r6
    5268:	a483007f 	andi	r4, r3, 127
    526c:	a8840040 	xori	r4, r4, 64
    5270:	bc24004c 	bnei	r4, 76		// 52bc
    5274:	a4830080 	andi	r4, r3, 128
    5278:	bc040008 	beqi	r4, 8		// 5280
    527c:	30630040 	addik	r3, r3, 64
    5280:	b0003fff 	imm	16383
    5284:	30c0ffff 	addik	r6, r0, -1
    5288:	64a30007 	bsrli	r5, r3, 7
    528c:	b000007f 	imm	127
    5290:	a4a5ffff 	andi	r5, r5, -1
    5294:	16433003 	cmpu	r18, r3, r6
    5298:	be52000c 	bltid	r18, 12		// 52a4
    529c:	30800001 	addik	r4, r0, 1
    52a0:	10800000 	addk	r4, r0, r0
    52a4:	b810ff10 	brid	-240		// 51b4
    52a8:	64840417 	bslli	r4, r4, 23
    52ac:	b0007f80 	imm	32640
    52b0:	30800000 	addik	r4, r0, 0
    52b4:	b810ff00 	brid	-256		// 51b4
    52b8:	10a00000 	addk	r5, r0, r0
    52bc:	b810ffc4 	brid	-60		// 5280
    52c0:	3063003f 	addik	r3, r3, 63

000052c4 <exit>:
    52c4:	3021ffe0 	addik	r1, r1, -32
    52c8:	10c00000 	addk	r6, r0, r0
    52cc:	fa61001c 	swi	r19, r1, 28
    52d0:	f9e10000 	swi	r15, r1, 0
    52d4:	b0000000 	imm	0
    52d8:	b9f409ec 	brlid	r15, 2540	// 5cc4 <__call_exitprocs>
    52dc:	12650000 	addk	r19, r5, r0
    52e0:	b0000000 	imm	0
    52e4:	e8807140 	lwi	r4, r0, 28992	// 7140 <_global_impure_ptr>
    52e8:	e8640028 	lwi	r3, r4, 40
    52ec:	bc03000c 	beqi	r3, 12		// 52f8
    52f0:	99fc1800 	brald	r15, r3
    52f4:	10a40000 	addk	r5, r4, r0
    52f8:	b000ffff 	imm	-1
    52fc:	b9f4ad84 	brlid	r15, -21116	// 80 <_exit>
    5300:	10b30000 	addk	r5, r19, r0

00005304 <malloc>:
    5304:	10c50000 	addk	r6, r5, r0
    5308:	b0000000 	imm	0
    530c:	e8a072f8 	lwi	r5, r0, 29432	// 72f8 <_impure_ptr>
    5310:	3021ffe4 	addik	r1, r1, -28
    5314:	f9e10000 	swi	r15, r1, 0
    5318:	b0000000 	imm	0
    531c:	b9f40040 	brlid	r15, 64	// 535c <_malloc_r>
    5320:	80000000 	or	r0, r0, r0
    5324:	e9e10000 	lwi	r15, r1, 0
    5328:	b60f0008 	rtsd	r15, 8
    532c:	3021001c 	addik	r1, r1, 28

00005330 <free>:
    5330:	10c50000 	addk	r6, r5, r0
    5334:	b0000000 	imm	0
    5338:	e8a072f8 	lwi	r5, r0, 29432	// 72f8 <_impure_ptr>
    533c:	3021ffe4 	addik	r1, r1, -28
    5340:	f9e10000 	swi	r15, r1, 0
    5344:	b0000000 	imm	0
    5348:	b9f40dac 	brlid	r15, 3500	// 60f4 <_free_r>
    534c:	80000000 	or	r0, r0, r0
    5350:	e9e10000 	lwi	r15, r1, 0
    5354:	b60f0008 	rtsd	r15, 8
    5358:	3021001c 	addik	r1, r1, 28

0000535c <_malloc_r>:
    535c:	3021ffcc 	addik	r1, r1, -52
    5360:	fac10020 	swi	r22, r1, 32
    5364:	fae10024 	swi	r23, r1, 36
    5368:	f9e10000 	swi	r15, r1, 0
    536c:	fa61001c 	swi	r19, r1, 28
    5370:	fb010028 	swi	r24, r1, 40
    5374:	fb21002c 	swi	r25, r1, 44
    5378:	fb410030 	swi	r26, r1, 48
    537c:	32c6000b 	addik	r22, r6, 11
    5380:	30600016 	addik	r3, r0, 22
    5384:	16561803 	cmpu	r18, r22, r3
    5388:	beb200c0 	bgeid	r18, 192		// 5448
    538c:	12e50000 	addk	r23, r5, r0
    5390:	a6d6fff8 	andi	r22, r22, -8
    5394:	6476001f 	bsrli	r3, r22, 31
    5398:	1646b003 	cmpu	r18, r6, r22
    539c:	bcb20034 	bgei	r18, 52		// 53d0
    53a0:	3060000c 	addik	r3, r0, 12
    53a4:	f8770000 	swi	r3, r23, 0
    53a8:	10600000 	addk	r3, r0, r0
    53ac:	e9e10000 	lwi	r15, r1, 0
    53b0:	ea61001c 	lwi	r19, r1, 28
    53b4:	eac10020 	lwi	r22, r1, 32
    53b8:	eae10024 	lwi	r23, r1, 36
    53bc:	eb010028 	lwi	r24, r1, 40
    53c0:	eb21002c 	lwi	r25, r1, 44
    53c4:	eb410030 	lwi	r26, r1, 48
    53c8:	b60f0008 	rtsd	r15, 8
    53cc:	30210034 	addik	r1, r1, 52
    53d0:	be23ffd4 	bneid	r3, -44		// 53a4
    53d4:	3060000c 	addik	r3, r0, 12
    53d8:	b0000000 	imm	0
    53dc:	b9f40820 	brlid	r15, 2080	// 5bfc <__malloc_lock>
    53e0:	10b70000 	addk	r5, r23, r0
    53e4:	306001f7 	addik	r3, r0, 503
    53e8:	16561803 	cmpu	r18, r22, r3
    53ec:	be520068 	bltid	r18, 104		// 5454
    53f0:	64f60009 	bsrli	r7, r22, 9
    53f4:	b0000000 	imm	0
    53f8:	307673f4 	addik	r3, r22, 29684
    53fc:	ea63000c 	lwi	r19, r3, 12
    5400:	88731800 	xor	r3, r19, r3
    5404:	be0304f4 	beqid	r3, 1268		// 58f8
    5408:	64d60003 	bsrli	r6, r22, 3
    540c:	e8730004 	lwi	r3, r19, 4
    5410:	e893000c 	lwi	r4, r19, 12
    5414:	e8f30008 	lwi	r7, r19, 8
    5418:	a463fffc 	andi	r3, r3, -4
    541c:	10731800 	addk	r3, r19, r3
    5420:	e8c30004 	lwi	r6, r3, 4
    5424:	f887000c 	swi	r4, r7, 12
    5428:	10b70000 	addk	r5, r23, r0
    542c:	a0c60001 	ori	r6, r6, 1
    5430:	f8e40008 	swi	r7, r4, 8
    5434:	b0000000 	imm	0
    5438:	b9f407cc 	brlid	r15, 1996	// 5c04 <__malloc_unlock>
    543c:	f8c30004 	swi	r6, r3, 4
    5440:	b810ff6c 	brid	-148		// 53ac
    5444:	30730008 	addik	r3, r19, 8
    5448:	10600000 	addk	r3, r0, r0
    544c:	b810ff4c 	brid	-180		// 5398
    5450:	32c00010 	addik	r22, r0, 16	// 10 <_vector_interrupt>
    5454:	be070204 	beqid	r7, 516		// 5658
    5458:	30600004 	addik	r3, r0, 4
    545c:	16471803 	cmpu	r18, r7, r3
    5460:	be520348 	bltid	r18, 840		// 57a8
    5464:	30600014 	addik	r3, r0, 20
    5468:	64f60006 	bsrli	r7, r22, 6
    546c:	30e70038 	addik	r7, r7, 56
    5470:	64c70403 	bslli	r6, r7, 3
    5474:	b0000000 	imm	0
    5478:	30c673f4 	addik	r6, r6, 29684
    547c:	ea66000c 	lwi	r19, r6, 12
    5480:	88669800 	xor	r3, r6, r19
    5484:	be030048 	beqid	r3, 72		// 54cc
    5488:	30a0000f 	addik	r5, r0, 15
    548c:	e8730004 	lwi	r3, r19, 4
    5490:	a463fffc 	andi	r3, r3, -4
    5494:	14961800 	rsubk	r4, r22, r3
    5498:	16442801 	cmp	r18, r4, r5
    549c:	bc52002c 	blti	r18, 44		// 54c8
    54a0:	bea401c4 	bgeid	r4, 452		// 5664
    54a4:	10731800 	addk	r3, r19, r3
    54a8:	ea73000c 	lwi	r19, r19, 12
    54ac:	88669800 	xor	r3, r6, r19
    54b0:	bc03001c 	beqi	r3, 28		// 54cc
    54b4:	e8730004 	lwi	r3, r19, 4
    54b8:	a463fffc 	andi	r3, r3, -4
    54bc:	14961800 	rsubk	r4, r22, r3
    54c0:	16442801 	cmp	r18, r4, r5
    54c4:	bcb2ffdc 	bgei	r18, -36		// 54a0
    54c8:	30e7ffff 	addik	r7, r7, -1
    54cc:	30c70001 	addik	r6, r7, 1
    54d0:	b0000000 	imm	0
    54d4:	30e07404 	addik	r7, r0, 29700
    54d8:	b0000000 	imm	0
    54dc:	ea607404 	lwi	r19, r0, 29700
    54e0:	3087fff8 	addik	r4, r7, -8
    54e4:	88732000 	xor	r3, r19, r4
    54e8:	be0303ac 	beqid	r3, 940		// 5894
    54ec:	30a0000f 	addik	r5, r0, 15
    54f0:	e8730004 	lwi	r3, r19, 4
    54f4:	a463fffc 	andi	r3, r3, -4
    54f8:	15161800 	rsubk	r8, r22, r3
    54fc:	16482801 	cmp	r18, r8, r5
    5500:	bc520354 	blti	r18, 852		// 5854
    5504:	f8870004 	swi	r4, r7, 4
    5508:	b0000000 	imm	0
    550c:	f8807404 	swi	r4, r0, 29700
    5510:	bea80184 	bgeid	r8, 388		// 5694
    5514:	308001ff 	addik	r4, r0, 511
    5518:	16432003 	cmpu	r18, r3, r4
    551c:	be5202b4 	bltid	r18, 692		// 57d0
    5520:	64830009 	bsrli	r4, r3, 9
    5524:	64630003 	bsrli	r3, r3, 3
    5528:	64830403 	bslli	r4, r3, 3
    552c:	64630202 	bsrai	r3, r3, 2
    5530:	b0000000 	imm	0
    5534:	308473f4 	addik	r4, r4, 29684
    5538:	31000001 	addik	r8, r0, 1
    553c:	e8a40008 	lwi	r5, r4, 8
    5540:	44681c00 	bsll	r3, r8, r3
    5544:	b0000000 	imm	0
    5548:	e90073f8 	lwi	r8, r0, 29688
    554c:	f893000c 	swi	r4, r19, 12
    5550:	f8b30008 	swi	r5, r19, 8
    5554:	81034000 	or	r8, r3, r8
    5558:	f907fff4 	swi	r8, r7, -12
    555c:	fa640008 	swi	r19, r4, 8
    5560:	fa65000c 	swi	r19, r5, 12
    5564:	64660202 	bsrai	r3, r6, 2
    5568:	30800001 	addik	r4, r0, 1
    556c:	44841c00 	bsll	r4, r4, r3
    5570:	16444003 	cmpu	r18, r4, r8
    5574:	be520144 	bltid	r18, 324		// 56b8
    5578:	84682000 	and	r3, r8, r4
    557c:	be230030 	bneid	r3, 48		// 55ac
    5580:	3120000f 	addik	r9, r0, 15
    5584:	10842000 	addk	r4, r4, r4
    5588:	a4c6fffc 	andi	r6, r6, -4
    558c:	84682000 	and	r3, r8, r4
    5590:	be23001c 	bneid	r3, 28		// 55ac
    5594:	30c60004 	addik	r6, r6, 4
    5598:	10842000 	addk	r4, r4, r4
    559c:	84644000 	and	r3, r4, r8
    55a0:	be03fff8 	beqid	r3, -8		// 5598
    55a4:	30c60004 	addik	r6, r6, 4
    55a8:	3120000f 	addik	r9, r0, 15
    55ac:	65660403 	bslli	r11, r6, 3
    55b0:	b0000000 	imm	0
    55b4:	316b73f4 	addik	r11, r11, 29684
    55b8:	10eb0000 	addk	r7, r11, r0
    55bc:	11460000 	addk	r10, r6, r0
    55c0:	ea67000c 	lwi	r19, r7, 12
    55c4:	88679800 	xor	r3, r7, r19
    55c8:	bc230020 	bnei	r3, 32		// 55e8
    55cc:	b81002dc 	brid	732		// 58a8
    55d0:	314a0001 	addik	r10, r10, 1
    55d4:	bea30340 	bgeid	r3, 832		// 5914
    55d8:	10732800 	addk	r3, r19, r5
    55dc:	ea73000c 	lwi	r19, r19, 12
    55e0:	88679800 	xor	r3, r7, r19
    55e4:	bc0302c0 	beqi	r3, 704		// 58a4
    55e8:	e8b30004 	lwi	r5, r19, 4
    55ec:	a4a5fffc 	andi	r5, r5, -4
    55f0:	14762800 	rsubk	r3, r22, r5
    55f4:	16434801 	cmp	r18, r3, r9
    55f8:	bcb2ffdc 	bgei	r18, -36		// 55d4
    55fc:	e8b3000c 	lwi	r5, r19, 12
    5600:	e8d30008 	lwi	r6, r19, 8
    5604:	1093b000 	addk	r4, r19, r22
    5608:	a2d60001 	ori	r22, r22, 1
    560c:	f8a6000c 	swi	r5, r6, 12
    5610:	f8c50008 	swi	r6, r5, 8
    5614:	b0000000 	imm	0
    5618:	30a073fc 	addik	r5, r0, 29692
    561c:	b0000000 	imm	0
    5620:	f8807408 	swi	r4, r0, 29704
    5624:	b0000000 	imm	0
    5628:	f8807404 	swi	r4, r0, 29700
    562c:	f8a4000c 	swi	r5, r4, 12
    5630:	f8a40008 	swi	r5, r4, 8
    5634:	10b70000 	addk	r5, r23, r0
    5638:	a0c30001 	ori	r6, r3, 1
    563c:	fad30004 	swi	r22, r19, 4
    5640:	d8632000 	sw	r3, r3, r4
    5644:	b0000000 	imm	0
    5648:	b9f405bc 	brlid	r15, 1468	// 5c04 <__malloc_unlock>
    564c:	f8c40004 	swi	r6, r4, 4
    5650:	b810fd5c 	brid	-676		// 53ac
    5654:	30730008 	addik	r3, r19, 8
    5658:	64f60003 	bsrli	r7, r22, 3
    565c:	b810fe18 	brid	-488		// 5474
    5660:	64c70403 	bslli	r6, r7, 3
    5664:	e893000c 	lwi	r4, r19, 12
    5668:	e8f30008 	lwi	r7, r19, 8
    566c:	e8c30004 	lwi	r6, r3, 4
    5670:	10b70000 	addk	r5, r23, r0
    5674:	f887000c 	swi	r4, r7, 12
    5678:	a0c60001 	ori	r6, r6, 1
    567c:	f8e40008 	swi	r7, r4, 8
    5680:	b0000000 	imm	0
    5684:	b9f40580 	brlid	r15, 1408	// 5c04 <__malloc_unlock>
    5688:	f8c30004 	swi	r6, r3, 4
    568c:	b810fd20 	brid	-736		// 53ac
    5690:	30730008 	addik	r3, r19, 8
    5694:	10731800 	addk	r3, r19, r3
    5698:	e8830004 	lwi	r4, r3, 4
    569c:	10b70000 	addk	r5, r23, r0
    56a0:	a0840001 	ori	r4, r4, 1
    56a4:	b0000000 	imm	0
    56a8:	b9f4055c 	brlid	r15, 1372	// 5c04 <__malloc_unlock>
    56ac:	f8830004 	swi	r4, r3, 4
    56b0:	b810fcfc 	brid	-772		// 53ac
    56b4:	30730008 	addik	r3, r19, 8
    56b8:	b0000000 	imm	0
    56bc:	ea6073fc 	lwi	r19, r0, 29692
    56c0:	3080000f 	addik	r4, r0, 15
    56c4:	eb330004 	lwi	r25, r19, 4
    56c8:	a739fffc 	andi	r25, r25, -4
    56cc:	1476c800 	rsubk	r3, r22, r25
    56d0:	16432001 	cmp	r18, r3, r4
    56d4:	bcb2000c 	bgei	r18, 12		// 56e0
    56d8:	1656c803 	cmpu	r18, r22, r25
    56dc:	bcb2009c 	bgei	r18, 156		// 5778
    56e0:	b0000000 	imm	0
    56e4:	e86073ec 	lwi	r3, r0, 29676	// 73ec <__malloc_sbrk_base>
    56e8:	b0000000 	imm	0
    56ec:	eb407894 	lwi	r26, r0, 30868	// 7894 <__malloc_top_pad>
    56f0:	a863ffff 	xori	r3, r3, -1
    56f4:	be030268 	beqid	r3, 616		// 595c
    56f8:	1356d000 	addk	r26, r22, r26
    56fc:	335a008f 	addik	r26, r26, 143
    5700:	a75aff80 	andi	r26, r26, -128
    5704:	10b70000 	addk	r5, r23, r0
    5708:	b0000000 	imm	0
    570c:	b9f40500 	brlid	r15, 1280	// 5c0c <_sbrk_r>
    5710:	10da0000 	addk	r6, r26, r0
    5714:	13030000 	addk	r24, r3, r0
    5718:	a863ffff 	xori	r3, r3, -1
    571c:	be030020 	beqid	r3, 32		// 573c
    5720:	1093c800 	addk	r4, r19, r25
    5724:	1644c003 	cmpu	r18, r4, r24
    5728:	bcb20254 	bgei	r18, 596		// 597c
    572c:	b0000000 	imm	0
    5730:	306073f4 	addik	r3, r0, 29684	// 73f4 <__malloc_av_>
    5734:	88731800 	xor	r3, r19, r3
    5738:	bc030244 	beqi	r3, 580		// 597c
    573c:	b0000000 	imm	0
    5740:	ea6073fc 	lwi	r19, r0, 29692
    5744:	e8930004 	lwi	r4, r19, 4
    5748:	a484fffc 	andi	r4, r4, -4
    574c:	14762000 	rsubk	r3, r22, r4
    5750:	30a0000f 	addik	r5, r0, 15
    5754:	16432801 	cmp	r18, r3, r5
    5758:	bc520018 	blti	r18, 24		// 5770
    575c:	b0000000 	imm	0
    5760:	b9f404a4 	brlid	r15, 1188	// 5c04 <__malloc_unlock>
    5764:	10b70000 	addk	r5, r23, r0
    5768:	b810fc44 	brid	-956		// 53ac
    576c:	10600000 	addk	r3, r0, r0
    5770:	16562003 	cmpu	r18, r22, r4
    5774:	bc52ffe8 	blti	r18, -24		// 575c
    5778:	a0960001 	ori	r4, r22, 1
    577c:	a0630001 	ori	r3, r3, 1
    5780:	f8930004 	swi	r4, r19, 4
    5784:	12d3b000 	addk	r22, r19, r22
    5788:	f8760004 	swi	r3, r22, 4
    578c:	b0000000 	imm	0
    5790:	fac073fc 	swi	r22, r0, 29692
    5794:	b0000000 	imm	0
    5798:	b9f4046c 	brlid	r15, 1132	// 5c04 <__malloc_unlock>
    579c:	10b70000 	addk	r5, r23, r0
    57a0:	b810fc0c 	brid	-1012		// 53ac
    57a4:	30730008 	addik	r3, r19, 8
    57a8:	16471803 	cmpu	r18, r7, r3
    57ac:	beb20198 	bgeid	r18, 408		// 5944
    57b0:	30600054 	addik	r3, r0, 84
    57b4:	16471803 	cmpu	r18, r7, r3
    57b8:	be520300 	bltid	r18, 768		// 5ab8
    57bc:	30600154 	addik	r3, r0, 340
    57c0:	64f6000c 	bsrli	r7, r22, 12
    57c4:	30e7006e 	addik	r7, r7, 110
    57c8:	b810fcac 	brid	-852		// 5474
    57cc:	64c70403 	bslli	r6, r7, 3
    57d0:	30a00004 	addik	r5, r0, 4
    57d4:	16442803 	cmpu	r18, r4, r5
    57d8:	beb20178 	bgeid	r18, 376		// 5950
    57dc:	64a30006 	bsrli	r5, r3, 6
    57e0:	30a00014 	addik	r5, r0, 20
    57e4:	16442803 	cmpu	r18, r4, r5
    57e8:	be520324 	bltid	r18, 804		// 5b0c
    57ec:	30a00054 	addik	r5, r0, 84
    57f0:	30a4005b 	addik	r5, r4, 91
    57f4:	64e50403 	bslli	r7, r5, 3
    57f8:	b0000000 	imm	0
    57fc:	30e773f4 	addik	r7, r7, 29684
    5800:	e8870008 	lwi	r4, r7, 8
    5804:	89043800 	xor	r8, r4, r7
    5808:	be28001c 	bneid	r8, 28		// 5824
    580c:	64a50202 	bsrai	r5, r5, 2
    5810:	b81002c4 	brid	708		// 5ad4
    5814:	30600001 	addik	r3, r0, 1
    5818:	e8840008 	lwi	r4, r4, 8
    581c:	88a72000 	xor	r5, r7, r4
    5820:	bc050014 	beqi	r5, 20		// 5834
    5824:	e8a40004 	lwi	r5, r4, 4
    5828:	a4a5fffc 	andi	r5, r5, -4
    582c:	16451803 	cmpu	r18, r5, r3
    5830:	bc52ffe8 	blti	r18, -24		// 5818
    5834:	e864000c 	lwi	r3, r4, 12
    5838:	b0000000 	imm	0
    583c:	e90073f8 	lwi	r8, r0, 29688
    5840:	f873000c 	swi	r3, r19, 12
    5844:	f8930008 	swi	r4, r19, 8
    5848:	fa630008 	swi	r19, r3, 8
    584c:	b810fd18 	brid	-744		// 5564
    5850:	fa64000c 	swi	r19, r4, 12
    5854:	1073b000 	addk	r3, r19, r22
    5858:	10b70000 	addk	r5, r23, r0
    585c:	a2d60001 	ori	r22, r22, 1
    5860:	f8670004 	swi	r3, r7, 4
    5864:	b0000000 	imm	0
    5868:	f8607404 	swi	r3, r0, 29700
    586c:	fad30004 	swi	r22, r19, 4
    5870:	a0c80001 	ori	r6, r8, 1
    5874:	f883000c 	swi	r4, r3, 12
    5878:	f8830008 	swi	r4, r3, 8
    587c:	f8c30004 	swi	r6, r3, 4
    5880:	b0000000 	imm	0
    5884:	b9f40380 	brlid	r15, 896	// 5c04 <__malloc_unlock>
    5888:	d9081800 	sw	r8, r8, r3
    588c:	b810fb20 	brid	-1248		// 53ac
    5890:	30730008 	addik	r3, r19, 8
    5894:	b0000000 	imm	0
    5898:	e90073f8 	lwi	r8, r0, 29688
    589c:	b810fccc 	brid	-820		// 5568
    58a0:	64660202 	bsrai	r3, r6, 2
    58a4:	314a0001 	addik	r10, r10, 1
    58a8:	a46a0003 	andi	r3, r10, 3
    58ac:	be23fd14 	bneid	r3, -748		// 55c0
    58b0:	30e70008 	addik	r7, r7, 8
    58b4:	106b0000 	addk	r3, r11, r0
    58b8:	a4e60003 	andi	r7, r6, 3
    58bc:	be07031c 	beqid	r7, 796		// 5bd8
    58c0:	30a3fff8 	addik	r5, r3, -8
    58c4:	e8630000 	lwi	r3, r3, 0
    58c8:	88a32800 	xor	r5, r3, r5
    58cc:	be05ffec 	beqid	r5, -20		// 58b8
    58d0:	30c6ffff 	addik	r6, r6, -1
    58d4:	10842000 	addk	r4, r4, r4
    58d8:	16444003 	cmpu	r18, r4, r8
    58dc:	bc52fddc 	blti	r18, -548		// 56b8
    58e0:	be04fdd8 	beqid	r4, -552		// 56b8
    58e4:	84682000 	and	r3, r8, r4
    58e8:	be03007c 	beqid	r3, 124		// 5964
    58ec:	10ca0000 	addk	r6, r10, r0
    58f0:	b810fcc0 	brid	-832		// 55b0
    58f4:	65660403 	bslli	r11, r6, 3
    58f8:	30730008 	addik	r3, r19, 8
    58fc:	ea730014 	lwi	r19, r19, 20
    5900:	88639800 	xor	r3, r3, r19
    5904:	be03fbcc 	beqid	r3, -1076		// 54d0
    5908:	30c60002 	addik	r6, r6, 2
    590c:	b810fb04 	brid	-1276		// 5410
    5910:	e8730004 	lwi	r3, r19, 4
    5914:	e8e30004 	lwi	r7, r3, 4
    5918:	e893000c 	lwi	r4, r19, 12
    591c:	e8d30008 	lwi	r6, r19, 8
    5920:	10b70000 	addk	r5, r23, r0
    5924:	a0e70001 	ori	r7, r7, 1
    5928:	f8e30004 	swi	r7, r3, 4
    592c:	f886000c 	swi	r4, r6, 12
    5930:	b0000000 	imm	0
    5934:	b9f402d0 	brlid	r15, 720	// 5c04 <__malloc_unlock>
    5938:	f8c40008 	swi	r6, r4, 8
    593c:	b810fa70 	brid	-1424		// 53ac
    5940:	30730008 	addik	r3, r19, 8
    5944:	30e7005b 	addik	r7, r7, 91
    5948:	b810fb2c 	brid	-1236		// 5474
    594c:	64c70403 	bslli	r6, r7, 3
    5950:	30a50038 	addik	r5, r5, 56
    5954:	b810fea4 	brid	-348		// 57f8
    5958:	64e50403 	bslli	r7, r5, 3
    595c:	b810fda8 	brid	-600		// 5704
    5960:	335a0010 	addik	r26, r26, 16
    5964:	10842000 	addk	r4, r4, r4
    5968:	84644000 	and	r3, r4, r8
    596c:	be03fff8 	beqid	r3, -8		// 5964
    5970:	314a0004 	addik	r10, r10, 4
    5974:	b810fc38 	brid	-968		// 55ac
    5978:	10ca0000 	addk	r6, r10, r0
    597c:	b0000000 	imm	0
    5980:	e8607864 	lwi	r3, r0, 30820	// 7864 <__malloc_current_mallinfo>
    5984:	88a4c000 	xor	r5, r4, r24
    5988:	107a1800 	addk	r3, r26, r3
    598c:	b0000000 	imm	0
    5990:	f8607864 	swi	r3, r0, 30820	// 7864 <__malloc_current_mallinfo>
    5994:	be0501cc 	beqid	r5, 460		// 5b60
    5998:	a4a4007f 	andi	r5, r4, 127
    599c:	b0000000 	imm	0
    59a0:	e8a073ec 	lwi	r5, r0, 29676	// 73ec <__malloc_sbrk_base>
    59a4:	a8a5ffff 	xori	r5, r5, -1
    59a8:	be050204 	beqid	r5, 516		// 5bac
    59ac:	1484c000 	rsubk	r4, r4, r24
    59b0:	10632000 	addk	r3, r3, r4
    59b4:	b0000000 	imm	0
    59b8:	f8607864 	swi	r3, r0, 30820	// 7864 <__malloc_current_mallinfo>
    59bc:	a4780007 	andi	r3, r24, 7
    59c0:	be03001c 	beqid	r3, 28		// 59dc
    59c4:	30800080 	addik	r4, r0, 128	// 80 <_exit>
    59c8:	30e00008 	addik	r7, r0, 8	// 8 <_vector_sw_exception>
    59cc:	14833800 	rsubk	r4, r3, r7
    59d0:	30a00088 	addik	r5, r0, 136
    59d4:	13182000 	addk	r24, r24, r4
    59d8:	14832800 	rsubk	r4, r3, r5
    59dc:	1358d000 	addk	r26, r24, r26
    59e0:	a75a007f 	andi	r26, r26, 127
    59e4:	175a2000 	rsubk	r26, r26, r4
    59e8:	10b70000 	addk	r5, r23, r0
    59ec:	b0000000 	imm	0
    59f0:	b9f4021c 	brlid	r15, 540	// 5c0c <_sbrk_r>
    59f4:	10da0000 	addk	r6, r26, r0
    59f8:	a883ffff 	xori	r4, r3, -1
    59fc:	be0401a4 	beqid	r4, 420		// 5ba0
    5a00:	14781800 	rsubk	r3, r24, r3
    5a04:	1083d000 	addk	r4, r3, r26
    5a08:	a0840001 	ori	r4, r4, 1
    5a0c:	b0000000 	imm	0
    5a10:	e8607864 	lwi	r3, r0, 30820	// 7864 <__malloc_current_mallinfo>
    5a14:	f8980004 	swi	r4, r24, 4
    5a18:	b0000000 	imm	0
    5a1c:	308073f4 	addik	r4, r0, 29684	// 73f4 <__malloc_av_>
    5a20:	107a1800 	addk	r3, r26, r3
    5a24:	b0000000 	imm	0
    5a28:	fb0073fc 	swi	r24, r0, 29692
    5a2c:	b0000000 	imm	0
    5a30:	f8607864 	swi	r3, r0, 30820	// 7864 <__malloc_current_mallinfo>
    5a34:	88932000 	xor	r4, r19, r4
    5a38:	be040040 	beqid	r4, 64		// 5a78
    5a3c:	30a0000f 	addik	r5, r0, 15
    5a40:	16592803 	cmpu	r18, r25, r5
    5a44:	beb200e0 	bgeid	r18, 224		// 5b24
    5a48:	30e00005 	addik	r7, r0, 5
    5a4c:	e8d30004 	lwi	r6, r19, 4
    5a50:	3099fff4 	addik	r4, r25, -12
    5a54:	a484fff8 	andi	r4, r4, -8
    5a58:	a4c60001 	andi	r6, r6, 1
    5a5c:	80c43000 	or	r6, r4, r6
    5a60:	f8d30004 	swi	r6, r19, 4
    5a64:	10d32000 	addk	r6, r19, r4
    5a68:	f8e60004 	swi	r7, r6, 4
    5a6c:	16442803 	cmpu	r18, r4, r5
    5a70:	be52010c 	bltid	r18, 268		// 5b7c
    5a74:	f8e60008 	swi	r7, r6, 8
    5a78:	b0000000 	imm	0
    5a7c:	e8807890 	lwi	r4, r0, 30864	// 7890 <__malloc_max_sbrked_mem>
    5a80:	16432003 	cmpu	r18, r3, r4
    5a84:	bcb2000c 	bgei	r18, 12		// 5a90
    5a88:	b0000000 	imm	0
    5a8c:	f8607890 	swi	r3, r0, 30864	// 7890 <__malloc_max_sbrked_mem>
    5a90:	b0000000 	imm	0
    5a94:	e880788c 	lwi	r4, r0, 30860	// 788c <__malloc_max_total_mem>
    5a98:	16432003 	cmpu	r18, r3, r4
    5a9c:	beb20010 	bgeid	r18, 16		// 5aac
    5aa0:	12780000 	addk	r19, r24, r0
    5aa4:	b0000000 	imm	0
    5aa8:	f860788c 	swi	r3, r0, 30860	// 788c <__malloc_max_total_mem>
    5aac:	e8930004 	lwi	r4, r19, 4
    5ab0:	b810fc9c 	brid	-868		// 574c
    5ab4:	a484fffc 	andi	r4, r4, -4
    5ab8:	16471803 	cmpu	r18, r7, r3
    5abc:	be520038 	bltid	r18, 56		// 5af4
    5ac0:	30600554 	addik	r3, r0, 1364
    5ac4:	64f6000f 	bsrli	r7, r22, 15
    5ac8:	30e70077 	addik	r7, r7, 119
    5acc:	b810f9a8 	brid	-1624		// 5474
    5ad0:	64c70403 	bslli	r6, r7, 3
    5ad4:	b0000000 	imm	0
    5ad8:	e90073f8 	lwi	r8, r0, 29688
    5adc:	44632c00 	bsll	r3, r3, r5
    5ae0:	81034000 	or	r8, r3, r8
    5ae4:	b0000000 	imm	0
    5ae8:	f90073f8 	swi	r8, r0, 29688
    5aec:	b810fd54 	brid	-684		// 5840
    5af0:	10640000 	addk	r3, r4, r0
    5af4:	16471803 	cmpu	r18, r7, r3
    5af8:	bc520040 	blti	r18, 64		// 5b38
    5afc:	64f60012 	bsrli	r7, r22, 18
    5b00:	30e7007c 	addik	r7, r7, 124
    5b04:	b810f970 	brid	-1680		// 5474
    5b08:	64c70403 	bslli	r6, r7, 3
    5b0c:	16442803 	cmpu	r18, r4, r5
    5b10:	be520034 	bltid	r18, 52		// 5b44
    5b14:	64a3000c 	bsrli	r5, r3, 12
    5b18:	30a5006e 	addik	r5, r5, 110
    5b1c:	b810fcdc 	brid	-804		// 57f8
    5b20:	64e50403 	bslli	r7, r5, 3
    5b24:	30e00001 	addik	r7, r0, 1
    5b28:	f8f80004 	swi	r7, r24, 4
    5b2c:	12780000 	addk	r19, r24, r0
    5b30:	b810fc1c 	brid	-996		// 574c
    5b34:	10800000 	addk	r4, r0, r0
    5b38:	30c003f0 	addik	r6, r0, 1008
    5b3c:	b810f938 	brid	-1736		// 5474
    5b40:	30e0007e 	addik	r7, r0, 126
    5b44:	30a00154 	addik	r5, r0, 340
    5b48:	16442803 	cmpu	r18, r4, r5
    5b4c:	be520070 	bltid	r18, 112		// 5bbc
    5b50:	64a3000f 	bsrli	r5, r3, 15
    5b54:	30a50077 	addik	r5, r5, 119
    5b58:	b810fca0 	brid	-864		// 57f8
    5b5c:	64e50403 	bslli	r7, r5, 3
    5b60:	bc25fe3c 	bnei	r5, -452		// 599c
    5b64:	b0000000 	imm	0
    5b68:	eb0073fc 	lwi	r24, r0, 29692
    5b6c:	109ac800 	addk	r4, r26, r25
    5b70:	a0840001 	ori	r4, r4, 1
    5b74:	b810ff04 	brid	-252		// 5a78
    5b78:	f8980004 	swi	r4, r24, 4
    5b7c:	10b70000 	addk	r5, r23, r0
    5b80:	b0000000 	imm	0
    5b84:	b9f40570 	brlid	r15, 1392	// 60f4 <_free_r>
    5b88:	30d30008 	addik	r6, r19, 8
    5b8c:	b0000000 	imm	0
    5b90:	e8607864 	lwi	r3, r0, 30820	// 7864 <__malloc_current_mallinfo>
    5b94:	b0000000 	imm	0
    5b98:	eb0073fc 	lwi	r24, r0, 29692
    5b9c:	b800fedc 	bri	-292		// 5a78
    5ba0:	13440000 	addk	r26, r4, r0
    5ba4:	b810fe68 	brid	-408		// 5a0c
    5ba8:	30800001 	addik	r4, r0, 1
    5bac:	b0000000 	imm	0
    5bb0:	fb0073ec 	swi	r24, r0, 29676	// 73ec <__malloc_sbrk_base>
    5bb4:	b810fe0c 	brid	-500		// 59c0
    5bb8:	a4780007 	andi	r3, r24, 7
    5bbc:	30a00554 	addik	r5, r0, 1364
    5bc0:	16442803 	cmpu	r18, r4, r5
    5bc4:	bc52002c 	blti	r18, 44		// 5bf0
    5bc8:	64a30012 	bsrli	r5, r3, 18
    5bcc:	30a5007c 	addik	r5, r5, 124
    5bd0:	b810fc28 	brid	-984		// 57f8
    5bd4:	64e50403 	bslli	r7, r5, 3
    5bd8:	a864ffff 	xori	r3, r4, -1
    5bdc:	85081800 	and	r8, r8, r3
    5be0:	b0000000 	imm	0
    5be4:	f90073f8 	swi	r8, r0, 29688
    5be8:	b810fcf0 	brid	-784		// 58d8
    5bec:	10842000 	addk	r4, r4, r4
    5bf0:	30e003f0 	addik	r7, r0, 1008
    5bf4:	b810fc04 	brid	-1020		// 57f8
    5bf8:	30a0007e 	addik	r5, r0, 126

00005bfc <__malloc_lock>:
    5bfc:	b60f0008 	rtsd	r15, 8
    5c00:	80000000 	or	r0, r0, r0

00005c04 <__malloc_unlock>:
    5c04:	b60f0008 	rtsd	r15, 8
    5c08:	80000000 	or	r0, r0, r0

00005c0c <_sbrk_r>:
    5c0c:	3021ffe0 	addik	r1, r1, -32
    5c10:	fa61001c 	swi	r19, r1, 28
    5c14:	12650000 	addk	r19, r5, r0
    5c18:	f9e10000 	swi	r15, r1, 0
    5c1c:	b0000000 	imm	0
    5c20:	f80078a4 	swi	r0, r0, 30884	// 78a4 <errno>
    5c24:	b0000000 	imm	0
    5c28:	b9f40b24 	brlid	r15, 2852	// 674c <sbrk>
    5c2c:	10a60000 	addk	r5, r6, r0
    5c30:	a883ffff 	xori	r4, r3, -1
    5c34:	be040014 	beqid	r4, 20		// 5c48
    5c38:	e9e10000 	lwi	r15, r1, 0
    5c3c:	ea61001c 	lwi	r19, r1, 28
    5c40:	b60f0008 	rtsd	r15, 8
    5c44:	30210020 	addik	r1, r1, 32
    5c48:	b0000000 	imm	0
    5c4c:	e88078a4 	lwi	r4, r0, 30884	// 78a4 <errno>
    5c50:	bc04ffec 	beqi	r4, -20		// 5c3c
    5c54:	f8930000 	swi	r4, r19, 0
    5c58:	e9e10000 	lwi	r15, r1, 0
    5c5c:	ea61001c 	lwi	r19, r1, 28
    5c60:	b60f0008 	rtsd	r15, 8
    5c64:	30210020 	addik	r1, r1, 32

00005c68 <strlen>:
    5c68:	81200000 	or	r9, r0, r0

00005c6c <check_alignment>:
    5c6c:	a4650003 	andi	r3, r5, 3
    5c70:	bc230030 	bnei	r3, 48	// 5ca0 <align_arg>

00005c74 <len_loop>:
    5c74:	c8654a00 	lwr	r3, r5, r9
    5c78:	80830400 	pcmpbf	r4, r3, r0
    5c7c:	bc24000c 	bnei	r4, 12	// 5c88 <end_len>
    5c80:	b810fff4 	brid	-12	// 5c74 <len_loop>
    5c84:	31290004 	addik	r9, r9, 4

00005c88 <end_len>:
    5c88:	c0654800 	lbu	r3, r5, r9
    5c8c:	bc03000c 	beqi	r3, 12	// 5c98 <done_len>
    5c90:	b810fff8 	brid	-8	// 5c88 <end_len>
    5c94:	31290001 	addik	r9, r9, 1

00005c98 <done_len>:
    5c98:	b60f0008 	rtsd	r15, 8
    5c9c:	80604800 	or	r3, r0, r9

00005ca0 <align_arg>:
    5ca0:	35430004 	rsubik	r10, r3, 4

00005ca4 <align_loop>:
    5ca4:	c0654800 	lbu	r3, r5, r9
    5ca8:	be03fff0 	beqid	r3, -16	// 5c98 <done_len>
    5cac:	314affff 	addik	r10, r10, -1
    5cb0:	be2afff4 	bneid	r10, -12	// 5ca4 <align_loop>
    5cb4:	31290001 	addik	r9, r9, 1
    5cb8:	b800ffbc 	bri	-68	// 5c74 <len_loop>
    5cbc:	b60f0008 	rtsd	r15, 8
    5cc0:	80000000 	or	r0, r0, r0

00005cc4 <__call_exitprocs>:
    5cc4:	3021ffb8 	addik	r1, r1, -72
    5cc8:	fb810038 	swi	r28, r1, 56
    5ccc:	b0000000 	imm	0
    5cd0:	eb807140 	lwi	r28, r0, 28992	// 7140 <_global_impure_ptr>
    5cd4:	fb21002c 	swi	r25, r1, 44
    5cd8:	fbc10040 	swi	r30, r1, 64
    5cdc:	fbe10044 	swi	r31, r1, 68
    5ce0:	13c50000 	addk	r30, r5, r0
    5ce4:	13260000 	addk	r25, r6, r0
    5ce8:	b0000000 	imm	0
    5cec:	33e05330 	addik	r31, r0, 21296	// 5330 <free>
    5cf0:	fb610034 	swi	r27, r1, 52
    5cf4:	fba1003c 	swi	r29, r1, 60
    5cf8:	f9e10000 	swi	r15, r1, 0
    5cfc:	fa61001c 	swi	r19, r1, 28
    5d00:	fac10020 	swi	r22, r1, 32
    5d04:	fae10024 	swi	r23, r1, 36
    5d08:	fb010028 	swi	r24, r1, 40
    5d0c:	fb410030 	swi	r26, r1, 48
    5d10:	33bc0048 	addik	r29, r28, 72
    5d14:	33600001 	addik	r27, r0, 1
    5d18:	eadc0048 	lwi	r22, r28, 72
    5d1c:	be1600b4 	beqid	r22, 180		// 5dd0
    5d20:	135d0000 	addk	r26, r29, r0
    5d24:	e8760004 	lwi	r3, r22, 4
    5d28:	3263ffff 	addik	r19, r3, -1
    5d2c:	be5300a0 	bltid	r19, 160		// 5dcc
    5d30:	eaf60088 	lwi	r23, r22, 136
    5d34:	bc190104 	beqi	r25, 260		// 5e38
    5d38:	bc370010 	bnei	r23, 16		// 5d48
    5d3c:	b8000090 	bri	144		// 5dcc
    5d40:	3273ffff 	addik	r19, r19, -1
    5d44:	bc530088 	blti	r19, 136		// 5dcc
    5d48:	30730020 	addik	r3, r19, 32
    5d4c:	64630402 	bslli	r3, r3, 2
    5d50:	c863b800 	lw	r3, r3, r23
    5d54:	8863c800 	xor	r3, r3, r25
    5d58:	be23ffe8 	bneid	r3, -24		// 5d40
    5d5c:	30f30002 	addik	r7, r19, 2
    5d60:	eb160004 	lwi	r24, r22, 4
    5d64:	64e70402 	bslli	r7, r7, 2
    5d68:	30d8ffff 	addik	r6, r24, -1
    5d6c:	89069800 	xor	r8, r6, r19
    5d70:	be0800a8 	beqid	r8, 168		// 5e18
    5d74:	c887b000 	lw	r4, r7, r22
    5d78:	d867b000 	sw	r3, r7, r22
    5d7c:	be04ffc4 	beqid	r4, -60		// 5d40
    5d80:	447b9c00 	bsll	r3, r27, r19
    5d84:	e8d70100 	lwi	r6, r23, 256
    5d88:	84c33000 	and	r6, r3, r6
    5d8c:	bc06007c 	beqi	r6, 124		// 5e08
    5d90:	e8b70104 	lwi	r5, r23, 260
    5d94:	84632800 	and	r3, r3, r5
    5d98:	be03008c 	beqid	r3, 140		// 5e24
    5d9c:	64730402 	bslli	r3, r19, 2
    5da0:	99fc2000 	brald	r15, r4
    5da4:	c8a3b800 	lw	r5, r3, r23
    5da8:	e8760004 	lwi	r3, r22, 4
    5dac:	8b03c000 	xor	r24, r3, r24
    5db0:	bc38ff68 	bnei	r24, -152		// 5d18
    5db4:	e87a0000 	lwi	r3, r26, 0
    5db8:	8863b000 	xor	r3, r3, r22
    5dbc:	be23ff5c 	bneid	r3, -164		// 5d18
    5dc0:	3273ffff 	addik	r19, r19, -1
    5dc4:	beb3ff88 	bgeid	r19, -120		// 5d4c
    5dc8:	30730020 	addik	r3, r19, 32
    5dcc:	bc3f0188 	bnei	r31, 392		// 5f54
    5dd0:	e9e10000 	lwi	r15, r1, 0
    5dd4:	ea61001c 	lwi	r19, r1, 28
    5dd8:	eac10020 	lwi	r22, r1, 32
    5ddc:	eae10024 	lwi	r23, r1, 36
    5de0:	eb010028 	lwi	r24, r1, 40
    5de4:	eb21002c 	lwi	r25, r1, 44
    5de8:	eb410030 	lwi	r26, r1, 48
    5dec:	eb610034 	lwi	r27, r1, 52
    5df0:	eb810038 	lwi	r28, r1, 56
    5df4:	eba1003c 	lwi	r29, r1, 60
    5df8:	ebc10040 	lwi	r30, r1, 64
    5dfc:	ebe10044 	lwi	r31, r1, 68
    5e00:	b60f0008 	rtsd	r15, 8
    5e04:	30210048 	addik	r1, r1, 72
    5e08:	99fc2000 	brald	r15, r4
    5e0c:	80000000 	or	r0, r0, r0
    5e10:	b810ff9c 	brid	-100		// 5dac
    5e14:	e8760004 	lwi	r3, r22, 4
    5e18:	f8d60004 	swi	r6, r22, 4
    5e1c:	b810ff60 	brid	-160		// 5d7c
    5e20:	13060000 	addk	r24, r6, r0
    5e24:	10be0000 	addk	r5, r30, r0
    5e28:	99fc2000 	brald	r15, r4
    5e2c:	c8c3b800 	lw	r6, r3, r23
    5e30:	b810ff7c 	brid	-132		// 5dac
    5e34:	e8760004 	lwi	r3, r22, 4
    5e38:	be1700d8 	beqid	r23, 216		// 5f10
    5e3c:	30d30002 	addik	r6, r19, 2
    5e40:	13030000 	addk	r24, r3, r0
    5e44:	64c60402 	bslli	r6, r6, 2
    5e48:	3063ffff 	addik	r3, r3, -1
    5e4c:	88e39800 	xor	r7, r3, r19
    5e50:	be07007c 	beqid	r7, 124		// 5ecc
    5e54:	c886b000 	lw	r4, r6, r22
    5e58:	d806b000 	sw	r0, r6, r22
    5e5c:	be040048 	beqid	r4, 72		// 5ea4
    5e60:	447b9c00 	bsll	r3, r27, r19
    5e64:	e8b70100 	lwi	r5, r23, 256
    5e68:	84a32800 	and	r5, r3, r5
    5e6c:	bc0500c8 	beqi	r5, 200		// 5f34
    5e70:	e8b70104 	lwi	r5, r23, 260
    5e74:	84632800 	and	r3, r3, r5
    5e78:	be2300cc 	bneid	r3, 204		// 5f44
    5e7c:	64730402 	bslli	r3, r19, 2
    5e80:	10be0000 	addk	r5, r30, r0
    5e84:	99fc2000 	brald	r15, r4
    5e88:	c8c3b800 	lw	r6, r3, r23
    5e8c:	e8760004 	lwi	r3, r22, 4
    5e90:	8863c000 	xor	r3, r3, r24
    5e94:	bc23fe84 	bnei	r3, -380		// 5d18
    5e98:	e87a0000 	lwi	r3, r26, 0
    5e9c:	8863b000 	xor	r3, r3, r22
    5ea0:	bc23fe78 	bnei	r3, -392		// 5d18
    5ea4:	3273ffff 	addik	r19, r19, -1
    5ea8:	be53ff24 	bltid	r19, -220		// 5dcc
    5eac:	30d30002 	addik	r6, r19, 2
    5eb0:	e8760004 	lwi	r3, r22, 4
    5eb4:	64c60402 	bslli	r6, r6, 2
    5eb8:	13030000 	addk	r24, r3, r0
    5ebc:	3063ffff 	addik	r3, r3, -1
    5ec0:	88e39800 	xor	r7, r3, r19
    5ec4:	be27ff94 	bneid	r7, -108		// 5e58
    5ec8:	c886b000 	lw	r4, r6, r22
    5ecc:	f8760004 	swi	r3, r22, 4
    5ed0:	b810ff8c 	brid	-116		// 5e5c
    5ed4:	13030000 	addk	r24, r3, r0
    5ed8:	13030000 	addk	r24, r3, r0
    5edc:	f8760004 	swi	r3, r22, 4
    5ee0:	bc060024 	beqi	r6, 36		// 5f04
    5ee4:	99fc3000 	brald	r15, r6
    5ee8:	80000000 	or	r0, r0, r0
    5eec:	e8760004 	lwi	r3, r22, 4
    5ef0:	8863c000 	xor	r3, r3, r24
    5ef4:	bc23fe24 	bnei	r3, -476		// 5d18
    5ef8:	e87a0000 	lwi	r3, r26, 0
    5efc:	8863b000 	xor	r3, r3, r22
    5f00:	bc23fe18 	bnei	r3, -488		// 5d18
    5f04:	3273ffff 	addik	r19, r19, -1
    5f08:	bc53fec4 	blti	r19, -316		// 5dcc
    5f0c:	e8760004 	lwi	r3, r22, 4
    5f10:	30930002 	addik	r4, r19, 2
    5f14:	13030000 	addk	r24, r3, r0
    5f18:	64840402 	bslli	r4, r4, 2
    5f1c:	3063ffff 	addik	r3, r3, -1
    5f20:	88a39800 	xor	r5, r3, r19
    5f24:	be05ffb4 	beqid	r5, -76		// 5ed8
    5f28:	c8c4b000 	lw	r6, r4, r22
    5f2c:	b810ffb4 	brid	-76		// 5ee0
    5f30:	d804b000 	sw	r0, r4, r22
    5f34:	99fc2000 	brald	r15, r4
    5f38:	80000000 	or	r0, r0, r0
    5f3c:	b810ff54 	brid	-172		// 5e90
    5f40:	e8760004 	lwi	r3, r22, 4
    5f44:	99fc2000 	brald	r15, r4
    5f48:	c8a3b800 	lw	r5, r3, r23
    5f4c:	b810ff44 	brid	-188		// 5e90
    5f50:	e8760004 	lwi	r3, r22, 4
    5f54:	e8760004 	lwi	r3, r22, 4
    5f58:	bc230040 	bnei	r3, 64		// 5f98
    5f5c:	e8760000 	lwi	r3, r22, 0
    5f60:	bc03003c 	beqi	r3, 60		// 5f9c
    5f64:	be170014 	beqid	r23, 20		// 5f78
    5f68:	f87a0000 	swi	r3, r26, 0
    5f6c:	b000ffff 	imm	-1
    5f70:	b9f4f3c0 	brlid	r15, -3136	// 5330 <free>
    5f74:	10b70000 	addk	r5, r23, r0
    5f78:	b000ffff 	imm	-1
    5f7c:	b9f4f3b4 	brlid	r15, -3148	// 5330 <free>
    5f80:	10b60000 	addk	r5, r22, r0
    5f84:	eada0000 	lwi	r22, r26, 0
    5f88:	be36fd9c 	bneid	r22, -612		// 5d24
    5f8c:	e9e10000 	lwi	r15, r1, 0
    5f90:	b810fe48 	brid	-440		// 5dd8
    5f94:	ea61001c 	lwi	r19, r1, 28
    5f98:	e8760000 	lwi	r3, r22, 0
    5f9c:	13560000 	addk	r26, r22, r0
    5fa0:	b810ffe8 	brid	-24		// 5f88
    5fa4:	12c30000 	addk	r22, r3, r0

00005fa8 <_malloc_trim_r>:
    5fa8:	3021ffd8 	addik	r1, r1, -40
    5fac:	fa61001c 	swi	r19, r1, 28
    5fb0:	fac10020 	swi	r22, r1, 32
    5fb4:	fae10024 	swi	r23, r1, 36
    5fb8:	12650000 	addk	r19, r5, r0
    5fbc:	f9e10000 	swi	r15, r1, 0
    5fc0:	b000ffff 	imm	-1
    5fc4:	b9f4fc38 	brlid	r15, -968	// 5bfc <__malloc_lock>
    5fc8:	12e60000 	addk	r23, r6, r0
    5fcc:	b0000000 	imm	0
    5fd0:	e86073fc 	lwi	r3, r0, 29692
    5fd4:	eac30004 	lwi	r22, r3, 4
    5fd8:	a6d6fffc 	andi	r22, r22, -4
    5fdc:	3076006f 	addik	r3, r22, 111
    5fe0:	16f71800 	rsubk	r23, r23, r3
    5fe4:	a6f7ff80 	andi	r23, r23, -128
    5fe8:	32f7ff80 	addik	r23, r23, -128
    5fec:	3060007f 	addik	r3, r0, 127
    5ff0:	16571801 	cmp	r18, r23, r3
    5ff4:	beb2002c 	bgeid	r18, 44		// 6020
    5ff8:	10b30000 	addk	r5, r19, r0
    5ffc:	b000ffff 	imm	-1
    6000:	b9f4fc0c 	brlid	r15, -1012	// 5c0c <_sbrk_r>
    6004:	10c00000 	addk	r6, r0, r0
    6008:	b0000000 	imm	0
    600c:	e88073fc 	lwi	r4, r0, 29692
    6010:	1084b000 	addk	r4, r4, r22
    6014:	88632000 	xor	r3, r3, r4
    6018:	be030030 	beqid	r3, 48		// 6048
    601c:	10b30000 	addk	r5, r19, r0
    6020:	b000ffff 	imm	-1
    6024:	b9f4fbe0 	brlid	r15, -1056	// 5c04 <__malloc_unlock>
    6028:	80000000 	or	r0, r0, r0
    602c:	e9e10000 	lwi	r15, r1, 0
    6030:	ea61001c 	lwi	r19, r1, 28
    6034:	eac10020 	lwi	r22, r1, 32
    6038:	eae10024 	lwi	r23, r1, 36
    603c:	10600000 	addk	r3, r0, r0
    6040:	b60f0008 	rtsd	r15, 8
    6044:	30210028 	addik	r1, r1, 40
    6048:	b000ffff 	imm	-1
    604c:	b9f4fbc0 	brlid	r15, -1088	// 5c0c <_sbrk_r>
    6050:	14d70000 	rsubk	r6, r23, r0
    6054:	a8c3ffff 	xori	r6, r3, -1
    6058:	be060054 	beqid	r6, 84		// 60ac
    605c:	16d7b000 	rsubk	r22, r23, r22
    6060:	b0000000 	imm	0
    6064:	e8607864 	lwi	r3, r0, 30820	// 7864 <__malloc_current_mallinfo>
    6068:	10b30000 	addk	r5, r19, r0
    606c:	16f71800 	rsubk	r23, r23, r3
    6070:	b0000000 	imm	0
    6074:	e86073fc 	lwi	r3, r0, 29692
    6078:	a2d60001 	ori	r22, r22, 1
    607c:	b0000000 	imm	0
    6080:	fae07864 	swi	r23, r0, 30820	// 7864 <__malloc_current_mallinfo>
    6084:	b000ffff 	imm	-1
    6088:	b9f4fb7c 	brlid	r15, -1156	// 5c04 <__malloc_unlock>
    608c:	fac30004 	swi	r22, r3, 4
    6090:	e9e10000 	lwi	r15, r1, 0
    6094:	ea61001c 	lwi	r19, r1, 28
    6098:	eac10020 	lwi	r22, r1, 32
    609c:	eae10024 	lwi	r23, r1, 36
    60a0:	30600001 	addik	r3, r0, 1
    60a4:	b60f0008 	rtsd	r15, 8
    60a8:	30210028 	addik	r1, r1, 40
    60ac:	b000ffff 	imm	-1
    60b0:	b9f4fb5c 	brlid	r15, -1188	// 5c0c <_sbrk_r>
    60b4:	10b30000 	addk	r5, r19, r0
    60b8:	b0000000 	imm	0
    60bc:	e88073fc 	lwi	r4, r0, 29692
    60c0:	30c0000f 	addik	r6, r0, 15
    60c4:	14a41800 	rsubk	r5, r4, r3
    60c8:	16453001 	cmp	r18, r5, r6
    60cc:	bcb20020 	bgei	r18, 32		// 60ec
    60d0:	a0a50001 	ori	r5, r5, 1
    60d4:	f8a40004 	swi	r5, r4, 4
    60d8:	b0000000 	imm	0
    60dc:	e88073ec 	lwi	r4, r0, 29676	// 73ec <__malloc_sbrk_base>
    60e0:	14641800 	rsubk	r3, r4, r3
    60e4:	b0000000 	imm	0
    60e8:	f8607864 	swi	r3, r0, 30820	// 7864 <__malloc_current_mallinfo>
    60ec:	b810ff34 	brid	-204		// 6020
    60f0:	10b30000 	addk	r5, r19, r0

000060f4 <_free_r>:
    60f4:	3021ffdc 	addik	r1, r1, -36
    60f8:	fa61001c 	swi	r19, r1, 28
    60fc:	fac10020 	swi	r22, r1, 32
    6100:	f9e10000 	swi	r15, r1, 0
    6104:	12660000 	addk	r19, r6, r0
    6108:	be060160 	beqid	r6, 352		// 6268
    610c:	12c50000 	addk	r22, r5, r0
    6110:	b000ffff 	imm	-1
    6114:	b9f4fae8 	brlid	r15, -1304	// 5bfc <__malloc_lock>
    6118:	80000000 	or	r0, r0, r0
    611c:	e913fffc 	lwi	r8, r19, -4
    6120:	30f3fff8 	addik	r7, r19, -8
    6124:	b0000000 	imm	0
    6128:	e8a073fc 	lwi	r5, r0, 29692
    612c:	a468fffe 	andi	r3, r8, -2
    6130:	10871800 	addk	r4, r7, r3
    6134:	e8c40004 	lwi	r6, r4, 4
    6138:	88a52000 	xor	r5, r5, r4
    613c:	b0000000 	imm	0
    6140:	314073fc 	addik	r10, r0, 29692
    6144:	be050180 	beqid	r5, 384		// 62c4
    6148:	a4c6fffc 	andi	r6, r6, -4
    614c:	f8c40004 	swi	r6, r4, 4
    6150:	a5080001 	andi	r8, r8, 1
    6154:	be280034 	bneid	r8, 52		// 6188
    6158:	11200000 	addk	r9, r0, r0
    615c:	e973fff8 	lwi	r11, r19, -8
    6160:	14eb3800 	rsubk	r7, r11, r7
    6164:	e8a70008 	lwi	r5, r7, 8
    6168:	10635800 	addk	r3, r3, r11
    616c:	89655000 	xor	r11, r5, r10
    6170:	be0b0018 	beqid	r11, 24		// 6188
    6174:	31200001 	addik	r9, r0, 1
    6178:	e967000c 	lwi	r11, r7, 12
    617c:	11280000 	addk	r9, r8, r0
    6180:	f965000c 	swi	r11, r5, 12
    6184:	f8ab0008 	swi	r5, r11, 8
    6188:	10a43000 	addk	r5, r4, r6
    618c:	e8a50004 	lwi	r5, r5, 4
    6190:	a4a50001 	andi	r5, r5, 1
    6194:	bc25002c 	bnei	r5, 44		// 61c0
    6198:	10633000 	addk	r3, r3, r6
    619c:	be290018 	bneid	r9, 24		// 61b4
    61a0:	e8a40008 	lwi	r5, r4, 8
    61a4:	89455000 	xor	r10, r5, r10
    61a8:	b0000000 	imm	0
    61ac:	30c073fc 	addik	r6, r0, 29692
    61b0:	bc0a0170 	beqi	r10, 368		// 6320
    61b4:	e884000c 	lwi	r4, r4, 12
    61b8:	f885000c 	swi	r4, r5, 12
    61bc:	f8a40008 	swi	r5, r4, 8
    61c0:	a0830001 	ori	r4, r3, 1
    61c4:	f8870004 	swi	r4, r7, 4
    61c8:	be290094 	bneid	r9, 148		// 625c
    61cc:	d8633800 	sw	r3, r3, r7
    61d0:	308001ff 	addik	r4, r0, 511
    61d4:	16432003 	cmpu	r18, r3, r4
    61d8:	beb200a4 	bgeid	r18, 164		// 627c
    61dc:	64830009 	bsrli	r4, r3, 9
    61e0:	30a00004 	addik	r5, r0, 4
    61e4:	16442803 	cmpu	r18, r4, r5
    61e8:	be520158 	bltid	r18, 344		// 6340
    61ec:	30a00014 	addik	r5, r0, 20
    61f0:	64a30006 	bsrli	r5, r3, 6
    61f4:	30a50038 	addik	r5, r5, 56
    61f8:	64c50403 	bslli	r6, r5, 3
    61fc:	b0000000 	imm	0
    6200:	30c673f4 	addik	r6, r6, 29684
    6204:	e8860008 	lwi	r4, r6, 8
    6208:	89043000 	xor	r8, r4, r6
    620c:	be080148 	beqid	r8, 328		// 6354
    6210:	64a50202 	bsrai	r5, r5, 2
    6214:	e8a40004 	lwi	r5, r4, 4
    6218:	a4a5fffc 	andi	r5, r5, -4
    621c:	16451803 	cmpu	r18, r5, r3
    6220:	bc52001c 	blti	r18, 28		// 623c
    6224:	b8100028 	brid	40		// 624c
    6228:	e864000c 	lwi	r3, r4, 12
    622c:	e9040004 	lwi	r8, r4, 4
    6230:	a508fffc 	andi	r8, r8, -4
    6234:	16481803 	cmpu	r18, r8, r3
    6238:	bcb20010 	bgei	r18, 16		// 6248
    623c:	e8840008 	lwi	r4, r4, 8
    6240:	89062000 	xor	r8, r6, r4
    6244:	bc28ffe8 	bnei	r8, -24		// 622c
    6248:	e864000c 	lwi	r3, r4, 12
    624c:	f867000c 	swi	r3, r7, 12
    6250:	f8870008 	swi	r4, r7, 8
    6254:	f8e30008 	swi	r7, r3, 8
    6258:	f8e4000c 	swi	r7, r4, 12
    625c:	b000ffff 	imm	-1
    6260:	b9f4f9a4 	brlid	r15, -1628	// 5c04 <__malloc_unlock>
    6264:	10b60000 	addk	r5, r22, r0
    6268:	e9e10000 	lwi	r15, r1, 0
    626c:	ea61001c 	lwi	r19, r1, 28
    6270:	eac10020 	lwi	r22, r1, 32
    6274:	b60f0008 	rtsd	r15, 8
    6278:	30210024 	addik	r1, r1, 36
    627c:	64630003 	bsrli	r3, r3, 3
    6280:	64830403 	bslli	r4, r3, 3
    6284:	64630202 	bsrai	r3, r3, 2
    6288:	b0000000 	imm	0
    628c:	308473f4 	addik	r4, r4, 29684
    6290:	30c00001 	addik	r6, r0, 1
    6294:	e8a40008 	lwi	r5, r4, 8
    6298:	44661c00 	bsll	r3, r6, r3
    629c:	b0000000 	imm	0
    62a0:	e8c073f8 	lwi	r6, r0, 29688
    62a4:	f887000c 	swi	r4, r7, 12
    62a8:	f8a70008 	swi	r5, r7, 8
    62ac:	80633000 	or	r3, r3, r6
    62b0:	b0000000 	imm	0
    62b4:	f86073f8 	swi	r3, r0, 29688
    62b8:	f8e40008 	swi	r7, r4, 8
    62bc:	b810ffa0 	brid	-96		// 625c
    62c0:	f8e5000c 	swi	r7, r5, 12
    62c4:	a5080001 	andi	r8, r8, 1
    62c8:	be280024 	bneid	r8, 36		// 62ec
    62cc:	10661800 	addk	r3, r6, r3
    62d0:	e8b3fff8 	lwi	r5, r19, -8
    62d4:	14e53800 	rsubk	r7, r5, r7
    62d8:	e887000c 	lwi	r4, r7, 12
    62dc:	e8c70008 	lwi	r6, r7, 8
    62e0:	10632800 	addk	r3, r3, r5
    62e4:	f886000c 	swi	r4, r6, 12
    62e8:	f8c40008 	swi	r6, r4, 8
    62ec:	a0830001 	ori	r4, r3, 1
    62f0:	f8870004 	swi	r4, r7, 4
    62f4:	b0000000 	imm	0
    62f8:	e88073f0 	lwi	r4, r0, 29680	// 73f0 <__malloc_trim_threshold>
    62fc:	b0000000 	imm	0
    6300:	f8e073fc 	swi	r7, r0, 29692
    6304:	16441803 	cmpu	r18, r4, r3
    6308:	bc52ff54 	blti	r18, -172		// 625c
    630c:	b0000000 	imm	0
    6310:	e8c07894 	lwi	r6, r0, 30868	// 7894 <__malloc_top_pad>
    6314:	b9f4fc94 	brlid	r15, -876	// 5fa8 <_malloc_trim_r>
    6318:	10b60000 	addk	r5, r22, r0
    631c:	b800ff40 	bri	-192		// 625c
    6320:	f8e6000c 	swi	r7, r6, 12
    6324:	f8e60008 	swi	r7, r6, 8
    6328:	a0830001 	ori	r4, r3, 1
    632c:	f8c7000c 	swi	r6, r7, 12
    6330:	f8c70008 	swi	r6, r7, 8
    6334:	f8870004 	swi	r4, r7, 4
    6338:	b810ff24 	brid	-220		// 625c
    633c:	d8633800 	sw	r3, r3, r7
    6340:	16442803 	cmpu	r18, r4, r5
    6344:	be520034 	bltid	r18, 52		// 6378
    6348:	30a4005b 	addik	r5, r4, 91
    634c:	b810feb0 	brid	-336		// 61fc
    6350:	64c50403 	bslli	r6, r5, 3
    6354:	30600001 	addik	r3, r0, 1
    6358:	44632c00 	bsll	r3, r3, r5
    635c:	b0000000 	imm	0
    6360:	e8a073f8 	lwi	r5, r0, 29688
    6364:	80632800 	or	r3, r3, r5
    6368:	b0000000 	imm	0
    636c:	f86073f8 	swi	r3, r0, 29688
    6370:	b810fedc 	brid	-292		// 624c
    6374:	10640000 	addk	r3, r4, r0
    6378:	30a00054 	addik	r5, r0, 84
    637c:	16442803 	cmpu	r18, r4, r5
    6380:	be520014 	bltid	r18, 20		// 6394
    6384:	64a3000c 	bsrli	r5, r3, 12
    6388:	30a5006e 	addik	r5, r5, 110
    638c:	b810fe70 	brid	-400		// 61fc
    6390:	64c50403 	bslli	r6, r5, 3
    6394:	30a00154 	addik	r5, r0, 340
    6398:	16442803 	cmpu	r18, r4, r5
    639c:	be520014 	bltid	r18, 20		// 63b0
    63a0:	64a3000f 	bsrli	r5, r3, 15
    63a4:	30a50077 	addik	r5, r5, 119
    63a8:	b810fe54 	brid	-428		// 61fc
    63ac:	64c50403 	bslli	r6, r5, 3
    63b0:	30a00554 	addik	r5, r0, 1364
    63b4:	16442803 	cmpu	r18, r4, r5
    63b8:	bc520014 	blti	r18, 20		// 63cc
    63bc:	64a30012 	bsrli	r5, r3, 18
    63c0:	30a5007c 	addik	r5, r5, 124
    63c4:	b810fe38 	brid	-456		// 61fc
    63c8:	64c50403 	bslli	r6, r5, 3
    63cc:	30c003f0 	addik	r6, r0, 1008
    63d0:	b810fe2c 	brid	-468		// 61fc
    63d4:	30a0007e 	addik	r5, r0, 126

000063d8 <cleanup_glue>:
    63d8:	3021ffbc 	addik	r1, r1, -68
    63dc:	fa61001c 	swi	r19, r1, 28
    63e0:	fb21002c 	swi	r25, r1, 44
    63e4:	f9e10000 	swi	r15, r1, 0
    63e8:	fac10020 	swi	r22, r1, 32
    63ec:	fae10024 	swi	r23, r1, 36
    63f0:	fb010028 	swi	r24, r1, 40
    63f4:	fb410030 	swi	r26, r1, 48
    63f8:	fb610034 	swi	r27, r1, 52
    63fc:	fb810038 	swi	r28, r1, 56
    6400:	fba1003c 	swi	r29, r1, 60
    6404:	fbc10040 	swi	r30, r1, 64
    6408:	eac60000 	lwi	r22, r6, 0
    640c:	13260000 	addk	r25, r6, r0
    6410:	be1600d0 	beqid	r22, 208		// 64e0
    6414:	12650000 	addk	r19, r5, r0
    6418:	eaf60000 	lwi	r23, r22, 0
    641c:	bc1700b4 	beqi	r23, 180		// 64d0
    6420:	eb170000 	lwi	r24, r23, 0
    6424:	bc18009c 	beqi	r24, 156		// 64c0
    6428:	eb580000 	lwi	r26, r24, 0
    642c:	bc1a0084 	beqi	r26, 132		// 64b0
    6430:	eb7a0000 	lwi	r27, r26, 0
    6434:	bc1b006c 	beqi	r27, 108		// 64a0
    6438:	eb9b0000 	lwi	r28, r27, 0
    643c:	bc1c0054 	beqi	r28, 84		// 6490
    6440:	ebbc0000 	lwi	r29, r28, 0
    6444:	bc1d003c 	beqi	r29, 60		// 6480
    6448:	ebdd0000 	lwi	r30, r29, 0
    644c:	bc1e0024 	beqi	r30, 36		// 6470
    6450:	e8de0000 	lwi	r6, r30, 0
    6454:	bc06000c 	beqi	r6, 12		// 6460
    6458:	b9f4ff80 	brlid	r15, -128	// 63d8 <cleanup_glue>
    645c:	80000000 	or	r0, r0, r0
    6460:	10b30000 	addk	r5, r19, r0
    6464:	b000ffff 	imm	-1
    6468:	b9f4fc8c 	brlid	r15, -884	// 60f4 <_free_r>
    646c:	10de0000 	addk	r6, r30, r0
    6470:	10b30000 	addk	r5, r19, r0
    6474:	b000ffff 	imm	-1
    6478:	b9f4fc7c 	brlid	r15, -900	// 60f4 <_free_r>
    647c:	10dd0000 	addk	r6, r29, r0
    6480:	10b30000 	addk	r5, r19, r0
    6484:	b000ffff 	imm	-1
    6488:	b9f4fc6c 	brlid	r15, -916	// 60f4 <_free_r>
    648c:	10dc0000 	addk	r6, r28, r0
    6490:	10b30000 	addk	r5, r19, r0
    6494:	b000ffff 	imm	-1
    6498:	b9f4fc5c 	brlid	r15, -932	// 60f4 <_free_r>
    649c:	10db0000 	addk	r6, r27, r0
    64a0:	10b30000 	addk	r5, r19, r0
    64a4:	b000ffff 	imm	-1
    64a8:	b9f4fc4c 	brlid	r15, -948	// 60f4 <_free_r>
    64ac:	10da0000 	addk	r6, r26, r0
    64b0:	10b30000 	addk	r5, r19, r0
    64b4:	b000ffff 	imm	-1
    64b8:	b9f4fc3c 	brlid	r15, -964	// 60f4 <_free_r>
    64bc:	10d80000 	addk	r6, r24, r0
    64c0:	10b30000 	addk	r5, r19, r0
    64c4:	b000ffff 	imm	-1
    64c8:	b9f4fc2c 	brlid	r15, -980	// 60f4 <_free_r>
    64cc:	10d70000 	addk	r6, r23, r0
    64d0:	10b30000 	addk	r5, r19, r0
    64d4:	b000ffff 	imm	-1
    64d8:	b9f4fc1c 	brlid	r15, -996	// 60f4 <_free_r>
    64dc:	10d60000 	addk	r6, r22, r0
    64e0:	10b30000 	addk	r5, r19, r0
    64e4:	b000ffff 	imm	-1
    64e8:	b9f4fc0c 	brlid	r15, -1012	// 60f4 <_free_r>
    64ec:	10d90000 	addk	r6, r25, r0
    64f0:	e9e10000 	lwi	r15, r1, 0
    64f4:	ea61001c 	lwi	r19, r1, 28
    64f8:	eac10020 	lwi	r22, r1, 32
    64fc:	eae10024 	lwi	r23, r1, 36
    6500:	eb010028 	lwi	r24, r1, 40
    6504:	eb21002c 	lwi	r25, r1, 44
    6508:	eb410030 	lwi	r26, r1, 48
    650c:	eb610034 	lwi	r27, r1, 52
    6510:	eb810038 	lwi	r28, r1, 56
    6514:	eba1003c 	lwi	r29, r1, 60
    6518:	ebc10040 	lwi	r30, r1, 64
    651c:	b60f0008 	rtsd	r15, 8
    6520:	30210044 	addik	r1, r1, 68

00006524 <_reclaim_reent>:
    6524:	b0000000 	imm	0
    6528:	e86072f8 	lwi	r3, r0, 29432	// 72f8 <_impure_ptr>
    652c:	3021ffd4 	addik	r1, r1, -44
    6530:	fa61001c 	swi	r19, r1, 28
    6534:	f9e10000 	swi	r15, r1, 0
    6538:	fac10020 	swi	r22, r1, 32
    653c:	fae10024 	swi	r23, r1, 36
    6540:	fb010028 	swi	r24, r1, 40
    6544:	88651800 	xor	r3, r5, r3
    6548:	be030124 	beqid	r3, 292		// 666c
    654c:	12650000 	addk	r19, r5, r0
    6550:	e8650024 	lwi	r3, r5, 36
    6554:	bc03007c 	beqi	r3, 124		// 65d0
    6558:	e883000c 	lwi	r4, r3, 12
    655c:	bc040060 	beqi	r4, 96		// 65bc
    6560:	10600000 	addk	r3, r0, r0
    6564:	13030000 	addk	r24, r3, r0
    6568:	32e00020 	addik	r23, r0, 32	// 20 <_vector_hw_exception>
    656c:	64630402 	bslli	r3, r3, 2
    6570:	c8c32000 	lw	r6, r3, r4
    6574:	bc060024 	beqi	r6, 36		// 6598
    6578:	10b30000 	addk	r5, r19, r0
    657c:	b000ffff 	imm	-1
    6580:	b9f4fb74 	brlid	r15, -1164	// 60f4 <_free_r>
    6584:	eac60000 	lwi	r22, r6, 0
    6588:	be36fff0 	bneid	r22, -16		// 6578
    658c:	10d60000 	addk	r6, r22, r0
    6590:	e8730024 	lwi	r3, r19, 36
    6594:	e883000c 	lwi	r4, r3, 12
    6598:	33180001 	addik	r24, r24, 1
    659c:	32f7ffff 	addik	r23, r23, -1
    65a0:	be37ffcc 	bneid	r23, -52		// 656c
    65a4:	10780000 	addk	r3, r24, r0
    65a8:	10b30000 	addk	r5, r19, r0
    65ac:	b000ffff 	imm	-1
    65b0:	b9f4fb44 	brlid	r15, -1212	// 60f4 <_free_r>
    65b4:	10c40000 	addk	r6, r4, r0
    65b8:	e8730024 	lwi	r3, r19, 36
    65bc:	e8c30000 	lwi	r6, r3, 0
    65c0:	bc060010 	beqi	r6, 16		// 65d0
    65c4:	b000ffff 	imm	-1
    65c8:	b9f4fb2c 	brlid	r15, -1236	// 60f4 <_free_r>
    65cc:	10b30000 	addk	r5, r19, r0
    65d0:	e8d30014 	lwi	r6, r19, 20
    65d4:	bc060010 	beqi	r6, 16		// 65e4
    65d8:	b000ffff 	imm	-1
    65dc:	b9f4fb18 	brlid	r15, -1256	// 60f4 <_free_r>
    65e0:	10b30000 	addk	r5, r19, r0
    65e4:	e8d30024 	lwi	r6, r19, 36
    65e8:	bc060010 	beqi	r6, 16		// 65f8
    65ec:	b000ffff 	imm	-1
    65f0:	b9f4fb04 	brlid	r15, -1276	// 60f4 <_free_r>
    65f4:	10b30000 	addk	r5, r19, r0
    65f8:	e8d30038 	lwi	r6, r19, 56
    65fc:	bc060010 	beqi	r6, 16		// 660c
    6600:	b000ffff 	imm	-1
    6604:	b9f4faf0 	brlid	r15, -1296	// 60f4 <_free_r>
    6608:	10b30000 	addk	r5, r19, r0
    660c:	e8d3003c 	lwi	r6, r19, 60
    6610:	bc060010 	beqi	r6, 16		// 6620
    6614:	b000ffff 	imm	-1
    6618:	b9f4fadc 	brlid	r15, -1316	// 60f4 <_free_r>
    661c:	10b30000 	addk	r5, r19, r0
    6620:	e8d30040 	lwi	r6, r19, 64
    6624:	bc060010 	beqi	r6, 16		// 6634
    6628:	b000ffff 	imm	-1
    662c:	b9f4fac8 	brlid	r15, -1336	// 60f4 <_free_r>
    6630:	10b30000 	addk	r5, r19, r0
    6634:	e8730048 	lwi	r3, r19, 72
    6638:	bc030018 	beqi	r3, 24		// 6650
    663c:	e8c30088 	lwi	r6, r3, 136
    6640:	bc060010 	beqi	r6, 16		// 6650
    6644:	b000ffff 	imm	-1
    6648:	b9f4faac 	brlid	r15, -1364	// 60f4 <_free_r>
    664c:	10b30000 	addk	r5, r19, r0
    6650:	e8d30034 	lwi	r6, r19, 52
    6654:	bc060010 	beqi	r6, 16		// 6664
    6658:	b000ffff 	imm	-1
    665c:	b9f4fa98 	brlid	r15, -1384	// 60f4 <_free_r>
    6660:	10b30000 	addk	r5, r19, r0
    6664:	e8730018 	lwi	r3, r19, 24
    6668:	bc230020 	bnei	r3, 32		// 6688
    666c:	e9e10000 	lwi	r15, r1, 0
    6670:	ea61001c 	lwi	r19, r1, 28
    6674:	eac10020 	lwi	r22, r1, 32
    6678:	eae10024 	lwi	r23, r1, 36
    667c:	eb010028 	lwi	r24, r1, 40
    6680:	b60f0008 	rtsd	r15, 8
    6684:	3021002c 	addik	r1, r1, 44
    6688:	e8730028 	lwi	r3, r19, 40
    668c:	99fc1800 	brald	r15, r3
    6690:	10b30000 	addk	r5, r19, r0
    6694:	e8d300d8 	lwi	r6, r19, 216
    6698:	be06ffd8 	beqid	r6, -40		// 6670
    669c:	e9e10000 	lwi	r15, r1, 0
    66a0:	b9f4fd38 	brlid	r15, -712	// 63d8 <cleanup_glue>
    66a4:	10b30000 	addk	r5, r19, r0
    66a8:	e9e10000 	lwi	r15, r1, 0
    66ac:	ea61001c 	lwi	r19, r1, 28
    66b0:	eac10020 	lwi	r22, r1, 32
    66b4:	eae10024 	lwi	r23, r1, 36
    66b8:	eb010028 	lwi	r24, r1, 40
    66bc:	b60f0008 	rtsd	r15, 8
    66c0:	3021002c 	addik	r1, r1, 44

000066c4 <_wrapup_reent>:
    66c4:	3021ffd8 	addik	r1, r1, -40
    66c8:	fae10024 	swi	r23, r1, 36
    66cc:	f9e10000 	swi	r15, r1, 0
    66d0:	fa61001c 	swi	r19, r1, 28
    66d4:	fac10020 	swi	r22, r1, 32
    66d8:	be050064 	beqid	r5, 100		// 673c
    66dc:	12e50000 	addk	r23, r5, r0
    66e0:	ead70048 	lwi	r22, r23, 72
    66e4:	bc16002c 	beqi	r22, 44		// 6710
    66e8:	ea760004 	lwi	r19, r22, 4
    66ec:	3273ffff 	addik	r19, r19, -1
    66f0:	be530020 	bltid	r19, 32		// 6710
    66f4:	30730002 	addik	r3, r19, 2
    66f8:	64630402 	bslli	r3, r3, 2
    66fc:	c863b000 	lw	r3, r3, r22
    6700:	99fc1800 	brald	r15, r3
    6704:	3273ffff 	addik	r19, r19, -1
    6708:	beb3fff0 	bgeid	r19, -16		// 66f8
    670c:	30730002 	addik	r3, r19, 2
    6710:	e8770028 	lwi	r3, r23, 40
    6714:	be030014 	beqid	r3, 20		// 6728
    6718:	e9e10000 	lwi	r15, r1, 0
    671c:	99fc1800 	brald	r15, r3
    6720:	10b70000 	addk	r5, r23, r0
    6724:	e9e10000 	lwi	r15, r1, 0
    6728:	ea61001c 	lwi	r19, r1, 28
    672c:	eac10020 	lwi	r22, r1, 32
    6730:	eae10024 	lwi	r23, r1, 36
    6734:	b60f0008 	rtsd	r15, 8
    6738:	30210028 	addik	r1, r1, 40
    673c:	b0000000 	imm	0
    6740:	eae072f8 	lwi	r23, r0, 29432	// 72f8 <_impure_ptr>
    6744:	b810ffa0 	brid	-96		// 66e4
    6748:	ead70048 	lwi	r22, r23, 72

0000674c <sbrk>:
    674c:	b0000000 	imm	0
    6750:	e8607898 	lwi	r3, r0, 30872	// 7898 <heap_ptr>
    6754:	3021ffe4 	addik	r1, r1, -28
    6758:	be03004c 	beqid	r3, 76		// 67a4
    675c:	f9e10000 	swi	r15, r1, 0
    6760:	b0000001 	imm	1
    6764:	3080c8a8 	addik	r4, r0, -14168
    6768:	10a32800 	addk	r5, r3, r5
    676c:	b0000000 	imm	0
    6770:	f8a07898 	swi	r5, r0, 30872	// 7898 <heap_ptr>
    6774:	16452003 	cmpu	r18, r5, r4
    6778:	beb20024 	bgeid	r18, 36		// 679c
    677c:	e9e10000 	lwi	r15, r1, 0
    6780:	b0000000 	imm	0
    6784:	b9f402d8 	brlid	r15, 728	// 6a5c <__errno>
    6788:	80000000 	or	r0, r0, r0
    678c:	3080000c 	addik	r4, r0, 12
    6790:	f8830000 	swi	r4, r3, 0
    6794:	3060ffff 	addik	r3, r0, -1
    6798:	e9e10000 	lwi	r15, r1, 0
    679c:	b60f0008 	rtsd	r15, 8
    67a0:	3021001c 	addik	r1, r1, 28
    67a4:	b0000000 	imm	0
    67a8:	306078a8 	addik	r3, r0, 30888	// 78a8 <__bss_end>
    67ac:	b800ffb4 	bri	-76		// 6760

000067b0 <__do_global_ctors_aux>:
    67b0:	b0000000 	imm	0
    67b4:	e8606ac8 	lwi	r3, r0, 27336	// 6ac8 <__CTOR_LIST__>
    67b8:	3021ffe0 	addik	r1, r1, -32
    67bc:	f9e10000 	swi	r15, r1, 0
    67c0:	a883ffff 	xori	r4, r3, -1
    67c4:	be040028 	beqid	r4, 40		// 67ec
    67c8:	fa61001c 	swi	r19, r1, 28
    67cc:	b0000000 	imm	0
    67d0:	32606ac8 	addik	r19, r0, 27336	// 6ac8 <__CTOR_LIST__>
    67d4:	99fc1800 	brald	r15, r3
    67d8:	80000000 	or	r0, r0, r0
    67dc:	e873fffc 	lwi	r3, r19, -4
    67e0:	a883ffff 	xori	r4, r3, -1
    67e4:	be24fff0 	bneid	r4, -16		// 67d4
    67e8:	3273fffc 	addik	r19, r19, -4
    67ec:	e9e10000 	lwi	r15, r1, 0
    67f0:	ea61001c 	lwi	r19, r1, 28
    67f4:	b60f0008 	rtsd	r15, 8
    67f8:	30210020 	addik	r1, r1, 32

000067fc <main>:
    67fc:	3021ffe0 	addik	r1, r1, -32
    6800:	fa61001c 	swi	r19, r1, 28
    6804:	f9e10000 	swi	r15, r1, 0
    6808:	b000ffff 	imm	-1
    680c:	b9f4eaf8 	brlid	r15, -5384	// 5304 <malloc>
    6810:	30a009e8 	addik	r5, r0, 2536
    6814:	be0300b8 	beqid	r3, 184		// 68cc
    6818:	12630000 	addk	r19, r3, r0
    681c:	10b30000 	addk	r5, r19, r0
    6820:	10c00000 	addk	r6, r0, r0
    6824:	b000ffff 	imm	-1
    6828:	b9f4cb20 	brlid	r15, -13536	// 3348 <mmemset>
    682c:	30e009e8 	addik	r7, r0, 2536
    6830:	b000ffff 	imm	-1
    6834:	b9f4c19c 	brlid	r15, -15972	// 29d0 <init_preset_0>
    6838:	10b30000 	addk	r5, r19, r0
    683c:	11530000 	addk	r10, r19, r0
    6840:	b0000000 	imm	0
    6844:	30c07204 	addik	r6, r0, 29188	// 7204 <kernelnames>
    6848:	b0000000 	imm	0
    684c:	30e0718c 	addik	r7, r0, 29068	// 718c <kernels>
    6850:	b0000000 	imm	0
    6854:	310071c8 	addik	r8, r0, 29128	// 71c8 <kernelInit>
    6858:	b0000000 	imm	0
    685c:	31207150 	addik	r9, r0, 29008	// 7150 <kernelFini>
    6860:	b000ffff 	imm	-1
    6864:	b9f4d070 	brlid	r15, -12176	// 38d4 <initParameters_fromPreset>
    6868:	30a0000e 	addik	r5, r0, 14
    686c:	b0000000 	imm	0
    6870:	30a06b00 	addik	r5, r0, 27392
    6874:	b000ffff 	imm	-1
    6878:	b9f4d8b4 	brlid	r15, -10060	// 412c <xil_printf>
    687c:	80000000 	or	r0, r0, r0
    6880:	b000ffff 	imm	-1
    6884:	b9f4d17c 	brlid	r15, -11908	// 3a00 <runAll>
    6888:	10b30000 	addk	r5, r19, r0
    688c:	b000ffff 	imm	-1
    6890:	b9f4d488 	brlid	r15, -11128	// 3d18 <printResults>
    6894:	10b30000 	addk	r5, r19, r0
    6898:	b000ffff 	imm	-1
    689c:	b9f4ea94 	brlid	r15, -5484	// 5330 <free>
    68a0:	10b30000 	addk	r5, r19, r0
    68a4:	b0000000 	imm	0
    68a8:	30a06b18 	addik	r5, r0, 27416
    68ac:	b000ffff 	imm	-1
    68b0:	b9f4d87c 	brlid	r15, -10116	// 412c <xil_printf>
    68b4:	80000000 	or	r0, r0, r0
    68b8:	e9e10000 	lwi	r15, r1, 0
    68bc:	ea61001c 	lwi	r19, r1, 28
    68c0:	10600000 	addk	r3, r0, r0
    68c4:	b60f0008 	rtsd	r15, 8
    68c8:	30210020 	addik	r1, r1, 32
    68cc:	b0000000 	imm	0
    68d0:	30a06ad8 	addik	r5, r0, 27352	// 6ad8 <__rodata_start>
    68d4:	b0000000 	imm	0
    68d8:	30c06ae8 	addik	r6, r0, 27368
    68dc:	b000ffff 	imm	-1
    68e0:	b9f4cab8 	brlid	r15, -13640	// 3398 <mexit>
    68e4:	30e0003b 	addik	r7, r0, 59
    68e8:	b810ff38 	brid	-200		// 6820
    68ec:	10b30000 	addk	r5, r19, r0

000068f0 <__interrupt_handler>:
    68f0:	3021ffac 	addik	r1, r1, -84
    68f4:	f9e10000 	swi	r15, r1, 0
    68f8:	f8210020 	swi	r1, r1, 32
    68fc:	f8610024 	swi	r3, r1, 36
    6900:	f8810028 	swi	r4, r1, 40
    6904:	f8a1002c 	swi	r5, r1, 44
    6908:	f8c10030 	swi	r6, r1, 48
    690c:	f8e10034 	swi	r7, r1, 52
    6910:	f9010038 	swi	r8, r1, 56
    6914:	f921003c 	swi	r9, r1, 60
    6918:	f9410040 	swi	r10, r1, 64
    691c:	b0000000 	imm	0
    6920:	30607800 	addik	r3, r0, 30720	// 7800 <MB_InterruptVectorTable>
    6924:	f9610044 	swi	r11, r1, 68
    6928:	f9810048 	swi	r12, r1, 72
    692c:	fa21004c 	swi	r17, r1, 76
    6930:	95608001 	mfs	r11, rmsr
    6934:	e8830000 	lwi	r4, r3, 0
    6938:	e8a30004 	lwi	r5, r3, 4
    693c:	fa410050 	swi	r18, r1, 80
    6940:	f961001c 	swi	r11, r1, 28
    6944:	99fc2000 	brald	r15, r4
    6948:	80000000 	or	r0, r0, r0
    694c:	e9e10000 	lwi	r15, r1, 0
    6950:	e961001c 	lwi	r11, r1, 28
    6954:	e8210020 	lwi	r1, r1, 32
    6958:	940bc001 	mts	rmsr, r11
    695c:	e8610024 	lwi	r3, r1, 36
    6960:	e8810028 	lwi	r4, r1, 40
    6964:	e8a1002c 	lwi	r5, r1, 44
    6968:	e8c10030 	lwi	r6, r1, 48
    696c:	e8e10034 	lwi	r7, r1, 52
    6970:	e9010038 	lwi	r8, r1, 56
    6974:	e921003c 	lwi	r9, r1, 60
    6978:	e9410040 	lwi	r10, r1, 64
    697c:	e9610044 	lwi	r11, r1, 68
    6980:	e9810048 	lwi	r12, r1, 72
    6984:	ea21004c 	lwi	r17, r1, 76
    6988:	ea410050 	lwi	r18, r1, 80
    698c:	b62e0000 	rtid	r14, 0
    6990:	30210054 	addik	r1, r1, 84

00006994 <microblaze_register_handler>:
    6994:	b0000000 	imm	0
    6998:	30607800 	addik	r3, r0, 30720	// 7800 <MB_InterruptVectorTable>
    699c:	f8a30000 	swi	r5, r3, 0
    69a0:	b60f0008 	rtsd	r15, 8
    69a4:	f8c30004 	swi	r6, r3, 4

000069a8 <outbyte>:
    69a8:	a4c500ff 	andi	r6, r5, 255
    69ac:	b0004060 	imm	16480
    69b0:	30a00000 	addik	r5, r0, 0
    69b4:	3021ffe4 	addik	r1, r1, -28
    69b8:	f9e10000 	swi	r15, r1, 0
    69bc:	b0000000 	imm	0
    69c0:	b9f40014 	brlid	r15, 20	// 69d4 <XUartLite_SendByte>
    69c4:	80000000 	or	r0, r0, r0
    69c8:	e9e10000 	lwi	r15, r1, 0
    69cc:	b60f0008 	rtsd	r15, 8
    69d0:	3021001c 	addik	r1, r1, 28

000069d4 <XUartLite_SendByte>:
    69d4:	30850008 	addik	r4, r5, 8
    69d8:	e8640000 	lwi	r3, r4, 0
    69dc:	a4630008 	andi	r3, r3, 8
    69e0:	bc23fff8 	bnei	r3, -8		// 69d8
    69e4:	f8c50004 	swi	r6, r5, 4
    69e8:	b60f0008 	rtsd	r15, 8
    69ec:	80000000 	or	r0, r0, r0

000069f0 <XUartLite_RecvByte>:
    69f0:	30850008 	addik	r4, r5, 8
    69f4:	e8640000 	lwi	r3, r4, 0
    69f8:	a4630001 	andi	r3, r3, 1
    69fc:	bc03fff8 	beqi	r3, -8		// 69f4
    6a00:	e8650000 	lwi	r3, r5, 0
    6a04:	b60f0008 	rtsd	r15, 8
    6a08:	a46300ff 	andi	r3, r3, 255

00006a0c <XAssert>:
    6a0c:	b0000000 	imm	0
    6a10:	e860789c 	lwi	r3, r0, 30876	// 789c <XAssertCallbackRoutine>
    6a14:	3021ffe4 	addik	r1, r1, -28
    6a18:	be030010 	beqid	r3, 16		// 6a28
    6a1c:	f9e10000 	swi	r15, r1, 0
    6a20:	99fc1800 	brald	r15, r3
    6a24:	80000000 	or	r0, r0, r0
    6a28:	b0000000 	imm	0
    6a2c:	e8607808 	lwi	r3, r0, 30728	// 7808 <XWaitInAssert>
    6a30:	be230010 	bneid	r3, 16		// 6a40
    6a34:	e9e10000 	lwi	r15, r1, 0
    6a38:	b60f0008 	rtsd	r15, 8
    6a3c:	3021001c 	addik	r1, r1, 28
    6a40:	b8000000 	bri	0		// 6a40

00006a44 <XAssertSetCallback>:
    6a44:	b0000000 	imm	0
    6a48:	f8a0789c 	swi	r5, r0, 30876	// 789c <XAssertCallbackRoutine>
    6a4c:	b60f0008 	rtsd	r15, 8
    6a50:	80000000 	or	r0, r0, r0

00006a54 <XNullHandler>:
    6a54:	b60f0008 	rtsd	r15, 8
    6a58:	80000000 	or	r0, r0, r0

00006a5c <__errno>:
    6a5c:	b0000000 	imm	0
    6a60:	e86072f8 	lwi	r3, r0, 29432	// 72f8 <_impure_ptr>
    6a64:	b60f0008 	rtsd	r15, 8
    6a68:	80000000 	or	r0, r0, r0

Disassembly of section .init:

00006a6c <__init>:
    6a6c:	3021fff8 	addik	r1, r1, -8
    6a70:	d9e00800 	sw	r15, r0, r1
    6a74:	3160ffff 	addik	r11, r0, -1
    6a78:	940bc802 	mts	rshr, r11
    6a7c:	31600000 	addik	r11, r0, 0
    6a80:	940bc800 	mts	rslr, r11
    6a84:	b000ffff 	imm	-1
    6a88:	b9f496b0 	brlid	r15, -26960	// 138 <frame_dummy>
    6a8c:	80000000 	or	r0, r0, r0
    6a90:	b000ffff 	imm	-1
    6a94:	b9f4fd1c 	brlid	r15, -740	// 67b0 <__do_global_ctors_aux>
    6a98:	80000000 	or	r0, r0, r0
    6a9c:	c9e00800 	lw	r15, r0, r1
    6aa0:	b60f0008 	rtsd	r15, 8
    6aa4:	30210008 	addik	r1, r1, 8

Disassembly of section .fini:

00006aa8 <__fini>:
    6aa8:	3021fff8 	addik	r1, r1, -8
    6aac:	d9e00800 	sw	r15, r0, r1
    6ab0:	b000ffff 	imm	-1
    6ab4:	b9f495d0 	brlid	r15, -27184	// 84 <__do_global_dtors_aux>
    6ab8:	80000000 	or	r0, r0, r0
    6abc:	c9e00800 	lw	r15, r0, r1
    6ac0:	b60f0008 	rtsd	r15, 8
    6ac4:	30210008 	addik	r1, r1, 8

Disassembly of section .ctors:

00006ac8 <__CTOR_LIST__>:
    6ac8:	ffffffff 	sli	r31, r31, -1

00006acc <__CTOR_END__>:
    6acc:	
Disassembly of section .dtors:

00006ad0 <__DTOR_LIST__>:
    6ad0:	ffffffff 	sli	r31, r31, -1

00006ad4 <__DTOR_END__>:
    6ad4:	
Disassembly of section .rodata:

00006ad8 <__rodata_start>:
    6ad8:	2074756f 	addi	r3, r20, 30063
    6adc:	6d20666f 	necget	r9, rfsl15
    6ae0:	726f6d65 		r19, r15, r13
    6ae4:	00000079 		r0, r0, r0
    6ae8:	2e2f2e2e 	rsubic	r17, r15, 11822
    6aec:	72732f2e 		r19, r19, r5
    6af0:	72732f63 		r19, r19, r5
    6af4:	616d2f63 	muli	r11, r13, 12131
    6af8:	632e6e69 	muli	r25, r14, 28265
    6afc:	
00006ea8 <__thenan_df>:
	...

00006ebc <_ctype_>:
    6ebc:	20202000 	addi	r1, r0, 8192	// 2000 <state_fragment>
    6ec0:	20202020 	addi	r1, r0, 8224
    6ec4:	28282020 	addic	r1, r8, 8224
    6ec8:	20282828 	addi	r1, r8, 10280
    6ecc:	20202020 	addi	r1, r0, 8224
    6ed0:	20202020 	addi	r1, r0, 8224
    6ed4:	20202020 	addi	r1, r0, 8224
    6ed8:	20202020 	addi	r1, r0, 8224
    6edc:	10108820 		r0, r16, r17
    6ee0:	10101010 		r0, r16, r2
    6ee4:	10101010 		r0, r16, r2
    6ee8:	10101010 		r0, r16, r2
    6eec:	04040410 	neg	r0, r4
    6ef0:	04040404 	neg	r0, r4
    6ef4:	10040404 		r0, r4, r0
    6ef8:	10101010 		r0, r16, r2
    6efc:	41411010 		r10, r1, r2
    6f00:	41414141 		r10, r1, r8
    6f04:	01010101 		r8, r1, r0
    6f08:	01010101 		r8, r1, r0
    6f0c:	01010101 		r8, r1, r0
    6f10:	01010101 		r8, r1, r0
    6f14:	01010101 		r8, r1, r0
    6f18:	10101010 		r0, r16, r2
    6f1c:	42421010 		r18, r2, r2
    6f20:	42424242 		r18, r2, r8
    6f24:	02020202 		r16, r2, r0
    6f28:	02020202 		r16, r2, r0
    6f2c:	02020202 		r16, r2, r0
    6f30:	02020202 		r16, r2, r0
    6f34:	02020202 		r16, r2, r0
    6f38:	10101010 		r0, r16, r2
    6f3c:	00000020 		r0, r0, r0
	...

00006fc0 <_ctype_b>:
	...
    7040:	20202020 	addi	r1, r0, 8224
    7044:	20202020 	addi	r1, r0, 8224
    7048:	28282820 	addic	r1, r8, 10272
    704c:	20202828 	addi	r1, r0, 10280
    7050:	20202020 	addi	r1, r0, 8224
    7054:	20202020 	addi	r1, r0, 8224
    7058:	20202020 	addi	r1, r0, 8224
    705c:	20202020 	addi	r1, r0, 8224
    7060:	10101088 		r0, r16, r2
    7064:	10101010 		r0, r16, r2
    7068:	10101010 		r0, r16, r2
    706c:	10101010 		r0, r16, r2
    7070:	04040404 	neg	r0, r4
    7074:	04040404 	neg	r0, r4
    7078:	10100404 		r0, r16, r0
    707c:	10101010 		r0, r16, r2
    7080:	41414110 		r10, r1, r8
    7084:	01414141 		r10, r1, r8
    7088:	01010101 		r8, r1, r0
    708c:	01010101 		r8, r1, r0
    7090:	01010101 		r8, r1, r0
    7094:	01010101 		r8, r1, r0
    7098:	10010101 		r0, r1, r0
    709c:	10101010 		r0, r16, r2
    70a0:	42424210 		r18, r2, r8
    70a4:	02424242 		r18, r2, r8
    70a8:	02020202 		r16, r2, r0
    70ac:	02020202 		r16, r2, r0
    70b0:	02020202 		r16, r2, r0
    70b4:	02020202 		r16, r2, r0
    70b8:	10020202 		r0, r2, r0
    70bc:	20101010 	addi	r0, r16, 4112
	...

00007140 <_global_impure_ptr>:
    7140:	000072fc 		r0, r0, r14
    7144:	Address 0x0000000000007144 is out of bounds.


Disassembly of section .data:

00007148 <__data_start>:
    7148:	
0000714c <__dso_handle>:
    714c:	
00007150 <kernelFini>:
    7150:	00000dcc 		r0, r0, r1
    7154:	00000d8c 		r0, r0, r1
    7158:	00000d4c 		r0, r0, r1
    715c:	00000d0c 		r0, r0, r1
    7160:	00000cb4 		r0, r0, r1
    7164:	00000c74 		r0, r0, r1
    7168:	00000c34 		r0, r0, r1
    716c:	00000b8c 		r0, r0, r1
    7170:	00000b14 		r0, r0, r1
    7174:	00000abc 		r0, r0, r1
    7178:	00000a6c 		r0, r0, r1
    717c:	00000a1c 		r0, r0, r1
    7180:	000009c4 		r0, r0, r1
    7184:	00000974 		r0, r0, r1
    7188:	
0000718c <kernels>:
    718c:	00001e38 		r0, r0, r3
    7190:	00001f0c 		r0, r0, r3
    7194:	0000024c 		r0, r0, r0
    7198:	000028f8 		r0, r0, r5
    719c:	00002000 	add	r0, r0, r4
    71a0:	0000118c 		r0, r0, r2
    71a4:	000002b0 		r0, r0, r0
    71a8:	000003cc 		r0, r0, r0
    71ac:	000005c4 		r0, r0, r0
    71b0:	0000215c 		r0, r0, r4
    71b4:	000008c8 		r0, r0, r1
    71b8:	000025bc 		r0, r0, r4
    71bc:	000026bc 		r0, r0, r4
    71c0:	00002860 		r0, r0, r5
    71c4:	
000071c8 <kernelInit>:
    71c8:	00001774 		r0, r0, r2
    71cc:	000016c8 		r0, r0, r2
    71d0:	00001610 		r0, r0, r2
    71d4:	000014c4 		r0, r0, r2
    71d8:	000013e4 		r0, r0, r2
    71dc:	00001334 		r0, r0, r2
    71e0:	000010dc 		r0, r0, r2
    71e4:	00001bb8 		r0, r0, r3
    71e8:	00001a74 		r0, r0, r3
    71ec:	00000f7c 		r0, r0, r1
    71f0:	00000ec4 		r0, r0, r1
    71f4:	00001980 		r0, r0, r3
    71f8:	000018a4 		r0, r0, r3
    71fc:	00000e24 		r0, r0, r1
    7200:	
00007204 <kernelnames>:
    7204:	00006b34 		r0, r0, r13
    7208:	00006b3c 		r0, r0, r13
    720c:	00006b48 		r0, r0, r13
    7210:	00006b54 		r0, r0, r13
    7214:	00006b68 		r0, r0, r13
    7218:	00006b74 		r0, r0, r13
    721c:	00006b88 		r0, r0, r13
    7220:	00006b9c 		r0, r0, r13
    7224:	00006ba4 		r0, r0, r13
    7228:	00006bac 		r0, r0, r13
    722c:	00006bb8 		r0, r0, r13
    7230:	00006bc0 		r0, r0, r13
    7234:	00006bc8 		r0, r0, r13
    7238:	00006bdc 		r0, r0, r13
    723c:	
00007240 <ref_data_index>:
    7240:	001d0001 		r0, r29, r0
    7244:	
000072f4 <__ctype_ptr__>:
    72f4:	0000703f 		r0, r0, r14

000072f8 <_impure_ptr>:
    72f8:	000072fc 		r0, r0, r14

000072fc <impure_data>:
	...
    731c:	00007144 		r0, r0, r14
	...

000073ec <__malloc_sbrk_base>:
    73ec:	ffffffff 	sli	r31, r31, -1

000073f0 <__malloc_trim_threshold>:
    73f0:	00020000 	add	r0, r2, r0

000073f4 <__malloc_av_>:
	...
    73fc:	000073f4 		r0, r0, r14
    7400:	000073f4 		r0, r0, r14
    7404:	000073fc 		r0, r0, r14
    7408:	000073fc 		r0, r0, r14
    740c:	00007404 		r0, r0, r14
    7410:	00007404 		r0, r0, r14
    7414:	0000740c 		r0, r0, r14
    7418:	0000740c 		r0, r0, r14
    741c:	00007414 		r0, r0, r14
    7420:	00007414 		r0, r0, r14
    7424:	0000741c 		r0, r0, r14
    7428:	0000741c 		r0, r0, r14
    742c:	00007424 		r0, r0, r14
    7430:	00007424 		r0, r0, r14
    7434:	0000742c 		r0, r0, r14
    7438:	0000742c 		r0, r0, r14
    743c:	00007434 		r0, r0, r14
    7440:	00007434 		r0, r0, r14
    7444:	0000743c 		r0, r0, r14
    7448:	0000743c 		r0, r0, r14
    744c:	00007444 		r0, r0, r14
    7450:	00007444 		r0, r0, r14
    7454:	0000744c 		r0, r0, r14
    7458:	0000744c 		r0, r0, r14
    745c:	00007454 		r0, r0, r14
    7460:	00007454 		r0, r0, r14
    7464:	0000745c 		r0, r0, r14
    7468:	0000745c 		r0, r0, r14
    746c:	00007464 		r0, r0, r14
    7470:	00007464 		r0, r0, r14
    7474:	0000746c 		r0, r0, r14
    7478:	0000746c 		r0, r0, r14
    747c:	00007474 		r0, r0, r14
    7480:	00007474 		r0, r0, r14
    7484:	0000747c 		r0, r0, r14
    7488:	0000747c 		r0, r0, r14
    748c:	00007484 		r0, r0, r14
    7490:	00007484 		r0, r0, r14
    7494:	0000748c 		r0, r0, r14
    7498:	0000748c 		r0, r0, r14
    749c:	00007494 		r0, r0, r14
    74a0:	00007494 		r0, r0, r14
    74a4:	0000749c 		r0, r0, r14
    74a8:	0000749c 		r0, r0, r14
    74ac:	000074a4 		r0, r0, r14
    74b0:	000074a4 		r0, r0, r14
    74b4:	000074ac 		r0, r0, r14
    74b8:	000074ac 		r0, r0, r14
    74bc:	000074b4 		r0, r0, r14
    74c0:	000074b4 		r0, r0, r14
    74c4:	000074bc 		r0, r0, r14
    74c8:	000074bc 		r0, r0, r14
    74cc:	000074c4 		r0, r0, r14
    74d0:	000074c4 		r0, r0, r14
    74d4:	000074cc 		r0, r0, r14
    74d8:	000074cc 		r0, r0, r14
    74dc:	000074d4 		r0, r0, r14
    74e0:	000074d4 		r0, r0, r14
    74e4:	000074dc 		r0, r0, r14
    74e8:	000074dc 		r0, r0, r14
    74ec:	000074e4 		r0, r0, r14
    74f0:	000074e4 		r0, r0, r14
    74f4:	000074ec 		r0, r0, r14
    74f8:	000074ec 		r0, r0, r14
    74fc:	000074f4 		r0, r0, r14
    7500:	000074f4 		r0, r0, r14
    7504:	000074fc 		r0, r0, r14
    7508:	000074fc 		r0, r0, r14
    750c:	00007504 		r0, r0, r14
    7510:	00007504 		r0, r0, r14
    7514:	0000750c 		r0, r0, r14
    7518:	0000750c 		r0, r0, r14
    751c:	00007514 		r0, r0, r14
    7520:	00007514 		r0, r0, r14
    7524:	0000751c 		r0, r0, r14
    7528:	0000751c 		r0, r0, r14
    752c:	00007524 		r0, r0, r14
    7530:	00007524 		r0, r0, r14
    7534:	0000752c 		r0, r0, r14
    7538:	0000752c 		r0, r0, r14
    753c:	00007534 		r0, r0, r14
    7540:	00007534 		r0, r0, r14
    7544:	0000753c 		r0, r0, r14
    7548:	0000753c 		r0, r0, r14
    754c:	00007544 		r0, r0, r14
    7550:	00007544 		r0, r0, r14
    7554:	0000754c 		r0, r0, r14
    7558:	0000754c 		r0, r0, r14
    755c:	00007554 		r0, r0, r14
    7560:	00007554 		r0, r0, r14
    7564:	0000755c 		r0, r0, r14
    7568:	0000755c 		r0, r0, r14
    756c:	00007564 		r0, r0, r14
    7570:	00007564 		r0, r0, r14
    7574:	0000756c 		r0, r0, r14
    7578:	0000756c 		r0, r0, r14
    757c:	00007574 		r0, r0, r14
    7580:	00007574 		r0, r0, r14
    7584:	0000757c 		r0, r0, r14
    7588:	0000757c 		r0, r0, r14
    758c:	00007584 		r0, r0, r14
    7590:	00007584 		r0, r0, r14
    7594:	0000758c 		r0, r0, r14
    7598:	0000758c 		r0, r0, r14
    759c:	00007594 		r0, r0, r14
    75a0:	00007594 		r0, r0, r14
    75a4:	0000759c 		r0, r0, r14
    75a8:	0000759c 		r0, r0, r14
    75ac:	000075a4 		r0, r0, r14
    75b0:	000075a4 		r0, r0, r14
    75b4:	000075ac 		r0, r0, r14
    75b8:	000075ac 		r0, r0, r14
    75bc:	000075b4 		r0, r0, r14
    75c0:	000075b4 		r0, r0, r14
    75c4:	000075bc 		r0, r0, r14
    75c8:	000075bc 		r0, r0, r14
    75cc:	000075c4 		r0, r0, r14
    75d0:	000075c4 		r0, r0, r14
    75d4:	000075cc 		r0, r0, r14
    75d8:	000075cc 		r0, r0, r14
    75dc:	000075d4 		r0, r0, r14
    75e0:	000075d4 		r0, r0, r14
    75e4:	000075dc 		r0, r0, r14
    75e8:	000075dc 		r0, r0, r14
    75ec:	000075e4 		r0, r0, r14
    75f0:	000075e4 		r0, r0, r14
    75f4:	000075ec 		r0, r0, r14
    75f8:	000075ec 		r0, r0, r14
    75fc:	000075f4 		r0, r0, r14
    7600:	000075f4 		r0, r0, r14
    7604:	000075fc 		r0, r0, r14
    7608:	000075fc 		r0, r0, r14
    760c:	00007604 		r0, r0, r14
    7610:	00007604 		r0, r0, r14
    7614:	0000760c 		r0, r0, r14
    7618:	0000760c 		r0, r0, r14
    761c:	00007614 		r0, r0, r14
    7620:	00007614 		r0, r0, r14
    7624:	0000761c 		r0, r0, r14
    7628:	0000761c 		r0, r0, r14
    762c:	00007624 		r0, r0, r14
    7630:	00007624 		r0, r0, r14
    7634:	0000762c 		r0, r0, r14
    7638:	0000762c 		r0, r0, r14
    763c:	00007634 		r0, r0, r14
    7640:	00007634 		r0, r0, r14
    7644:	0000763c 		r0, r0, r14
    7648:	0000763c 		r0, r0, r14
    764c:	00007644 		r0, r0, r14
    7650:	00007644 		r0, r0, r14
    7654:	0000764c 		r0, r0, r14
    7658:	0000764c 		r0, r0, r14
    765c:	00007654 		r0, r0, r14
    7660:	00007654 		r0, r0, r14
    7664:	0000765c 		r0, r0, r14
    7668:	0000765c 		r0, r0, r14
    766c:	00007664 		r0, r0, r14
    7670:	00007664 		r0, r0, r14
    7674:	0000766c 		r0, r0, r14
    7678:	0000766c 		r0, r0, r14
    767c:	00007674 		r0, r0, r14
    7680:	00007674 		r0, r0, r14
    7684:	0000767c 		r0, r0, r14
    7688:	0000767c 		r0, r0, r14
    768c:	00007684 		r0, r0, r14
    7690:	00007684 		r0, r0, r14
    7694:	0000768c 		r0, r0, r14
    7698:	0000768c 		r0, r0, r14
    769c:	00007694 		r0, r0, r14
    76a0:	00007694 		r0, r0, r14
    76a4:	0000769c 		r0, r0, r14
    76a8:	0000769c 		r0, r0, r14
    76ac:	000076a4 		r0, r0, r14
    76b0:	000076a4 		r0, r0, r14
    76b4:	000076ac 		r0, r0, r14
    76b8:	000076ac 		r0, r0, r14
    76bc:	000076b4 		r0, r0, r14
    76c0:	000076b4 		r0, r0, r14
    76c4:	000076bc 		r0, r0, r14
    76c8:	000076bc 		r0, r0, r14
    76cc:	000076c4 		r0, r0, r14
    76d0:	000076c4 		r0, r0, r14
    76d4:	000076cc 		r0, r0, r14
    76d8:	000076cc 		r0, r0, r14
    76dc:	000076d4 		r0, r0, r14
    76e0:	000076d4 		r0, r0, r14
    76e4:	000076dc 		r0, r0, r14
    76e8:	000076dc 		r0, r0, r14
    76ec:	000076e4 		r0, r0, r14
    76f0:	000076e4 		r0, r0, r14
    76f4:	000076ec 		r0, r0, r14
    76f8:	000076ec 		r0, r0, r14
    76fc:	000076f4 		r0, r0, r14
    7700:	000076f4 		r0, r0, r14
    7704:	000076fc 		r0, r0, r14
    7708:	000076fc 		r0, r0, r14
    770c:	00007704 		r0, r0, r14
    7710:	00007704 		r0, r0, r14
    7714:	0000770c 		r0, r0, r14
    7718:	0000770c 		r0, r0, r14
    771c:	00007714 		r0, r0, r14
    7720:	00007714 		r0, r0, r14
    7724:	0000771c 		r0, r0, r14
    7728:	0000771c 		r0, r0, r14
    772c:	00007724 		r0, r0, r14
    7730:	00007724 		r0, r0, r14
    7734:	0000772c 		r0, r0, r14
    7738:	0000772c 		r0, r0, r14
    773c:	00007734 		r0, r0, r14
    7740:	00007734 		r0, r0, r14
    7744:	0000773c 		r0, r0, r14
    7748:	0000773c 		r0, r0, r14
    774c:	00007744 		r0, r0, r14
    7750:	00007744 		r0, r0, r14
    7754:	0000774c 		r0, r0, r14
    7758:	0000774c 		r0, r0, r14
    775c:	00007754 		r0, r0, r14
    7760:	00007754 		r0, r0, r14
    7764:	0000775c 		r0, r0, r14
    7768:	0000775c 		r0, r0, r14
    776c:	00007764 		r0, r0, r14
    7770:	00007764 		r0, r0, r14
    7774:	0000776c 		r0, r0, r14
    7778:	0000776c 		r0, r0, r14
    777c:	00007774 		r0, r0, r14
    7780:	00007774 		r0, r0, r14
    7784:	0000777c 		r0, r0, r14
    7788:	0000777c 		r0, r0, r14
    778c:	00007784 		r0, r0, r14
    7790:	00007784 		r0, r0, r14
    7794:	0000778c 		r0, r0, r14
    7798:	0000778c 		r0, r0, r14
    779c:	00007794 		r0, r0, r14
    77a0:	00007794 		r0, r0, r14
    77a4:	0000779c 		r0, r0, r14
    77a8:	0000779c 		r0, r0, r14
    77ac:	000077a4 		r0, r0, r14
    77b0:	000077a4 		r0, r0, r14
    77b4:	000077ac 		r0, r0, r14
    77b8:	000077ac 		r0, r0, r14
    77bc:	000077b4 		r0, r0, r14
    77c0:	000077b4 		r0, r0, r14
    77c4:	000077bc 		r0, r0, r14
    77c8:	000077bc 		r0, r0, r14
    77cc:	000077c4 		r0, r0, r14
    77d0:	000077c4 		r0, r0, r14
    77d4:	000077cc 		r0, r0, r14
    77d8:	000077cc 		r0, r0, r14
    77dc:	000077d4 		r0, r0, r14
    77e0:	000077d4 		r0, r0, r14
    77e4:	000077dc 		r0, r0, r14
    77e8:	000077dc 		r0, r0, r14
    77ec:	000077e4 		r0, r0, r14
    77f0:	000077e4 		r0, r0, r14
    77f4:	000077ec 		r0, r0, r14
    77f8:	000077ec 		r0, r0, r14

000077fc <force_to_data>:
    77fc:	
00007800 <MB_InterruptVectorTable>:
    7800:	00006a54 		r0, r0, r13
    7804:	
00007808 <XWaitInAssert>:
    7808:	00000001 		r0, r0, r0

Disassembly of section .eh_frame:

0000780c <__EH_FRAME_BEGIN__>:
    780c:	
Disassembly of section .jcr:

00007810 <__JCR_END__>:
    7810:	
Disassembly of section .sdata:

00007814 <__sdata_end-0x4>:
    7814:	
Disassembly of section .bss:

00007818 <__bss_start>:
    7818:	
0000781c <dtor_idx.2341>:
    781c:	
00007820 <object.2351>:
	...

00007838 <wrap_cputmr>:
    7838:	
0000783c <wrap_cputmr_ovf>:
    783c:	
00007840 <wrap_rputmr>:
    7840:	
00007844 <wrap_rputmr_ovf>:
    7844:	
00007848 <rputmr>:
    7848:	
0000784c <injtmr>:
    784c:	
00007850 <injtmr_ofv>:
    7850:	
00007854 <injwaittmr>:
    7854:	
00007858 <itcount>:
    7858:	
0000785c <rputmrenable>:
    785c:	
00007860 <injtmrenable>:
    7860:	
00007864 <__malloc_current_mallinfo>:
	...

0000788c <__malloc_max_total_mem>:
    788c:	
00007890 <__malloc_max_sbrked_mem>:
    7890:	
00007894 <__malloc_top_pad>:
    7894:	
00007898 <heap_ptr>:
    7898:	
0000789c <XAssertCallbackRoutine>:
    789c:	
000078a0 <XAssertStatus>:
    78a0:	
000078a4 <errno>:
    78a4:	
Disassembly of section .heap:

000078a8 <_heap>:
	...

Disassembly of section .stack:

0001c8a7 <_stack_end>:
	...

Disassembly of section .CR_seg:

0001fa00 <seg_0_opcodes>:
   1fa00:	6c05c000 	nput	r5, rfsl0
   1fa04:	6c06c000 	nput	r6, rfsl0
   1fa08:	6c16c000 	nput	r22, rfsl0
   1fa0c:	6c0cc000 	nput	r12, rfsl0
   1fa10:	6c13c000 	nput	r19, rfsl0
   1fa14:	6c08c000 	nput	r8, rfsl0
   1fa18:	6c07c000 	nput	r7, rfsl0
   1fa1c:	6c03c000 	nput	r3, rfsl0
   1fa20:	6c600000 	get	r3, rfsl0
   1fa24:	bc03000c 	beqi	r3, 12		// 1fa30
   1fa28:	6c600000 	get	r3, rfsl0
   1fa2c:	b6401e8c 	rtbd	r0, 7820
   1fa30:	20000000 	addi	r0, r0, 0
   1fa34:	6d400000 	get	r10, rfsl0
   1fa38:	6c600000 	get	r3, rfsl0
   1fa3c:	6c800000 	get	r4, rfsl0
   1fa40:	6ee00000 	get	r23, rfsl0
   1fa44:	6d600000 	get	r11, rfsl0
   1fa48:	6d200000 	get	r9, rfsl0
   1fa4c:	6e400000 	get	r18, rfsl0
   1fa50:	b6401e8c 	rtbd	r0, 7820
   1fa54:	20000000 	addi	r0, r0, 0

Disassembly of section .debug_line:

00000000 <.debug_line>:
       0:	000000ba 		r0, r0, r0
       4:	005c0002 		r2, r28, r0
       8:	01010000 	add	r8, r1, r0
       c:	000d0efb 		r0, r13, r1
      10:	01010101 		r8, r1, r0
      14:	01000000 	add	r8, r0, r0
      18:	2f010000 	rsubic	r24, r1, 0
      1c:	2f6b7277 	rsubic	r27, r11, 29303
      20:	2f787470 	rsubic	r27, r24, 29808
      24:	72657375 		r19, r5, r14
      28:	616e2f73 	muli	r11, r14, 12147
      2c:	61726167 	muli	r11, r18, 24935
      30:	472f756a 	bslll	r25, r15, r14
      34:	325f4343 	addik	r18, r31, 17219
      38:	5f333130 		r25, r19, r6
      3c:	6e2f3330 	tcget	r17, rfsl0
      40:	696c7765 		r11, r12, r14
      44:	696c2f62 		r11, r12, r5
      48:	6f6c6762 	necget	r27, rfsl2
      4c:	6d2f7373 	tncget	r9, rfsl3
      50:	6f726369 	ncget	r27, rfsl9
      54:	7a616c62 		r19, r1, r13
      58:	63000065 	muli	r24, r0, 101
      5c:	2e307472 	rsubic	r17, r16, 29810
      60:	00010053 		r0, r1, r0
      64:	05000000 	rsub	r8, r0, r0
      68:	00000402 		r0, r0, r0
      6c:	013c0300 		r9, r28, r0
      70:	01000402 		r8, r0, r0
      74:	02050001 		r16, r5, r0
      78:	0000000c 		r0, r0, r0
      7c:	0100c203 		r8, r0, r24
      80:	01000402 		r8, r0, r0
      84:	02050001 		r16, r5, r0
      88:	00000014 		r0, r0, r0
      8c:	0100c703 		r8, r0, r24
      90:	01000402 		r8, r0, r0
      94:	02050001 		r16, r5, r0
      98:	00000024 		r0, r0, r0
      9c:	0100cc03 		r8, r0, r25
      a0:	01000402 		r8, r0, r0
      a4:	02050001 		r16, r5, r0
      a8:	00000054 		r0, r0, r0
      ac:	0100d403 		r8, r0, r26
      b0:	4b848383 		r28, r4, r16
      b4:	0f034b84 		r24, r3, r9
      b8:	0004024a 		r0, r4, r0
      bc:	00850101 		r4, r5, r0
      c0:	00020000 	add	r0, r2, r0
      c4:	0000005b 		r0, r0, r0
      c8:	0efb0101 		r23, r27, r0
      cc:	0101000d 		r8, r1, r0
      d0:	00000101 		r0, r0, r0
      d4:	00000100 	addl	r0, r0, r0
      d8:	72772f01 		r19, r23, r5
      dc:	74702f6b 		r3, r16, r5
      e0:	73752f78 		r27, r21, r5
      e4:	2f737265 	rsubic	r27, r19, 29285
      e8:	6167616e 	muli	r11, r7, 24942
      ec:	756a6172 		r11, r10, r12
      f0:	4343472f 		r26, r3, r8
      f4:	3130325f 	addik	r9, r16, 12895
      f8:	33305f33 	addik	r25, r16, 24371
      fc:	6363672f 	muli	r27, r3, 26415
     100:	6363672f 	muli	r27, r3, 26415
     104:	6e6f632f 	ncget	r19, rfsl15
     108:	2f676966 	rsubic	r27, r7, 26982
     10c:	7263696d 		r19, r3, r13
     110:	616c626f 	muli	r11, r12, 25199
     114:	0000657a 		r0, r0, r12
     118:	69747263 		r11, r20, r14
     11c:	0100732e 		r8, r0, r14
     120:	
Disassembly of section .debug_info:

00000000 <.debug_info>:
       0:	000000c1 		r0, r0, r0
       4:	00000002 		r0, r0, r0
       8:	01040000 	add	r8, r4, r0
	...
      14:	6b72772f 	xorli	r27, 30511
      18:	7874702f 		r3, r20, r14
      1c:	6573752f 	bslefi	r11, r19, 20, 47
      20:	6e2f7372 	tncget	r17, rfsl2
      24:	72616761 		r19, r1, r12
      28:	2f756a61 	rsubic	r27, r21, 27233
      2c:	5f434347 		r26, r3, r8
      30:	33313032 	addik	r25, r17, 12338
      34:	2f33305f 	rsubic	r25, r19, 12383
      38:	6c77656e 	necget	r3, rfsl14
      3c:	6c2f6269 	ncget	r1, rfsl9
      40:	6c676269 	ncget	r3, rfsl9
      44:	2f73736f 	rsubic	r27, r19, 29551
      48:	7263696d 		r19, r3, r13
      4c:	616c626f 	muli	r11, r12, 25199
      50:	632f657a 	muli	r25, r15, 25978
      54:	2e307472 	rsubic	r17, r16, 29810
      58:	672f0053 	bsrli	r25, r15, 19
      5c:	6d2f756e 	tnecget	r9, rfsl14
      60:	6e675f62 	tneaget	r19, rfsl2
      64:	75622f75 		r11, r2, r5
      68:	2f646c69 	rsubic	r27, r4, 27753
      6c:	676e696d 	bslefi	r27, r14, 37, 45
      70:	6c622f77 	ecaget	r3, rfsl7
      74:	656e5f64 	bsefi	r11, r14, 61, 36
      78:	62696c77 	muli	r19, r9, 27767
      7c:	6975622f 		r11, r21, r12
      80:	6d2f646c 	necget	r9, rfsl12
      84:	6f726369 	ncget	r27, rfsl9
      88:	7a616c62 		r19, r1, r13
      8c:	69782d65 		r11, r24, r5
      90:	786e696c 		r3, r14, r13
      94:	666c652d 	bslefi	r19, r12, 20, 45
      98:	2f73622f 	rsubic	r27, r19, 25135
      9c:	656c2f6d 		r11, r12, r5
      a0:	62696c2f 	muli	r19, r9, 27695
      a4:	736f6c67 		r27, r15, r13
      a8:	696d2f73 		r11, r13, r5
      ac:	626f7263 	muli	r19, r15, 29283
      b0:	657a616c 	bslefi	r11, r26, 5, 44
      b4:	554e4700 		r10, r14, r8
      b8:	20534120 	addi	r2, r19, 16672
      bc:	33322e32 	addik	r25, r18, 11826
      c0:	0100322e 		r8, r0, r6
      c4:	00008f80 		r0, r0, r17
      c8:	12000200 		r16, r0, r0
      cc:	04000000 	rsub	r0, r0, r0
      d0:	0000be01 		r0, r0, r23
      d4:	00003800 	add	r0, r0, r7
      d8:	72772f00 		r19, r23, r5
      dc:	74702f6b 		r3, r16, r5
      e0:	73752f78 		r27, r21, r5
      e4:	2f737265 	rsubic	r27, r19, 29285
      e8:	6167616e 	muli	r11, r7, 24942
      ec:	756a6172 		r11, r10, r12
      f0:	4343472f 		r26, r3, r8
      f4:	3130325f 	addik	r9, r16, 12895
      f8:	33305f33 	addik	r25, r16, 24371
      fc:	6363672f 	muli	r27, r3, 26415
     100:	6363672f 	muli	r27, r3, 26415
     104:	6e6f632f 	ncget	r19, rfsl15
     108:	2f676966 	rsubic	r27, r7, 26982
     10c:	7263696d 		r19, r3, r13
     110:	616c626f 	muli	r11, r12, 25199
     114:	632f657a 	muli	r25, r15, 25978
     118:	2e697472 	rsubic	r19, r9, 29810
     11c:	672f0073 	bsrli	r25, r15, 51
     120:	6d2f756e 	tnecget	r9, rfsl14
     124:	6e675f62 	tneaget	r19, rfsl2
     128:	75622f75 		r11, r2, r5
     12c:	2f646c69 	rsubic	r27, r4, 27753
     130:	676e696d 	bslefi	r27, r14, 37, 45
     134:	6c622f77 	ecaget	r3, rfsl7
     138:	63675f64 	muli	r27, r7, 24420
     13c:	75622f63 		r11, r2, r5
     140:	2f646c69 	rsubic	r27, r4, 27753
     144:	00636367 		r3, r3, r12
     148:	20554e47 	addi	r2, r21, 20039
     14c:	32205341 	addik	r17, r0, 21313
     150:	2e33322e 	rsubic	r17, r19, 12846
     154:	80010032 		r0, r1, r0
     158:	000000c8 		r0, r0, r0
     15c:	00240002 		r1, r4, r0
     160:	01040000 	add	r8, r4, r0
     164:	00000147 		r0, r0, r0
     168:	0000019c 		r0, r0, r0
     16c:	0000024c 		r0, r0, r0
     170:	6b72772f 	xorli	r27, 30511
     174:	7874702f 		r3, r20, r14
     178:	6573752f 	bslefi	r11, r19, 20, 47
     17c:	6e2f7372 	tncget	r17, rfsl2
     180:	72616761 		r19, r1, r12
     184:	2f756a61 	rsubic	r27, r21, 27233
     188:	5f434347 		r26, r3, r8
     18c:	33313032 	addik	r25, r17, 12338
     190:	2f33305f 	rsubic	r25, r19, 12383
     194:	6c77656e 	necget	r3, rfsl14
     198:	6c2f6269 	ncget	r1, rfsl9
     19c:	6c676269 	ncget	r3, rfsl9
     1a0:	2f73736f 	rsubic	r27, r19, 29551
     1a4:	7263696d 		r19, r3, r13
     1a8:	616c626f 	muli	r11, r12, 25199
     1ac:	632f657a 	muli	r25, r15, 25978
     1b0:	6e697472 	tnecget	r19, rfsl2
     1b4:	532e7469 		r25, r14, r14
     1b8:	6e672f00 	ecaget	r19, rfsl0
     1bc:	626d2f75 	muli	r19, r13, 12149
     1c0:	756e675f 		r11, r14, r12
     1c4:	6975622f 		r11, r21, r12
     1c8:	6d2f646c 	necget	r9, rfsl12
     1cc:	77676e69 		r27, r7, r13
     1d0:	646c622f 	bslefi	r3, r12, 8, 47
     1d4:	77656e5f 		r27, r5, r13
     1d8:	2f62696c 	rsubic	r27, r2, 26988
     1dc:	6c697562 	tnecget	r3, rfsl2
     1e0:	696d2f64 		r11, r13, r5
     1e4:	626f7263 	muli	r19, r15, 29283
     1e8:	657a616c 	bslefi	r11, r26, 5, 44
     1ec:	6c69782d 	tncaget	r3, rfsl13
     1f0:	2d786e69 	rsubic	r11, r24, 28265
     1f4:	2f666c65 	rsubic	r27, r6, 27749
     1f8:	6d2f7362 	tncget	r9, rfsl2
     1fc:	2f656c2f 	rsubic	r27, r5, 27695
     200:	6762696c 	bslefi	r27, r2, 37, 44
     204:	73736f6c 		r27, r19, r13
     208:	63696d2f 	muli	r27, r9, 27951
     20c:	6c626f72 	necaget	r3, rfsl2
     210:	00657a61 		r3, r5, r15
     214:	20554e47 	addi	r2, r21, 20039
     218:	32205341 	addik	r17, r0, 21313
     21c:	2e33322e 	rsubic	r17, r19, 12846
     220:	80010032 		r0, r1, r0
     224:	000003f5 		r0, r0, r0
     228:	00380002 		r1, r24, r0
     22c:	01040000 	add	r8, r4, r0
     230:	00000180 		r0, r0, r0
     234:	00013401 		r0, r1, r6
     238:	003f4000 	add	r1, r31, r8
     23c:	00454400 		r2, r5, r8
     240:	0001e100 	addl	r0, r1, r28
     244:	06010200 	neg	r16, r1
     248:	00000089 		r0, r0, r0
     24c:	87080102 		r24, r8, r0
     250:	02000000 	add	r16, r0, r0
     254:	00170502 		r0, r23, r0
     258:	02020000 	add	r16, r2, r0
     25c:	0000b907 		r0, r0, r23
     260:	05040300 	neg	r8, r4
     264:	00746e69 		r3, r20, r13
     268:	9f070402 		r24, r7, r0
     26c:	02000000 	add	r16, r0, r0
     270:	00570508 		r2, r23, r0
     274:	08020000 	addc	r0, r2, r0
     278:	00009507 		r0, r0, r18
     27c:	05040200 	neg	r8, r4
     280:	0000005c 		r0, r0, r0
     284:	9a070402 		r16, r7, r0
     288:	04000000 	rsub	r0, r0, r0
     28c:	00006d04 		r0, r0, r13
     290:	06010200 	neg	r16, r1
     294:	00000090 		r0, r0, r0
     298:	007a0404 		r3, r26, r0
     29c:	6d050000 	get	r8, rfsl0
     2a0:	06000000 	rsub	r16, r0, r0
     2a4:	00000120 		r0, r0, r0
     2a8:	008a2802 		r4, r10, r5
     2ac:	04070000 	rsub	r0, r7, r0
     2b0:	00000103 		r0, r0, r0
     2b4:	00012706 		r0, r1, r4
     2b8:	7f660200 		r27, r6, r0
     2bc:	08000000 	addc	r0, r0, r0
     2c0:	00000036 		r0, r0, r0
     2c4:	fc130118 	sli	r0, r19, 280
     2c8:	09000000 	addc	r8, r0, r0
     2cc:	006e656c 		r3, r14, r12
     2d0:	003d1401 		r1, r29, r2
     2d4:	23020000 	addi	r24, r2, 0
     2d8:	012f0a00 		r9, r15, r1
     2dc:	15010000 	rsubk	r8, r1, r0
     2e0:	0000003d 		r0, r0, r0
     2e4:	0a042302 		r16, r4, r4
     2e8:	000000f3 		r0, r0, r0
     2ec:	003d1601 		r1, r29, r2
     2f0:	23020000 	addi	r24, r2, 0
     2f4:	00cc0a08 		r6, r12, r1
     2f8:	17010000 	rsubk	r24, r1, r0
     2fc:	0000006d 		r0, r0, r0
     300:	0a0c2302 		r16, r12, r4
     304:	000000f8 		r0, r0, r0
     308:	003d1801 		r1, r29, r3
     30c:	23020000 	addi	r24, r2, 0
     310:	00480a10 		r2, r8, r1
     314:	19010000 	addkc	r8, r1, r0
     318:	0000003d 		r0, r0, r0
     31c:	00142302 		r0, r20, r4
     320:	00003f06 		r0, r0, r7
     324:	9b1a0100 		r24, r26, r0
     328:	06000000 	rsub	r16, r0, r0
     32c:	000000ac 		r0, r0, r0
     330:	00672401 		r3, r7, r4
     334:	fb0b0000 	swi	r24, r11, 0
     338:	01000000 	add	r8, r0, r0
     33c:	3f01012c 	rsubikc	r24, r1, 300
     340:	0c000001 		r0, r0, r0
     344:	0000002f 		r0, r0, r0
     348:	013f2c01 		r9, r31, r5
     34c:	700d0000 		r0, r13, r0
     350:	01007261 		r8, r0, r14
     354:	0001442c 		r0, r1, r8
     358:	00690e00 		r3, r9, r1
     35c:	003d2e01 		r1, r29, r5
     360:	05000000 	rsub	r8, r0, r0
     364:	0000003d 		r0, r0, r0
     368:	00fc0404 		r7, r28, r0
     36c:	000f0000 	add	r0, r15, r0
     370:	01000000 	add	r8, r0, r0
     374:	003d0179 		r1, r29, r0
     378:	7a010000 		r16, r1, r0
     37c:	0c000001 		r0, r0, r0
     380:	0000011a 		r0, r0, r0
     384:	017a7901 		r11, r26, r15
     388:	6e0e0000 	get	r16, rfsl0
     38c:	3d7b0100 	rsubikc	r11, r27, 256
     390:	0e000000 	rsubc	r16, r0, r0
     394:	01007063 		r8, r0, r14
     398:	0001077c 		r0, r1, r0
     39c:	04040000 	rsub	r0, r4, r0
     3a0:	00000107 		r0, r0, r0
     3a4:	0000520b 		r0, r0, r10
     3a8:	013a0100 	addl	r9, r26, r0
     3ac:	0001a301 		r0, r1, r20
     3b0:	706c0d00 		r3, r12, r1
     3b4:	073a0100 	rsubl	r25, r26, r0
     3b8:	0d000001 		r8, r0, r0
     3bc:	00726170 		r3, r18, r12
     3c0:	01443a01 		r10, r4, r7
     3c4:	10000000 	addk	r0, r0, r0
     3c8:	00000112 		r0, r0, r0
     3cc:	00003f40 		r0, r0, r7
     3d0:	00003fb8 		r0, r0, r7
     3d4:	
Disassembly of section .debug_abbrev:

00000000 <.debug_abbrev>:
       0:	10001101 		r0, r0, r2
       4:	03065506 		r24, r6, r10
       8:	25081b08 	rsubi	r8, r8, 6920
       c:	00051308 		r0, r5, r2
      10:	11010000 	addk	r8, r1, r0
      14:	55061000 		r8, r6, r2
      18:	1b080306 		r24, r8, r0
      1c:	13082508 		r24, r8, r4
      20:	00000005 		r0, r0, r0
      24:	10001101 		r0, r0, r2
      28:	12011106 		r16, r1, r2
      2c:	1b080301 		r24, r8, r0
      30:	13082508 		r24, r8, r4
      34:	00000005 		r0, r0, r0
      38:	25011101 	rsubi	r8, r1, 4353
      3c:	030b130e 		r24, r11, r2
      40:	1201110e 		r16, r1, r2
      44:	00061001 		r0, r6, r2
      48:	00240200 		r1, r4, r0
      4c:	0b3e0b0b 		r25, r30, r1
      50:	00000e03 		r0, r0, r1
      54:	0b002403 		r24, r0, r4
      58:	030b3e0b 		r24, r11, r7
      5c:	04000008 	neg	r0, r0
      60:	0b0b000f 		r24, r11, r0
      64:	00001349 		r0, r0, r2
      68:	49002605 		r8, r0, r4
      6c:	06000013 	neg	r16, r0
      70:	0e030016 		r16, r3, r0
      74:	0b3b0b3a 		r25, r27, r1
      78:	00001349 		r0, r0, r2
      7c:	0b000f07 		r24, r0, r1
      80:	000e030b 		r0, r14, r0
      84:	01130800 	add	r8, r19, r1
      88:	0b0b0e03 		r24, r11, r1
      8c:	0b3b0b3a 		r25, r27, r1
      90:	00001301 		r0, r0, r2
      94:	03000d09 		r24, r0, r1
      98:	3b0b3a08 	addikc	r24, r11, 14856
      9c:	3813490b 	addikc	r0, r19, 18699
      a0:	0a00000a 		r16, r0, r0
      a4:	0e03000d 		r16, r3, r0
      a8:	0b3b0b3a 		r25, r27, r1
      ac:	0a381349 		r17, r24, r2
      b0:	2e0b0000 	rsubic	r16, r11, 0
      b4:	3a0e0301 	addikc	r16, r14, 769
      b8:	270b3b0b 	rsubi	r24, r11, 15115
      bc:	010b200c 		r8, r11, r4
      c0:	0c000013 		r0, r0, r0
      c4:	0e030005 		r16, r3, r0
      c8:	0b3b0b3a 		r25, r27, r1
      cc:	00001349 		r0, r0, r2
      d0:	0300050d 		r24, r0, r0
      d4:	3b0b3a08 	addikc	r24, r11, 14856
      d8:	0013490b 		r0, r19, r9
      dc:	00340e00 		r1, r20, r1
      e0:	0b3a0803 		r25, r26, r1
      e4:	13490b3b 		r26, r9, r1
      e8:	2e0f0000 	rsubic	r16, r15, 0
      ec:	3a0e0301 	addikc	r16, r14, 769
      f0:	270b3b0b 	rsubi	r24, r11, 15115
      f4:	2013490c 	addi	r0, r19, 18700
      f8:	0013010b 		r0, r19, r0
      fc:	012e1000 	add	r9, r14, r2
     100:	01111331 		r8, r17, r2
     104:	06400112 	neg	r18, r0
     108:	00001301 		r0, r0, r2
     10c:	31000511 	addik	r8, r0, 1297
     110:	00060213 		r0, r6, r0
     114:	00341200 		r1, r20, r2
     118:	00001331 		r0, r0, r2
     11c:	31011d13 	addik	r8, r1, 7443
     120:	12011113 		r16, r1, r2
     124:	590b5801 		r8, r11, r11
     128:	1400000b 		r0, r0, r0
     12c:	13310005 		r25, r17, r0
     130:	0b150000 	addc	r24, r21, r0
     134:	12011101 		r16, r1, r2
     138:	16000001 	cmp	r16, r0, r0
     13c:	13310034 		r25, r17, r0
     140:	00000602 		r0, r0, r0
     144:	03012e17 		r24, r1, r5
     148:	3b0b3a0e 	addikc	r24, r11, 14862
     14c:	110c270b 		r8, r12, r4
     150:	40011201 		r0, r1, r2
     154:	00130106 		r0, r19, r0
     158:	00051800 	add	r0, r5, r3
     15c:	0b3a0803 		r25, r26, r1
     160:	13490b3b 		r26, r9, r1
     164:	00000602 		r0, r0, r0
     168:	03000519 		r24, r0, r0
     16c:	3b0b3a0e 	addikc	r24, r11, 14862
     170:	0213490b 		r16, r19, r9
     174:	1a000006 		r16, r0, r0
     178:	08030034 		r0, r3, r0
     17c:	0b3b0b3a 		r25, r27, r1
     180:	06021349 	neg	r16, r2
     184:	341b0000 	rsubik	r0, r27, 0
     188:	3a0e0300 	addikc	r16, r14, 768
     18c:	490b3b0b 		r8, r11, r7
     190:	00060213 		r0, r6, r0
     194:	00341c00 		r1, r20, r3
     198:	0b3a0e03 		r25, r26, r1
     19c:	13490b3b 		r26, r9, r1
     1a0:	00000a02 		r0, r0, r1
     1a4:	4901011d 		r8, r1, r0
     1a8:	00130113 		r0, r19, r0
     1ac:	00211e00 		r1, r1, r3
     1b0:	0b2f1349 		r25, r15, r2
     1b4:	2e1f0000 	rsubic	r16, r31, 0
     1b8:	030c3f01 		r24, r12, r7
     1bc:	3b0b3a0e 	addikc	r24, r11, 14862
     1c0:	110c270b 		r8, r12, r4
     1c4:	40011201 		r0, r1, r2
     1c8:	00130106 		r0, r19, r0
     1cc:	00182000 	add	r0, r24, r4
     1d0:	34210000 	rsubik	r1, r1, 0
     1d4:	3a080300 	addikc	r16, r8, 768
     1d8:	490b3b0b 		r8, r11, r7
     1dc:	000a0213 		r0, r10, r0
     1e0:	000a2200 		r0, r10, r4
     1e4:	0b3a0e03 		r25, r26, r1
     1e8:	00000b3b 		r0, r0, r1
     1ec:	31011d23 	addik	r8, r1, 7459
     1f0:	12011113 		r16, r1, r2
     1f4:	590b5801 		r8, r11, r11
     1f8:	0013010b 		r0, r19, r0
     1fc:	010b2400 		r8, r11, r4
     200:	01120111 		r8, r18, r0
     204:	00001301 		r0, r0, r2
     208:	31011d25 	addik	r8, r1, 7461
     20c:	55015213 		r8, r1, r10
     210:	590b5806 		r8, r11, r11
     214:	2600000b 	rsubi	r16, r0, 11
     218:	0655010b 	neg	r18, r21
     21c:	34270000 	rsubik	r1, r7, 0
     220:	3a0e0300 	addikc	r16, r14, 768
     224:	490b3b0b 		r8, r11, r7
     228:	3c0c3f13 	rsubikc	r0, r12, 16147
     22c:	0000000c 		r0, r0, r0
     230:	10001101 		r0, r0, r2
     234:	12011106 		r16, r1, r2
     238:	1b080301 		r24, r8, r0
     23c:	13082508 		r24, r8, r4
     240:	00000005 		r0, r0, r0
     244:	10001101 		r0, r0, r2
     248:	12011106 		r16, r1, r2
     24c:	1b080301 		r24, r8, r0
     250:	13082508 		r24, r8, r4
     254:	00000005 		r0, r0, r0
     258:	10001101 		r0, r0, r2
     25c:	12011106 		r16, r1, r2
     260:	1b080301 		r24, r8, r0
     264:	13082508 		r24, r8, r4
     268:	00000005 		r0, r0, r0
     26c:	10001101 		r0, r0, r2
     270:	12011106 		r16, r1, r2
     274:	1b080301 		r24, r8, r0
     278:	13082508 		r24, r8, r4
     27c:	00000005 		r0, r0, r0
     280:	25011101 	rsubi	r8, r1, 4353
     284:	030b130e 		r24, r11, r2
     288:	110e1b0e 		r8, r14, r3
     28c:	55015201 		r8, r1, r10
     290:	00061006 		r0, r6, r2
     294:	00240200 		r1, r4, r0
     298:	0b3e0b0b 		r25, r30, r1
     29c:	00000e03 		r0, r0, r1
     2a0:	03001603 		r24, r0, r2
     2a4:	3b0b3a0e 	addikc	r24, r11, 14862
     2a8:	0013490b 		r0, r19, r9
     2ac:	000f0400 		r0, r15, r0
     2b0:	13490b0b 		r26, r9, r1
     2b4:	15050000 	rsubk	r8, r5, r0
     2b8:	010c2701 		r8, r12, r4
     2bc:	06000013 	neg	r16, r0
     2c0:	13490005 		r26, r9, r0
     2c4:	0f070000 	rsubc	r24, r7, r0
     2c8:	000b0b00 		r0, r11, r1
     2cc:	00240800 	add	r1, r4, r1
     2d0:	0b3e0b0b 		r25, r30, r1
     2d4:	00000803 		r0, r0, r1
     2d8:	0b011309 		r24, r1, r2
     2dc:	3b0b3a0b 	addikc	r24, r11, 14859
     2e0:	0013010b 		r0, r19, r0
     2e4:	000d0a00 		r0, r13, r1
     2e8:	0b3a0e03 		r25, r26, r1
     2ec:	13490b3b 		r26, r9, r1
     2f0:	00000a38 		r0, r0, r1
     2f4:	3f002e0b 	rsubikc	r24, r0, 11787
     2f8:	3a0e030c 	addikc	r16, r14, 780
     2fc:	270b3b0b 	rsubi	r24, r11, 15115
     300:	1201110c 		r16, r1, r2
     304:	00064001 		r0, r6, r8
     308:	012e0c00 		r9, r14, r1
     30c:	0e030c3f 		r16, r3, r1
     310:	0b3b0b3a 		r25, r27, r1
     314:	01110c27 		r8, r17, r1
     318:	0a400112 		r18, r0, r0
     31c:	00001301 		r0, r0, r2
     320:	0300050d 		r24, r0, r0
     324:	3b0b3a0e 	addikc	r24, r11, 14862
     328:	0213490b 		r16, r19, r9
     32c:	0e00000a 		r16, r0, r0
     330:	0e030034 		r16, r3, r0
     334:	0b3b0b3a 		r25, r27, r1
     338:	0c3f1349 		r1, r31, r2
     33c:	00000c3c 		r0, r0, r1
     340:	01110100 	addl	r8, r17, r0
     344:	0b130e25 		r24, r19, r1
     348:	0e1b0e03 		r16, r27, r1
     34c:	01120111 		r8, r18, r0
     350:	00000610 		r0, r0, r0
     354:	0b002402 		r24, r0, r4
     358:	030b3e0b 		r24, r11, r7
     35c:	0300000e 		r24, r0, r0
     360:	0e030016 		r16, r3, r0
     364:	0b3b0b3a 		r25, r27, r1
     368:	00001349 		r0, r0, r2
     36c:	0b000f04 		r24, r0, r1
     370:	0013490b 		r0, r19, r9
     374:	01150500 		r8, r21, r0
     378:	13010c27 		r24, r1, r1
     37c:	05060000 	rsub	r8, r6, r0
     380:	00134900 	addl	r0, r19, r9
     384:	000f0700 		r0, r15, r0
     388:	00000b0b 		r0, r0, r1
     38c:	0b002408 		r24, r0, r4
     390:	030b3e0b 		r24, r11, r7
     394:	09000008 		r8, r0, r0
     398:	0b0b0113 		r24, r11, r0
     39c:	0b3b0b3a 		r25, r27, r1
     3a0:	00001301 		r0, r0, r2
     3a4:	03000d0a 		r24, r0, r1
     3a8:	3b0b3a0e 	addikc	r24, r11, 14862
     3ac:	3813490b 	addikc	r0, r19, 18699
     3b0:	0b00000a 		r24, r0, r0
     3b4:	13490101 		r26, r9, r0
     3b8:	00001301 		r0, r0, r2
     3bc:	4900210c 		r8, r0, r4
     3c0:	000b2f13 		r0, r11, r5
     3c4:	00340d00 		r1, r20, r1
     3c8:	0b3a0e03 		r25, r26, r1
     3cc:	13490b3b 		r26, r9, r1
     3d0:	0a020c3f 		r16, r2, r1
     3d4:	01000000 	add	r8, r0, r0
     3d8:	0e250111 		r17, r5, r0
     3dc:	0e030b13 		r16, r3, r1
     3e0:	01110e1b 		r8, r17, r1
     3e4:	06550152 	neg	r18, r21
     3e8:	00000610 		r0, r0, r0
     3ec:	0b002402 		r24, r0, r4
     3f0:	030b3e0b 		r24, r11, r7
     3f4:	0300000e 		r24, r0, r0
     3f8:	0b0b0024 		r24, r11, r0
     3fc:	08030b3e 		r0, r3, r1
     400:	2e040000 	rsubic	r16, r4, 0
     404:	030c3f01 		r24, r12, r7
     408:	3b0b3a0e 	addikc	r24, r11, 14862
     40c:	110c270b 		r8, r12, r4
     410:	40011201 		r0, r1, r2
     414:	05000006 	neg	r8, r0
     418:	08030005 		r0, r3, r0
     41c:	0b3b0b3a 		r25, r27, r1
     420:	06021349 	neg	r16, r2
     424:	01000000 	add	r8, r0, r0
     428:	0e250111 		r17, r5, r0
     42c:	0e030b13 		r16, r3, r1
     430:	01110e1b 		r8, r17, r1
     434:	06550152 	neg	r18, r21
     438:	00000610 		r0, r0, r0
     43c:	03001602 		r24, r0, r2
     440:	3b0b3a08 	addikc	r24, r11, 14856
     444:	0013490b 		r0, r19, r9
     448:	00240300 		r1, r4, r0
     44c:	0b3e0b0b 		r25, r30, r1
     450:	00000e03 		r0, r0, r1
     454:	0b002404 		r24, r0, r4
     458:	030b3e0b 		r24, r11, r7
     45c:	05000008 	neg	r8, r0
     460:	0c3f012e 		r1, r31, r0
     464:	0b3a0e03 		r25, r26, r1
     468:	0c270b3b 		r1, r7, r1
     46c:	01120111 		r8, r18, r0
     470:	13010a40 		r24, r1, r1
     474:	05060000 	rsub	r8, r6, r0
     478:	3a0e0300 	addikc	r16, r14, 768
     47c:	490b3b0b 		r8, r11, r7
     480:	000a0213 		r0, r10, r0
     484:	012e0700 		r9, r14, r0
     488:	0e030c3f 		r16, r3, r1
     48c:	0b3b0b3a 		r25, r27, r1
     490:	13490c27 		r26, r9, r1
     494:	01120111 		r8, r18, r0
     498:	00000a40 		r0, r0, r1
     49c:	01110100 	addl	r8, r17, r0
     4a0:	0b130e25 		r24, r19, r1
     4a4:	0e1b0e03 		r16, r27, r1
     4a8:	01520111 		r10, r18, r0
     4ac:	06100655 	neg	r16, r16
     4b0:	24020000 	rsubi	r0, r2, 0
     4b4:	3e0b0b00 	rsubikc	r16, r11, 2816
     4b8:	000e030b 		r0, r14, r0
     4bc:	000f0300 		r0, r15, r0
     4c0:	00000b0b 		r0, r0, r1
     4c4:	03001604 		r24, r0, r2
     4c8:	3b0b3a0e 	addikc	r24, r11, 14862
     4cc:	0013490b 		r0, r19, r9
     4d0:	000f0500 		r0, r15, r0
     4d4:	13490b0b 		r26, r9, r1
     4d8:	15060000 	rsubk	r8, r6, r0
     4dc:	010c2701 		r8, r12, r4
     4e0:	07000013 	neg	r24, r0
     4e4:	13490005 		r26, r9, r0
     4e8:	24080000 	rsubi	r0, r8, 0
     4ec:	3e0b0b00 	rsubikc	r16, r11, 2816
     4f0:	0008030b 		r0, r8, r0
     4f4:	012e0900 	addl	r9, r14, r1
     4f8:	0e030c3f 		r16, r3, r1
     4fc:	0b3b0b3a 		r25, r27, r1
     500:	01110c27 		r8, r17, r1
     504:	06400112 	neg	r18, r0
     508:	00001301 		r0, r0, r2
     50c:	0300050a 		r24, r0, r0
     510:	3b0b3a0e 	addikc	r24, r11, 14862
     514:	0213490b 		r16, r19, r9
     518:	0b000006 		r24, r0, r0
     51c:	0c3f012e 		r1, r31, r0
     520:	0b3a0e03 		r25, r26, r1
     524:	0c270b3b 		r1, r7, r1
     528:	01120111 		r8, r18, r0
     52c:	13010a40 		r24, r1, r1
     530:	050c0000 	rsub	r8, r12, r0
     534:	3a0e0300 	addikc	r16, r14, 768
     538:	490b3b0b 		r8, r11, r7
     53c:	000a0213 		r0, r10, r0
     540:	00340d00 		r1, r20, r1
     544:	0b3a0e03 		r25, r26, r1
     548:	13490b3b 		r26, r9, r1
     54c:	00000a02 		r0, r0, r1
     550:	0300340e 		r24, r0, r6
     554:	3b0b3a0e 	addikc	r24, r11, 14862
     558:	3f13490b 	rsubikc	r24, r19, 18699
     55c:	000a020c 		r0, r10, r0
     560:	11010000 	addk	r8, r1, r0
     564:	130e2501 		r24, r14, r4
     568:	1b0e030b 		r24, r14, r0
     56c:	1201110e 		r16, r1, r2
     570:	00061001 		r0, r6, r2
     574:	00240200 		r1, r4, r0
     578:	0b3e0b0b 		r25, r30, r1
     57c:	00000803 		r0, r0, r1
     580:	0b002403 		r24, r0, r4
     584:	030b3e0b 		r24, r11, r7
     588:	0400000e 	neg	r0, r0
     58c:	0e030016 		r16, r3, r0
     590:	0b3b0b3a 		r25, r27, r1
     594:	00001349 		r0, r0, r2
     598:	0b010405 		r24, r1, r0
     59c:	3b0b3a0b 	addikc	r24, r11, 14859
     5a0:	00130105 		r0, r19, r0
     5a4:	00280600 		r1, r8, r0
     5a8:	0d1c0e03 		r8, r28, r1
     5ac:	16070000 	rsubk	r16, r7, r0
     5b0:	3a0e0300 	addikc	r16, r14, 768
     5b4:	49053b0b 		r8, r5, r7
     5b8:	08000013 		r0, r0, r0
     5bc:	0b0b0117 		r24, r11, r0
     5c0:	053b0b3a 	neg	r9, r27
     5c4:	00001301 		r0, r0, r2
     5c8:	03000d09 		r24, r0, r1
     5cc:	3b0b3a08 	addikc	r24, r11, 14856
     5d0:	00134905 		r0, r19, r9
     5d4:	01010a00 		r8, r1, r1
     5d8:	13011349 		r24, r1, r2
     5dc:	210b0000 	addi	r8, r11, 0
     5e0:	2f134900 	rsubic	r24, r19, 18688
     5e4:	0c00000b 		r0, r0, r0
     5e8:	0b0b0113 		r24, r11, r0
     5ec:	053b0b3a 	neg	r9, r27
     5f0:	00001301 		r0, r0, r2
     5f4:	03000d0d 		r24, r0, r1
     5f8:	3b0b3a0e 	addikc	r24, r11, 14862
     5fc:	38134905 	addikc	r0, r19, 18693
     600:	0e00000a 		r16, r0, r0
     604:	0e03000d 		r16, r3, r0
     608:	053b0b3a 	neg	r9, r27
     60c:	00001349 		r0, r0, r2
     610:	03012e0f 		r24, r1, r5
     614:	3b0b3a0e 	addikc	r24, r11, 14862
     618:	490c270b 		r8, r12, r4
     61c:	010b2013 		r8, r11, r4
     620:	10000013 		r0, r0, r0
     624:	08030005 		r0, r3, r0
     628:	0b3b0b3a 		r25, r27, r1
     62c:	00001349 		r0, r0, r2
     630:	0b000f11 		r24, r0, r1
     634:	0013490b 		r0, r19, r9
     638:	00261200 		r1, r6, r2
     63c:	00001349 		r0, r0, r2
     640:	03002e13 		r24, r0, r5
     644:	3b0b3a0e 	addikc	r24, r11, 14862
     648:	490c270b 		r8, r12, r4
     64c:	000b2013 		r0, r11, r4
     650:	012e1400 		r9, r14, r2
     654:	0b3a0e03 		r25, r26, r1
     658:	0c27053b 		r1, r7, r0
     65c:	01111349 		r8, r17, r2
     660:	06400112 	neg	r18, r0
     664:	00001301 		r0, r0, r2
     668:	03000515 		r24, r0, r0
     66c:	3b0b3a08 	addikc	r24, r11, 14856
     670:	02134905 		r16, r19, r9
     674:	16000006 		r16, r0, r0
     678:	0e030034 		r16, r3, r0
     67c:	053b0b3a 	neg	r9, r27
     680:	06021349 	neg	r16, r2
     684:	1d170000 	rsubkc	r8, r23, r0
     688:	11133101 		r8, r19, r6
     68c:	58011201 		r0, r1, r2
     690:	0105590b 		r8, r5, r11
     694:	18000013 		r0, r0, r0
     698:	13310005 		r25, r17, r0
     69c:	00000602 		r0, r0, r0
     6a0:	55010b19 		r8, r1, r1
     6a4:	1a000006 		r16, r0, r0
     6a8:	0c3f012e 		r1, r31, r0
     6ac:	0b3a0e03 		r25, r26, r1
     6b0:	0c27053b 		r1, r7, r0
     6b4:	01111349 		r8, r17, r2
     6b8:	06400112 	neg	r18, r0
     6bc:	00001301 		r0, r0, r2
     6c0:	0300051b 		r24, r0, r0
     6c4:	3b0b3a0e 	addikc	r24, r11, 14862
     6c8:	02134905 		r16, r19, r9
     6cc:	1c000006 		r0, r0, r0
     6d0:	08030034 		r0, r3, r0
     6d4:	053b0b3a 	neg	r9, r27
     6d8:	0a021349 		r16, r2, r2
     6dc:	341d0000 	rsubik	r0, r29, 0
     6e0:	3a080300 	addikc	r16, r8, 768
     6e4:	49053b0b 		r8, r5, r7
     6e8:	00060213 		r0, r6, r0
     6ec:	00341e00 		r1, r20, r3
     6f0:	0b3a0e03 		r25, r26, r1
     6f4:	13490b3b 		r26, r9, r1
     6f8:	0c3c0c3f 		r1, r28, r1
     6fc:	01000000 	add	r8, r0, r0
     700:	0e250111 		r17, r5, r0
     704:	0e030b13 		r16, r3, r1
     708:	01110e1b 		r8, r17, r1
     70c:	06100112 	neg	r16, r16
     710:	24020000 	rsubi	r0, r2, 0
     714:	3e0b0b00 	rsubikc	r16, r11, 2816
     718:	0008030b 		r0, r8, r0
     71c:	00240300 		r1, r4, r0
     720:	0b3e0b0b 		r25, r30, r1
     724:	00000e03 		r0, r0, r1
     728:	03001604 		r24, r0, r2
     72c:	3b0b3a0e 	addikc	r24, r11, 14862
     730:	0013490b 		r0, r19, r9
     734:	01040500 		r8, r4, r0
     738:	0b3a0b0b 		r25, r26, r1
     73c:	1301053b 		r24, r1, r0
     740:	28060000 	addic	r0, r6, 0
     744:	1c0e0300 		r0, r14, r0
     748:	0700000d 	neg	r24, r0
     74c:	0e030016 		r16, r3, r0
     750:	053b0b3a 	neg	r9, r27
     754:	00001349 		r0, r0, r2
     758:	0b011708 		r24, r1, r2
     75c:	3b0b3a0b 	addikc	r24, r11, 14859
     760:	00130105 		r0, r19, r0
     764:	000d0900 	addl	r0, r13, r1
     768:	0b3a0803 		r25, r26, r1
     76c:	1349053b 		r26, r9, r0
     770:	010a0000 	add	r8, r10, r0
     774:	01134901 		r8, r19, r9
     778:	0b000013 		r24, r0, r0
     77c:	13490021 		r26, r9, r0
     780:	00000b2f 		r0, r0, r1
     784:	0b01130c 		r24, r1, r2
     788:	3b0b3a0b 	addikc	r24, r11, 14859
     78c:	00130105 		r0, r19, r0
     790:	000d0d00 		r0, r13, r1
     794:	0b3a0e03 		r25, r26, r1
     798:	1349053b 		r26, r9, r0
     79c:	00000a38 		r0, r0, r1
     7a0:	03000d0e 		r24, r0, r1
     7a4:	3b0b3a0e 	addikc	r24, r11, 14862
     7a8:	00134905 		r0, r19, r9
     7ac:	012e0f00 		r9, r14, r1
     7b0:	0e030c3f 		r16, r3, r1
     7b4:	053b0b3a 	neg	r9, r27
     7b8:	13490c27 		r26, r9, r1
     7bc:	01120111 		r8, r18, r0
     7c0:	13010640 		r24, r1, r0
     7c4:	05100000 	rsub	r8, r16, r0
     7c8:	3a0e0300 	addikc	r16, r14, 768
     7cc:	49053b0b 		r8, r5, r7
     7d0:	00060213 		r0, r6, r0
     7d4:	00341100 	addl	r1, r20, r2
     7d8:	0b3a0803 		r25, r26, r1
     7dc:	1349053b 		r26, r9, r0
     7e0:	00000a02 		r0, r0, r1
     7e4:	03003412 		r24, r0, r6
     7e8:	3b0b3a0e 	addikc	r24, r11, 14862
     7ec:	02134905 		r16, r19, r9
     7f0:	13000006 		r24, r0, r0
     7f4:	0e030034 		r16, r3, r0
     7f8:	0b3b0b3a 		r25, r27, r1
     7fc:	0c3f1349 		r1, r31, r2
     800:	00000c3c 		r0, r0, r1
     804:	49002614 		r8, r0, r4
     808:	00000013 		r0, r0, r0
     80c:	25011101 	rsubi	r8, r1, 4353
     810:	030b130e 		r24, r11, r2
     814:	110e1b0e 		r8, r14, r3
     818:	10011201 		r0, r1, r2
     81c:	02000006 		r16, r0, r0
     820:	0b0b0024 		r24, r11, r0
     824:	08030b3e 		r0, r3, r1
     828:	24030000 	rsubi	r0, r3, 0
     82c:	3e0b0b00 	rsubikc	r16, r11, 2816
     830:	000e030b 		r0, r14, r0
     834:	00160400 		r0, r22, r0
     838:	0b3a0e03 		r25, r26, r1
     83c:	13490b3b 		r26, r9, r1
     840:	04050000 	rsub	r0, r5, r0
     844:	3a0b0b01 	addikc	r16, r11, 2817
     848:	01053b0b 		r8, r5, r7
     84c:	06000013 	neg	r16, r0
     850:	0e030028 		r16, r3, r0
     854:	00000d1c 		r0, r0, r1
     858:	03001607 		r24, r0, r2
     85c:	3b0b3a0e 	addikc	r24, r11, 14862
     860:	00134905 		r0, r19, r9
     864:	01170800 	add	r8, r23, r1
     868:	0b3a0b0b 		r25, r26, r1
     86c:	1301053b 		r24, r1, r0
     870:	0d090000 	rsubc	r8, r9, r0
     874:	3a080300 	addikc	r16, r8, 768
     878:	49053b0b 		r8, r5, r7
     87c:	0a000013 		r16, r0, r0
     880:	13490101 		r26, r9, r0
     884:	00001301 		r0, r0, r2
     888:	4900210b 		r8, r0, r4
     88c:	000b2f13 		r0, r11, r5
     890:	01130c00 		r8, r19, r1
     894:	0b3a0b0b 		r25, r26, r1
     898:	1301053b 		r24, r1, r0
     89c:	0d0d0000 	rsubc	r8, r13, r0
     8a0:	3a0e0300 	addikc	r16, r14, 768
     8a4:	49053b0b 		r8, r5, r7
     8a8:	000a3813 		r0, r10, r7
     8ac:	00340e00 		r1, r20, r1
     8b0:	0b3a0e03 		r25, r26, r1
     8b4:	13490b3b 		r26, r9, r1
     8b8:	0a020c3f 		r16, r2, r1
     8bc:	260f0000 	rsubi	r16, r15, 0
     8c0:	00134900 	addl	r0, r19, r9
     8c4:	11010000 	addk	r8, r1, r0
     8c8:	11061000 	addk	r8, r6, r2
     8cc:	03011201 		r24, r1, r2
     8d0:	25081b08 	rsubi	r8, r8, 6920
     8d4:	00051308 		r0, r5, r2
     8d8:	11010000 	addk	r8, r1, r0
     8dc:	11061000 	addk	r8, r6, r2
     8e0:	03011201 		r24, r1, r2
     8e4:	25081b08 	rsubi	r8, r8, 6920
     8e8:	00051308 		r0, r5, r2
     8ec:	11010000 	addk	r8, r1, r0
     8f0:	130e2501 		r24, r14, r4
     8f4:	1b0e030b 		r24, r14, r0
     8f8:	1201110e 		r16, r1, r2
     8fc:	00061001 		r0, r6, r2
     900:	00240200 		r1, r4, r0
     904:	0b3e0b0b 		r25, r30, r1
     908:	00000803 		r0, r0, r1
     90c:	0b002403 		r24, r0, r4
     910:	030b3e0b 		r24, r11, r7
     914:	0400000e 	neg	r0, r0
     918:	0e030016 		r16, r3, r0
     91c:	0b3b0b3a 		r25, r27, r1
     920:	00001349 		r0, r0, r2
     924:	0b010405 		r24, r1, r0
     928:	3b0b3a0b 	addikc	r24, r11, 14859
     92c:	00130105 		r0, r19, r0
     930:	00280600 		r1, r8, r0
     934:	0d1c0e03 		r8, r28, r1
     938:	16070000 	rsubk	r16, r7, r0
     93c:	3a0e0300 	addikc	r16, r14, 768
     940:	49053b0b 		r8, r5, r7
     944:	08000013 		r0, r0, r0
     948:	0b0b0117 		r24, r11, r0
     94c:	053b0b3a 	neg	r9, r27
     950:	00001301 		r0, r0, r2
     954:	03000d09 		r24, r0, r1
     958:	3b0b3a08 	addikc	r24, r11, 14856
     95c:	00134905 		r0, r19, r9
     960:	01010a00 		r8, r1, r1
     964:	13011349 		r24, r1, r2
     968:	210b0000 	addi	r8, r11, 0
     96c:	2f134900 	rsubic	r24, r19, 18688
     970:	0c00000b 		r0, r0, r0
     974:	0b0b0113 		r24, r11, r0
     978:	053b0b3a 	neg	r9, r27
     97c:	00001301 		r0, r0, r2
     980:	03000d0d 		r24, r0, r1
     984:	3b0b3a0e 	addikc	r24, r11, 14862
     988:	38134905 	addikc	r0, r19, 18693
     98c:	0e00000a 		r16, r0, r0
     990:	0c3f012e 		r1, r31, r0
     994:	0b3a0e03 		r25, r26, r1
     998:	0c27053b 		r1, r7, r0
     99c:	01111349 		r8, r17, r2
     9a0:	06400112 	neg	r18, r0
     9a4:	00001301 		r0, r0, r2
     9a8:	0300050f 		r24, r0, r0
     9ac:	3b0b3a0e 	addikc	r24, r11, 14862
     9b0:	02134905 		r16, r19, r9
     9b4:	10000006 		r0, r0, r0
     9b8:	08030005 		r0, r3, r0
     9bc:	053b0b3a 	neg	r9, r27
     9c0:	06021349 	neg	r16, r2
     9c4:	34110000 	rsubik	r0, r17, 0
     9c8:	3a080300 	addikc	r16, r8, 768
     9cc:	49053b0b 		r8, r5, r7
     9d0:	000a0213 		r0, r10, r0
     9d4:	00341200 		r1, r20, r2
     9d8:	0b3a0e03 		r25, r26, r1
     9dc:	13490b3b 		r26, r9, r1
     9e0:	0c3c0c3f 		r1, r28, r1
     9e4:	26130000 	rsubi	r16, r19, 0
     9e8:	00134900 	addl	r0, r19, r9
     9ec:	11010000 	addk	r8, r1, r0
     9f0:	130e2501 		r24, r14, r4
     9f4:	1b0e030b 		r24, r14, r0
     9f8:	1201110e 		r16, r1, r2
     9fc:	00061001 		r0, r6, r2
     a00:	00240200 		r1, r4, r0
     a04:	0b3e0b0b 		r25, r30, r1
     a08:	00000803 		r0, r0, r1
     a0c:	0b002403 		r24, r0, r4
     a10:	030b3e0b 		r24, r11, r7
     a14:	0400000e 	neg	r0, r0
     a18:	0e030016 		r16, r3, r0
     a1c:	0b3b0b3a 		r25, r27, r1
     a20:	00001349 		r0, r0, r2
     a24:	0b010405 		r24, r1, r0
     a28:	3b0b3a0b 	addikc	r24, r11, 14859
     a2c:	00130105 		r0, r19, r0
     a30:	00280600 		r1, r8, r0
     a34:	0d1c0e03 		r8, r28, r1
     a38:	16070000 	rsubk	r16, r7, r0
     a3c:	3a0e0300 	addikc	r16, r14, 768
     a40:	49053b0b 		r8, r5, r7
     a44:	08000013 		r0, r0, r0
     a48:	0b0b0117 		r24, r11, r0
     a4c:	053b0b3a 	neg	r9, r27
     a50:	00001301 		r0, r0, r2
     a54:	03000d09 		r24, r0, r1
     a58:	3b0b3a08 	addikc	r24, r11, 14856
     a5c:	00134905 		r0, r19, r9
     a60:	01010a00 		r8, r1, r1
     a64:	13011349 		r24, r1, r2
     a68:	210b0000 	addi	r8, r11, 0
     a6c:	2f134900 	rsubic	r24, r19, 18688
     a70:	0c00000b 		r0, r0, r0
     a74:	0b0b0113 		r24, r11, r0
     a78:	053b0b3a 	neg	r9, r27
     a7c:	00001301 		r0, r0, r2
     a80:	03000d0d 		r24, r0, r1
     a84:	3b0b3a0e 	addikc	r24, r11, 14862
     a88:	38134905 	addikc	r0, r19, 18693
     a8c:	0e00000a 		r16, r0, r0
     a90:	0e03000d 		r16, r3, r0
     a94:	053b0b3a 	neg	r9, r27
     a98:	00001349 		r0, r0, r2
     a9c:	03012e0f 		r24, r1, r5
     aa0:	3b0b3a0e 	addikc	r24, r11, 14862
     aa4:	490c270b 		r8, r12, r4
     aa8:	010b2013 		r8, r11, r4
     aac:	10000013 		r0, r0, r0
     ab0:	08030005 		r0, r3, r0
     ab4:	0b3b0b3a 		r25, r27, r1
     ab8:	00001349 		r0, r0, r2
     abc:	0b000f11 		r24, r0, r1
     ac0:	0013490b 		r0, r19, r9
     ac4:	00261200 		r1, r6, r2
     ac8:	00001349 		r0, r0, r2
     acc:	3f012e13 	rsubikc	r24, r1, 11795
     ad0:	3a0e030c 	addikc	r16, r14, 780
     ad4:	270b3b0b 	rsubi	r24, r11, 15115
     ad8:	1113490c 		r8, r19, r9
     adc:	40011201 		r0, r1, r2
     ae0:	00130106 		r0, r19, r0
     ae4:	00051400 		r0, r5, r2
     ae8:	0b3a0803 		r25, r26, r1
     aec:	13490b3b 		r26, r9, r1
     af0:	00000602 		r0, r0, r0
     af4:	03003415 		r24, r0, r6
     af8:	3b0b3a08 	addikc	r24, r11, 14856
     afc:	0013490b 		r0, r19, r9
     b00:	00341600 		r1, r20, r2
     b04:	0b3a0e03 		r25, r26, r1
     b08:	13490b3b 		r26, r9, r1
     b0c:	00000602 		r0, r0, r0
     b10:	03003417 		r24, r0, r6
     b14:	3b0b3a08 	addikc	r24, r11, 14856
     b18:	0213490b 		r16, r19, r9
     b1c:	18000006 		r0, r0, r0
     b20:	1331011d 		r25, r17, r0
     b24:	01120111 		r8, r18, r0
     b28:	0b590b58 		r26, r25, r1
     b2c:	00001301 		r0, r0, r2
     b30:	31000519 	addik	r8, r0, 1305
     b34:	00060213 		r0, r6, r0
     b38:	010b1a00 		r8, r11, r3
     b3c:	01120111 		r8, r18, r0
     b40:	341b0000 	rsubik	r0, r27, 0
     b44:	3a0e0300 	addikc	r16, r14, 768
     b48:	49053b0b 		r8, r5, r7
     b4c:	1c000013 		r0, r0, r0
     b50:	0e030034 		r16, r3, r0
     b54:	0b3b0b3a 		r25, r27, r1
     b58:	0c3f1349 		r1, r31, r2
     b5c:	00000c3c 		r0, r0, r1
     b60:	01110100 	addl	r8, r17, r0
     b64:	0b130e25 		r24, r19, r1
     b68:	0e1b0e03 		r16, r27, r1
     b6c:	01120111 		r8, r18, r0
     b70:	00000610 		r0, r0, r0
     b74:	0b002402 		r24, r0, r4
     b78:	030b3e0b 		r24, r11, r7
     b7c:	03000008 		r24, r0, r0
     b80:	0b0b0024 		r24, r11, r0
     b84:	0e030b3e 		r16, r3, r1
     b88:	16040000 	rsubk	r16, r4, r0
     b8c:	3a0e0300 	addikc	r16, r14, 768
     b90:	490b3b0b 		r8, r11, r7
     b94:	05000013 	neg	r8, r0
     b98:	0b0b0104 		r24, r11, r0
     b9c:	053b0b3a 	neg	r9, r27
     ba0:	00001301 		r0, r0, r2
     ba4:	03002806 		r24, r0, r5
     ba8:	000d1c0e 		r0, r13, r3
     bac:	00160700 		r0, r22, r0
     bb0:	0b3a0e03 		r25, r26, r1
     bb4:	1349053b 		r26, r9, r0
     bb8:	17080000 	rsubk	r24, r8, r0
     bbc:	3a0b0b01 	addikc	r16, r11, 2817
     bc0:	01053b0b 		r8, r5, r7
     bc4:	09000013 		r8, r0, r0
     bc8:	0803000d 		r0, r3, r0
     bcc:	053b0b3a 	neg	r9, r27
     bd0:	00001349 		r0, r0, r2
     bd4:	4901010a 		r8, r1, r0
     bd8:	00130113 		r0, r19, r0
     bdc:	00210b00 		r1, r1, r1
     be0:	0b2f1349 		r25, r15, r2
     be4:	130c0000 	addk	r24, r12, r0
     be8:	3a0b0b01 	addikc	r16, r11, 2817
     bec:	01053b0b 		r8, r5, r7
     bf0:	0d000013 		r8, r0, r0
     bf4:	0e03000d 		r16, r3, r0
     bf8:	053b0b3a 	neg	r9, r27
     bfc:	0a381349 		r17, r24, r2
     c00:	0d0e0000 	rsubc	r8, r14, r0
     c04:	3a0e0300 	addikc	r16, r14, 768
     c08:	49053b0b 		r8, r5, r7
     c0c:	0f000013 		r24, r0, r0
     c10:	0c3f012e 		r1, r31, r0
     c14:	0b3a0e03 		r25, r26, r1
     c18:	0c27053b 		r1, r7, r0
     c1c:	01120111 		r8, r18, r0
     c20:	13010a40 		r24, r1, r1
     c24:	05100000 	rsub	r8, r16, r0
     c28:	3a080300 	addikc	r16, r8, 768
     c2c:	49053b0b 		r8, r5, r7
     c30:	00060213 		r0, r6, r0
     c34:	00051100 	addl	r0, r5, r2
     c38:	0b3a0803 		r25, r26, r1
     c3c:	1349053b 		r26, r9, r0
     c40:	00000a02 		r0, r0, r1
     c44:	03003412 		r24, r0, r6
     c48:	3b0b3a0e 	addikc	r24, r11, 14862
     c4c:	02134905 		r16, r19, r9
     c50:	13000006 		r24, r0, r0
     c54:	08030034 		r0, r3, r0
     c58:	053b0b3a 	neg	r9, r27
     c5c:	06021349 	neg	r16, r2
     c60:	34140000 	rsubik	r0, r20, 0
     c64:	3a0e0300 	addikc	r16, r14, 768
     c68:	49053b0b 		r8, r5, r7
     c6c:	15000013 		r8, r0, r0
     c70:	0b0b000f 		r24, r11, r0
     c74:	00001349 		r0, r0, r2
     c78:	03003416 		r24, r0, r6
     c7c:	3b0b3a0e 	addikc	r24, r11, 14862
     c80:	3f13490b 	rsubikc	r24, r19, 18699
     c84:	000c3c0c 		r0, r12, r7
     c88:	00261700 		r1, r6, r2
     c8c:	00001349 		r0, r0, r2
     c90:	01110100 	addl	r8, r17, r0
     c94:	0b130e25 		r24, r19, r1
     c98:	0e1b0e03 		r16, r27, r1
     c9c:	01120111 		r8, r18, r0
     ca0:	00000610 		r0, r0, r0
     ca4:	0b002402 		r24, r0, r4
     ca8:	030b3e0b 		r24, r11, r7
     cac:	03000008 		r24, r0, r0
     cb0:	0b0b0024 		r24, r11, r0
     cb4:	0e030b3e 		r16, r3, r1
     cb8:	16040000 	rsubk	r16, r4, r0
     cbc:	3a0e0300 	addikc	r16, r14, 768
     cc0:	490b3b0b 		r8, r11, r7
     cc4:	05000013 	neg	r8, r0
     cc8:	0e030113 		r16, r3, r0
     ccc:	0b3a0b0b 		r25, r26, r1
     cd0:	1301053b 		r24, r1, r0
     cd4:	0d060000 	rsubc	r8, r6, r0
     cd8:	3a080300 	addikc	r16, r8, 768
     cdc:	49053b0b 		r8, r5, r7
     ce0:	000a3813 		r0, r10, r7
     ce4:	000d0700 		r0, r13, r0
     ce8:	0b3a0e03 		r25, r26, r1
     cec:	1349053b 		r26, r9, r0
     cf0:	00000a38 		r0, r0, r1
     cf4:	0b011708 		r24, r1, r2
     cf8:	3b0b3a0b 	addikc	r24, r11, 14859
     cfc:	00130105 		r0, r19, r0
     d00:	000d0900 	addl	r0, r13, r1
     d04:	0b3a0803 		r25, r26, r1
     d08:	1349053b 		r26, r9, r0
     d0c:	160a0000 	rsubk	r16, r10, r0
     d10:	3a0e0300 	addikc	r16, r14, 768
     d14:	49053b0b 		r8, r5, r7
     d18:	0b000013 		r24, r0, r0
     d1c:	0c3f012e 		r1, r31, r0
     d20:	0b3a0e03 		r25, r26, r1
     d24:	0c27053b 		r1, r7, r0
     d28:	01111349 		r8, r17, r2
     d2c:	0a400112 		r18, r0, r0
     d30:	00001301 		r0, r0, r2
     d34:	0300050c 		r24, r0, r0
     d38:	3b0b3a08 	addikc	r24, r11, 14856
     d3c:	02134905 		r16, r19, r9
     d40:	0d000006 		r8, r0, r0
     d44:	08030034 		r0, r3, r0
     d48:	053b0b3a 	neg	r9, r27
     d4c:	00001349 		r0, r0, r2
     d50:	0300340e 		r24, r0, r6
     d54:	3b0b3a08 	addikc	r24, r11, 14856
     d58:	02134905 		r16, r19, r9
     d5c:	0f000006 		r24, r0, r0
     d60:	0655010b 	neg	r18, r21
     d64:	34100000 	rsubik	r0, r16, 0
     d68:	3a0e0300 	addikc	r16, r14, 768
     d6c:	49053b0b 		r8, r5, r7
     d70:	00060213 		r0, r6, r0
     d74:	00261100 	addl	r1, r6, r2
     d78:	00001349 		r0, r0, r2
     d7c:	01110100 	addl	r8, r17, r0
     d80:	0b130e25 		r24, r19, r1
     d84:	0e1b0e03 		r16, r27, r1
     d88:	01120111 		r8, r18, r0
     d8c:	00000610 		r0, r0, r0
     d90:	0b002402 		r24, r0, r4
     d94:	030b3e0b 		r24, r11, r7
     d98:	03000008 		r24, r0, r0
     d9c:	0b0b0024 		r24, r11, r0
     da0:	0e030b3e 		r16, r3, r1
     da4:	16040000 	rsubk	r16, r4, r0
     da8:	3a0e0300 	addikc	r16, r14, 768
     dac:	490b3b0b 		r8, r11, r7
     db0:	05000013 	neg	r8, r0
     db4:	0e030113 		r16, r3, r0
     db8:	0b3a0b0b 		r25, r26, r1
     dbc:	1301053b 		r24, r1, r0
     dc0:	0d060000 	rsubc	r8, r6, r0
     dc4:	3a080300 	addikc	r16, r8, 768
     dc8:	49053b0b 		r8, r5, r7
     dcc:	000a3813 		r0, r10, r7
     dd0:	000d0700 		r0, r13, r0
     dd4:	0b3a0e03 		r25, r26, r1
     dd8:	1349053b 		r26, r9, r0
     ddc:	00000a38 		r0, r0, r1
     de0:	0b011708 		r24, r1, r2
     de4:	3b0b3a0b 	addikc	r24, r11, 14859
     de8:	00130105 		r0, r19, r0
     dec:	000d0900 	addl	r0, r13, r1
     df0:	0b3a0803 		r25, r26, r1
     df4:	1349053b 		r26, r9, r0
     df8:	160a0000 	rsubk	r16, r10, r0
     dfc:	3a0e0300 	addikc	r16, r14, 768
     e00:	49053b0b 		r8, r5, r7
     e04:	0b000013 		r24, r0, r0
     e08:	0c3f012e 		r1, r31, r0
     e0c:	0b3a0e03 		r25, r26, r1
     e10:	0c27053b 		r1, r7, r0
     e14:	01111349 		r8, r17, r2
     e18:	0a400112 		r18, r0, r0
     e1c:	00001301 		r0, r0, r2
     e20:	0300050c 		r24, r0, r0
     e24:	3b0b3a08 	addikc	r24, r11, 14856
     e28:	02134905 		r16, r19, r9
     e2c:	0d000006 		r8, r0, r0
     e30:	08030034 		r0, r3, r0
     e34:	053b0b3a 	neg	r9, r27
     e38:	00001349 		r0, r0, r2
     e3c:	0300340e 		r24, r0, r6
     e40:	3b0b3a08 	addikc	r24, r11, 14856
     e44:	02134905 		r16, r19, r9
     e48:	0f000006 		r24, r0, r0
     e4c:	0655010b 	neg	r18, r21
     e50:	34100000 	rsubik	r0, r16, 0
     e54:	3a0e0300 	addikc	r16, r14, 768
     e58:	49053b0b 		r8, r5, r7
     e5c:	00060213 		r0, r6, r0
     e60:	00261100 	addl	r1, r6, r2
     e64:	00001349 		r0, r0, r2
     e68:	01110100 	addl	r8, r17, r0
     e6c:	0b130e25 		r24, r19, r1
     e70:	0e1b0e03 		r16, r27, r1
     e74:	01120111 		r8, r18, r0
     e78:	00000610 		r0, r0, r0
     e7c:	0b002402 		r24, r0, r4
     e80:	030b3e0b 		r24, r11, r7
     e84:	03000008 		r24, r0, r0
     e88:	0b0b0024 		r24, r11, r0
     e8c:	0e030b3e 		r16, r3, r1
     e90:	16040000 	rsubk	r16, r4, r0
     e94:	3a0e0300 	addikc	r16, r14, 768
     e98:	490b3b0b 		r8, r11, r7
     e9c:	05000013 	neg	r8, r0
     ea0:	0b0b0104 		r24, r11, r0
     ea4:	053b0b3a 	neg	r9, r27
     ea8:	00001301 		r0, r0, r2
     eac:	03002806 		r24, r0, r5
     eb0:	000d1c0e 		r0, r13, r3
     eb4:	00160700 		r0, r22, r0
     eb8:	0b3a0e03 		r25, r26, r1
     ebc:	1349053b 		r26, r9, r0
     ec0:	17080000 	rsubk	r24, r8, r0
     ec4:	3a0b0b01 	addikc	r16, r11, 2817
     ec8:	01053b0b 		r8, r5, r7
     ecc:	09000013 		r8, r0, r0
     ed0:	0803000d 		r0, r3, r0
     ed4:	053b0b3a 	neg	r9, r27
     ed8:	00001349 		r0, r0, r2
     edc:	4901010a 		r8, r1, r0
     ee0:	00130113 		r0, r19, r0
     ee4:	00210b00 		r1, r1, r1
     ee8:	0b2f1349 		r25, r15, r2
     eec:	130c0000 	addk	r24, r12, r0
     ef0:	3a0b0b01 	addikc	r16, r11, 2817
     ef4:	01053b0b 		r8, r5, r7
     ef8:	0d000013 		r8, r0, r0
     efc:	0e03000d 		r16, r3, r0
     f00:	053b0b3a 	neg	r9, r27
     f04:	0a381349 		r17, r24, r2
     f08:	0d0e0000 	rsubc	r8, r14, r0
     f0c:	3a0e0300 	addikc	r16, r14, 768
     f10:	49053b0b 		r8, r5, r7
     f14:	0f000013 		r24, r0, r0
     f18:	0e03012e 		r16, r3, r0
     f1c:	0b3b0b3a 		r25, r27, r1
     f20:	13490c27 		r26, r9, r1
     f24:	13010b20 		r24, r1, r1
     f28:	05100000 	rsub	r8, r16, r0
     f2c:	3a080300 	addikc	r16, r8, 768
     f30:	490b3b0b 		r8, r11, r7
     f34:	11000013 		r8, r0, r0
     f38:	0b0b000f 		r24, r11, r0
     f3c:	00001349 		r0, r0, r2
     f40:	49002612 		r8, r0, r4
     f44:	13000013 		r24, r0, r0
     f48:	0c3f012e 		r1, r31, r0
     f4c:	0b3a0e03 		r25, r26, r1
     f50:	0c270b3b 		r1, r7, r1
     f54:	01111349 		r8, r17, r2
     f58:	0a400112 		r18, r0, r0
     f5c:	00001301 		r0, r0, r2
     f60:	03000514 		r24, r0, r0
     f64:	3b0b3a08 	addikc	r24, r11, 14856
     f68:	0213490b 		r16, r19, r9
     f6c:	15000006 		r8, r0, r0
     f70:	08030034 		r0, r3, r0
     f74:	0b3b0b3a 		r25, r27, r1
     f78:	06021349 	neg	r16, r2
     f7c:	34160000 	rsubik	r0, r22, 0
     f80:	3a0e0300 	addikc	r16, r14, 768
     f84:	490b3b0b 		r8, r11, r7
     f88:	00060213 		r0, r6, r0
     f8c:	011d1700 		r8, r29, r2
     f90:	01111331 		r8, r17, r2
     f94:	0b580112 		r26, r24, r0
     f98:	13010b59 		r24, r1, r1
     f9c:	05180000 	rsub	r8, r24, r0
     fa0:	02133100 	addl	r16, r19, r6
     fa4:	19000006 		r8, r0, r0
     fa8:	0111010b 		r8, r17, r0
     fac:	00000112 		r0, r0, r0
     fb0:	0300341a 		r24, r0, r6
     fb4:	3b0b3a0e 	addikc	r24, r11, 14862
     fb8:	02134905 		r16, r19, r9
     fbc:	1b000006 		r24, r0, r0
     fc0:	0e030034 		r16, r3, r0
     fc4:	0b3b0b3a 		r25, r27, r1
     fc8:	0c3f1349 		r1, r31, r2
     fcc:	00000c3c 		r0, r0, r1
     fd0:	01110100 	addl	r8, r17, r0
     fd4:	0b130e25 		r24, r19, r1
     fd8:	01110e03 		r8, r17, r1
     fdc:	06100112 	neg	r16, r16
     fe0:	24020000 	rsubi	r0, r2, 0
     fe4:	3e0b0b00 	rsubikc	r16, r11, 2816
     fe8:	0008030b 		r0, r8, r0
     fec:	00240300 		r1, r4, r0
     ff0:	0b3e0b0b 		r25, r30, r1
     ff4:	00000e03 		r0, r0, r1
     ff8:	0b000f04 		r24, r0, r1
     ffc:	0013490b 		r0, r19, r9
    1000:	012e0500 		r9, r14, r0
    1004:	0e030c3f 		r16, r3, r1
    1008:	0b3b0b3a 		r25, r27, r1
    100c:	13490c27 		r26, r9, r1
    1010:	01120111 		r8, r18, r0
    1014:	13010640 		r24, r1, r0
    1018:	05060000 	rsub	r8, r6, r0
    101c:	3a0e0300 	addikc	r16, r14, 768
    1020:	490b3b0b 		r8, r11, r7
    1024:	00060213 		r0, r6, r0
    1028:	00340700 		r1, r20, r0
    102c:	0b3a0e03 		r25, r26, r1
    1030:	13490b3b 		r26, r9, r1
    1034:	00000602 		r0, r0, r0
    1038:	03003408 		r24, r0, r6
    103c:	3b0b3a0e 	addikc	r24, r11, 14862
    1040:	0213490b 		r16, r19, r9
    1044:	0900000a 		r8, r0, r0
    1048:	13490101 		r26, r9, r0
    104c:	00001301 		r0, r0, r2
    1050:	0000210a 		r0, r0, r4
    1054:	00340b00 		r1, r20, r1
    1058:	0b3a0e03 		r25, r26, r1
    105c:	13490b3b 		r26, r9, r1
    1060:	0c3c0c3f 		r1, r28, r1
    1064:	01000000 	add	r8, r0, r0
    1068:	0e250111 		r17, r5, r0
    106c:	0e030b13 		r16, r3, r1
    1070:	01110e1b 		r8, r17, r1
    1074:	06550152 	neg	r18, r21
    1078:	00000610 		r0, r0, r0
    107c:	0b002402 		r24, r0, r4
    1080:	030b3e0b 		r24, r11, r7
    1084:	03000008 		r24, r0, r0
    1088:	0b0b0024 		r24, r11, r0
    108c:	0e030b3e 		r16, r3, r1
    1090:	16040000 	rsubk	r16, r4, r0
    1094:	3a0e0300 	addikc	r16, r14, 768
    1098:	490b3b0b 		r8, r11, r7
    109c:	05000013 	neg	r8, r0
    10a0:	0e030016 		r16, r3, r0
    10a4:	053b0b3a 	neg	r9, r27
    10a8:	00001349 		r0, r0, r2
    10ac:	0b011706 		r24, r1, r2
    10b0:	3b0b3a0b 	addikc	r24, r11, 14859
    10b4:	0013010b 		r0, r19, r0
    10b8:	000d0700 		r0, r13, r0
    10bc:	0b3a0e03 		r25, r26, r1
    10c0:	13490b3b 		r26, r9, r1
    10c4:	01080000 	add	r8, r8, r0
    10c8:	01134901 		r8, r19, r9
    10cc:	09000013 		r8, r0, r0
    10d0:	13490021 		r26, r9, r0
    10d4:	00000b2f 		r0, r0, r1
    10d8:	0b01130a 		r24, r1, r2
    10dc:	3b0b3a0b 	addikc	r24, r11, 14859
    10e0:	0013010b 		r0, r19, r0
    10e4:	000d0b00 		r0, r13, r1
    10e8:	0b3a0e03 		r25, r26, r1
    10ec:	13490b3b 		r26, r9, r1
    10f0:	00000a38 		r0, r0, r1
    10f4:	0b000f0c 		r24, r0, r1
    10f8:	0d00000b 		r8, r0, r0
    10fc:	0e030113 		r16, r3, r0
    1100:	0b3a0b0b 		r25, r26, r1
    1104:	13010b3b 		r24, r1, r1
    1108:	0d0e0000 	rsubc	r8, r14, r0
    110c:	3a080300 	addikc	r16, r8, 768
    1110:	490b3b0b 		r8, r11, r7
    1114:	000a3813 		r0, r10, r7
    1118:	000f0f00 		r0, r15, r1
    111c:	13490b0b 		r26, r9, r1
    1120:	13100000 	addk	r24, r16, r0
    1124:	0b0e0301 		r24, r14, r0
    1128:	3b0b3a05 	addikc	r24, r11, 14853
    112c:	0013010b 		r0, r19, r0
    1130:	00151100 	addl	r0, r21, r2
    1134:	00000c27 		r0, r0, r1
    1138:	03011312 		r24, r1, r2
    113c:	3a0b0b0e 	addikc	r16, r11, 2830
    1140:	01053b0b 		r8, r5, r7
    1144:	13000013 		r24, r0, r0
    1148:	0e03000d 		r16, r3, r0
    114c:	053b0b3a 	neg	r9, r27
    1150:	0a381349 		r17, r24, r2
    1154:	0d140000 	rsubc	r8, r20, r0
    1158:	3a080300 	addikc	r16, r8, 768
    115c:	49053b0b 		r8, r5, r7
    1160:	000a3813 		r0, r10, r7
    1164:	01151500 		r8, r21, r2
    1168:	13490c27 		r26, r9, r1
    116c:	00001301 		r0, r0, r2
    1170:	49000516 		r8, r0, r0
    1174:	17000013 		r24, r0, r0
    1178:	13490026 		r26, r9, r0
    117c:	15180000 	rsubk	r8, r24, r0
    1180:	010c2701 		r8, r12, r4
    1184:	19000013 		r8, r0, r0
    1188:	0c3f002e 		r1, r31, r0
    118c:	0b3a0e03 		r25, r26, r1
    1190:	0c270b3b 		r1, r7, r1
    1194:	01111349 		r8, r17, r2
    1198:	0a400112 		r18, r0, r0
    119c:	341a0000 	rsubik	r0, r26, 0
    11a0:	3a0e0300 	addikc	r16, r14, 768
    11a4:	49053b0b 		r8, r5, r7
    11a8:	3c0c3f13 	rsubikc	r0, r12, 16147
    11ac:	0000000c 		r0, r0, r0
    11b0:	10001101 		r0, r0, r2
    11b4:	03065506 		r24, r6, r10
    11b8:	25081b08 	rsubi	r8, r8, 6920
    11bc:	00051308 		r0, r5, r2
	...

Disassembly of section .debug_aranges:

00000000 <.debug_aranges>:
   0:	0000003c 		r0, r0, r0
   4:	00000002 		r0, r0, r0
   8:	00040000 	add	r0, r4, r0
	...
  14:	00000008 		r0, r0, r0
  18:	00000008 		r0, r0, r0
  1c:	00000008 		r0, r0, r0
  20:	00000010 		r0, r0, r0
  24:	00000008 		r0, r0, r0
  28:	00000020 		r0, r0, r0
  2c:	00000008 		r0, r0, r0
  30:	00000050 		r0, r0, r0
  34:	00000034 		r0, r0, r0
	...
  40:	00000024 		r0, r0, r0
  44:	00c50002 		r6, r5, r0
  48:	00040000 	add	r0, r4, r0
  4c:	
Disassembly of section .debug_ranges:

00000000 <.debug_ranges>:
   0:	ffffffff 	sli	r31, r31, -1
	...
   c:	00000008 		r0, r0, r0
  10:	00000008 		r0, r0, r0
  14:	00000010 		r0, r0, r0
  18:	00000010 		r0, r0, r0
  1c:	00000018 		r0, r0, r0
  20:	00000020 		r0, r0, r0
  24:	00000028 		r0, r0, r0
  28:	00000050 		r0, r0, r0
  2c:	00000084 		r0, r0, r0
	...
  38:	ffffffff 	sli	r31, r31, -1
  3c:	
Disassembly of section .debug_frame:

00000000 <.debug_frame>:
   0:	0000000c 		r0, r0, r0
   4:	ffffffff 	sli	r31, r31, -1
   8:	7c010001 		r0, r1, r0
   c:	00010c0f 		r0, r1, r1
  10:	00000018 		r0, r0, r0
  14:	
Disassembly of section .debug_loc:

00000000 <.debug_loc>:
       0:	
Disassembly of section .debug_str:

00000000 <.debug_str>:
   0:	6e746567 	necget	r19, rfsl7
   4:	64006d75 	bslefi	r0, r0, 53, 53
   8:	665f746f 	bslefi	r18, r31, 17, 47
   c:	0067616c 		r3, r7, r12
  10:	6e74756f 	tnecget	r19, rfsl15
  14:	73006d75 		r24, r0, r13
  18:	74726f68 		r3, r18, r13
  1c:	746e6920 		r3, r14, r13
  20:	635f5f00 	muli	r26, r31, 24320
  24:	65707974 	bslefi	r11, r16, 37, 52
  28:	7274705f 		r19, r20, r14
  2c:	6c005f5f 	tneaget	r0, rfsl15
  30:	616c665f 	muli	r11, r12, 26207
  34:	61700067 	muli	r11, r16, 103
  38:	736d6172 		r27, r13, r12
  3c:	7000735f 		r0, r0, r14
  40:	6d617261 	tncget	r11, rfsl1
  44:	00745f73 		r3, r20, r11
  48:	7466656c 		r3, r6, r12
  4c:	616c665f 	muli	r11, r12, 26207
  50:	756f0067 		r11, r15, r0
  54:	6c007374 	tncget	r0, rfsl4
  58:	20676e6f 	addi	r3, r7, 28271
  5c:	676e6f6c 	bslefi	r27, r14, 61, 44
  60:	746e6920 		r3, r14, r13
  64:	67656e00 	bslefi	r27, r5, 56, 0
  68:	76697461 		r19, r9, r14
  6c:	69640065 	addlik	r11, 101
  70:	73746967 		r27, r20, r13
  74:	6c697800 	tncaget	r3, rfsl0
  78:	6972705f 	xorli	r11, 28767
  7c:	0066746e 		r3, r6, r14
  80:	6274756f 	muli	r19, r20, 30063
  84:	75006675 		r8, r0, r12
  88:	6769736e 	bslefi	r27, r9, 13, 46
  8c:	2064656e 	addi	r3, r4, 25966
  90:	72616863 		r19, r1, r13
  94:	6e6f6c00 	necaget	r19, rfsl0
  98:	6f6c2067 	cget	r27, rfsl7
  9c:	7520676e 		r9, r0, r12
  a0:	6769736e 	bslefi	r27, r9, 13, 46
  a4:	2064656e 	addi	r3, r4, 25966
  a8:	00746e69 		r3, r20, r13
  ac:	72616863 		r19, r1, r13
  b0:	00727470 		r3, r18, r14
  b4:	70677261 		r3, r7, r14
  b8:	6f687300 	tncget	r27, rfsl0
  bc:	75207472 		r9, r0, r14
  c0:	6769736e 	bslefi	r27, r9, 13, 46
  c4:	2064656e 	addi	r3, r4, 25966
  c8:	00746e69 		r3, r20, r13
  cc:	5f646170 		r27, r4, r12
  d0:	72616863 		r19, r1, r13
  d4:	65746361 	bslefi	r11, r20, 13, 33
  d8:	74630072 		r3, r3, r0
  dc:	00316c72 		r1, r17, r13
  e0:	676e6f6c 	bslefi	r27, r14, 61, 44
  e4:	616c665f 	muli	r11, r12, 26207
  e8:	72740067 		r19, r20, r0
  ec:	656e5f79 	bsefi	r11, r14, 61, 57
  f0:	6e007478 	tnecget	r16, rfsl8
  f4:	00326d75 		r1, r18, r13
  f8:	705f6f64 		r2, r31, r13
  fc:	69646461 	addlik	r11, 25697
 100:	5f00676e 		r24, r0, r12
 104:	6975625f 		r11, r21, r12
 108:	6e69746c 	tnecget	r19, rfsl12
 10c:	5f61765f 		r27, r1, r14
 110:	7473696c 		r3, r19, r13
 114:	72746300 		r19, r20, r12
 118:	696c006c 		r11, r12, r0
 11c:	0070656e 		r3, r16, r12
 120:	6e675f5f 	tneaget	r19, rfsl15
 124:	765f6375 		r18, r31, r12
 128:	696c5f61 		r11, r12, r11
 12c:	6e007473 	tnecget	r16, rfsl3
 130:	00316d75 		r1, r17, r13
 134:	6b72772f 	xorli	r27, 30511
 138:	7874702f 		r3, r20, r14
 13c:	6573752f 	bslefi	r11, r19, 20, 47
 140:	6e2f7372 	tncget	r17, rfsl2
 144:	72616761 		r19, r1, r12
 148:	2f756a61 	rsubic	r27, r21, 27233
 14c:	5f434347 		r26, r3, r8
 150:	33313032 	addik	r25, r17, 12338
 154:	2f33305f 	rsubic	r25, r19, 12383
 158:	6c77656e 	necget	r3, rfsl14
 15c:	6c2f6269 	ncget	r1, rfsl9
 160:	6c676269 	ncget	r3, rfsl9
 164:	2f73736f 	rsubic	r27, r19, 29551
 168:	7263696d 		r19, r3, r13
 16c:	616c626f 	muli	r11, r12, 25199
 170:	782f657a 		r1, r15, r12
 174:	705f6c69 		r2, r31, r13
 178:	746e6972 		r3, r14, r13
 17c:	00632e66 		r3, r3, r5
 180:	20554e47 	addi	r2, r21, 20039
 184:	2e342043 	rsubic	r17, r20, 8259
 188:	20342e36 	addi	r1, r20, 11830
 18c:	32313032 	addik	r17, r17, 12338
 190:	34323930 	rsubik	r1, r18, 14640
 194:	69582820 		r10, r24, r5
 198:	786e696c 		r3, r14, r13
 19c:	2e343120 	rsubic	r17, r20, 12576
 1a0:	75422031 		r10, r2, r4
 1a4:	20646c69 	addi	r3, r4, 27753
 1a8:	5f4b4445 		r26, r11, r8
 1ac:	33312e50 	addik	r25, r17, 11856
 1b0:	20383220 	addi	r1, r24, 12832
 1b4:	20706553 	addi	r3, r16, 25939
 1b8:	33313032 	addik	r25, r17, 12338
 1bc:	61430029 	muli	r10, r3, 41
 1c0:	61426c6c 	muli	r10, r2, 27756
 1c4:	65526b63 	bslefi	r10, r18, 45, 35
 1c8:	424d0066 		r18, r13, r0
 1cc:	746e495f 		r3, r14, r9
 1d0:	75727265 		r11, r18, r14
 1d4:	65567470 	bslefi	r10, r22, 17, 48
 1d8:	726f7463 		r19, r15, r14
 1dc:	6c626154 	ncget	r3, rfsl4
 1e0:	696d0065 		r11, r13, r0
 1e4:	626f7263 	muli	r19, r15, 29283
 1e8:	657a616c 	bslefi	r11, r26, 5, 44
 1ec:	6765725f 	bslefi	r27, r5, 9, 31
 1f0:	65747369 	bslefi	r11, r20, 13, 41
 1f4:	61685f72 	muli	r11, r8, 24434
 1f8:	656c646e 	bslefi	r11, r12, 17, 46
 1fc:	3a430072 	addikc	r18, r3, 114
 200:	6f72705c 	tncget	r27, rfsl12
 204:	7463656a 		r3, r3, r12
 208:	44455c73 	bsll	r2, r5, r11
 20c:	43565c4b 		r26, r22, r11
 210:	5c373037 		r1, r23, r6
 214:	6b726f77 	xorli	r27, 28535
 218:	5f676e69 		r27, r7, r13
 21c:	6a6f7270 		r19, r15, r14
 220:	73746365 		r27, r20, r12
 224:	636f6c5c 	muli	r27, r15, 27740
 228:	654d6c61 	bslefi	r10, r13, 49, 33
 22c:	79726f6d 		r11, r18, r13
 230:	646f6d5c 	bslefi	r3, r15, 53, 28
 234:	526f6c75 		r19, r15, r13
 238:	5c325550 		r1, r18, r10
 23c:	735f7773 		r26, r31, r14
 240:	735c6b64 		r26, r28, r13
 244:	646e6174 	bslefi	r3, r14, 5, 52
 248:	6e6f6c61 	necaget	r19, rfsl1
 24c:	73625f65 		r27, r2, r11
 250:	5c305f70 		r1, r16, r11
 254:	7263696d 		r19, r3, r13
 258:	616c626f 	muli	r11, r12, 25199
 25c:	305f657a 	addik	r2, r31, 25978
 260:	62696c5c 	muli	r19, r9, 27740
 264:	5c637273 		r3, r3, r14
 268:	6e617473 	tnecget	r19, rfsl3
 26c:	6f6c6164 	ncget	r27, rfsl4
 270:	765f656e 		r18, r31, r12
 274:	31315f33 	addik	r9, r17, 24371
 278:	735c615f 		r26, r28, r12
 27c:	6d006372 	ncget	r8, rfsl2
 280:	6f726369 	ncget	r27, rfsl9
 284:	7a616c62 		r19, r1, r13
 288:	6e695f65 	tneaget	r19, rfsl5
 28c:	72726574 		r19, r18, r12
 290:	5f747075 		r27, r20, r14
 294:	646e6168 	bslefi	r3, r14, 5, 40
 298:	2e72656c 	rsubic	r19, r18, 25964
 29c:	61440063 	muli	r10, r4, 99
 2a0:	74506174 		r2, r16, r12
 2a4:	5f5f0072 		r26, r31, r0
 2a8:	65746e69 	bslefi	r11, r20, 57, 41
 2ac:	70757272 		r3, r21, r14
 2b0:	61685f74 	muli	r11, r8, 24436
 2b4:	656c646e 	bslefi	r11, r12, 17, 46
 2b8:	424d0072 		r18, r13, r0
 2bc:	746e495f 		r3, r14, r9
 2c0:	75727265 		r11, r18, r14
 2c4:	65567470 	bslefi	r10, r22, 17, 48
 2c8:	726f7463 		r19, r15, r14
 2cc:	6c626154 	ncget	r3, rfsl4
 2d0:	746e4565 		r3, r14, r8
 2d4:	58007972 		r0, r0, r15
 2d8:	65746e49 	bslefi	r11, r20, 57, 9
 2dc:	70757272 		r3, r21, r14
 2e0:	6e614874 	naget	r19, rfsl4
 2e4:	72656c64 		r19, r5, r13
 2e8:	63696d00 	muli	r27, r9, 27904
 2ec:	6c626f72 	necaget	r3, rfsl2
 2f0:	5f657a61 		r27, r5, r15
 2f4:	65746e69 	bslefi	r11, r20, 57, 41
 2f8:	70757272 		r3, r21, r14
 2fc:	675f7374 	bslefi	r26, r31, 13, 52
 300:	6f00632e 	ncget	r24, rfsl14
 304:	79627475 		r11, r2, r14
 308:	632e6574 	muli	r25, r14, 25972
 30c:	74756f00 		r3, r21, r13
 310:	65747962 	bslefi	r11, r20, 37, 34
 314:	61555800 	muli	r10, r21, 22528
 318:	694c7472 		r10, r12, r14
 31c:	525f6574 		r18, r31, r12
 320:	42766365 		r19, r22, r12
 324:	00657479 		r3, r5, r14
 328:	705c3a43 		r2, r28, r7
 32c:	656a6f72 	bslefi	r11, r10, 61, 50
 330:	5c737463 		r3, r19, r14
 334:	5c4b4445 		r2, r11, r8
 338:	30374356 	addik	r1, r23, 17238
 33c:	6f775c37 	tneaget	r27, rfsl7
 340:	6e696b72 	ncaget	r19, rfsl2
 344:	72705f67 		r19, r16, r11
 348:	63656a6f 	muli	r27, r5, 27247
 34c:	6c5c7374 	tncget	r2, rfsl4
 350:	6c61636f 	ncget	r3, rfsl15
 354:	6f6d654d 	necget	r27, rfsl13
 358:	6d5c7972 	tncaget	r10, rfsl2
 35c:	6c75646f 	necget	r3, rfsl15
 360:	5550526f 		r10, r16, r10
 364:	77735c32 		r27, r19, r11
 368:	6b64735f 	addlik	r27, 29535
 36c:	6174735c 	muli	r11, r20, 29532
 370:	6c61646e 	necget	r3, rfsl14
 374:	5f656e6f 		r27, r5, r13
 378:	5f707362 		r27, r16, r14
 37c:	696d5c30 		r11, r13, r11
 380:	626f7263 	muli	r19, r15, 29283
 384:	657a616c 	bslefi	r11, r26, 5, 44
 388:	6c5c305f 	tcget	r2, rfsl15
 38c:	72736269 		r19, r19, r12
 390:	61755c63 	muli	r11, r21, 23651
 394:	696c7472 		r11, r12, r14
 398:	765f6574 		r18, r31, r12
 39c:	31305f32 	addik	r9, r16, 24370
 3a0:	735c615f 		r26, r28, r12
 3a4:	44006372 	bslra	r0, r0, r12
 3a8:	00617461 		r3, r1, r14
 3ac:	72617578 		r19, r1, r14
 3b0:	74696c74 		r3, r9, r13
 3b4:	2e6c5f65 	rsubic	r19, r12, 24421
 3b8:	55580063 		r10, r24, r0
 3bc:	4c747261 	neagetd	r3, r14
 3c0:	5f657469 		r27, r5, r14
 3c4:	646e6553 	bslefi	r3, r14, 21, 19
 3c8:	65747942 	bslefi	r11, r20, 37, 2
 3cc:	73614200 		r27, r1, r8
 3d0:	64644165 	bsefi	r3, r4, 5, 37
 3d4:	73736572 		r27, r19, r12
 3d8:	73415800 		r26, r1, r11
 3dc:	74726573 		r3, r18, r12
 3e0:	74617453 		r3, r1, r14
 3e4:	58007375 		r0, r0, r14
 3e8:	65737341 	bslefi	r11, r19, 13, 1
 3ec:	65537472 	bslefi	r10, r19, 17, 50
 3f0:	6c614374 	nget	r3, rfsl4
 3f4:	6361626c 	muli	r27, r1, 25196
 3f8:	4e58006b 	eagetd	r18, r0
 3fc:	486c6c75 		r3, r12, r13
 400:	6c646e61 	necaget	r3, rfsl1
 404:	58007265 		r0, r0, r14
 408:	65737341 	bslefi	r11, r19, 13, 1
 40c:	58007472 		r0, r0, r14
 410:	74696157 		r3, r9, r12
 414:	73416e49 		r26, r1, r13
 418:	74726573 		r3, r18, r12
 41c:	5c3a4300 		r1, r26, r8
 420:	6a6f7270 		r19, r15, r14
 424:	73746365 		r27, r20, r12
 428:	4b44455c 		r26, r4, r8
 42c:	3743565c 	rsubik	r26, r3, 22108
 430:	775c3730 		r26, r28, r6
 434:	696b726f 		r11, r11, r14
 438:	705f676e 		r2, r31, r12
 43c:	656a6f72 	bslefi	r11, r10, 61, 50
 440:	5c737463 		r3, r19, r14
 444:	61636f6c 	muli	r11, r3, 28524
 448:	6d654d6c 	neaget	r11, rfsl12
 44c:	5c79726f 		r3, r25, r14
 450:	75646f6d 		r11, r4, r13
 454:	50526f6c 		r2, r18, r13
 458:	735c3255 		r26, r28, r6
 45c:	64735f77 	bsefi	r3, r19, 61, 55
 460:	74735c6b 		r3, r19, r11
 464:	61646e61 	muli	r11, r4, 28257
 468:	656e6f6c 	bslefi	r11, r14, 61, 44
 46c:	7073625f 		r3, r19, r12
 470:	6d5c305f 	tcget	r10, rfsl15
 474:	6f726369 	ncget	r27, rfsl9
 478:	7a616c62 		r19, r1, r13
 47c:	5c305f65 		r1, r16, r11
 480:	7362696c 		r27, r2, r13
 484:	635c6372 	muli	r26, r28, 25458
 488:	6f6d6d6f 	necaget	r27, rfsl15
 48c:	31765f6e 	addik	r11, r22, 24430
 490:	5f30305f 		r25, r16, r6
 494:	72735c61 		r19, r19, r11
 498:	69460063 	addlikc	r10, 99
 49c:	7800656c 		r0, r0, r12
 4a0:	69736162 	andnli	r11, 24930
 4a4:	79745f63 		r11, r20, r11
 4a8:	2e736570 	rsubic	r19, r19, 25968
 4ac:	41580063 		r10, r24, r0
 4b0:	72657373 		r19, r5, r14
 4b4:	6c614374 	nget	r3, rfsl4
 4b8:	6361626c 	muli	r27, r1, 25196
 4bc:	756f526b 		r11, r15, r10
 4c0:	656e6974 	bslefi	r11, r14, 37, 52
 4c4:	6e694c00 	neaget	r19, rfsl0
 4c8:	41580065 		r10, r24, r0
 4cc:	72657373 		r19, r5, r14
 4d0:	6c614374 	nget	r3, rfsl4
 4d4:	6361626c 	muli	r27, r1, 25196
 4d8:	754e006b 		r10, r14, r0
 4dc:	61506c6c 	muli	r10, r16, 27756
 4e0:	656d6172 	bslefi	r11, r13, 5, 50
 4e4:	00726574 		r3, r18, r12
 4e8:	66696473 	bslefi	r19, r9, 17, 51
 4ec:	4c430066 	eagetd	r2, r0
 4f0:	5f535341 		r26, r19, r10
 4f4:	4f52455a 	caputd	r18, r8
 4f8:	6e5f6100 	ncget	r18, rfsl0
 4fc:	616d726f 	muli	r11, r13, 29295
 500:	78655f6c 		r3, r5, r11
 504:	73690070 		r27, r9, r0
 508:	006e616e 		r3, r14, r12
 50c:	756e672f 		r11, r14, r12
 510:	5f626d2f 		r27, r2, r13
 514:	2f756e67 	rsubic	r27, r21, 28263
 518:	6c697562 	tnecget	r3, rfsl2
 51c:	696d2f64 		r11, r13, r5
 520:	2f77676e 	rsubic	r27, r23, 26478
 524:	5f646c62 		r27, r4, r13
 528:	2f636367 	rsubic	r27, r3, 25447
 52c:	6c697562 	tnecget	r3, rfsl2
 530:	696d2f64 		r11, r13, r5
 534:	626f7263 	muli	r19, r15, 29283
 538:	657a616c 	bslefi	r11, r26, 5, 44
 53c:	6c69782d 	tncaget	r3, rfsl13
 540:	2d786e69 	rsubic	r11, r24, 28265
 544:	2f666c65 	rsubic	r27, r6, 27749
 548:	6d2f7362 	tncget	r9, rfsl2
 54c:	2f656c2f 	rsubic	r27, r5, 27695
 550:	6762696c 	bslefi	r27, r2, 37, 44
 554:	5f006363 		r24, r0, r12
 558:	6464615f 	bslefi	r3, r4, 5, 31
 55c:	00336664 		r1, r19, r12
 560:	6e697369 	tncget	r19, rfsl9
 564:	6c630066 	get	r3, rfsl6
 568:	00737361 		r3, r19, r14
 56c:	68745f5f 		r3, r20, r11
 570:	6e616e65 	necaget	r19, rfsl5
 574:	0066645f 		r3, r6, r12
 578:	79744644 		r11, r20, r8
 57c:	55006570 		r8, r0, r12
 580:	79744953 		r11, r20, r9
 584:	66006570 	bslefi	r16, r0, 21, 48
 588:	6c635f70 	tneaget	r3, rfsl0
 58c:	5f737361 		r27, r19, r14
 590:	65707974 	bslefi	r11, r16, 37, 52
 594:	414c4300 		r10, r12, r8
 598:	515f5353 		r10, r31, r10
 59c:	004e414e 		r2, r14, r8
 5a0:	5f677261 		r27, r7, r14
 5a4:	72610061 		r19, r1, r0
 5a8:	00625f67 		r3, r2, r11
 5ac:	6170665f 	muli	r11, r16, 26207
 5b0:	705f6464 		r2, r31, r12
 5b4:	73747261 		r27, r20, r14
 5b8:	7a736900 		r19, r19, r13
 5bc:	006f7265 		r3, r15, r14
 5c0:	5f4f4c46 		r26, r15, r9
 5c4:	6f696e75 	necaget	r27, rfsl5
 5c8:	79745f6e 		r11, r20, r11
 5cc:	5f006570 		r24, r0, r12
 5d0:	6275735f 	muli	r19, r21, 29535
 5d4:	00336664 		r1, r19, r12
 5d8:	6f6e5f62 	tneaget	r27, rfsl2
 5dc:	6c616d72 	necaget	r3, rfsl2
 5e0:	7078655f 		r3, r24, r12
 5e4:	2f2e2e00 	rsubic	r25, r14, 11776
 5e8:	2e2f2e2e 	rsubic	r17, r15, 11822
 5ec:	2e2e2f2e 	rsubic	r17, r14, 12078
 5f0:	2f2e2e2f 	rsubic	r25, r14, 11823
 5f4:	63672f2e 	muli	r27, r7, 12078
 5f8:	70642f63 		r3, r4, r5
 5fc:	7469622d 		r3, r9, r12
 600:	7700632e 		r24, r0, r12
 604:	7364726f 		r27, r4, r14
 608:	49445500 		r10, r4, r10
 60c:	65707974 	bslefi	r11, r16, 37, 52
 610:	746e6900 		r3, r14, r13
 614:	63617266 	muli	r27, r1, 29286
 618:	4f4c4600 	nputd	r12, r8
 61c:	7079745f 		r3, r25, r14
 620:	4c430065 	eagetd	r2, r0
 624:	5f535341 		r26, r19, r10
 628:	4e414e53 	naputd	r1, r9
 62c:	72667400 		r19, r6, r14
 630:	69746361 		r11, r20, r12
 634:	66006e6f 	bslefi	r16, r0, 57, 47
 638:	756e5f70 		r11, r14, r11
 63c:	7265626d 		r19, r5, r12
 640:	7079745f 		r3, r25, r14
 644:	5f620065 		r27, r2, r0
 648:	63617266 	muli	r27, r1, 29286
 64c:	6e6f6974 	ncaget	r19, rfsl4
 650:	665f6100 	bslefi	r18, r31, 4, 0
 654:	74636172 		r3, r3, r12
 658:	006e6f69 		r3, r14, r13
 65c:	53414c43 		r26, r1, r9
 660:	4e495f53 	ncaputd	r9, r11
 664:	494e4946 		r10, r14, r9
 668:	6d005954 	tnaget	r8, rfsl4
 66c:	6e656b61 	ncaget	r19, rfsl1
 670:	76006e61 		r16, r0, r13
 674:	65756c61 	bslefi	r11, r21, 49, 33
 678:	7761725f 		r27, r1, r14
 67c:	414c4300 		r10, r12, r8
 680:	4e5f5353 	ncagetd	r18, r10
 684:	45424d55 	bslll	r10, r2, r9
 688:	61680052 	muli	r11, r8, 82
 68c:	7266666c 		r19, r6, r12
 690:	79746361 		r11, r20, r12
 694:	5f006570 		r24, r0, r12
 698:	7572745f 		r11, r18, r14
 69c:	6664636e 	bslefi	r19, r4, 13, 46
 6a0:	00326673 		r1, r18, r12
 6a4:	72666673 		r19, r6, r12
 6a8:	53006361 		r24, r0, r12
 6ac:	70797446 		r3, r25, r14
 6b0:	5f5f0065 		r26, r31, r0
 6b4:	6e656874 	ncaget	r19, rfsl4
 6b8:	735f6e61 		r26, r31, r13
 6bc:	5f5f0066 		r26, r31, r0
 6c0:	656b616d 	bslefi	r11, r11, 5, 45
 6c4:	0070665f 		r3, r16, r12
 6c8:	2e2f2e2e 	rsubic	r17, r15, 11822
 6cc:	2e2e2f2e 	rsubic	r17, r14, 12078
 6d0:	2f2e2e2f 	rsubic	r25, r14, 11823
 6d4:	2e2f2e2e 	rsubic	r17, r15, 11822
 6d8:	6363672f 	muli	r27, r3, 26415
 6dc:	2d70662f 	rsubic	r11, r16, 26159
 6e0:	2e746962 	rsubic	r19, r20, 26978
 6e4:	48550063 		r2, r21, r0
 6e8:	70797449 		r3, r25, r14
 6ec:	5f5f0065 		r26, r31, r0
 6f0:	6b636170 	rsublic	r27, 24944
 6f4:	7300645f 		r24, r0, r12
 6f8:	74666968 		r3, r6, r13
 6fc:	776f6c00 		r27, r15, r13
 700:	00746962 		r3, r20, r13
 704:	6e755f5f 	tneaget	r19, rfsl15
 708:	6b636170 	rsublic	r27, 24944
 70c:	6800645f 	addli	r0, 25695
 710:	00686769 		r3, r8, r12
 714:	706d6f63 		r3, r13, r13
 718:	2078656c 	addi	r3, r24, 25964
 71c:	616f6c66 	muli	r11, r15, 27750
 720:	61630074 	muli	r11, r3, 116
 724:	65697272 	bslefi	r11, r9, 9, 50
 728:	57440073 		r26, r4, r0
 72c:	6f696e75 	necaget	r27, rfsl5
 730:	5f5f006e 		r26, r31, r0
 734:	7268736c 		r19, r8, r14
 738:	00336964 		r1, r19, r13
 73c:	6b72772f 	xorli	r27, 30511
 740:	7874702f 		r3, r20, r14
 744:	6573752f 	bslefi	r11, r19, 20, 47
 748:	6e2f7372 	tncget	r17, rfsl2
 74c:	72616761 		r19, r1, r12
 750:	2f756a61 	rsubic	r27, r21, 27233
 754:	5f434347 		r26, r3, r8
 758:	33313032 	addik	r25, r17, 12338
 75c:	2f33305f 	rsubic	r25, r19, 12383
 760:	2f636367 	rsubic	r27, r3, 25447
 764:	6762696c 	bslefi	r27, r2, 37, 44
 768:	2e2f6363 	rsubic	r17, r15, 25443
 76c:	63672f2e 	muli	r27, r7, 12078
 770:	696c2f63 		r11, r12, r5
 774:	63636762 	muli	r27, r3, 26466
 778:	00632e32 		r3, r3, r5
 77c:	706d6f63 		r3, r13, r13
 780:	2078656c 	addi	r3, r24, 25964
 784:	62756f64 	muli	r19, r21, 28516
 788:	4400656c 	bslll	r0, r0, r12
 78c:	72747357 		r19, r20, r14
 790:	00746375 		r3, r20, r12
 794:	66696873 	bslefi	r19, r9, 33, 51
 798:	6f635f74 	tneaget	r27, rfsl4
 79c:	5f746e75 		r27, r20, r13
 7a0:	65707974 	bslefi	r11, r16, 37, 52
 7a4:	615f5f00 	muli	r10, r31, 24320
 7a8:	646c6873 	bslefi	r3, r12, 33, 51
 7ac:	5f003369 		r24, r0, r6
 7b0:	6361705f 	muli	r27, r1, 28767
 7b4:	00665f6b 		r3, r6, r11
 7b8:	6b72772f 	xorli	r27, 30511
 7bc:	7874702f 		r3, r20, r14
 7c0:	6573752f 	bslefi	r11, r19, 20, 47
 7c4:	6e2f7372 	tncget	r17, rfsl2
 7c8:	72616761 		r19, r1, r12
 7cc:	2f756a61 	rsubic	r27, r21, 27233
 7d0:	5f434347 		r26, r3, r8
 7d4:	33313032 	addik	r25, r17, 12338
 7d8:	2f33305f 	rsubic	r25, r19, 12383
 7dc:	6c77656e 	necget	r3, rfsl14
 7e0:	6c2f6269 	ncget	r1, rfsl9
 7e4:	6c676269 	ncget	r3, rfsl9
 7e8:	2f73736f 	rsubic	r27, r19, 29551
 7ec:	7263696d 		r19, r3, r13
 7f0:	616c626f 	muli	r11, r12, 25199
 7f4:	732f657a 		r25, r15, r12
 7f8:	2e6b7262 	rsubic	r19, r11, 29282
 7fc:	65680063 	bsrli	r11, r8, 35
 800:	705f7061 		r2, r31, r14
 804:	73007274 		r24, r0, r14
 808:	006b7262 		r3, r11, r14
 80c:	6165685f 	muli	r11, r5, 26719
 810:	6e655f70 	tneaget	r19, rfsl0
 814:	626e0064 	muli	r19, r14, 100
 818:	73657479 		r27, r5, r14
 81c:	65685f00 	bsefi	r11, r8, 60, 0
 820:	5f007061 		r24, r0, r14
 824:	69647473 	addlik	r11, 29811
 828:	695f006e 		r10, r31, r0
 82c:	0073626f 		r3, r19, r12
 830:	616c665f 	muli	r11, r12, 26207
 834:	00327367 		r1, r18, r14
 838:	72655f5f 		r19, r5, r11
 83c:	006f6e72 		r3, r15, r13
 840:	6c626d5f 	necaget	r3, rfsl15
 844:	735f6e65 		r26, r31, r13
 848:	65746174 	bslefi	r11, r20, 5, 52
 84c:	366c5f00 	rsubik	r19, r12, 24320
 850:	625f6134 	muli	r18, r31, 24884
 854:	5f006675 		r24, r0, r12
 858:	6863775f 	rsublic	r3, 30559
 85c:	765f5f00 		r18, r31, r11
 860:	65756c61 	bslefi	r11, r21, 49, 33
 864:	735f5f00 		r26, r31, r11
 868:	00667562 		r3, r6, r14
 86c:	6464615f 	bslefi	r3, r4, 5, 31
 870:	65725f00 	bsefi	r11, r18, 60, 0
 874:	746c7573 		r3, r12, r14
 878:	5f006b5f 		r24, r0, r13
 87c:	7366666f 		r27, r6, r12
 880:	5f007465 		r24, r0, r14
 884:	6e676973 	ncaget	r19, rfsl3
 888:	625f6c61 	muli	r18, r31, 27745
 88c:	5f006675 		r24, r0, r12
 890:	72736377 		r19, r19, r12
 894:	626d6f74 	muli	r19, r13, 28532
 898:	74735f73 		r3, r19, r11
 89c:	00657461 		r3, r5, r14
 8a0:	616c665f 	muli	r11, r12, 26207
 8a4:	5f007367 		r24, r0, r14
 8a8:	74697277 		r3, r9, r14
 8ac:	6c5f0065 	get	r2, rfsl5
 8b0:	6c61636f 	ncget	r3, rfsl15
 8b4:	656d6974 	bslefi	r11, r13, 37, 52
 8b8:	6675625f 	bslefi	r19, r21, 9, 31
 8bc:	74615f00 		r3, r1, r11
 8c0:	74697865 		r3, r9, r15
 8c4:	5f5f0030 		r26, r31, r0
 8c8:	6e756f63 	necaget	r19, rfsl3
 8cc:	5f5f0074 		r26, r31, r0
 8d0:	6d5f6d74 	necaget	r10, rfsl4
 8d4:	00796164 		r3, r25, r12
 8d8:	756c675f 		r11, r12, r12
 8dc:	6d5f0065 	get	r10, rfsl5
 8e0:	74727362 		r3, r18, r14
 8e4:	7363776f 		r27, r3, r14
 8e8:	6174735f 	muli	r11, r20, 29535
 8ec:	5f006574 		r24, r0, r12
 8f0:	00383472 		r1, r24, r6
 8f4:	6474735f 	bslefi	r3, r20, 13, 31
 8f8:	0074756f 		r3, r20, r14
 8fc:	6574615f 	bslefi	r11, r20, 5, 31
 900:	00746978 		r3, r20, r13
 904:	7476635f 		r3, r22, r12
 908:	006e656c 		r3, r14, r12
 90c:	75626e5f 		r11, r2, r13
 910:	4c5f0066 	eagetd	r2, r0
 914:	5f4b434f 		r26, r11, r8
 918:	55434552 		r10, r3, r8
 91c:	56495352 		r18, r9, r10
 920:	00545f45 		r2, r20, r11
 924:	6f696e5f 	necaget	r27, rfsl15
 928:	5f007362 		r24, r0, r14
 92c:	4c49465f 	naputd	r9, r8
 930:	675f0045 	bsrli	r26, r31, 5
 934:	61647465 	muli	r11, r4, 29797
 938:	655f6574 	bslefi	r10, r31, 21, 52
 93c:	5f007272 		r24, r0, r14
 940:	5f6d745f 		r27, r13, r14
 944:	006e696d 		r3, r14, r13
 948:	6769735f 	bslefi	r27, r9, 13, 31
 94c:	6e75665f 	necget	r19, rfsl15
 950:	665f0063 	bsrli	r18, r31, 35
 954:	6c656572 	necget	r3, rfsl2
 958:	00747369 		r3, r20, r14
 95c:	7461645f 		r3, r1, r12
 960:	665f0061 	bsrli	r18, r31, 33
 964:	5f00736e 		r24, r0, r14
 968:	655f6e6f 	bslefi	r10, r31, 57, 47
 96c:	5f746978 		r27, r20, r13
 970:	73677261 		r27, r7, r14
 974:	7274705f 		r19, r20, r14
 978:	626d5f00 	muli	r19, r13, 24320
 97c:	74617473 		r3, r1, r14
 980:	5f5f0065 		r26, r31, r0
 984:	775f6d74 		r26, r31, r13
 988:	00796164 		r3, r25, r12
 98c:	616e665f 	muli	r11, r14, 26207
 990:	00736772 		r3, r19, r12
 994:	706d695f 		r3, r13, r13
 998:	5f657275 		r27, r5, r14
 99c:	00727470 		r3, r18, r14
 9a0:	6e727265 	tncget	r19, rfsl5
 9a4:	00632e6f 		r3, r3, r5
 9a8:	636f6c5f 	muli	r27, r15, 27743
 9ac:	6d5f006b 	get	r10, rfsl11
 9b0:	00746c75 		r3, r20, r13
 9b4:	6d745f5f 	tneaget	r11, rfsl15
 9b8:	6473695f 	bslefi	r3, r19, 37, 31
 9bc:	5f007473 		r24, r0, r14
 9c0:	0066735f 		r3, r6, r14
 9c4:	746e665f 		r3, r14, r12
 9c8:	73657079 		r27, r5, r14
 9cc:	70665f00 		r3, r6, r11
 9d0:	745f736f 		r2, r31, r14
 9d4:	6c635f00 	tneaget	r3, rfsl0
 9d8:	0065736f 		r3, r5, r14
 9dc:	6f6c665f 	necget	r27, rfsl15
 9e0:	745f6b63 		r2, r31, r13
 9e4:	62755f00 	muli	r19, r21, 24320
 9e8:	5f006675 		r24, r0, r12
 9ec:	5f6d745f 		r27, r13, r14
 9f0:	00636573 		r3, r3, r12
 9f4:	6d745f5f 	tneaget	r11, rfsl15
 9f8:	756f685f 		r11, r15, r13
 9fc:	725f0072 		r18, r31, r0
 a00:	00646165 		r3, r4, r12
 a04:	6474735f 	bslefi	r3, r20, 13, 31
 a08:	00727265 		r3, r18, r14
 a0c:	63775f5f 	muli	r27, r23, 24415
 a10:	5f006268 		r24, r0, r12
 a14:	6373696d 	muli	r27, r19, 26989
 a18:	735f5f00 		r26, r31, r11
 a1c:	65756c67 	bslefi	r11, r21, 49, 39
 a20:	6e6f5f00 	tneaget	r19, rfsl0
 a24:	6978655f 		r11, r24, r12
 a28:	72615f74 		r19, r1, r11
 a2c:	5f007367 		r24, r0, r14
 a30:	7472626d 		r3, r18, r12
 a34:	5f63776f 		r27, r3, r14
 a38:	74617473 		r3, r1, r14
 a3c:	635f0065 	muli	r26, r31, 101
 a40:	75627476 		r11, r2, r14
 a44:	635f0066 	muli	r26, r31, 102
 a48:	696b6f6f 		r11, r11, r13
 a4c:	625f0065 	muli	r18, r31, 101
 a50:	00657361 		r3, r5, r14
 a54:	6c69665f 	necget	r3, rfsl15
 a58:	675f0065 	bsrli	r26, r31, 37
 a5c:	616d6d61 	muli	r11, r13, 28001
 a60:	6769735f 	bslefi	r27, r9, 13, 31
 a64:	6d61676e 	necget	r11, rfsl14
 a68:	64775f00 	bsefi	r3, r23, 60, 0
 a6c:	6d5f0073 	get	r10, rfsl3
 a70:	63657270 	muli	r27, r5, 29296
 a74:	745f5f00 		r2, r31, r11
 a78:	6d5f006d 	get	r10, rfsl13
 a7c:	776f7462 		r27, r15, r14
 a80:	74735f63 		r3, r19, r11
 a84:	00657461 		r3, r5, r14
 a88:	746e6977 		r3, r14, r13
 a8c:	5f00745f 		r24, r0, r14
 a90:	6c72626d 	ncget	r3, rfsl13
 a94:	735f6e65 		r26, r31, r13
 a98:	65746174 	bslefi	r11, r20, 5, 52
 a9c:	735f5f00 		r26, r31, r11
 aa0:	69646964 	addlik	r11, 26980
 aa4:	0074696e 		r3, r20, r13
 aa8:	5f73695f 		r27, r19, r13
 aac:	00617863 		r3, r1, r15
 ab0:	6c635f5f 	tneaget	r3, rfsl15
 ab4:	756e6165 		r11, r14, r12
 ab8:	725f0070 		r18, r31, r0
 abc:	5f646e61 		r27, r4, r13
 ac0:	7478656e 		r3, r24, r12
 ac4:	626d5f00 	muli	r19, r13, 24320
 ac8:	74617473 		r3, r1, r14
 acc:	00745f65 		r3, r20, r11
 ad0:	6769425f 	bsefi	r27, r9, 9, 31
 ad4:	00746e69 		r3, r20, r13
 ad8:	78616d5f 		r3, r1, r13
 adc:	00736477 		r3, r19, r12
 ae0:	6d745f5f 	tneaget	r11, rfsl15
 ae4:	6165795f 	muli	r11, r5, 31071
 ae8:	735f0072 		r26, r31, r0
 aec:	6f747274 	tncget	r27, rfsl4
 af0:	616c5f6b 	muli	r11, r12, 24427
 af4:	5f007473 		r24, r0, r14
 af8:	64656573 	bslefi	r3, r5, 21, 51
 afc:	61725f00 	muli	r11, r18, 24320
 b00:	3834646e 	addikc	r1, r20, 25710
 b04:	745f5f00 		r2, r31, r11
 b08:	64795f6d 	bsefi	r3, r25, 61, 45
 b0c:	5f007961 		r24, r0, r15
 b10:	6f4c555f 	tneget	r26, rfsl15
 b14:	5f00676e 		r24, r0, r12
 b18:	6b656573 	rsublik	r27, 25971
 b1c:	65725f00 	bsefi	r11, r18, 60, 0
 b20:	746c7573 		r3, r12, r14
 b24:	745f5f00 		r2, r31, r11
 b28:	6f6d5f6d 	tneaget	r27, rfsl13
 b2c:	625f006e 	muli	r18, r31, 110
 b30:	69736b6c 	andnli	r11, 27500
 b34:	5f00657a 		r24, r0, r12
 b38:	00636e69 		r3, r3, r13
 b3c:	646e695f 	bslefi	r3, r14, 37, 31
 b40:	63775f00 	muli	r27, r23, 24320
 b44:	626d6f74 	muli	r19, r13, 28532
 b48:	6174735f 	muli	r11, r20, 29535
 b4c:	5f006574 		r24, r0, r12
 b50:	7366626c 		r27, r6, r12
 b54:	00657a69 		r3, r5, r15
 b58:	6f73645f 	necget	r27, rfsl15
 b5c:	6e61685f 	ncaget	r19, rfsl15
 b60:	00656c64 		r3, r5, r13
 b64:	7335705f 		r25, r21, r14
 b68:	69735f00 	andnli	r11, 24320
 b6c:	5f006e67 		r24, r0, r13
 b70:	72727563 		r19, r18, r14
 b74:	5f746e65 		r27, r20, r13
 b78:	65746163 	bslefi	r11, r20, 5, 35
 b7c:	79726f67 		r11, r18, r13
 b80:	696d5f00 		r11, r13, r11
 b84:	725f6373 		r18, r31, r12
 b88:	746e6565 		r3, r14, r12
 b8c:	75635f00 		r11, r3, r11
 b90:	6e657272 	tncget	r19, rfsl2
 b94:	6f6c5f74 	tneaget	r27, rfsl4
 b98:	656c6163 	bslefi	r11, r12, 5, 35
 b9c:	63775f00 	muli	r27, r23, 24320
 ba0:	6d6f7472 	tnecget	r11, rfsl2
 ba4:	74735f62 		r3, r19, r11
 ba8:	00657461 		r3, r5, r14
 bac:	656d655f 	bslefi	r11, r13, 21, 31
 bb0:	6e656772 	necget	r19, rfsl2
 bb4:	5f007963 		r24, r0, r15
 bb8:	657a6973 	bslefi	r11, r26, 37, 51
 bbc:	73615f00 		r27, r1, r11
 bc0:	6d697463 	tnecget	r11, rfsl3
 bc4:	75625f65 		r11, r2, r11
 bc8:	5f5f0066 		r26, r31, r0
 bcc:	4c494673 	neaputd	r9, r8
 bd0:	Address 0x0000000000000bd0 is out of bounds.

