
test64.elf:     file format elf32-littleriscv


Disassembly of section .init:

80000000 <_start>:
80000000:	00002197          	auipc	gp,0x2
80000004:	89c18193          	addi	gp,gp,-1892 # 8000189c <__global_pointer$>
80000008:	08000117          	auipc	sp,0x8000
8000000c:	ff810113          	addi	sp,sp,-8 # 88000000 <__stack_top>
80000010:	00010433          	add	s0,sp,zero
80000014:	0380006f          	j	8000004c <main>

Disassembly of section .text:

80000018 <mult>:
80000018:	1101                	addi	sp,sp,-32
8000001a:	ce22                	sw	s0,28(sp)
8000001c:	1000                	addi	s0,sp,32
8000001e:	800007b7          	lui	a5,0x80000
80000022:	0687a787          	flw	fa5,104(a5) # 80000068 <__stack_top+0xf8000068>
80000026:	fef42627          	fsw	fa5,-20(s0)
8000002a:	800007b7          	lui	a5,0x80000
8000002e:	06c7a787          	flw	fa5,108(a5) # 8000006c <__stack_top+0xf800006c>
80000032:	fef42427          	fsw	fa5,-24(s0)
80000036:	fec42707          	flw	fa4,-20(s0)
8000003a:	fe842787          	flw	fa5,-24(s0)
8000003e:	10f777d3          	fmul.s	fa5,fa4,fa5
80000042:	20f78553          	fmv.s	fa0,fa5
80000046:	4472                	lw	s0,28(sp)
80000048:	6105                	addi	sp,sp,32
8000004a:	8082                	ret

8000004c <main>:
8000004c:	1141                	addi	sp,sp,-16
8000004e:	c606                	sw	ra,12(sp)
80000050:	c422                	sw	s0,8(sp)
80000052:	0800                	addi	s0,sp,16
80000054:	37d1                	jal	80000018 <mult>
80000056:	20a507d3          	fmv.s	fa5,fa0
8000005a:	c00797d3          	fcvt.w.s	a5,fa5,rtz
8000005e:	853e                	mv	a0,a5
80000060:	40b2                	lw	ra,12(sp)
80000062:	4422                	lw	s0,8(sp)
80000064:	0141                	addi	sp,sp,16
80000066:	8082                	ret

Disassembly of section .rodata:

80000068 <.rodata>:
80000068:	0000                	unimp
8000006a:	447a                	lw	s0,156(sp)
8000006c:	0000                	unimp
8000006e:	4040                	lw	s0,4(s0)

Disassembly of section .eh_frame:

80000070 <__BSS_END__-0x102c>:
80000070:	0014                	0x14
80000072:	0000                	unimp
80000074:	0000                	unimp
80000076:	0000                	unimp
80000078:	00527a03          	0x527a03
8000007c:	7c01                	lui	s8,0xfffe0
8000007e:	0101                	addi	sp,sp,0
80000080:	07020d1b          	0x7020d1b
80000084:	0001                	nop
80000086:	0000                	unimp
80000088:	0010                	0x10
8000008a:	0000                	unimp
8000008c:	001c                	0x1c
8000008e:	0000                	unimp
80000090:	ff70                	fsw	fa2,124(a4)
80000092:	ffff                	0xffff
80000094:	0018                	0x18
80000096:	0000                	unimp
80000098:	0000                	unimp
	...

Disassembly of section .comment:

00000000 <.comment>:
   0:	3a434347          	fmsub.d	ft6,ft6,ft4,ft7,rmm
   4:	2820                	fld	fs0,80(s0)
   6:	29554e47          	fmsub.s	ft8,fa0,fs5,ft5,rmm
   a:	3120                	fld	fs0,96(a0)
   c:	2e31                	jal	328 <_start-0x7ffffcd8>
   e:	2e31                	jal	32a <_start-0x7ffffcd6>
  10:	0030                	addi	a2,sp,8

Disassembly of section .riscv.attributes:

00000000 <.riscv.attributes>:
   0:	3441                	jal	fffffa80 <__stack_top+0x77fffa80>
   2:	0000                	unimp
   4:	7200                	flw	fs0,32(a2)
   6:	7369                	lui	t1,0xffffa
   8:	01007663          	bgeu	zero,a6,14 <_start-0x7fffffec>
   c:	002a                	c.slli	zero,0xa
   e:	0000                	unimp
  10:	1004                	addi	s1,sp,32
  12:	7205                	lui	tp,0xfffe1
  14:	3376                	fld	ft6,376(sp)
  16:	6932                	flw	fs2,12(sp)
  18:	7032                	flw	ft0,44(sp)
  1a:	5f30                	lw	a2,120(a4)
  1c:	326d                	jal	fffff9c6 <__stack_top+0x77fff9c6>
  1e:	3070                	fld	fa2,224(s0)
  20:	615f 7032 5f30      	0x5f307032615f
  26:	3266                	fld	ft4,120(sp)
  28:	3070                	fld	fa2,224(s0)
  2a:	645f 7032 5f30      	0x5f307032645f
  30:	30703263          	0x30703263
	...

Disassembly of section .debug_aranges:

00000000 <.debug_aranges>:
   0:	001c                	0x1c
   2:	0000                	unimp
   4:	0002                	c.slli64	zero
   6:	0000                	unimp
   8:	0000                	unimp
   a:	0004                	0x4
   c:	0000                	unimp
   e:	0000                	unimp
  10:	0018                	0x18
  12:	8000                	0x8000
  14:	0050                	addi	a2,sp,4
	...
  1e:	0000                	unimp
  20:	001c                	0x1c
  22:	0000                	unimp
  24:	0002                	c.slli64	zero
  26:	0080                	addi	s0,sp,64
  28:	0000                	unimp
  2a:	0004                	0x4
  2c:	0000                	unimp
  2e:	0000                	unimp
  30:	0000                	unimp
  32:	8000                	0x8000
  34:	0018                	0x18
	...

Disassembly of section .debug_info:

00000000 <.debug_info>:
   0:	007c                	addi	a5,sp,12
   2:	0000                	unimp
   4:	0005                	c.nop	1
   6:	0401                	addi	s0,s0,0
   8:	0000                	unimp
   a:	0000                	unimp
   c:	1202                	slli	tp,tp,0x20
   e:	1d000007          	0x1d000007
  12:	0000006b          	0x6b
  16:	0000                	unimp
  18:	0000                	unimp
  1a:	0018                	0x18
  1c:	8000                	0x8000
  1e:	0050                	addi	a2,sp,4
	...
  28:	0000                	unimp
  2a:	0024f103          	0x24f103
  2e:	0100                	addi	s0,sp,128
  30:	0508                	addi	a0,sp,640
  32:	0040                	addi	s0,sp,4
  34:	0000                	unimp
  36:	004c                	addi	a1,sp,4
  38:	8000                	0x8000
  3a:	001c                	0x1c
  3c:	0000                	unimp
  3e:	9c01                	0x9c01
  40:	0404                	addi	s1,sp,512
  42:	6905                	lui	s2,0x1
  44:	746e                	flw	fs0,248(sp)
  46:	0500                	addi	s0,sp,640
  48:	265f 0000 0301      	0x3010000265f
  4e:	00007807          	0x7807
  52:	1800                	addi	s0,sp,48
  54:	0000                	unimp
  56:	3480                	fld	fs0,40(s1)
  58:	0000                	unimp
  5a:	0100                	addi	s0,sp,128
  5c:	789c                	flw	fa5,48(s1)
  5e:	0000                	unimp
  60:	0100                	addi	s0,sp,128
  62:	0061                	c.nop	24
  64:	0000780f          	0x780f
  68:	0200                	addi	s0,sp,256
  6a:	6c91                	lui	s9,0x4
  6c:	6201                	0x6201
  6e:	1800                	addi	s0,sp,48
  70:	0078                	addi	a4,sp,12
  72:	0000                	unimp
  74:	9102                	jalr	sp
  76:	0068                	addi	a0,sp,12
  78:	0406                	slli	s0,s0,0x1
  7a:	9d04                	0x9d04
  7c:	00000017          	auipc	zero,0x0
  80:	0020                	addi	s0,sp,8
  82:	0000                	unimp
  84:	0005                	c.nop	1
  86:	0401                	addi	s0,s0,0
  88:	00000073          	ecall
  8c:	8601                	c.srai64	a2
  8e:	0000                	unimp
  90:	0000                	unimp
  92:	0000                	unimp
  94:	1880                	addi	s0,sp,112
  96:	25f2                	fld	fa1,280(sp)
  98:	0000                	unimp
  9a:	25f9                	jal	768 <_start-0x7ffff898>
  9c:	0000                	unimp
  9e:	2664                	fld	fs1,200(a2)
  a0:	0000                	unimp
  a2:	8001                	c.srli64	s0

Disassembly of section .debug_abbrev:

00000000 <.debug_abbrev>:
   0:	3401                	jal	fffffa00 <__stack_top+0x77fffa00>
   2:	0300                	addi	s0,sp,384
   4:	3a08                	fld	fa0,48(a2)
   6:	0121                	addi	sp,sp,8
   8:	3904213b          	0x3904213b
   c:	0213490b          	0x213490b
  10:	0018                	0x18
  12:	0200                	addi	s0,sp,256
  14:	0111                	addi	sp,sp,4
  16:	0e25                	addi	t3,t3,9
  18:	1f030b13          	addi	s6,t1,496 # ffffa1f0 <__stack_top+0x77ffa1f0>
  1c:	01111f1b          	0x1111f1b
  20:	0612                	slli	a2,a2,0x4
  22:	1710                	addi	a2,sp,928
  24:	1779                	addi	a4,a4,-2
  26:	0000                	unimp
  28:	3f002e03          	lw	t3,1008(zero) # 3f0 <_start-0x7ffffc10>
  2c:	0319                	addi	t1,t1,6
  2e:	3a0e                	fld	fs4,224(sp)
  30:	390b3b0b          	0x390b3b0b
  34:	1113490b          	0x1113490b
  38:	1201                	addi	tp,tp,-32
  3a:	4006                	0x4006
  3c:	7c18                	flw	fa4,56(s0)
  3e:	0019                	c.nop	6
  40:	0400                	addi	s0,sp,512
  42:	0024                	addi	s1,sp,8
  44:	0b3e0b0b          	0xb3e0b0b
  48:	00000803          	lb	a6,0(zero) # 0 <_start-0x80000000>
  4c:	2e05                	jal	37c <_start-0x7ffffc84>
  4e:	3f01                	jal	ffffff5e <__stack_top+0x77ffff5e>
  50:	0319                	addi	t1,t1,6
  52:	3a0e                	fld	fs4,224(sp)
  54:	390b3b0b          	0x390b3b0b
  58:	1113490b          	0x1113490b
  5c:	1201                	addi	tp,tp,-32
  5e:	4006                	0x4006
  60:	7a18                	flw	fa4,48(a2)
  62:	0119                	addi	sp,sp,6
  64:	06000013          	li	zero,96
  68:	0024                	addi	s1,sp,8
  6a:	0b3e0b0b          	0xb3e0b0b
  6e:	00000e03          	lb	t3,0(zero) # 0 <_start-0x80000000>
  72:	0100                	addi	s0,sp,128
  74:	0011                	c.nop	4
  76:	1710                	addi	a2,sp,928
  78:	0111                	addi	sp,sp,4
  7a:	0f12                	slli	t5,t5,0x4
  7c:	0e1b0e03          	lb	t3,225(s6)
  80:	0e25                	addi	t3,t3,9
  82:	00000513          	li	a0,0
	...

Disassembly of section .debug_line:

00000000 <.debug_line>:
   0:	0082                	c.slli64	ra
   2:	0000                	unimp
   4:	0005                	c.nop	1
   6:	0004                	0x4
   8:	002a                	c.slli	zero,0xa
   a:	0000                	unimp
   c:	0101                	addi	sp,sp,0
   e:	fb01                	bnez	a4,ffffff1e <__stack_top+0x77ffff1e>
  10:	0d0e                	slli	s10,s10,0x3
  12:	0100                	addi	s0,sp,128
  14:	0101                	addi	sp,sp,0
  16:	0001                	nop
  18:	0000                	unimp
  1a:	0001                	nop
  1c:	0100                	addi	s0,sp,128
  1e:	0101                	addi	sp,sp,0
  20:	011f 0000 0000      	0x11f
  26:	0102                	c.slli64	sp
  28:	021f 020f 006b      	0x6b020f021f
  2e:	0000                	unimp
  30:	6b00                	flw	fs0,16(a4)
  32:	0000                	unimp
  34:	0000                	unimp
  36:	0e05                	addi	t3,t3,1
  38:	0500                	addi	s0,sp,640
  3a:	1802                	slli	a6,a6,0x20
  3c:	0000                	unimp
  3e:	1480                	addi	s0,sp,608
  40:	0f05                	addi	t5,t5,1
  42:	06090103          	lb	sp,96(s2) # 1060 <_start-0x7fffefa0>
  46:	0100                	addi	s0,sp,128
  48:	1805                	addi	a6,a6,-31
  4a:	0c090003          	lb	zero,192(s2)
  4e:	0100                	addi	s0,sp,128
  50:	1105                	addi	sp,sp,-31
  52:	0c090103          	lb	sp,192(s2)
  56:	0100                	addi	s0,sp,128
  58:	0105                	addi	sp,sp,1
  5a:	0c090103          	lb	sp,192(s2)
  5e:	0100                	addi	s0,sp,128
  60:	0c05                	addi	s8,s8,1
  62:	0a090203          	lb	tp,160(s2)
  66:	0100                	addi	s0,sp,128
  68:	0f05                	addi	t5,t5,1
  6a:	08090203          	lb	tp,128(s2)
  6e:	0100                	addi	s0,sp,128
  70:	0905                	addi	s2,s2,1
  72:	06090003          	lb	zero,96(s2)
  76:	0100                	addi	s0,sp,128
  78:	0105                	addi	sp,sp,1
  7a:	04090103          	lb	sp,64(s2)
  7e:	0100                	addi	s0,sp,128
  80:	0a09                	addi	s4,s4,2
  82:	0000                	unimp
  84:	0101                	addi	sp,sp,0
  86:	0052                	c.slli	zero,0x14
  88:	0000                	unimp
  8a:	0005                	c.nop	1
  8c:	0004                	0x4
  8e:	002a                	c.slli	zero,0xa
  90:	0000                	unimp
  92:	0101                	addi	sp,sp,0
  94:	fb01                	bnez	a4,ffffffa4 <__stack_top+0x77ffffa4>
  96:	0d0e                	slli	s10,s10,0x3
  98:	0100                	addi	s0,sp,128
  9a:	0101                	addi	sp,sp,0
  9c:	0001                	nop
  9e:	0000                	unimp
  a0:	0001                	nop
  a2:	0100                	addi	s0,sp,128
  a4:	0101                	addi	sp,sp,0
  a6:	011f 0000 0000      	0x11f
  ac:	0102                	c.slli64	sp
  ae:	021f 020f 0074      	0x74020f021f
  b4:	0000                	unimp
  b6:	7400                	flw	fs0,40(s0)
  b8:	0000                	unimp
  ba:	0000                	unimp
  bc:	0500                	addi	s0,sp,640
  be:	0002                	c.slli64	zero
  c0:	0000                	unimp
  c2:	1980                	addi	s0,sp,240
  c4:	08090203          	lb	tp,128(s2)
  c8:	0100                	addi	s0,sp,128
  ca:	08090103          	lb	sp,128(s2)
  ce:	0100                	addi	s0,sp,128
  d0:	04090103          	lb	sp,64(s2)
  d4:	0100                	addi	s0,sp,128
  d6:	0409                	addi	s0,s0,2
  d8:	0000                	unimp
  da:	0101                	addi	sp,sp,0

Disassembly of section .debug_frame:

00000000 <.debug_frame>:
   0:	000c                	0xc
   2:	0000                	unimp
   4:	ffff                	0xffff
   6:	ffff                	0xffff
   8:	7c010003          	lb	zero,1984(sp)
   c:	0d01                	addi	s10,s10,0
   e:	0002                	c.slli64	zero
  10:	0020                	addi	s0,sp,8
  12:	0000                	unimp
  14:	0000                	unimp
  16:	0000                	unimp
  18:	0018                	0x18
  1a:	8000                	0x8000
  1c:	0034                	addi	a3,sp,8
  1e:	0000                	unimp
  20:	0e42                	slli	t3,t3,0x10
  22:	4220                	lw	s0,64(a2)
  24:	0188                	addi	a0,sp,192
  26:	0c42                	slli	s8,s8,0x10
  28:	0008                	0x8
  2a:	c86a                	sw	s10,16(sp)
  2c:	020c                	addi	a1,sp,256
  2e:	4220                	lw	s0,64(a2)
  30:	000e                	c.slli	zero,0x3
  32:	0000                	unimp
  34:	0024                	addi	s1,sp,8
  36:	0000                	unimp
  38:	0000                	unimp
  3a:	0000                	unimp
  3c:	004c                	addi	a1,sp,4
  3e:	8000                	0x8000
  40:	001c                	0x1c
  42:	0000                	unimp
  44:	0e42                	slli	t3,t3,0x10
  46:	4410                	lw	a2,8(s0)
  48:	0181                	addi	gp,gp,0
  4a:	0288                	addi	a0,sp,320
  4c:	0c42                	slli	s8,s8,0x10
  4e:	0008                	0x8
  50:	c14e                	sw	s3,128(sp)
  52:	c842                	sw	a6,16(sp)
  54:	020c                	addi	a1,sp,256
  56:	4210                	lw	a2,0(a2)
  58:	000e                	c.slli	zero,0x3
	...

Disassembly of section .debug_str:

00000000 <.debug_str>:
       0:	5f5f 4955 544e      	0x544e49555f5f
       6:	465f 5341 3854      	0x38545341465f
       c:	4d5f 5841 5f5f      	0x5f5f58414d5f
      12:	3020                	fld	fs0,96(s0)
      14:	6678                	flw	fa4,76(a2)
      16:	6666                	flw	fa2,88(sp)
      18:	6666                	flw	fa2,88(sp)
      1a:	6666                	flw	fa2,88(sp)
      1c:	5566                	lw	a0,120(sp)
      1e:	5f00                	lw	s0,56(a4)
      20:	465f 544c 3436      	0x3436544c465f
      26:	485f 5341 445f      	0x445f5341485f
      2c:	4e45                	li	t3,17
      2e:	5f4d524f          	fnmadd.q	ft4,fs10,fs4,fa1,unknown
      32:	205f 0031 5f5f      	0x5f5f0031205f
      38:	4e49                	li	t3,18
      3a:	5f54                	lw	a3,60(a4)
      3c:	4146                	lw	sp,80(sp)
      3e:	32335453          	0x32335453
      42:	575f 4449 4854      	0x48544449575f
      48:	5f5f 3320 0032      	0x3233205f5f
      4e:	5f5f 4c46 3354      	0x33544c465f5f
      54:	5f32                	lw	t5,44(sp)
      56:	4944                	lw	s1,20(a0)
      58:	205f5f47          	fmsub.s	ft10,ft10,ft5,ft4,unknown
      5c:	0036                	c.slli	zero,0xd
      5e:	5f5f 4953 455a      	0x455a49535f5f
      64:	535f464f          	fnmadd.d	fa2,ft10,fs5,fa0,rmm
      68:	5a49                	li	s4,-14
      6a:	5f45                	li	t5,-15
      6c:	5f54                	lw	a3,60(a4)
      6e:	205f 0034 5f5f      	0x5f5f0034205f
      74:	4c46                	lw	s8,80(sp)
      76:	5f54                	lw	a3,60(a4)
      78:	5349                	li	t1,-14
      7a:	495f 4345 365f      	0x365f4345495f
      80:	3530                	fld	fa2,104(a0)
      82:	3935                	jal	fffffcbe <__stack_top+0x77fffcbe>
      84:	5f5f 3220 5f00      	0x5f0032205f5f
      8a:	465f 544c 3231      	0x3231544c465f
      90:	5f38                	lw	a4,120(a4)
      92:	5045                	c.li	zero,-15
      94:	4f4c4953          	0x4f4c4953
      98:	5f4e                	lw	t5,240(sp)
      9a:	205f 2e31 3239      	0x32392e31205f
      a0:	3935                	jal	fffffcdc <__stack_top+0x77fffcdc>
      a2:	3932                	fld	fs2,296(sp)
      a4:	3439                	jal	fffffab2 <__stack_top+0x77fffab2>
      a6:	3334                	fld	fa3,96(a4)
      a8:	3738                	fld	fa4,104(a4)
      aa:	3332                	fld	ft6,296(sp)
      ac:	3835                	jal	fffff8e8 <__stack_top+0x77fff8e8>
      ae:	3335                	jal	fffffdda <__stack_top+0x77fffdda>
      b0:	3530                	fld	fa2,104(a0)
      b2:	3935                	jal	fffffcee <__stack_top+0x77fffcee>
      b4:	34393737          	lui	a4,0x34393
      b8:	3532                	fld	fa0,296(sp)
      ba:	3438                	fld	fa4,104(s0)
      bc:	3239                	jal	fffff9ca <__stack_top+0x77fff9ca>
      be:	65323337          	lui	t1,0x65323
      c2:	332d                	jal	fffffdec <__stack_top+0x77fffdec>
      c4:	4634                	lw	a3,72(a2)
      c6:	3231                	jal	fffff9d2 <__stack_top+0x77fff9d2>
      c8:	0038                	addi	a4,sp,8
      ca:	5f5f 4c46 5f54      	0x5f544c465f5f
      d0:	5045                	c.li	zero,-15
      d2:	4f4c4953          	0x4f4c4953
      d6:	5f4e                	lw	t5,240(sp)
      d8:	205f 2e31 3931      	0x39312e31205f
      de:	3032                	fld	ft0,296(sp)
      e0:	3239                	jal	fffff9ee <__stack_top+0x77fff9ee>
      e2:	3938                	fld	fa4,112(a0)
      e4:	3535                	jal	ffffff10 <__stack_top+0x77ffff10>
      e6:	3730                	fld	fa2,104(a4)
      e8:	3138                	fld	fa4,96(a0)
      ea:	3532                	fld	fa0,296(sp)
      ec:	3030                	fld	fa2,96(s0)
      ee:	3030                	fld	fa2,96(s0)
      f0:	3030                	fld	fa2,96(s0)
      f2:	3030                	fld	fa2,96(s0)
      f4:	3030                	fld	fa2,96(s0)
      f6:	3030                	fld	fa2,96(s0)
      f8:	3030                	fld	fa2,96(s0)
      fa:	3030                	fld	fa2,96(s0)
      fc:	3030                	fld	fa2,96(s0)
      fe:	6530                	flw	fa2,72(a0)
     100:	372d                	jal	2a <_start-0x7fffffd6>
     102:	0046                	c.slli	zero,0x11
     104:	5f5f 4e49 3654      	0x36544e495f5f
     10a:	5f34                	lw	a3,120(a4)
     10c:	29632843          	fmadd.s	fa6,ft6,fs6,ft5,rdn
     110:	6320                	flw	fs0,64(a4)
     112:	2320                	fld	fs0,64(a4)
     114:	4c4c2023          	sw	tp,1216(s8) # fffe04c0 <__stack_top+0x77fe04c0>
     118:	5f00                	lw	s0,56(a4)
     11a:	535f 5a49 4f45      	0x4f455a49535f
     120:	5f46                	lw	t5,112(sp)
     122:	4f50                	lw	a2,28(a4)
     124:	4e49                	li	t3,18
     126:	4554                	lw	a3,12(a0)
     128:	5f52                	lw	t5,52(sp)
     12a:	205f 0034 5f5f      	0x5f5f0034205f
     130:	4955                	li	s2,21
     132:	544e                	lw	s0,240(sp)
     134:	4c5f 4145 5453      	0x545341454c5f
     13a:	545f3233          	0x545f3233
     13e:	5059                	c.li	zero,-10
     140:	5f45                	li	t5,-15
     142:	205f 6f6c 676e      	0x676e6f6c205f
     148:	7520                	flw	fs0,104(a0)
     14a:	736e                	flw	ft6,248(sp)
     14c:	6769                	lui	a4,0x1a
     14e:	656e                	flw	fa0,216(sp)
     150:	2064                	fld	fs1,192(s0)
     152:	6e69                	lui	t3,0x1a
     154:	0074                	addi	a3,sp,12
     156:	5f5f 6972 6373      	0x637369725f5f
     15c:	5f76                	lw	t5,124(sp)
     15e:	756d                	lui	a0,0xffffb
     160:	646c                	flw	fa1,76(s0)
     162:	7669                	lui	a2,0xffffa
     164:	3120                	fld	fs0,96(a0)
     166:	5f00                	lw	s0,56(a4)
     168:	575f 4843 5241      	0x52414843575f
     16e:	575f 4449 4854      	0x48544449575f
     174:	5f5f 3320 0032      	0x3233205f5f
     17a:	5f5f 4c46 5f54      	0x5f544c465f5f
     180:	4152                	lw	sp,20(sp)
     182:	4944                	lw	s1,20(a0)
     184:	5f58                	lw	a4,60(a4)
     186:	205f 0032 5f5f      	0x5f5f0032205f
     18c:	4955                	li	s2,21
     18e:	544e                	lw	s0,240(sp)
     190:	414d                	li	sp,19
     192:	5f58                	lw	a4,60(a4)
     194:	29632843          	fmadd.s	fa6,ft6,fs6,ft5,rdn
     198:	6320                	flw	fs0,64(a4)
     19a:	2320                	fld	fs0,64(a4)
     19c:	4c552023          	sw	t0,1216(a0) # ffffb4c0 <__stack_top+0x77ffb4c0>
     1a0:	004c                	addi	a1,sp,4
     1a2:	5f5f 4e49 5f54      	0x5f544e495f5f
     1a8:	4146                	lw	sp,80(sp)
     1aa:	5f385453          	0x5f385453
     1ae:	414d                	li	sp,19
     1b0:	5f58                	lw	a4,60(a4)
     1b2:	205f 7830 6637      	0x66377830205f
     1b8:	6666                	flw	fa2,88(sp)
     1ba:	6666                	flw	fa2,88(sp)
     1bc:	6666                	flw	fa2,88(sp)
     1be:	5f00                	lw	s0,56(a4)
     1c0:	555f 4e49 3654      	0x36544e49555f
     1c6:	5f34                	lw	a3,120(a4)
     1c8:	5954                	lw	a3,52(a0)
     1ca:	4550                	lw	a2,12(a0)
     1cc:	5f5f 6c20 6e6f      	0x6e6f6c205f5f
     1d2:	6f6c2067          	0x6f6c2067
     1d6:	676e                	flw	fa4,216(sp)
     1d8:	7520                	flw	fs0,104(a0)
     1da:	736e                	flw	ft6,248(sp)
     1dc:	6769                	lui	a4,0x1a
     1de:	656e                	flw	fa0,216(sp)
     1e0:	2064                	fld	fs1,192(s0)
     1e2:	6e69                	lui	t3,0x1a
     1e4:	0074                	addi	a3,sp,12
     1e6:	5f5f 6972 6373      	0x637369725f5f
     1ec:	5f76                	lw	t5,124(sp)
     1ee:	7261                	lui	tp,0xffff8
     1f0:	745f6863          	bltu	t5,t0,940 <_start-0x7ffff6c0>
     1f4:	7365                	lui	t1,0xffff9
     1f6:	2074                	fld	fa3,192(s0)
     1f8:	0031                	c.nop	12
     1fa:	5f5f 6972 6373      	0x637369725f5f
     200:	5f76                	lw	t5,124(sp)
     202:	206d                	jal	2ac <_start-0x7ffffd54>
     204:	3032                	fld	ft0,296(sp)
     206:	3030                	fld	fa2,96(s0)
     208:	3030                	fld	fa2,96(s0)
     20a:	0030                	addi	a2,sp,8
     20c:	5f5f 4c46 3354      	0x33544c465f5f
     212:	5f32                	lw	t5,44(sp)
     214:	4148                	lw	a0,4(a0)
     216:	4e495f53          	0x4e495f53
     21a:	4946                	lw	s2,80(sp)
     21c:	494e                	lw	s2,208(sp)
     21e:	5954                	lw	a3,52(a0)
     220:	5f5f 3120 5f00      	0x5f0031205f5f
     226:	4c5f 4244 5f4c      	0x5f4c42444c5f
     22c:	414d                	li	sp,19
     22e:	5f58                	lw	a4,60(a4)
     230:	3031                	jal	fffffa3c <__stack_top+0x77fffa3c>
     232:	455f 5058 5f5f      	0x5f5f5058455f
     238:	3420                	fld	fs0,104(s0)
     23a:	3339                	jal	ffffff48 <__stack_top+0x77ffff48>
     23c:	0032                	c.slli	zero,0xc
     23e:	5f5f 5441 4d4f      	0x4d4f54415f5f
     244:	4349                	li	t1,18
     246:	535f 5145 435f      	0x435f5145535f
     24c:	35205453          	0x35205453
     250:	5f00                	lw	s0,56(a4)
     252:	465f 544c 3436      	0x3436544c465f
     258:	4d5f 5841 5f5f      	0x5f5f58414d5f
     25e:	3120                	fld	fs0,96(a0)
     260:	372e                	fld	fa4,232(sp)
     262:	3739                	jal	170 <_start-0x7ffffe90>
     264:	3936                	fld	fs2,360(sp)
     266:	34333133          	0x34333133
     26a:	3638                	fld	fa4,104(a2)
     26c:	3332                	fld	ft6,296(sp)
     26e:	3531                	jal	7a <_start-0x7fffff86>
     270:	31383037          	lui	zero,0x31383
     274:	3534                	fld	fa3,104(a0)
     276:	3732                	fld	fa4,296(sp)
     278:	3234                	fld	fa3,96(a2)
     27a:	31333733          	0x31333733
     27e:	33343037          	lui	zero,0x33343
     282:	3735                	jal	1ae <_start-0x7ffffe52>
     284:	2b65                	jal	83c <_start-0x7ffff7c4>
     286:	46383033          	0x46383033
     28a:	3436                	fld	fs0,360(sp)
     28c:	5f00                	lw	s0,56(a4)
     28e:	465f 5f50 4146      	0x41465f50465f
     294:	465f5453          	0x465f5453
     298:	414d                	li	sp,19
     29a:	3646                	fld	fa2,112(sp)
     29c:	2034                	fld	fa3,64(s0)
     29e:	0031                	c.nop	12
     2a0:	5f5f 4953 455a      	0x455a49535f5f
     2a6:	575f464f          	fnmadd.q	fa2,ft10,fs5,fa0,rmm
     2aa:	4e49                	li	t3,18
     2ac:	5f54                	lw	a3,60(a4)
     2ae:	5f54                	lw	a3,60(a4)
     2b0:	205f 0034 5f5f      	0x5f5f0034205f
     2b6:	4244                	lw	s1,4(a2)
     2b8:	5f4c                	lw	a1,60(a4)
     2ba:	414d                	li	sp,19
     2bc:	5f58                	lw	a4,60(a4)
     2be:	3031                	jal	fffffaca <__stack_top+0x77fffaca>
     2c0:	455f 5058 5f5f      	0x5f5f5058455f
     2c6:	3320                	fld	fs0,96(a4)
     2c8:	3830                	fld	fa2,112(s0)
     2ca:	5f00                	lw	s0,56(a4)
     2cc:	465f 544c 3436      	0x3436544c465f
     2d2:	4d5f 4e49 5f5f      	0x5f5f4e494d5f
     2d8:	3220                	fld	fs0,96(a2)
     2da:	322e                	fld	ft4,232(sp)
     2dc:	3532                	fld	fa0,296(sp)
     2de:	3730                	fld	fa2,104(a4)
     2e0:	38353833          	0x38353833
     2e4:	3035                	jal	fffffb10 <__stack_top+0x77fffb10>
     2e6:	31303237          	lui	tp,0x31303
     2ea:	30333833          	0x30333833
     2ee:	3039                	jal	fffffafc <__stack_top+0x77fffafc>
     2f0:	3332                	fld	ft6,296(sp)
     2f2:	3732                	fld	fa4,296(sp)
     2f4:	3731                	jal	200 <_start-0x7ffffe00>
     2f6:	34323333          	0x34323333
     2fa:	3430                	fld	fa2,104(s0)
     2fc:	3630                	fld	fa2,104(a2)
     2fe:	2d65                	jal	9b6 <_start-0x7ffff64a>
     300:	46383033          	0x46383033
     304:	3436                	fld	fs0,360(sp)
     306:	5f00                	lw	s0,56(a4)
     308:	4c5f 4244 5f4c      	0x5f4c42444c5f
     30e:	494d                	li	s2,19
     310:	5f4e                	lw	t5,240(sp)
     312:	205f 2e33 3633      	0x36332e33205f
     318:	3132                	fld	ft2,296(sp)
     31a:	3330                	fld	fa2,96(a4)
     31c:	3431                	jal	fffffd28 <__stack_top+0x77fffd28>
     31e:	32313133          	0x32313133
     322:	3930                	fld	fa2,112(a0)
     324:	36303533          	0x36303533
     328:	3632                	fld	fa2,296(sp)
     32a:	3632                	fld	fa2,296(sp)
     32c:	31383737          	lui	a4,0x31383
     330:	31323337          	lui	t1,0x31323
     334:	36323537          	lui	a0,0x36323
     338:	6530                	flw	fa2,72(a0)
     33a:	342d                	jal	fffffd64 <__stack_top+0x77fffd64>
     33c:	3339                	jal	4a <_start-0x7fffffb6>
     33e:	4c32                	lw	s8,12(sp)
     340:	5f00                	lw	s0,56(a4)
     342:	495f 544e 4c5f      	0x4c5f544e495f
     348:	4145                	li	sp,17
     34a:	32335453          	0x32335453
     34e:	575f 4449 4854      	0x48544449575f
     354:	5f5f 3320 0032      	0x3233205f5f
     35a:	5f5f 4843 5241      	0x524148435f5f
     360:	545f3233          	0x545f3233
     364:	5059                	c.li	zero,-10
     366:	5f45                	li	t5,-15
     368:	205f 6f6c 676e      	0x676e6f6c205f
     36e:	7520                	flw	fs0,104(a0)
     370:	736e                	flw	ft6,248(sp)
     372:	6769                	lui	a4,0x1a
     374:	656e                	flw	fa0,216(sp)
     376:	2064                	fld	fs1,192(s0)
     378:	6e69                	lui	t3,0x1a
     37a:	0074                	addi	a3,sp,12
     37c:	5f5f 6972 6373      	0x637369725f5f
     382:	5f76                	lw	t5,124(sp)
     384:	6c66                	flw	fs8,88(sp)
     386:	6e65                	lui	t3,0x19
     388:	3620                	fld	fs0,104(a2)
     38a:	0034                	addi	a3,sp,8
     38c:	5f5f 444c 4c42      	0x4c42444c5f5f
     392:	4d5f 4e41 5f54      	0x5f544e414d5f
     398:	4944                	lw	s1,20(a0)
     39a:	205f5f47          	fmsub.s	ft10,ft10,ft5,ft4,unknown
     39e:	3131                	jal	ffffffaa <__stack_top+0x77ffffaa>
     3a0:	5f5f0033          	0x5f5f0033
     3a4:	4c46                	lw	s8,80(sp)
     3a6:	3654                	fld	fa3,168(a2)
     3a8:	5834                	lw	a3,112(s0)
     3aa:	4e5f 524f 5f4d      	0x5f4d524f4e5f
     3b0:	414d                	li	sp,19
     3b2:	5f58                	lw	a4,60(a4)
     3b4:	205f 2e31 3831      	0x38312e31205f
     3ba:	3739                	jal	2c8 <_start-0x7ffffd38>
     3bc:	39343133          	0x39343133
     3c0:	3335                	jal	ec <_start-0x7fffff14>
     3c2:	3735                	jal	2ee <_start-0x7ffffd12>
     3c4:	3332                	fld	ft6,296(sp)
     3c6:	3731                	jal	2d2 <_start-0x7ffffd2e>
     3c8:	3536                	fld	fa0,360(sp)
     3ca:	3830                	fld	fa2,112(s0)
     3cc:	3735                	jal	2f8 <_start-0x7ffffd08>
     3ce:	3935                	jal	a <_start-0x7ffffff6>
     3d0:	36363233          	0x36363233
     3d4:	3832                	fld	fa6,296(sp)
     3d6:	3030                	fld	fa2,96(s0)
     3d8:	65323037          	lui	zero,0x65323
     3dc:	3339342b          	0x3339342b
     3e0:	4632                	lw	a2,12(sp)
     3e2:	3436                	fld	fs0,360(sp)
     3e4:	0078                	addi	a4,sp,12
     3e6:	5f5f 4843 5241      	0x524148435f5f
     3ec:	425f 5449 5f5f      	0x5f5f5449425f
     3f2:	3820                	fld	fs0,112(s0)
     3f4:	5f00                	lw	s0,56(a4)
     3f6:	445f 4c42 485f      	0x485f4c42445f
     3fc:	5341                	li	t1,-16
     3fe:	495f 464e 4e49      	0x4e49464e495f
     404:	5449                	li	s0,-14
     406:	5f59                	li	t5,-10
     408:	205f 0031 5f5f      	0x5f5f0031205f
     40e:	43445453          	0x43445453
     412:	565f 5245 4953      	0x49535245565f
     418:	5f5f4e4f          	fnmadd.q	ft8,ft10,fs5,fa1,rmm
     41c:	3220                	fld	fs0,96(a2)
     41e:	3130                	fld	fa2,96(a0)
     420:	4c303137          	lui	sp,0x4c303
     424:	5f00                	lw	s0,56(a4)
     426:	465f 544c 3233      	0x3233544c465f
     42c:	5f58                	lw	a4,60(a4)
     42e:	4f4e                	lw	t5,208(sp)
     430:	4d52                	lw	s10,20(sp)
     432:	4d5f 5841 5f5f      	0x5f5f58414d5f
     438:	3120                	fld	fs0,96(a0)
     43a:	372e                	fld	fa4,232(sp)
     43c:	3739                	jal	34a <_start-0x7ffffcb6>
     43e:	3936                	fld	fs2,360(sp)
     440:	34333133          	0x34333133
     444:	3638                	fld	fa4,104(a2)
     446:	3332                	fld	ft6,296(sp)
     448:	3531                	jal	254 <_start-0x7ffffdac>
     44a:	31383037          	lui	zero,0x31383
     44e:	3534                	fld	fa3,104(a0)
     450:	3732                	fld	fa4,296(sp)
     452:	3234                	fld	fa3,96(a2)
     454:	31333733          	0x31333733
     458:	33343037          	lui	zero,0x33343
     45c:	3735                	jal	388 <_start-0x7ffffc78>
     45e:	2b65                	jal	a16 <_start-0x7ffff5ea>
     460:	46383033          	0x46383033
     464:	00783233          	sltu	tp,a6,t2
     468:	5f5f 4c46 3354      	0x33544c465f5f
     46e:	5832                	lw	a6,44(sp)
     470:	4d5f 4e49 315f      	0x315f4e494d5f
     476:	5f30                	lw	a2,120(a4)
     478:	5845                	li	a6,-15
     47a:	5f50                	lw	a2,60(a4)
     47c:	205f 2d28 3033      	0x30332d28205f
     482:	5f002937          	lui	s2,0x5f002
     486:	465f 544c 3233      	0x3233544c465f
     48c:	5f58                	lw	a4,60(a4)
     48e:	5045                	c.li	zero,-15
     490:	4f4c4953          	0x4f4c4953
     494:	5f4e                	lw	t5,240(sp)
     496:	205f 2e32 3232      	0x32322e32205f
     49c:	3430                	fld	fa2,104(s0)
     49e:	3634                	fld	fa3,104(a2)
     4a0:	3430                	fld	fa2,104(s0)
     4a2:	3239                	jal	fffffdb0 <__stack_top+0x77fffdb0>
     4a4:	3035                	jal	fffffcd0 <__stack_top+0x77fffcd0>
     4a6:	30333133          	0x30333133
     4aa:	3038                	fld	fa4,96(s0)
     4ac:	3438                	fld	fa4,104(s0)
     4ae:	33363237          	lui	tp,0x33363
     4b2:	31363333          	0x31363333
     4b6:	3138                	fld	fa4,96(a0)
     4b8:	3436                	fld	fs0,360(sp)
     4ba:	3630                	fld	fa2,104(a2)
     4bc:	6532                	flw	fa0,12(sp)
     4be:	312d                	jal	e8 <_start-0x7fffff18>
     4c0:	4636                	lw	a2,76(sp)
     4c2:	00783233          	sltu	tp,a6,t2
     4c6:	5f5f 4c46 3654      	0x36544c465f5f
     4cc:	5834                	lw	a3,112(s0)
     4ce:	485f 5341 445f      	0x445f5341485f
     4d4:	4e45                	li	t3,17
     4d6:	5f4d524f          	fnmadd.q	ft4,fs10,fs4,fa1,unknown
     4da:	205f 0031 5f5f      	0x5f5f0031205f
     4e0:	4c46                	lw	s8,80(sp)
     4e2:	5f54                	lw	a3,60(a4)
     4e4:	5645                	li	a2,-15
     4e6:	4c41                	li	s8,16
     4e8:	4d5f 5445 4f48      	0x4f4854454d5f
     4ee:	5f44                	lw	s1,60(a4)
     4f0:	5354                	lw	a3,36(a4)
     4f2:	315f 3638 3136      	0x31363638315f
     4f8:	335f 5f5f 3020      	0x30205f5f335f
     4fe:	5f00                	lw	s0,56(a4)
     500:	465f 544c 3436      	0x3436544c465f
     506:	455f 5350 4c49      	0x4c495350455f
     50c:	5f5f4e4f          	fnmadd.q	ft8,ft10,fs5,fa1,rmm
     510:	3220                	fld	fs0,96(a2)
     512:	322e                	fld	ft4,232(sp)
     514:	3032                	fld	ft0,296(sp)
     516:	3434                	fld	fa3,104(s0)
     518:	3036                	fld	ft0,360(sp)
     51a:	3934                	fld	fa3,112(a0)
     51c:	3532                	fld	fa0,296(sp)
     51e:	3330                	fld	fa2,96(a4)
     520:	3331                	jal	22c <_start-0x7ffffdd4>
     522:	3830                	fld	fa2,112(s0)
     524:	3830                	fld	fa2,112(s0)
     526:	3734                	fld	fa3,104(a4)
     528:	3632                	fld	fa2,296(sp)
     52a:	36333333          	0x36333333
     52e:	3831                	jal	fffffd4a <__stack_top+0x77fffd4a>
     530:	3631                	jal	3c <_start-0x7fffffc4>
     532:	3034                	fld	fa3,96(s0)
     534:	3236                	fld	ft4,360(sp)
     536:	2d65                	jal	bee <_start-0x7ffff412>
     538:	3631                	jal	44 <_start-0x7fffffbc>
     53a:	3646                	fld	fa2,112(sp)
     53c:	0034                	addi	a3,sp,8
     53e:	5f5f 6972 6373      	0x637369725f5f
     544:	5f76                	lw	t5,124(sp)
     546:	646f6d63          	bltu	t5,t1,ba0 <_start-0x7ffff460>
     54a:	6c65                	lui	s8,0x19
     54c:	6d5f 6465 6f6c      	0x6f6c64656d5f
     552:	00312077          	0x312077
     556:	5f5f 4244 5f4c      	0x5f4c42445f5f
     55c:	5045                	c.li	zero,-15
     55e:	4f4c4953          	0x4f4c4953
     562:	5f4e                	lw	t5,240(sp)
     564:	205f 2828 6f64      	0x6f642828205f
     56a:	6275                	lui	tp,0x1d
     56c:	656c                	flw	fa1,76(a0)
     56e:	3229                	jal	fffffe78 <__stack_top+0x77fffe78>
     570:	322e                	fld	ft4,232(sp)
     572:	3032                	fld	ft0,296(sp)
     574:	3434                	fld	fa3,104(s0)
     576:	3036                	fld	ft0,360(sp)
     578:	3934                	fld	fa3,112(a0)
     57a:	3532                	fld	fa0,296(sp)
     57c:	3330                	fld	fa2,96(a4)
     57e:	3331                	jal	28a <_start-0x7ffffd76>
     580:	3830                	fld	fa2,112(s0)
     582:	3830                	fld	fa2,112(s0)
     584:	3734                	fld	fa3,104(a4)
     586:	3632                	fld	fa2,296(sp)
     588:	36333333          	0x36333333
     58c:	3831                	jal	fffffda8 <__stack_top+0x77fffda8>
     58e:	3631                	jal	9a <_start-0x7fffff66>
     590:	3034                	fld	fa3,96(s0)
     592:	3236                	fld	ft4,360(sp)
     594:	2d65                	jal	c4c <_start-0x7ffff3b4>
     596:	3631                	jal	a2 <_start-0x7fffff5e>
     598:	294c                	fld	fa1,144(a0)
     59a:	5f00                	lw	s0,56(a4)
     59c:	465f 544c 3436      	0x3436544c465f
     5a2:	5f58                	lw	a4,60(a4)
     5a4:	494d                	li	s2,19
     5a6:	5f4e                	lw	t5,240(sp)
     5a8:	3031                	jal	fffffdb4 <__stack_top+0x77fffdb4>
     5aa:	455f 5058 5f5f      	0x5f5f5058455f
     5b0:	2820                	fld	fs0,80(s0)
     5b2:	342d                	jal	ffffffdc <__stack_top+0x77ffffdc>
     5b4:	3339                	jal	2c2 <_start-0x7ffffd3e>
     5b6:	2931                	jal	9d2 <_start-0x7ffff62e>
     5b8:	5f00                	lw	s0,56(a4)
     5ba:	465f 544c 3436      	0x3436544c465f
     5c0:	5f58                	lw	a4,60(a4)
     5c2:	4544                	lw	s1,12(a0)
     5c4:	414d4943          	fmadd.s	fs2,fs10,fs4,fs0,rmm
     5c8:	5f4c                	lw	a1,60(a4)
     5ca:	4944                	lw	s1,20(a0)
     5cc:	205f5f47          	fmsub.s	ft10,ft10,ft5,ft4,unknown
     5d0:	5f003633          	0x5f003633
     5d4:	575f 4e49 5f54      	0x5f544e49575f
     5da:	414d                	li	sp,19
     5dc:	5f58                	lw	a4,60(a4)
     5de:	205f 7830 6666      	0x66667830205f
     5e4:	6666                	flw	fa2,88(sp)
     5e6:	6666                	flw	fa2,88(sp)
     5e8:	6666                	flw	fa2,88(sp)
     5ea:	0055                	c.nop	21
     5ec:	5f5f 4953 455a      	0x455a49535f5f
     5f2:	545f 5059 5f45      	0x5f455059545f
     5f8:	205f 6e75 6973      	0x69736e75205f
     5fe:	64656e67          	0x64656e67
     602:	6920                	flw	fs0,80(a0)
     604:	746e                	flw	fs0,248(sp)
     606:	5f00                	lw	s0,56(a4)
     608:	465f 544c 3436      	0x3436544c465f
     60e:	485f 5341 515f      	0x515f5341485f
     614:	4955                	li	s2,21
     616:	5445                	li	s0,-15
     618:	4e5f 4e41 5f5f      	0x5f5f4e414e5f
     61e:	3120                	fld	fs0,96(a0)
     620:	5f00                	lw	s0,56(a4)
     622:	465f 544c 3233      	0x3233544c465f
     628:	485f 5341 445f      	0x445f5341485f
     62e:	4e45                	li	t3,17
     630:	5f4d524f          	fnmadd.q	ft4,fs10,fs4,fa1,unknown
     634:	205f 0031 5f5f      	0x5f5f0031205f
     63a:	41484353          	0x41484353
     63e:	5f52                	lw	t5,52(sp)
     640:	54444957          	0x54444957
     644:	5f48                	lw	a0,60(a4)
     646:	205f 0038 5f5f      	0x5f5f0038205f
     64c:	4c46                	lw	s8,80(sp)
     64e:	3354                	fld	fa3,160(a4)
     650:	5832                	lw	a6,44(sp)
     652:	495f 5f53 4549      	0x45495f53495f
     658:	30365f43          	fmadd.s	ft10,fa2,ft3,ft6,unknown
     65c:	3535                	jal	488 <_start-0x7ffffb78>
     65e:	5f39                	li	t5,-18
     660:	205f 0032 5f5f      	0x5f5f0032205f
     666:	4e49                	li	t3,18
     668:	5f54                	lw	a3,60(a4)
     66a:	4146                	lw	sp,80(sp)
     66c:	5f385453          	0x5f385453
     670:	5954                	lw	a3,52(a0)
     672:	4550                	lw	a2,12(a0)
     674:	5f5f 6920 746e      	0x746e69205f5f
     67a:	5f00                	lw	s0,56(a4)
     67c:	445f 4c42 4d5f      	0x4d5f4c42445f
     682:	4e41                	li	t3,16
     684:	5f54                	lw	a3,60(a4)
     686:	4944                	lw	s1,20(a0)
     688:	205f5f47          	fmsub.s	ft10,ft10,ft5,ft4,unknown
     68c:	3335                	jal	3b8 <_start-0x7ffffc48>
     68e:	5f00                	lw	s0,56(a4)
     690:	555f 4e49 5f54      	0x5f544e49555f
     696:	454c                	lw	a1,12(a0)
     698:	5341                	li	t1,-16
     69a:	3654                	fld	fa3,168(a2)
     69c:	5f34                	lw	a3,120(a4)
     69e:	5954                	lw	a3,52(a0)
     6a0:	4550                	lw	a2,12(a0)
     6a2:	5f5f 6c20 6e6f      	0x6e6f6c205f5f
     6a8:	6f6c2067          	0x6f6c2067
     6ac:	676e                	flw	fa4,216(sp)
     6ae:	7520                	flw	fs0,104(a0)
     6b0:	736e                	flw	ft6,248(sp)
     6b2:	6769                	lui	a4,0x1a
     6b4:	656e                	flw	fa0,216(sp)
     6b6:	2064                	fld	fs1,192(s0)
     6b8:	6e69                	lui	t3,0x1a
     6ba:	0074                	addi	a3,sp,12
     6bc:	5f5f 4244 5f4c      	0x5f4c42445f5f
     6c2:	494d                	li	s2,19
     6c4:	5f4e                	lw	t5,240(sp)
     6c6:	205f 2828 6f64      	0x6f642828205f
     6cc:	6275                	lui	tp,0x1d
     6ce:	656c                	flw	fa1,76(a0)
     6d0:	3229                	jal	ffffffda <__stack_top+0x77ffffda>
     6d2:	322e                	fld	ft4,232(sp)
     6d4:	3532                	fld	fa0,296(sp)
     6d6:	3730                	fld	fa2,104(a4)
     6d8:	38353833          	0x38353833
     6dc:	3035                	jal	ffffff08 <__stack_top+0x77ffff08>
     6de:	31303237          	lui	tp,0x31303
     6e2:	30333833          	0x30333833
     6e6:	3039                	jal	fffffef4 <__stack_top+0x77fffef4>
     6e8:	3332                	fld	ft6,296(sp)
     6ea:	3732                	fld	fa4,296(sp)
     6ec:	3731                	jal	5f8 <_start-0x7ffffa08>
     6ee:	34323333          	0x34323333
     6f2:	3430                	fld	fa2,104(s0)
     6f4:	3630                	fld	fa2,104(a2)
     6f6:	2d65                	jal	dae <_start-0x7ffff252>
     6f8:	4c383033          	0x4c383033
     6fc:	0029                	c.nop	10
     6fe:	5f5f 4e49 5054      	0x50544e495f5f
     704:	5254                	lw	a3,36(a2)
     706:	545f 5059 5f45      	0x5f455059545f
     70c:	205f 6e69 0074      	0x746e69205f
     712:	20554e47          	fmsub.s	ft8,fa0,ft5,ft4,rmm
     716:	20373143          	fmadd.s	ft2,fa4,ft3,ft4,rup
     71a:	3131                	jal	326 <_start-0x7ffffcda>
     71c:	312e                	fld	ft2,232(sp)
     71e:	302e                	fld	ft0,232(sp)
     720:	2d20                	fld	fs0,88(a0)
     722:	746d                	lui	s0,0xffffb
     724:	6e75                	lui	t3,0x1d
     726:	3d65                	jal	5de <_start-0x7ffffa22>
     728:	6f72                	flw	ft10,28(sp)
     72a:	74656b63          	bltu	a0,t1,e80 <_start-0x7ffff180>
     72e:	2d20                	fld	fs0,88(a0)
     730:	616d                	addi	sp,sp,240
     732:	6372                	flw	ft6,28(sp)
     734:	3d68                	fld	fa0,248(a0)
     736:	7672                	flw	fa2,60(sp)
     738:	6d693233          	0x6d693233
     73c:	6661                	lui	a2,0x18
     73e:	6364                	flw	fs1,68(a4)
     740:	2d20                	fld	fs0,88(a0)
     742:	616d                	addi	sp,sp,240
     744:	6962                	flw	fs2,24(sp)
     746:	693d                	lui	s2,0xf
     748:	706c                	flw	fa1,100(s0)
     74a:	20643233          	0x20643233
     74e:	6d2d                	lui	s10,0xb
     750:	7261                	lui	tp,0xffff8
     752:	723d6863          	bltu	s10,gp,e82 <_start-0x7ffff17e>
     756:	3376                	fld	ft6,376(sp)
     758:	6932                	flw	fs2,12(sp)
     75a:	616d                	addi	sp,sp,240
     75c:	6466                	flw	fs0,88(sp)
     75e:	672d2063          	0x672d2063
     762:	4f2d2033          	0x4f2d2033
     766:	2030                	fld	fa2,64(s0)
     768:	662d                	lui	a2,0xb
     76a:	7266                	flw	ft4,120(sp)
     76c:	6565                	lui	a0,0x19
     76e:	6e617473          	csrrci	s0,0x6e6,2
     772:	6964                	flw	fs1,84(a0)
     774:	676e                	flw	fa4,216(sp)
     776:	5f00                	lw	s0,56(a4)
     778:	535f 5248 5f54      	0x5f545248535f
     77e:	54444957          	0x54444957
     782:	5f48                	lw	a0,60(a4)
     784:	205f 3631 5f00      	0x5f003631205f
     78a:	555f 4e49 3854      	0x38544e49555f
     790:	545f 5059 5f45      	0x5f455059545f
     796:	205f 6e75 6973      	0x69736e75205f
     79c:	64656e67          	0x64656e67
     7a0:	6320                	flw	fs0,64(a4)
     7a2:	6168                	flw	fa0,68(a0)
     7a4:	0072                	c.slli	zero,0x1c
     7a6:	5f5f 4953 5f47      	0x5f4749535f5f
     7ac:	5441                	li	s0,-16
     7ae:	43494d4f          	fnmadd.d	fs10,fs2,fs4,fs0,rmm
     7b2:	545f 5059 5f45      	0x5f455059545f
     7b8:	205f 6e69 0074      	0x746e69205f
     7be:	5f5f 4c46 3354      	0x33544c465f5f
     7c4:	5f32                	lw	t5,44(sp)
     7c6:	4f4e                	lw	t5,208(sp)
     7c8:	4d52                	lw	s10,20(sp)
     7ca:	4d5f 5841 5f5f      	0x5f5f58414d5f
     7d0:	3320                	fld	fs0,96(a4)
     7d2:	342e                	fld	fs0,232(sp)
     7d4:	3230                	fld	fa2,96(a2)
     7d6:	3238                	fld	fa4,96(a2)
     7d8:	36363433          	0x36363433
     7dc:	32353833          	0x32353833
     7e0:	3838                	fld	fa4,112(s0)
     7e2:	3935                	jal	41e <_start-0x7ffffbe2>
     7e4:	3138                	fld	fa4,96(a0)
     7e6:	3731                	jal	6f2 <_start-0x7ffff90e>
     7e8:	3430                	fld	fa2,104(s0)
     7ea:	3831                	jal	6 <_start-0x7ffffffa>
     7ec:	34383433          	0x34383433
     7f0:	3135                	jal	41c <_start-0x7ffffbe4>
     7f2:	3936                	fld	fs2,360(sp)
     7f4:	3532                	fld	fa0,296(sp)
     7f6:	2b65                	jal	dae <_start-0x7ffff252>
     7f8:	33463833          	0x33463833
     7fc:	0032                	c.slli	zero,0xc
     7fe:	5f5f 4244 5f4c      	0x5f4c42445f5f
     804:	494d                	li	s2,19
     806:	5f4e                	lw	t5,240(sp)
     808:	5845                	li	a6,-15
     80a:	5f50                	lw	a2,60(a4)
     80c:	205f 2d28 3031      	0x30312d28205f
     812:	3132                	fld	ft2,296(sp)
     814:	0029                	c.nop	10
     816:	5f5f 5250 4741      	0x474152505f5f
     81c:	414d                	li	sp,19
     81e:	525f 4445 4645      	0x46454445525f
     824:	4e49                	li	t3,18
     826:	5f45                	li	t5,-15
     828:	5845                	li	a6,-15
     82a:	4e54                	lw	a3,28(a2)
     82c:	4d41                	li	s10,16
     82e:	2045                	jal	8ce <_start-0x7ffff732>
     830:	0031                	c.nop	12
     832:	5f5f 4e49 5f54      	0x5f544e495f5f
     838:	454c                	lw	a1,12(a0)
     83a:	5341                	li	t1,-16
     83c:	3154                	fld	fa3,160(a0)
     83e:	5f36                	lw	t5,108(sp)
     840:	54444957          	0x54444957
     844:	5f48                	lw	a0,60(a4)
     846:	205f 3631 5f00      	0x5f003631205f
     84c:	475f 4343 415f      	0x415f4343475f
     852:	4f54                	lw	a3,28(a4)
     854:	494d                	li	s2,19
     856:	45545f43          	0x45545f43
     85a:	415f5453          	0x415f5453
     85e:	444e                	lw	s0,208(sp)
     860:	535f 5445 545f      	0x545f5445535f
     866:	5552                	lw	a0,52(sp)
     868:	5645                	li	a2,-15
     86a:	4c41                	li	s8,16
     86c:	3120                	fld	fs0,96(a0)
     86e:	5f00                	lw	s0,56(a4)
     870:	4c5f 4244 5f4c      	0x5f4c42444c5f
     876:	414d                	li	sp,19
     878:	5f58                	lw	a4,60(a4)
     87a:	205f 2e31 3831      	0x38312e31205f
     880:	3739                	jal	78e <_start-0x7ffff872>
     882:	39343133          	0x39343133
     886:	3335                	jal	5b2 <_start-0x7ffffa4e>
     888:	3735                	jal	7b4 <_start-0x7ffff84c>
     88a:	3332                	fld	ft6,296(sp)
     88c:	3731                	jal	798 <_start-0x7ffff868>
     88e:	3536                	fld	fa0,360(sp)
     890:	3830                	fld	fa2,112(s0)
     892:	3735                	jal	7be <_start-0x7ffff842>
     894:	3935                	jal	4d0 <_start-0x7ffffb30>
     896:	36363233          	0x36363233
     89a:	3832                	fld	fa6,296(sp)
     89c:	3030                	fld	fa2,96(s0)
     89e:	65323037          	lui	zero,0x65323
     8a2:	3339342b          	0x3339342b
     8a6:	4c32                	lw	s8,12(sp)
     8a8:	5f00                	lw	s0,56(a4)
     8aa:	4c5f 4244 5f4c      	0x5f4c42444c5f
     8b0:	414d                	li	sp,19
     8b2:	5f58                	lw	a4,60(a4)
     8b4:	5845                	li	a6,-15
     8b6:	5f50                	lw	a2,60(a4)
     8b8:	205f 3631 3833      	0x38333631205f
     8be:	0034                	addi	a3,sp,8
     8c0:	5f5f 444c 4c42      	0x4c42444c5f5f
     8c6:	485f 5341 495f      	0x495f5341485f
     8cc:	464e                	lw	a2,208(sp)
     8ce:	4e49                	li	t3,18
     8d0:	5449                	li	s0,-14
     8d2:	5f59                	li	t5,-10
     8d4:	205f 0031 5f5f      	0x5f5f0031205f
     8da:	4c46                	lw	s8,80(sp)
     8dc:	5f54                	lw	a3,60(a4)
     8de:	4148                	lw	a0,4(a0)
     8e0:	45445f53          	0x45445f53
     8e4:	4f4e                	lw	t5,208(sp)
     8e6:	4d52                	lw	s10,20(sp)
     8e8:	5f5f 3120 5f00      	0x5f0031205f5f
     8ee:	465f 544c 3231      	0x3231544c465f
     8f4:	5f38                	lw	a4,120(a4)
     8f6:	494d                	li	s2,19
     8f8:	5f4e                	lw	t5,240(sp)
     8fa:	5845                	li	a6,-15
     8fc:	5f50                	lw	a2,60(a4)
     8fe:	205f 2d28 3631      	0x36312d28205f
     904:	29313833          	0x29313833
     908:	5f00                	lw	s0,56(a4)
     90a:	555f 4e49 5f54      	0x5f544e49555f
     910:	4146                	lw	sp,80(sp)
     912:	36315453          	0x36315453
     916:	4d5f 5841 5f5f      	0x5f5f58414d5f
     91c:	3020                	fld	fs0,96(s0)
     91e:	6678                	flw	fa4,76(a2)
     920:	6666                	flw	fa2,88(sp)
     922:	6666                	flw	fa2,88(sp)
     924:	6666                	flw	fa2,88(sp)
     926:	5566                	lw	a0,120(sp)
     928:	5f00                	lw	s0,56(a4)
     92a:	495f 544e 5450      	0x5450544e495f
     930:	5f52                	lw	t5,52(sp)
     932:	414d                	li	sp,19
     934:	5f58                	lw	a4,60(a4)
     936:	205f 7830 6637      	0x66377830205f
     93c:	6666                	flw	fa2,88(sp)
     93e:	6666                	flw	fa2,88(sp)
     940:	6666                	flw	fa2,88(sp)
     942:	5f00                	lw	s0,56(a4)
     944:	555f 4e49 3154      	0x31544e49555f
     94a:	5f36                	lw	t5,108(sp)
     94c:	414d                	li	sp,19
     94e:	5f58                	lw	a4,60(a4)
     950:	205f 7830 6666      	0x66667830205f
     956:	6666                	flw	fa2,88(sp)
     958:	5f00                	lw	s0,56(a4)
     95a:	475f 4343 415f      	0x415f4343475f
     960:	4f54                	lw	a3,28(a4)
     962:	494d                	li	s2,19
     964:	43575f43          	fmadd.d	ft10,fa4,fs5,fs0,unknown
     968:	4148                	lw	a0,4(a0)
     96a:	5f52                	lw	t5,52(sp)
     96c:	5f54                	lw	a3,60(a4)
     96e:	4f4c                	lw	a1,28(a4)
     970:	465f4b43          	fmadd.q	fs6,ft10,ft5,fs0,rmm
     974:	4552                	lw	a0,20(sp)
     976:	2045                	jal	a16 <_start-0x7ffff5ea>
     978:	0032                	c.slli	zero,0xc
     97a:	5f5f 4e49 3854      	0x38544e495f5f
     980:	545f 5059 5f45      	0x5f455059545f
     986:	205f 6973 6e67      	0x6e676973205f
     98c:	6465                	lui	s0,0x19
     98e:	6320                	flw	fs0,64(a4)
     990:	6168                	flw	fa0,68(a0)
     992:	0072                	c.slli	zero,0x1c
     994:	5f5f 5942 4554      	0x455459425f5f
     99a:	4f5f 4452 5245      	0x524544524f5f
     9a0:	5f5f 5f20 4f5f      	0x4f5f5f205f5f
     9a6:	4452                	lw	s0,20(sp)
     9a8:	5245                	li	tp,-15
     9aa:	4c5f 5449 4c54      	0x4c5454494c5f
     9b0:	5f45                	li	t5,-15
     9b2:	4e45                	li	t3,17
     9b4:	4944                	lw	s1,20(a0)
     9b6:	4e41                	li	t3,16
     9b8:	5f5f 5f00 495f      	0x495f5f005f5f
     9be:	544e                	lw	s0,240(sp)
     9c0:	3436                	fld	fs0,360(sp)
     9c2:	4d5f 5841 5f5f      	0x5f5f58414d5f
     9c8:	3020                	fld	fs0,96(s0)
     9ca:	3778                	fld	fa4,232(a4)
     9cc:	6666                	flw	fa2,88(sp)
     9ce:	6666                	flw	fa2,88(sp)
     9d0:	6666                	flw	fa2,88(sp)
     9d2:	6666                	flw	fa2,88(sp)
     9d4:	6666                	flw	fa2,88(sp)
     9d6:	6666                	flw	fa2,88(sp)
     9d8:	6666                	flw	fa2,88(sp)
     9da:	4c66                	lw	s8,88(sp)
     9dc:	004c                	addi	a1,sp,4
     9de:	5f5f 4244 5f4c      	0x5f4c42445f5f
     9e4:	4f4e                	lw	t5,208(sp)
     9e6:	4d52                	lw	s10,20(sp)
     9e8:	4d5f 5841 5f5f      	0x5f5f58414d5f
     9ee:	2820                	fld	fs0,80(s0)
     9f0:	6428                	flw	fa0,72(s0)
     9f2:	6c62756f          	jal	a0,280b8 <_start-0x7ffd7f48>
     9f6:	2965                	jal	eae <_start-0x7ffff152>
     9f8:	2e31                	jal	d14 <_start-0x7ffff2ec>
     9fa:	36373937          	lui	s2,0x36373
     9fe:	3339                	jal	70c <_start-0x7ffff8f4>
     a00:	3331                	jal	70c <_start-0x7ffff8f4>
     a02:	3834                	fld	fa3,112(s0)
     a04:	3236                	fld	ft4,360(sp)
     a06:	37353133          	0x37353133
     a0a:	3830                	fld	fa2,112(s0)
     a0c:	3431                	jal	418 <_start-0x7ffffbe8>
     a0e:	3235                	jal	33a <_start-0x7ffffcc6>
     a10:	33323437          	lui	s0,0x33323
     a14:	37313337          	lui	t1,0x37313
     a18:	3430                	fld	fa2,104(s0)
     a1a:	65373533          	0x65373533
     a1e:	3830332b          	0x3830332b
     a22:	294c                	fld	fa1,144(a0)
     a24:	5f00                	lw	s0,56(a4)
     a26:	465f 4f4c 5441      	0x54414f4c465f
     a2c:	575f 524f 5f44      	0x5f44524f575f
     a32:	4544524f          	0x4544524f
     a36:	5f52                	lw	t5,52(sp)
     a38:	205f 5f5f 524f      	0x524f5f5f205f
     a3e:	4544                	lw	s1,12(a0)
     a40:	5f52                	lw	t5,52(sp)
     a42:	494c                	lw	a1,20(a0)
     a44:	5454                	lw	a3,44(s0)
     a46:	454c                	lw	a1,12(a0)
     a48:	455f 444e 4149      	0x4149444e455f
     a4e:	5f4e                	lw	t5,240(sp)
     a50:	005f 5f5f 4955      	0x49555f5f005f
     a56:	544e                	lw	s0,240(sp)
     a58:	4c5f 4145 5453      	0x545341454c5f
     a5e:	3631                	jal	56a <_start-0x7ffffa96>
     a60:	4d5f 5841 5f5f      	0x5f5f58414d5f
     a66:	3020                	fld	fs0,96(s0)
     a68:	6678                	flw	fa4,76(a2)
     a6a:	6666                	flw	fa2,88(sp)
     a6c:	0066                	c.slli	zero,0x19
     a6e:	5f5f 4e49 3354      	0x33544e495f5f
     a74:	5f32                	lw	t5,44(sp)
     a76:	5954                	lw	a3,52(a0)
     a78:	4550                	lw	a2,12(a0)
     a7a:	5f5f 6c20 6e6f      	0x6e6f6c205f5f
     a80:	6e692067          	0x6e692067
     a84:	0074                	addi	a3,sp,12
     a86:	5f5f 4e49 5f54      	0x5f544e495f5f
     a8c:	454c                	lw	a1,12(a0)
     a8e:	5341                	li	t1,-16
     a90:	3154                	fld	fa3,160(a0)
     a92:	5f36                	lw	t5,108(sp)
     a94:	5954                	lw	a3,52(a0)
     a96:	4550                	lw	a2,12(a0)
     a98:	5f5f 7320 6f68      	0x6f6873205f5f
     a9e:	7472                	flw	fs0,60(sp)
     aa0:	6920                	flw	fs0,80(a0)
     aa2:	746e                	flw	fs0,248(sp)
     aa4:	5f00                	lw	s0,56(a4)
     aa6:	495f 544e 465f      	0x465f544e495f
     aac:	5341                	li	t1,-16
     aae:	3154                	fld	fa3,160(a0)
     ab0:	5f36                	lw	t5,108(sp)
     ab2:	5954                	lw	a3,52(a0)
     ab4:	4550                	lw	a2,12(a0)
     ab6:	5f5f 6920 746e      	0x746e69205f5f
     abc:	5f00                	lw	s0,56(a4)
     abe:	495f 544e 414d      	0x414d544e495f
     ac4:	5f58                	lw	a4,60(a4)
     ac6:	414d                	li	sp,19
     ac8:	5f58                	lw	a4,60(a4)
     aca:	205f 7830 6637      	0x66377830205f
     ad0:	6666                	flw	fa2,88(sp)
     ad2:	6666                	flw	fa2,88(sp)
     ad4:	6666                	flw	fa2,88(sp)
     ad6:	6666                	flw	fa2,88(sp)
     ad8:	6666                	flw	fa2,88(sp)
     ada:	6666                	flw	fa2,88(sp)
     adc:	6666                	flw	fa2,88(sp)
     ade:	4c4c                	lw	a1,28(s0)
     ae0:	5f00                	lw	s0,56(a4)
     ae2:	465f 544c 445f      	0x445f544c465f
     ae8:	4e45                	li	t3,17
     aea:	5f4d524f          	fnmadd.q	ft4,fs10,fs4,fa1,unknown
     aee:	494d                	li	s2,19
     af0:	5f4e                	lw	t5,240(sp)
     af2:	205f 2e31 3034      	0x30342e31205f
     af8:	3231                	jal	404 <_start-0x7ffffbfc>
     afa:	3839                	jal	318 <_start-0x7ffffce8>
     afc:	3634                	fld	fa3,104(a2)
     afe:	3334                	fld	fa3,96(a4)
     b00:	3432                	fld	fs0,296(sp)
     b02:	3138                	fld	fa4,96(a0)
     b04:	30373037          	lui	zero,0x30373
     b08:	3239                	jal	416 <_start-0x7ffffbea>
     b0a:	39323733          	0x39323733
     b0e:	3835                	jal	34a <_start-0x7ffffcb6>
     b10:	39383233          	0x39383233
     b14:	3139                	jal	722 <_start-0x7ffff8de>
     b16:	3136                	fld	ft2,360(sp)
     b18:	342d6533          	0x342d6533
     b1c:	4635                	li	a2,13
     b1e:	5f00                	lw	s0,56(a4)
     b20:	4c5f 4244 5f4c      	0x5f4c42444c5f
     b26:	4544                	lw	s1,12(a0)
     b28:	4f4e                	lw	t5,208(sp)
     b2a:	4d52                	lw	s10,20(sp)
     b2c:	4d5f 4e49 5f5f      	0x5f5f4e494d5f
     b32:	3620                	fld	fs0,104(a2)
     b34:	342e                	fld	fs0,232(sp)
     b36:	37313537          	lui	a0,0x37313
     b3a:	3135                	jal	766 <_start-0x7ffff89a>
     b3c:	3931                	jal	758 <_start-0x7ffff8a8>
     b3e:	3334                	fld	fa3,96(a4)
     b40:	3038                	fld	fa4,96(s0)
     b42:	3532                	fld	fa0,296(sp)
     b44:	3131                	jal	750 <_start-0x7ffff8b0>
     b46:	3930                	fld	fa2,112(a0)
     b48:	3432                	fld	fs0,296(sp)
     b4a:	3334                	fld	fa3,96(a4)
     b4c:	3938                	fld	fa4,112(a0)
     b4e:	3835                	jal	38a <_start-0x7ffffc76>
     b50:	3232                	fld	ft4,296(sp)
     b52:	36343637          	lui	a2,0x36343
     b56:	3535                	jal	982 <_start-0x7ffff67e>
     b58:	2d65                	jal	1210 <_start-0x7fffedf0>
     b5a:	3934                	fld	fa3,112(a0)
     b5c:	3636                	fld	fa2,360(sp)
     b5e:	004c                	addi	a1,sp,4
     b60:	5f5f 4953 455a      	0x455a49535f5f
     b66:	445f464f          	0x445f464f
     b6a:	4c42554f          	0x4c42554f
     b6e:	5f45                	li	t5,-15
     b70:	205f 0038 5f5f      	0x5f5f0038205f
     b76:	6972                	flw	fs2,28(sp)
     b78:	5f766373          	csrrsi	t1,0x5f7,12
     b7c:	2061                	jal	c04 <_start-0x7ffff3fc>
     b7e:	3032                	fld	ft0,296(sp)
     b80:	3030                	fld	fa2,96(s0)
     b82:	3030                	fld	fa2,96(s0)
     b84:	0030                	addi	a2,sp,8
     b86:	5f5f 4c45 5f46      	0x5f464c455f5f
     b8c:	205f 0031 5f5f      	0x5f5f0031205f
     b92:	4955                	li	s2,21
     b94:	544e                	lw	s0,240(sp)
     b96:	5f38                	lw	a4,120(a4)
     b98:	414d                	li	sp,19
     b9a:	5f58                	lw	a4,60(a4)
     b9c:	205f 7830 6666      	0x66667830205f
     ba2:	5f00                	lw	s0,56(a4)
     ba4:	535f 5a49 5f45      	0x5f455a49535f
     baa:	414d                	li	sp,19
     bac:	5f58                	lw	a4,60(a4)
     bae:	205f 7830 6666      	0x66667830205f
     bb4:	6666                	flw	fa2,88(sp)
     bb6:	6666                	flw	fa2,88(sp)
     bb8:	6666                	flw	fa2,88(sp)
     bba:	0055                	c.nop	21
     bbc:	5f5f 4c46 3354      	0x33544c465f5f
     bc2:	5832                	lw	a6,44(sp)
     bc4:	4d5f 5841 455f      	0x455f58414d5f
     bca:	5058                	lw	a4,36(s0)
     bcc:	5f5f 3120 3230      	0x323031205f5f
     bd2:	0034                	addi	a3,sp,8
     bd4:	5f5f 4c46 3354      	0x33544c465f5f
     bda:	5f32                	lw	t5,44(sp)
     bdc:	414d                	li	sp,19
     bde:	5f58                	lw	a4,60(a4)
     be0:	5845                	li	a6,-15
     be2:	5f50                	lw	a2,60(a4)
     be4:	205f 3231 0038      	0x383231205f
     bea:	5f5f 4e49 3354      	0x33544e495f5f
     bf0:	5f32                	lw	t5,44(sp)
     bf2:	29632843          	fmadd.s	fa6,ft6,fs6,ft5,rdn
     bf6:	6320                	flw	fs0,64(a4)
     bf8:	2320                	fld	fs0,64(a4)
     bfa:	004c2023          	sw	tp,0(s8) # 19000 <_start-0x7ffe7000>
     bfe:	5f5f 4c46 3654      	0x36544c465f5f
     c04:	5f34                	lw	a3,120(a4)
     c06:	414d                	li	sp,19
     c08:	5f58                	lw	a4,60(a4)
     c0a:	5845                	li	a6,-15
     c0c:	5f50                	lw	a2,60(a4)
     c0e:	205f 3031 3432      	0x34323031205f
     c14:	5f00                	lw	s0,56(a4)
     c16:	495f 544e 5450      	0x5450544e495f
     c1c:	5f52                	lw	t5,52(sp)
     c1e:	54444957          	0x54444957
     c22:	5f48                	lw	a0,60(a4)
     c24:	205f 3233 5f00      	0x5f003233205f
     c2a:	535f 5a49 5f45      	0x5f455a49535f
     c30:	54444957          	0x54444957
     c34:	5f48                	lw	a0,60(a4)
     c36:	205f 3233 5f00      	0x5f003233205f
     c3c:	465f 544c 3233      	0x3233544c465f
     c42:	455f 5350 4c49      	0x4c495350455f
     c48:	5f5f4e4f          	fnmadd.q	ft8,ft10,fs5,fa1,rmm
     c4c:	3120                	fld	fs0,96(a0)
     c4e:	312e                	fld	ft2,232(sp)
     c50:	3239                	jal	55e <_start-0x7ffffaa2>
     c52:	3930                	fld	fa2,112(a0)
     c54:	3832                	fld	fa6,296(sp)
     c56:	3539                	jal	a64 <_start-0x7ffff59c>
     c58:	3035                	jal	484 <_start-0x7ffffb7c>
     c5a:	32313837          	lui	a6,0x32313
     c5e:	3035                	jal	48a <_start-0x7ffffb76>
     c60:	3030                	fld	fa2,96(s0)
     c62:	3030                	fld	fa2,96(s0)
     c64:	3030                	fld	fa2,96(s0)
     c66:	3030                	fld	fa2,96(s0)
     c68:	3030                	fld	fa2,96(s0)
     c6a:	3030                	fld	fa2,96(s0)
     c6c:	3030                	fld	fa2,96(s0)
     c6e:	3030                	fld	fa2,96(s0)
     c70:	3030                	fld	fa2,96(s0)
     c72:	2d65                	jal	132a <_start-0x7fffecd6>
     c74:	32334637          	lui	a2,0x32334
     c78:	5f00                	lw	s0,56(a4)
     c7a:	475f 4343 415f      	0x415f4343475f
     c80:	4f54                	lw	a3,28(a4)
     c82:	494d                	li	s2,19
     c84:	48435f43          	fmadd.s	ft10,ft6,ft4,fs1,unknown
     c88:	5241                	li	tp,-16
     c8a:	545f3233          	0x545f3233
     c8e:	4c5f 434f 5f4b      	0x5f4b434f4c5f
     c94:	5246                	lw	tp,112(sp)
     c96:	4545                	li	a0,17
     c98:	3220                	fld	fs0,96(a2)
     c9a:	5f00                	lw	s0,56(a4)
     c9c:	555f 4e49 4d54      	0x4d544e49555f
     ca2:	5841                	li	a6,-16
     ca4:	545f 5059 5f45      	0x5f455059545f
     caa:	205f 6f6c 676e      	0x676e6f6c205f
     cb0:	6c20                	flw	fs0,88(s0)
     cb2:	20676e6f          	jal	t3,76eb8 <_start-0x7ff89148>
     cb6:	6e75                	lui	t3,0x1d
     cb8:	6e676973          	csrrsi	s2,0x6e6,14
     cbc:	6465                	lui	s0,0x19
     cbe:	6920                	flw	fs0,80(a0)
     cc0:	746e                	flw	fs0,248(sp)
     cc2:	5f00                	lw	s0,56(a4)
     cc4:	535f 4749 415f      	0x415f4749535f
     cca:	4f54                	lw	a3,28(a4)
     ccc:	494d                	li	s2,19
     cce:	49575f43          	fmadd.s	ft10,fa4,fs5,fs1,unknown
     cd2:	5444                	lw	s1,44(s0)
     cd4:	5f48                	lw	a0,60(a4)
     cd6:	205f 3233 5f00      	0x5f003233205f
     cdc:	555f 4e49 5f54      	0x5f544e49555f
     ce2:	4146                	lw	sp,80(sp)
     ce4:	34365453          	0x34365453
     ce8:	4d5f 5841 5f5f      	0x5f5f58414d5f
     cee:	3020                	fld	fs0,96(s0)
     cf0:	6678                	flw	fa4,76(a2)
     cf2:	6666                	flw	fa2,88(sp)
     cf4:	6666                	flw	fa2,88(sp)
     cf6:	6666                	flw	fa2,88(sp)
     cf8:	6666                	flw	fa2,88(sp)
     cfa:	6666                	flw	fa2,88(sp)
     cfc:	6666                	flw	fa2,88(sp)
     cfe:	6666                	flw	fa2,88(sp)
     d00:	5566                	lw	a0,120(sp)
     d02:	4c4c                	lw	a1,28(s0)
     d04:	5f00                	lw	s0,56(a4)
     d06:	4c5f 4244 5f4c      	0x5f4c42444c5f
     d0c:	494d                	li	s2,19
     d0e:	5f4e                	lw	t5,240(sp)
     d10:	5845                	li	a6,-15
     d12:	5f50                	lw	a2,60(a4)
     d14:	205f 2d28 3631      	0x36312d28205f
     d1a:	29313833          	0x29313833
     d1e:	5f00                	lw	s0,56(a4)
     d20:	535f 5a49 4f45      	0x4f455a49535f
     d26:	5f46                	lw	t5,112(sp)
     d28:	4f4c                	lw	a1,28(a4)
     d2a:	474e                	lw	a4,208(sp)
     d2c:	4c5f 4e4f 5f47      	0x5f474e4f4c5f
     d32:	205f 0038 5f5f      	0x5f5f0038205f
     d38:	4c46                	lw	s8,80(sp)
     d3a:	5f54                	lw	a3,60(a4)
     d3c:	4944                	lw	s1,20(a0)
     d3e:	205f5f47          	fmsub.s	ft10,ft10,ft5,ft4,unknown
     d42:	0036                	c.slli	zero,0xd
     d44:	5f5f 4f4c 474e      	0x474e4f4c5f5f
     d4a:	575f 4449 4854      	0x48544449575f
     d50:	5f5f 3320 0032      	0x3233205f5f
     d56:	5f5f 444c 4c42      	0x4c42444c5f5f
     d5c:	455f 5350 4c49      	0x4c495350455f
     d62:	5f5f4e4f          	fnmadd.q	ft8,ft10,fs5,fa1,rmm
     d66:	3120                	fld	fs0,96(a0)
     d68:	392e                	fld	fs2,232(sp)
     d6a:	3532                	fld	fa0,296(sp)
     d6c:	3239                	jal	67a <_start-0x7ffff986>
     d6e:	3939                	jal	98c <_start-0x7ffff674>
     d70:	3434                	fld	fa3,104(s0)
     d72:	32373833          	0x32373833
     d76:	35383533          	0x35383533
     d7a:	35353033          	0x35353033
     d7e:	3739                	jal	c8c <_start-0x7ffff374>
     d80:	32343937          	lui	s2,0x32343
     d84:	3835                	jal	5c0 <_start-0x7ffffa40>
     d86:	3934                	fld	fa3,112(a0)
     d88:	3732                	fld	fa4,296(sp)
     d8a:	2d653233          	0x2d653233
     d8e:	004c3433          	sltu	s0,s8,tp
     d92:	5f5f 4244 5f4c      	0x5f4c42445f5f
     d98:	4544                	lw	s1,12(a0)
     d9a:	4f4e                	lw	t5,208(sp)
     d9c:	4d52                	lw	s10,20(sp)
     d9e:	4d5f 4e49 5f5f      	0x5f5f4e494d5f
     da4:	2820                	fld	fs0,80(s0)
     da6:	6428                	flw	fa0,72(s0)
     da8:	6c62756f          	jal	a0,2846e <_start-0x7ffd7b92>
     dac:	2965                	jal	1264 <_start-0x7fffed9c>
     dae:	2e34                	fld	fa3,88(a2)
     db0:	3439                	jal	7be <_start-0x7ffff842>
     db2:	3630                	fld	fa2,104(a2)
     db4:	3635                	jal	8e0 <_start-0x7ffff720>
     db6:	3534                	fld	fa3,104(a0)
     db8:	3438                	fld	fa4,104(s0)
     dba:	3231                	jal	6c6 <_start-0x7ffff93a>
     dbc:	3634                	fld	fa3,104(a2)
     dbe:	3435                	jal	7ea <_start-0x7ffff816>
     dc0:	3134                	fld	fa3,96(a0)
     dc2:	36353637          	lui	a2,0x36353
     dc6:	3738                	fld	fa4,104(a4)
     dc8:	3239                	jal	6d6 <_start-0x7ffff92a>
     dca:	3638                	fld	fa4,104(a2)
     dcc:	3238                	fld	fa4,96(a2)
     dce:	3132                	fld	ft2,296(sp)
     dd0:	65323733          	0x65323733
     dd4:	332d                	jal	afe <_start-0x7ffff502>
     dd6:	3432                	fld	fs0,296(sp)
     dd8:	294c                	fld	fa1,144(a0)
     dda:	5f00                	lw	s0,56(a4)
     ddc:	415f 4f54 494d      	0x494d4f54415f
     de2:	45525f43          	0x45525f43
     de6:	454c                	lw	a1,12(a0)
     de8:	5341                	li	t1,-16
     dea:	2045                	jal	e8a <_start-0x7ffff176>
     dec:	5f5f0033          	0x5f5f0033
     df0:	4c46                	lw	s8,80(sp)
     df2:	5f54                	lw	a3,60(a4)
     df4:	414d                	li	sp,19
     df6:	5f58                	lw	a4,60(a4)
     df8:	3031                	jal	604 <_start-0x7ffff9fc>
     dfa:	455f 5058 5f5f      	0x5f5f5058455f
     e00:	3320                	fld	fs0,96(a4)
     e02:	0038                	addi	a4,sp,8
     e04:	5f5f 4f4e 495f      	0x495f4f4e5f5f
     e0a:	4c4e                	lw	s8,208(sp)
     e0c:	4e49                	li	t3,18
     e0e:	5f45                	li	t5,-15
     e10:	205f 0031 5f5f      	0x5f5f0031205f
     e16:	544e4957          	0x544e4957
     e1a:	4d5f 4e49 5f5f      	0x5f5f4e494d5f
     e20:	3020                	fld	fs0,96(s0)
     e22:	0055                	c.nop	21
     e24:	5f5f 4953 455a      	0x455a49535f5f
     e2a:	4c5f464f          	0x4c5f464f
     e2e:	5f474e4f          	fnmadd.q	ft8,fa4,fs4,fa1,rmm
     e32:	4f44                	lw	s1,28(a4)
     e34:	4255                	li	tp,21
     e36:	454c                	lw	a1,12(a0)
     e38:	5f5f 3120 0036      	0x3631205f5f
     e3e:	5f5f 4e49 3854      	0x38544e495f5f
     e44:	435f 6328 2029      	0x20296328435f
     e4a:	5f5f0063          	beq	t5,s5,142a <_start-0x7fffebd6>
     e4e:	43554e47          	fmsub.d	ft8,fa0,fs5,fs0,rmm
     e52:	4d5f 4e49 524f      	0x524f4e494d5f
     e58:	5f5f 3120 5f00      	0x5f0031205f5f
     e5e:	555f 4e49 3654      	0x36544e49555f
     e64:	5f34                	lw	a3,120(a4)
     e66:	414d                	li	sp,19
     e68:	5f58                	lw	a4,60(a4)
     e6a:	205f 7830 6666      	0x66667830205f
     e70:	6666                	flw	fa2,88(sp)
     e72:	6666                	flw	fa2,88(sp)
     e74:	6666                	flw	fa2,88(sp)
     e76:	6666                	flw	fa2,88(sp)
     e78:	6666                	flw	fa2,88(sp)
     e7a:	6666                	flw	fa2,88(sp)
     e7c:	6666                	flw	fa2,88(sp)
     e7e:	4c55                	li	s8,21
     e80:	004c                	addi	a1,sp,4
     e82:	5f5f 4244 5f4c      	0x5f4c42445f5f
     e88:	5349                	li	t1,-14
     e8a:	495f 4345 365f      	0x365f4345495f
     e90:	3530                	fld	fa2,104(a0)
     e92:	3935                	jal	ace <_start-0x7ffff532>
     e94:	5f5f 3220 5f00      	0x5f0032205f5f
     e9a:	465f 544c 3436      	0x3436544c465f
     ea0:	5f58                	lw	a4,60(a4)
     ea2:	494d                	li	s2,19
     ea4:	5f4e                	lw	t5,240(sp)
     ea6:	205f 2e33 3633      	0x36332e33205f
     eac:	3132                	fld	ft2,296(sp)
     eae:	3330                	fld	fa2,96(a4)
     eb0:	3431                	jal	8bc <_start-0x7ffff744>
     eb2:	32313133          	0x32313133
     eb6:	3930                	fld	fa2,112(a0)
     eb8:	36303533          	0x36303533
     ebc:	3632                	fld	fa2,296(sp)
     ebe:	3632                	fld	fa2,296(sp)
     ec0:	31383737          	lui	a4,0x31383
     ec4:	31323337          	lui	t1,0x31323
     ec8:	36323537          	lui	a0,0x36323
     ecc:	6530                	flw	fa2,72(a0)
     ece:	342d                	jal	8f8 <_start-0x7ffff708>
     ed0:	3339                	jal	bde <_start-0x7ffff422>
     ed2:	4632                	lw	a2,12(sp)
     ed4:	3436                	fld	fs0,360(sp)
     ed6:	0078                	addi	a4,sp,12
     ed8:	5f5f 4544 5f43      	0x5f4345445f5f
     ede:	5645                	li	a2,-15
     ee0:	4c41                	li	s8,16
     ee2:	4d5f 5445 4f48      	0x4f4854454d5f
     ee8:	5f44                	lw	s1,60(a4)
     eea:	205f 0032 5f5f      	0x5f5f0032205f
     ef0:	4f4c                	lw	a1,28(a4)
     ef2:	474e                	lw	a4,208(sp)
     ef4:	4c5f 4e4f 5f47      	0x5f474e4f4c5f
     efa:	414d                	li	sp,19
     efc:	5f58                	lw	a4,60(a4)
     efe:	205f 7830 6637      	0x66377830205f
     f04:	6666                	flw	fa2,88(sp)
     f06:	6666                	flw	fa2,88(sp)
     f08:	6666                	flw	fa2,88(sp)
     f0a:	6666                	flw	fa2,88(sp)
     f0c:	6666                	flw	fa2,88(sp)
     f0e:	6666                	flw	fa2,88(sp)
     f10:	6666                	flw	fa2,88(sp)
     f12:	4c4c                	lw	a1,28(s0)
     f14:	5f00                	lw	s0,56(a4)
     f16:	465f 544c 3233      	0x3233544c465f
     f1c:	4d5f 4e49 5f5f      	0x5f5f4e494d5f
     f22:	3120                	fld	fs0,96(a0)
     f24:	312e                	fld	ft2,232(sp)
     f26:	39343537          	lui	a0,0x39343
     f2a:	3334                	fld	fa3,96(a4)
     f2c:	3035                	jal	758 <_start-0x7ffff8a8>
     f2e:	3238                	fld	fa4,96(a2)
     f30:	3232                	fld	ft4,296(sp)
     f32:	3738                	fld	fa4,104(a4)
     f34:	3035                	jal	760 <_start-0x7ffff8a0>
     f36:	38363937          	lui	s2,0x38363
     f3a:	35363337          	lui	t1,0x35363
     f3e:	32323733          	0x32323733
     f42:	3232                	fld	ft4,296(sp)
     f44:	3534                	fld	fa3,104(a0)
     f46:	3836                	fld	fa6,360(sp)
     f48:	2d65                	jal	1600 <_start-0x7fffea00>
     f4a:	33463833          	0x33463833
     f4e:	0032                	c.slli	zero,0xc
     f50:	5f5f 4e47 4355      	0x43554e475f5f
     f56:	5f5f 3120 0031      	0x3131205f5f
     f5c:	5f5f 4c46 5f54      	0x5f544c465f5f
     f62:	4148                	lw	a0,4(a0)
     f64:	55515f53          	0x55515f53
     f68:	4549                	li	a0,18
     f6a:	5f54                	lw	a3,60(a4)
     f6c:	414e                	lw	sp,208(sp)
     f6e:	5f4e                	lw	t5,240(sp)
     f70:	205f 0031 5f5f      	0x5f5f0031205f
     f76:	4e49                	li	t3,18
     f78:	5f54                	lw	a3,60(a4)
     f7a:	4146                	lw	sp,80(sp)
     f7c:	36315453          	0x36315453
     f80:	575f 4449 4854      	0x48544449575f
     f86:	5f5f 3320 0032      	0x3233205f5f
     f8c:	5f5f 4c46 3354      	0x33544c465f5f
     f92:	5f32                	lw	t5,44(sp)
     f94:	414d                	li	sp,19
     f96:	544e                	lw	s0,240(sp)
     f98:	445f 4749 5f5f      	0x5f5f4749445f
     f9e:	3220                	fld	fs0,96(a2)
     fa0:	0034                	addi	a3,sp,8
     fa2:	5f5f 4347 5f43      	0x5f4343475f5f
     fa8:	4549                	li	a0,18
     faa:	35355f43          	0x35355f43
     fae:	5f39                	li	t5,-18
     fb0:	504d4f43          	fmadd.s	ft10,fs10,ft4,fa0,rmm
     fb4:	454c                	lw	a1,12(a0)
     fb6:	2058                	fld	fa4,128(s0)
     fb8:	0032                	c.slli	zero,0xc
     fba:	5f5f 5046 465f      	0x465f50465f5f
     fc0:	5341                	li	t1,-16
     fc2:	5f54                	lw	a3,60(a4)
     fc4:	4d46                	lw	s10,80(sp)
     fc6:	4641                	li	a2,16
     fc8:	3120                	fld	fs0,96(a0)
     fca:	5f00                	lw	s0,56(a4)
     fcc:	535f 4454 5f43      	0x5f434454535f
     fd2:	4f48                	lw	a0,28(a4)
     fd4:	44455453          	0x44455453
     fd8:	5f5f 3020 5f00      	0x5f0030205f5f
     fde:	465f 544c 4d5f      	0x4d5f544c465f
     fe4:	4e49                	li	t3,18
     fe6:	455f 5058 5f5f      	0x5f5f5058455f
     fec:	2820                	fld	fs0,80(s0)
     fee:	312d                	jal	c18 <_start-0x7ffff3e8>
     ff0:	3532                	fld	fa0,296(sp)
     ff2:	0029                	c.nop	10
     ff4:	5f5f 4c46 3354      	0x33544c465f5f
     ffa:	5832                	lw	a6,44(sp)
     ffc:	4d5f 4e49 5f5f      	0x5f5f4e494d5f
    1002:	3220                	fld	fs0,96(a2)
    1004:	322e                	fld	ft4,232(sp)
    1006:	3532                	fld	fa0,296(sp)
    1008:	3730                	fld	fa2,104(a4)
    100a:	38353833          	0x38353833
    100e:	3035                	jal	83a <_start-0x7ffff7c6>
    1010:	31303237          	lui	tp,0x31303
    1014:	30333833          	0x30333833
    1018:	3039                	jal	826 <_start-0x7ffff7da>
    101a:	3332                	fld	ft6,296(sp)
    101c:	3732                	fld	fa4,296(sp)
    101e:	3731                	jal	f2a <_start-0x7ffff0d6>
    1020:	34323333          	0x34323333
    1024:	3430                	fld	fa2,104(s0)
    1026:	3630                	fld	fa2,104(a2)
    1028:	2d65                	jal	16e0 <_start-0x7fffe920>
    102a:	46383033          	0x46383033
    102e:	00783233          	sltu	tp,a6,t2
    1032:	5f5f 4c46 3354      	0x33544c465f5f
    1038:	5832                	lw	a6,44(sp)
    103a:	485f 5341 515f      	0x515f5341485f
    1040:	4955                	li	s2,21
    1042:	5445                	li	s0,-15
    1044:	4e5f 4e41 5f5f      	0x5f5f4e414e5f
    104a:	3120                	fld	fs0,96(a0)
    104c:	5f00                	lw	s0,56(a4)
    104e:	445f 4345 4d49      	0x4d494345445f
    1054:	4c41                	li	s8,16
    1056:	445f 4749 5f5f      	0x5f5f4749445f
    105c:	3320                	fld	fs0,96(a4)
    105e:	0036                	c.slli	zero,0xd
    1060:	5f5f 524f 4544      	0x4544524f5f5f
    1066:	5f52                	lw	t5,52(sp)
    1068:	4942                	lw	s2,16(sp)
    106a:	4e455f47          	fmsub.q	ft10,fa0,ft4,fs1,unknown
    106e:	4944                	lw	s1,20(a0)
    1070:	4e41                	li	t3,16
    1072:	5f5f 3420 3233      	0x323334205f5f
    1078:	0031                	c.nop	12
    107a:	5f5f 4843 5241      	0x524148435f5f
    1080:	3631                	jal	b8c <_start-0x7ffff474>
    1082:	545f 5059 5f45      	0x5f455059545f
    1088:	205f 6873 726f      	0x726f6873205f
    108e:	2074                	fld	fa3,192(s0)
    1090:	6e75                	lui	t3,0x1d
    1092:	6e676973          	csrrsi	s2,0x6e6,14
    1096:	6465                	lui	s0,0x19
    1098:	6920                	flw	fs0,80(a0)
    109a:	746e                	flw	fs0,248(sp)
    109c:	5f00                	lw	s0,56(a4)
    109e:	4c5f 4244 5f4c      	0x5f4c42444c5f
    10a4:	494d                	li	s2,19
    10a6:	5f4e                	lw	t5,240(sp)
    10a8:	3031                	jal	8b4 <_start-0x7ffff74c>
    10aa:	455f 5058 5f5f      	0x5f5f5058455f
    10b0:	2820                	fld	fs0,80(s0)
    10b2:	342d                	jal	adc <_start-0x7ffff524>
    10b4:	3339                	jal	dc2 <_start-0x7ffff23e>
    10b6:	2931                	jal	14d2 <_start-0x7fffeb2e>
    10b8:	5f00                	lw	s0,56(a4)
    10ba:	475f 4343 415f      	0x415f4343475f
    10c0:	4f54                	lw	a3,28(a4)
    10c2:	494d                	li	s2,19
    10c4:	4f505f43          	fmadd.q	ft10,ft0,fs5,fs1,unknown
    10c8:	4e49                	li	t3,18
    10ca:	4554                	lw	a3,12(a0)
    10cc:	5f52                	lw	t5,52(sp)
    10ce:	4f4c                	lw	a1,28(a4)
    10d0:	465f4b43          	fmadd.q	fs6,ft10,ft5,fs0,rmm
    10d4:	4552                	lw	a0,20(sp)
    10d6:	2045                	jal	1176 <_start-0x7fffee8a>
    10d8:	0032                	c.slli	zero,0xc
    10da:	5f5f 4e49 4d54      	0x4d544e495f5f
    10e0:	5841                	li	a6,-16
    10e2:	545f 5059 5f45      	0x5f455059545f
    10e8:	205f 6f6c 676e      	0x676e6f6c205f
    10ee:	6c20                	flw	fs0,88(s0)
    10f0:	20676e6f          	jal	t3,772f6 <_start-0x7ff88d0a>
    10f4:	6e69                	lui	t3,0x1a
    10f6:	0074                	addi	a3,sp,12
    10f8:	5f5f 4c46 3154      	0x31544c465f5f
    10fe:	3832                	fld	fa6,296(sp)
    1100:	485f 5341 495f      	0x495f5341485f
    1106:	464e                	lw	a2,208(sp)
    1108:	4e49                	li	t3,18
    110a:	5449                	li	s0,-14
    110c:	5f59                	li	t5,-10
    110e:	205f 0031 5f5f      	0x5f5f0031205f
    1114:	455a4953          	0x455a4953
    1118:	535f464f          	fnmadd.d	fa2,ft10,fs5,fa0,rmm
    111c:	4f48                	lw	a0,28(a4)
    111e:	5452                	lw	s0,52(sp)
    1120:	5f5f 3220 5f00      	0x5f0032205f5f
    1126:	465f 544c 4d5f      	0x4d5f544c465f
    112c:	4e49                	li	t3,18
    112e:	5f5f 3120 312e      	0x312e31205f5f
    1134:	39343537          	lui	a0,0x39343
    1138:	3334                	fld	fa3,96(a4)
    113a:	3035                	jal	966 <_start-0x7ffff69a>
    113c:	3238                	fld	fa4,96(a2)
    113e:	3232                	fld	ft4,296(sp)
    1140:	3738                	fld	fa4,104(a4)
    1142:	3035                	jal	96e <_start-0x7ffff692>
    1144:	38363937          	lui	s2,0x38363
    1148:	35363337          	lui	t1,0x35363
    114c:	32323733          	0x32323733
    1150:	3232                	fld	ft4,296(sp)
    1152:	3534                	fld	fa3,104(a0)
    1154:	3836                	fld	fa6,360(sp)
    1156:	2d65                	jal	180e <_start-0x7fffe7f2>
    1158:	00463833          	sltu	a6,a2,tp
    115c:	5f5f 4c46 3654      	0x36544c465f5f
    1162:	5f34                	lw	a3,120(a4)
    1164:	4148                	lw	a0,4(a0)
    1166:	4e495f53          	0x4e495f53
    116a:	4946                	lw	s2,80(sp)
    116c:	494e                	lw	s2,208(sp)
    116e:	5954                	lw	a3,52(a0)
    1170:	5f5f 3120 5f00      	0x5f0031205f5f
    1176:	475f 4343 415f      	0x415f4343475f
    117c:	4f54                	lw	a3,28(a4)
    117e:	494d                	li	s2,19
    1180:	4c4c5f43          	0x4c4c5f43
    1184:	5f474e4f          	fnmadd.q	ft8,fa4,fs4,fa1,rmm
    1188:	4f4c                	lw	a1,28(a4)
    118a:	465f4b43          	fmadd.q	fs6,ft10,ft5,fs0,rmm
    118e:	4552                	lw	a0,20(sp)
    1190:	2045                	jal	1230 <_start-0x7fffedd0>
    1192:	0031                	c.nop	12
    1194:	5f5f 4e49 3154      	0x31544e495f5f
    119a:	5f36                	lw	t5,108(sp)
    119c:	29632843          	fmadd.s	fa6,ft6,fs6,ft5,rdn
    11a0:	6320                	flw	fs0,64(a4)
    11a2:	5f00                	lw	s0,56(a4)
    11a4:	465f 544c 3436      	0x3436544c465f
    11aa:	5f58                	lw	a4,60(a4)
    11ac:	4148                	lw	a0,4(a0)
    11ae:	4e495f53          	0x4e495f53
    11b2:	4946                	lw	s2,80(sp)
    11b4:	494e                	lw	s2,208(sp)
    11b6:	5954                	lw	a3,52(a0)
    11b8:	5f5f 3120 5f00      	0x5f0031205f5f
    11be:	725f 7369 7663      	0x76637369725f
    11c4:	665f 7173 7472      	0x74727173665f
    11ca:	3120                	fld	fs0,96(a0)
    11cc:	5f00                	lw	s0,56(a4)
    11ce:	465f 544c 4d5f      	0x4d5f544c465f
    11d4:	5841                	li	a6,-16
    11d6:	455f 5058 5f5f      	0x5f5f5058455f
    11dc:	3120                	fld	fs0,96(a0)
    11de:	3832                	fld	fa6,296(sp)
    11e0:	5f00                	lw	s0,56(a4)
    11e2:	445f 4c42 485f      	0x485f4c42445f
    11e8:	5341                	li	t1,-16
    11ea:	445f 4e45 524f      	0x524f4e45445f
    11f0:	5f4d                	li	t5,-13
    11f2:	205f 0031 5f5f      	0x5f5f0031205f
    11f8:	4c46                	lw	s8,80(sp)
    11fa:	3654                	fld	fa3,168(a2)
    11fc:	5834                	lw	a3,112(s0)
    11fe:	445f 4e45 524f      	0x524f4e45445f
    1204:	5f4d                	li	t5,-13
    1206:	494d                	li	s2,19
    1208:	5f4e                	lw	t5,240(sp)
    120a:	205f 2e36 3734      	0x37342e36205f
    1210:	3135                	jal	e3c <_start-0x7ffff1c4>
    1212:	31313537          	lui	a0,0x31313
    1216:	3439                	jal	c24 <_start-0x7ffff3dc>
    1218:	32303833          	0x32303833
    121c:	3135                	jal	e48 <_start-0x7ffff1b8>
    121e:	3031                	jal	a2a <_start-0x7ffff5d6>
    1220:	3239                	jal	b2e <_start-0x7ffff4d2>
    1222:	3434                	fld	fa3,104(s0)
    1224:	35393833          	0x35393833
    1228:	3238                	fld	fa4,96(a2)
    122a:	3732                	fld	fa4,296(sp)
    122c:	3436                	fld	fs0,360(sp)
    122e:	3536                	fld	fa0,360(sp)
    1230:	6535                	lui	a0,0xd
    1232:	342d                	jal	c5c <_start-0x7ffff3a4>
    1234:	3639                	jal	d42 <_start-0x7ffff2be>
    1236:	4636                	lw	a2,76(sp)
    1238:	3436                	fld	fs0,360(sp)
    123a:	0078                	addi	a4,sp,12
    123c:	5f5f 4c46 3154      	0x31544c465f5f
    1242:	3832                	fld	fa6,296(sp)
    1244:	4d5f 4e49 315f      	0x315f4e494d5f
    124a:	5f30                	lw	a2,120(a4)
    124c:	5845                	li	a6,-15
    124e:	5f50                	lw	a2,60(a4)
    1250:	205f 2d28 3934      	0x39342d28205f
    1256:	00293133          	sltu	sp,s2,sp
    125a:	5f5f 4e49 5f54      	0x5f544e495f5f
    1260:	414d                	li	sp,19
    1262:	5f58                	lw	a4,60(a4)
    1264:	205f 7830 6637      	0x66377830205f
    126a:	6666                	flw	fa2,88(sp)
    126c:	6666                	flw	fa2,88(sp)
    126e:	6666                	flw	fa2,88(sp)
    1270:	5f00                	lw	s0,56(a4)
    1272:	465f 544c 3231      	0x3231544c465f
    1278:	5f38                	lw	a4,120(a4)
    127a:	4148                	lw	a0,4(a0)
    127c:	45445f53          	0x45445f53
    1280:	4f4e                	lw	t5,208(sp)
    1282:	4d52                	lw	s10,20(sp)
    1284:	5f5f 3120 5f00      	0x5f0031205f5f
    128a:	535f 4843 5241      	0x52414843535f
    1290:	4d5f 5841 5f5f      	0x5f5f58414d5f
    1296:	3020                	fld	fs0,96(s0)
    1298:	3778                	fld	fa4,232(a4)
    129a:	0066                	c.slli	zero,0x19
    129c:	5f5f 4e47 4355      	0x43554e475f5f
    12a2:	505f 5441 4843      	0x48435441505f
    12a8:	454c                	lw	a1,12(a0)
    12aa:	4556                	lw	a0,84(sp)
    12ac:	5f4c                	lw	a1,60(a4)
    12ae:	205f 0030 5f5f      	0x5f5f0030205f
    12b4:	4c46                	lw	s8,80(sp)
    12b6:	3354                	fld	fa3,160(a4)
    12b8:	5f32                	lw	t5,44(sp)
    12ba:	494d                	li	s2,19
    12bc:	5f4e                	lw	t5,240(sp)
    12be:	3031                	jal	aca <_start-0x7ffff536>
    12c0:	455f 5058 5f5f      	0x5f5f5058455f
    12c6:	2820                	fld	fs0,80(s0)
    12c8:	332d                	jal	ff2 <_start-0x7ffff00e>
    12ca:	5f002937          	lui	s2,0x5f002
    12ce:	725f 7369 7663      	0x76637369725f
    12d4:	635f 3220 3030      	0x30303220635f
    12da:	3030                	fld	fa2,96(s0)
    12dc:	3030                	fld	fa2,96(s0)
    12de:	5f00                	lw	s0,56(a4)
    12e0:	445f 4c42 445f      	0x445f4c42445f
    12e6:	4345                	li	t1,17
    12e8:	4d49                	li	s10,18
    12ea:	4c41                	li	s8,16
    12ec:	445f 4749 5f5f      	0x5f5f4749445f
    12f2:	3120                	fld	fs0,96(a0)
    12f4:	5f5f0037          	lui	zero,0x5f5f0
    12f8:	4244                	lw	s1,4(a2)
    12fa:	5f4c                	lw	a1,60(a4)
    12fc:	4944                	lw	s1,20(a0)
    12fe:	205f5f47          	fmsub.s	ft10,ft10,ft5,ft4,unknown
    1302:	3531                	jal	110e <_start-0x7fffeef2>
    1304:	5f00                	lw	s0,56(a4)
    1306:	465f 544c 445f      	0x445f544c465f
    130c:	4345                	li	t1,17
    130e:	4d49                	li	s10,18
    1310:	4c41                	li	s8,16
    1312:	445f 4749 5f5f      	0x5f5f4749445f
    1318:	3920                	fld	fs0,112(a0)
    131a:	5f00                	lw	s0,56(a4)
    131c:	495f 544e 465f      	0x465f544e495f
    1322:	5341                	li	t1,-16
    1324:	3654                	fld	fa3,168(a2)
    1326:	5f34                	lw	a3,120(a4)
    1328:	5954                	lw	a3,52(a0)
    132a:	4550                	lw	a2,12(a0)
    132c:	5f5f 6c20 6e6f      	0x6e6f6c205f5f
    1332:	6f6c2067          	0x6f6c2067
    1336:	676e                	flw	fa4,216(sp)
    1338:	6920                	flw	fs0,80(a0)
    133a:	746e                	flw	fs0,248(sp)
    133c:	5f00                	lw	s0,56(a4)
    133e:	425f 4749 4547      	0x45474749425f
    1344:	415f5453          	0x415f5453
    1348:	494c                	lw	a1,20(a0)
    134a:	454d4e47          	0x454d4e47
    134e:	544e                	lw	s0,240(sp)
    1350:	5f5f 3120 0036      	0x3631205f5f
    1356:	5f5f 4953 455a      	0x455a49535f5f
    135c:	495f464f          	fnmadd.s	fa2,ft10,fs5,fs1,rmm
    1360:	544e                	lw	s0,240(sp)
    1362:	5f5f 3420 5f00      	0x5f0034205f5f
    1368:	555f 4e49 5f54      	0x5f544e49555f
    136e:	454c                	lw	a1,12(a0)
    1370:	5341                	li	t1,-16
    1372:	3854                	fld	fa3,176(s0)
    1374:	4d5f 5841 5f5f      	0x5f5f58414d5f
    137a:	3020                	fld	fs0,96(s0)
    137c:	6678                	flw	fa4,76(a2)
    137e:	0066                	c.slli	zero,0x19
    1380:	5f5f 4c46 3354      	0x33544c465f5f
    1386:	5832                	lw	a6,44(sp)
    1388:	4d5f 5841 315f      	0x315f58414d5f
    138e:	5f30                	lw	a2,120(a4)
    1390:	5845                	li	a6,-15
    1392:	5f50                	lw	a2,60(a4)
    1394:	205f 3033 0038      	0x383033205f
    139a:	5f5f 6972 6373      	0x637369725f5f
    13a0:	5f76                	lw	t5,124(sp)
    13a2:	706d6f63          	bltu	s10,t1,1ac0 <_start-0x7fffe540>
    13a6:	6572                	flw	fa0,28(sp)
    13a8:	64657373          	csrrci	t1,0x646,10
    13ac:	3120                	fld	fs0,96(a0)
    13ae:	5f00                	lw	s0,56(a4)
    13b0:	495f 544e 3631      	0x3631544e495f
    13b6:	4d5f 5841 5f5f      	0x5f5f58414d5f
    13bc:	3020                	fld	fs0,96(s0)
    13be:	3778                	fld	fa4,232(a4)
    13c0:	6666                	flw	fa2,88(sp)
    13c2:	0066                	c.slli	zero,0x19
    13c4:	5f5f 4347 5f43      	0x5f4343475f5f
    13ca:	4148                	lw	a0,4(a0)
    13cc:	4556                	lw	a0,84(sp)
    13ce:	535f 4e59 5f43      	0x5f434e59535f
    13d4:	504d4f43          	fmadd.s	ft10,fs10,ft4,fa0,rmm
    13d8:	5241                	li	tp,-16
    13da:	5f45                	li	t5,-15
    13dc:	4e41                	li	t3,16
    13de:	5f44                	lw	s1,60(a4)
    13e0:	50415753          	0x50415753
    13e4:	345f 3120 5f00      	0x5f003120345f
    13ea:	465f 544c 3231      	0x3231544c465f
    13f0:	5f38                	lw	a4,120(a4)
    13f2:	414d                	li	sp,19
    13f4:	5f58                	lw	a4,60(a4)
    13f6:	5845                	li	a6,-15
    13f8:	5f50                	lw	a2,60(a4)
    13fa:	205f 3631 3833      	0x38333631205f
    1400:	0034                	addi	a3,sp,8
    1402:	5f5f 4843 5241      	0x524148435f5f
    1408:	555f 534e 4749      	0x4749534e555f
    140e:	454e                	lw	a0,208(sp)
    1410:	5f44                	lw	s1,60(a4)
    1412:	205f 0031 5f5f      	0x5f5f0031205f
    1418:	4c46                	lw	s8,80(sp)
    141a:	3654                	fld	fa3,168(a2)
    141c:	5834                	lw	a3,112(s0)
    141e:	4d5f 5841 5f5f      	0x5f5f58414d5f
    1424:	3120                	fld	fs0,96(a0)
    1426:	312e                	fld	ft2,232(sp)
    1428:	3938                	fld	fa4,112(a0)
    142a:	34313337          	lui	t1,0x34313
    142e:	3539                	jal	123c <_start-0x7fffedc4>
    1430:	32373533          	0x32373533
    1434:	36373133          	0x36373133
    1438:	3035                	jal	c64 <_start-0x7ffff39c>
    143a:	3538                	fld	fa4,104(a0)
    143c:	33393537          	lui	a0,0x33393
    1440:	3632                	fld	fa2,296(sp)
    1442:	3236                	fld	ft4,360(sp)
    1444:	3038                	fld	fa4,96(s0)
    1446:	3730                	fld	fa2,104(a4)
    1448:	3230                	fld	fa2,96(a2)
    144a:	2b65                	jal	1a02 <_start-0x7fffe5fe>
    144c:	3934                	fld	fa3,112(a0)
    144e:	36463233          	0x36463233
    1452:	7834                	flw	fa3,112(s0)
    1454:	5f00                	lw	s0,56(a4)
    1456:	495f 544e 575f      	0x575f544e495f
    145c:	4449                	li	s0,18
    145e:	4854                	lw	a3,20(s0)
    1460:	5f5f 3320 0032      	0x3233205f5f
    1466:	5f5f 4c46 5f54      	0x5f544c465f5f
    146c:	414d                	li	sp,19
    146e:	544e                	lw	s0,240(sp)
    1470:	445f 4749 5f5f      	0x5f5f4749445f
    1476:	3220                	fld	fs0,96(a2)
    1478:	0034                	addi	a3,sp,8
    147a:	5f5f 4e49 4d54      	0x4d544e495f5f
    1480:	5841                	li	a6,-16
    1482:	575f 4449 4854      	0x48544449575f
    1488:	5f5f 3620 0034      	0x3436205f5f
    148e:	5f5f 444c 4c42      	0x4c42444c5f5f
    1494:	495f 5f53 4549      	0x45495f53495f
    149a:	30365f43          	fmadd.s	ft10,fa2,ft3,ft6,unknown
    149e:	3535                	jal	12ca <_start-0x7fffed36>
    14a0:	5f39                	li	t5,-18
    14a2:	205f 0032 5f5f      	0x5f5f0032205f
    14a8:	4c46                	lw	s8,80(sp)
    14aa:	3354                	fld	fa3,160(a4)
    14ac:	5f32                	lw	t5,44(sp)
    14ae:	414d                	li	sp,19
    14b0:	5f58                	lw	a4,60(a4)
    14b2:	3031                	jal	cbe <_start-0x7ffff342>
    14b4:	455f 5058 5f5f      	0x5f5f5058455f
    14ba:	3320                	fld	fs0,96(a4)
    14bc:	0038                	addi	a4,sp,8
    14be:	5f5f 4556 5352      	0x535245565f5f
    14c4:	4f49                	li	t5,18
    14c6:	5f4e                	lw	t5,240(sp)
    14c8:	205f 3122 2e31      	0x2e313122205f
    14ce:	2e31                	jal	17ea <_start-0x7fffe816>
    14d0:	2230                	fld	fa2,64(a2)
    14d2:	5f00                	lw	s0,56(a4)
    14d4:	475f 4343 415f      	0x415f4343475f
    14da:	4f54                	lw	a3,28(a4)
    14dc:	494d                	li	s2,19
    14de:	48535f43          	fmadd.s	ft10,ft6,ft5,fs1,unknown
    14e2:	5f54524f          	fnmadd.q	ft4,fs0,fs5,fa1,unknown
    14e6:	4f4c                	lw	a1,28(a4)
    14e8:	465f4b43          	fmadd.q	fs6,ft10,ft5,fs0,rmm
    14ec:	4552                	lw	a0,20(sp)
    14ee:	2045                	jal	158e <_start-0x7fffea72>
    14f0:	0031                	c.nop	12
    14f2:	5f5f 4955 544e      	0x544e49555f5f
    14f8:	4d5f3233          	0x4d5f3233
    14fc:	5841                	li	a6,-16
    14fe:	5f5f 3020 6678      	0x667830205f5f
    1504:	6666                	flw	fa2,88(sp)
    1506:	6666                	flw	fa2,88(sp)
    1508:	6666                	flw	fa2,88(sp)
    150a:	5566                	lw	a0,120(sp)
    150c:	004c                	addi	a1,sp,4
    150e:	5f5f 4e49 5f54      	0x5f544e495f5f
    1514:	4146                	lw	sp,80(sp)
    1516:	34365453          	0x34365453
    151a:	4d5f 5841 5f5f      	0x5f5f58414d5f
    1520:	3020                	fld	fs0,96(s0)
    1522:	3778                	fld	fa4,232(a4)
    1524:	6666                	flw	fa2,88(sp)
    1526:	6666                	flw	fa2,88(sp)
    1528:	6666                	flw	fa2,88(sp)
    152a:	6666                	flw	fa2,88(sp)
    152c:	6666                	flw	fa2,88(sp)
    152e:	6666                	flw	fa2,88(sp)
    1530:	6666                	flw	fa2,88(sp)
    1532:	4c66                	lw	s8,88(sp)
    1534:	004c                	addi	a1,sp,4
    1536:	5f5f 4c46 3354      	0x33544c465f5f
    153c:	5832                	lw	a6,44(sp)
    153e:	4d5f 4e41 5f54      	0x5f544e414d5f
    1544:	4944                	lw	s1,20(a0)
    1546:	205f5f47          	fmsub.s	ft10,ft10,ft5,ft4,unknown
    154a:	3335                	jal	1276 <_start-0x7fffed8a>
    154c:	5f00                	lw	s0,56(a4)
    154e:	495f 544e 3436      	0x3436544e495f
    1554:	545f 5059 5f45      	0x5f455059545f
    155a:	205f 6f6c 676e      	0x676e6f6c205f
    1560:	6c20                	flw	fs0,88(s0)
    1562:	20676e6f          	jal	t3,77768 <_start-0x7ff88898>
    1566:	6e69                	lui	t3,0x1a
    1568:	0074                	addi	a3,sp,12
    156a:	5f5f 4e49 5f54      	0x5f544e495f5f
    1570:	454c                	lw	a1,12(a0)
    1572:	5341                	li	t1,-16
    1574:	3854                	fld	fa3,176(s0)
    1576:	575f 4449 4854      	0x48544449575f
    157c:	5f5f 3820 5f00      	0x5f0038205f5f
    1582:	555f 4e49 5f54      	0x5f544e49555f
    1588:	454c                	lw	a1,12(a0)
    158a:	5341                	li	t1,-16
    158c:	3154                	fld	fa3,160(a0)
    158e:	5f36                	lw	t5,108(sp)
    1590:	5954                	lw	a3,52(a0)
    1592:	4550                	lw	a2,12(a0)
    1594:	5f5f 7320 6f68      	0x6f6873205f5f
    159a:	7472                	flw	fs0,60(sp)
    159c:	7520                	flw	fs0,104(a0)
    159e:	736e                	flw	ft6,248(sp)
    15a0:	6769                	lui	a4,0x1a
    15a2:	656e                	flw	fa0,216(sp)
    15a4:	2064                	fld	fs1,192(s0)
    15a6:	6e69                	lui	t3,0x1a
    15a8:	0074                	addi	a3,sp,12
    15aa:	5f5f 4244 5f4c      	0x5f4c42445f5f
    15b0:	414d                	li	sp,19
    15b2:	5f58                	lw	a4,60(a4)
    15b4:	5845                	li	a6,-15
    15b6:	5f50                	lw	a2,60(a4)
    15b8:	205f 3031 3432      	0x34323031205f
    15be:	5f00                	lw	s0,56(a4)
    15c0:	465f 544c 3231      	0x3231544c465f
    15c6:	5f38                	lw	a4,120(a4)
    15c8:	5349                	li	t1,-14
    15ca:	495f 4345 365f      	0x365f4345495f
    15d0:	3530                	fld	fa2,104(a0)
    15d2:	3935                	jal	120e <_start-0x7fffedf2>
    15d4:	5f5f 3220 5f00      	0x5f0032205f5f
    15da:	555f 4e49 5054      	0x50544e49555f
    15e0:	5254                	lw	a3,36(a2)
    15e2:	4d5f 5841 5f5f      	0x5f5f58414d5f
    15e8:	3020                	fld	fs0,96(s0)
    15ea:	6678                	flw	fa4,76(a2)
    15ec:	6666                	flw	fa2,88(sp)
    15ee:	6666                	flw	fa2,88(sp)
    15f0:	6666                	flw	fa2,88(sp)
    15f2:	5566                	lw	a0,120(sp)
    15f4:	5f00                	lw	s0,56(a4)
    15f6:	465f 544c 455f      	0x455f544c465f
    15fc:	4156                	lw	sp,84(sp)
    15fe:	5f4c                	lw	a1,60(a4)
    1600:	454d                	li	a0,19
    1602:	4854                	lw	a3,20(s0)
    1604:	5f5f444f          	fnmadd.q	fs0,ft10,fs5,fa1,rmm
    1608:	3020                	fld	fs0,96(s0)
    160a:	5f00                	lw	s0,56(a4)
    160c:	465f 544c 3233      	0x3233544c465f
    1612:	5f58                	lw	a4,60(a4)
    1614:	414d                	li	sp,19
    1616:	5f58                	lw	a4,60(a4)
    1618:	205f 2e31 3937      	0x39372e31205f
    161e:	33393637          	lui	a2,0x33393
    1622:	3331                	jal	132e <_start-0x7fffecd2>
    1624:	3834                	fld	fa3,112(s0)
    1626:	3236                	fld	ft4,360(sp)
    1628:	37353133          	0x37353133
    162c:	3830                	fld	fa2,112(s0)
    162e:	3431                	jal	103a <_start-0x7fffefc6>
    1630:	3235                	jal	f5c <_start-0x7ffff0a4>
    1632:	33323437          	lui	s0,0x33323
    1636:	37313337          	lui	t1,0x37313
    163a:	3430                	fld	fa2,104(s0)
    163c:	65373533          	0x65373533
    1640:	3830332b          	0x3830332b
    1644:	3346                	fld	ft6,112(sp)
    1646:	7832                	flw	fa6,44(sp)
    1648:	5f00                	lw	s0,56(a4)
    164a:	415f 4f54 494d      	0x494d4f54415f
    1650:	43415f43          	fmadd.d	ft10,ft2,fs4,fs0,unknown
    1654:	5551                	li	a0,-12
    1656:	5249                	li	tp,-14
    1658:	2045                	jal	16f8 <_start-0x7fffe908>
    165a:	0032                	c.slli	zero,0xc
    165c:	5f5f 4c46 3654      	0x36544c465f5f
    1662:	5f34                	lw	a3,120(a4)
    1664:	5349                	li	t1,-14
    1666:	495f 4345 365f      	0x365f4345495f
    166c:	3530                	fld	fa2,104(a0)
    166e:	3935                	jal	12aa <_start-0x7fffed56>
    1670:	5f5f 3220 5f00      	0x5f0032205f5f
    1676:	465f 544c 3233      	0x3233544c465f
    167c:	445f 4345 4d49      	0x4d494345445f
    1682:	4c41                	li	s8,16
    1684:	445f 4749 5f5f      	0x5f5f4749445f
    168a:	3920                	fld	fs0,112(a0)
    168c:	5f00                	lw	s0,56(a4)
    168e:	555f 4e49 4d54      	0x4d544e49555f
    1694:	5841                	li	a6,-16
    1696:	4d5f 5841 5f5f      	0x5f5f58414d5f
    169c:	3020                	fld	fs0,96(s0)
    169e:	6678                	flw	fa4,76(a2)
    16a0:	6666                	flw	fa2,88(sp)
    16a2:	6666                	flw	fa2,88(sp)
    16a4:	6666                	flw	fa2,88(sp)
    16a6:	6666                	flw	fa2,88(sp)
    16a8:	6666                	flw	fa2,88(sp)
    16aa:	6666                	flw	fa2,88(sp)
    16ac:	6666                	flw	fa2,88(sp)
    16ae:	5566                	lw	a0,120(sp)
    16b0:	4c4c                	lw	a1,28(s0)
    16b2:	5f00                	lw	s0,56(a4)
    16b4:	475f 4343 415f      	0x415f4343475f
    16ba:	4f54                	lw	a3,28(a4)
    16bc:	494d                	li	s2,19
    16be:	4e495f43          	fmadd.q	ft10,fs2,ft4,fs1,unknown
    16c2:	5f54                	lw	a3,60(a4)
    16c4:	4f4c                	lw	a1,28(a4)
    16c6:	465f4b43          	fmadd.q	fs6,ft10,ft5,fs0,rmm
    16ca:	4552                	lw	a0,20(sp)
    16cc:	2045                	jal	176c <_start-0x7fffe894>
    16ce:	0032                	c.slli	zero,0xc
    16d0:	5f5f 4c46 5f54      	0x5f544c465f5f
    16d6:	414d                	li	sp,19
    16d8:	5f58                	lw	a4,60(a4)
    16da:	205f 2e33 3034      	0x30342e33205f
    16e0:	3832                	fld	fa6,296(sp)
    16e2:	3332                	fld	ft6,296(sp)
    16e4:	3634                	fld	fa3,104(a2)
    16e6:	3336                	fld	ft6,360(sp)
    16e8:	3538                	fld	fa4,104(a0)
    16ea:	3832                	fld	fa6,296(sp)
    16ec:	3538                	fld	fa4,104(a0)
    16ee:	3839                	jal	f0c <_start-0x7ffff0f4>
    16f0:	3131                	jal	12fc <_start-0x7fffed04>
    16f2:	31343037          	lui	zero,0x31343
    16f6:	3338                	fld	fa4,96(a4)
    16f8:	3834                	fld	fa3,112(s0)
    16fa:	3534                	fld	fa3,104(a0)
    16fc:	3631                	jal	1208 <_start-0x7fffedf8>
    16fe:	3239                	jal	100c <_start-0x7fffeff4>
    1700:	6535                	lui	a0,0xd
    1702:	4638332b          	0x4638332b
    1706:	5f00                	lw	s0,56(a4)
    1708:	535f 5a49 4f45      	0x4f455a49535f
    170e:	5f46                	lw	t5,112(sp)
    1710:	41484357          	0x41484357
    1714:	5f52                	lw	t5,52(sp)
    1716:	5f54                	lw	a3,60(a4)
    1718:	205f 0034 5f5f      	0x5f5f0034205f
    171e:	4c46                	lw	s8,80(sp)
    1720:	3354                	fld	fa3,160(a4)
    1722:	5832                	lw	a6,44(sp)
    1724:	445f 4345 4d49      	0x4d494345445f
    172a:	4c41                	li	s8,16
    172c:	445f 4749 5f5f      	0x5f5f4749445f
    1732:	3120                	fld	fs0,96(a0)
    1734:	5f5f0037          	lui	zero,0x5f5f0
    1738:	5f434347          	fmsub.q	ft6,ft6,fs4,fa1,rmm
    173c:	5441                	li	s0,-16
    173e:	43494d4f          	fnmadd.d	fs10,fs2,fs4,fs0,rmm
    1742:	435f 4148 5f52      	0x5f524148435f
    1748:	4f4c                	lw	a1,28(a4)
    174a:	465f4b43          	fmadd.q	fs6,ft10,ft5,fs0,rmm
    174e:	4552                	lw	a0,20(sp)
    1750:	2045                	jal	17f0 <_start-0x7fffe810>
    1752:	0031                	c.nop	12
    1754:	5f5f 4c46 3354      	0x33544c465f5f
    175a:	5f32                	lw	t5,44(sp)
    175c:	5349                	li	t1,-14
    175e:	495f 4345 365f      	0x365f4345495f
    1764:	3530                	fld	fa2,104(a0)
    1766:	3935                	jal	13a2 <_start-0x7fffec5e>
    1768:	5f5f 3220 5f00      	0x5f0032205f5f
    176e:	555f 4e49 5f54      	0x5f544e49555f
    1774:	4146                	lw	sp,80(sp)
    1776:	32335453          	0x32335453
    177a:	545f 5059 5f45      	0x5f455059545f
    1780:	205f 6e75 6973      	0x69736e75205f
    1786:	64656e67          	0x64656e67
    178a:	6920                	flw	fs0,80(a0)
    178c:	746e                	flw	fs0,248(sp)
    178e:	5f00                	lw	s0,56(a4)
    1790:	725f 7369 7663      	0x76637369725f
    1796:	645f 7669 3120      	0x31207669645f
    179c:	6600                	flw	fs0,8(a2)
    179e:	6f6c                	flw	fa1,92(a4)
    17a0:	7461                	lui	s0,0xffff8
    17a2:	5f00                	lw	s0,56(a4)
    17a4:	465f 544c 3233      	0x3233544c465f
    17aa:	5f58                	lw	a4,60(a4)
    17ac:	4148                	lw	a0,4(a0)
    17ae:	4e495f53          	0x4e495f53
    17b2:	4946                	lw	s2,80(sp)
    17b4:	494e                	lw	s2,208(sp)
    17b6:	5954                	lw	a3,52(a0)
    17b8:	5f5f 3120 5f00      	0x5f0031205f5f
    17be:	555f 4e49 3354      	0x33544e49555f
    17c4:	5f32                	lw	t5,44(sp)
    17c6:	5954                	lw	a3,52(a0)
    17c8:	4550                	lw	a2,12(a0)
    17ca:	5f5f 6c20 6e6f      	0x6e6f6c205f5f
    17d0:	6e752067          	0x6e752067
    17d4:	6e676973          	csrrsi	s2,0x6e6,14
    17d8:	6465                	lui	s0,0x19
    17da:	6920                	flw	fs0,80(a0)
    17dc:	746e                	flw	fs0,248(sp)
    17de:	5f00                	lw	s0,56(a4)
    17e0:	555f 4e49 3354      	0x33544e49555f
    17e6:	5f32                	lw	t5,44(sp)
    17e8:	29632843          	fmadd.s	fa6,ft6,fs6,ft5,rdn
    17ec:	6320                	flw	fs0,64(a4)
    17ee:	2320                	fld	fs0,64(a4)
    17f0:	4c552023          	sw	t0,1216(a0) # d4c0 <_start-0x7fff2b40>
    17f4:	5f00                	lw	s0,56(a4)
    17f6:	495f 544e 4c5f      	0x4c5f544e495f
    17fc:	4145                	li	sp,17
    17fe:	32335453          	0x32335453
    1802:	545f 5059 5f45      	0x5f455059545f
    1808:	205f 6f6c 676e      	0x676e6f6c205f
    180e:	6920                	flw	fs0,80(a0)
    1810:	746e                	flw	fs0,248(sp)
    1812:	5f00                	lw	s0,56(a4)
    1814:	495f 544e 4c5f      	0x4c5f544e495f
    181a:	4145                	li	sp,17
    181c:	36315453          	0x36315453
    1820:	4d5f 5841 5f5f      	0x5f5f58414d5f
    1826:	3020                	fld	fs0,96(s0)
    1828:	3778                	fld	fa4,232(a4)
    182a:	6666                	flw	fa2,88(sp)
    182c:	0066                	c.slli	zero,0x19
    182e:	5f5f 4c46 3154      	0x31544c465f5f
    1834:	3832                	fld	fa6,296(sp)
    1836:	485f 5341 515f      	0x515f5341485f
    183c:	4955                	li	s2,21
    183e:	5445                	li	s0,-15
    1840:	4e5f 4e41 5f5f      	0x5f5f4e414e5f
    1846:	3120                	fld	fs0,96(a0)
    1848:	5f00                	lw	s0,56(a4)
    184a:	495f 544e 4c5f      	0x4c5f544e495f
    1850:	4145                	li	sp,17
    1852:	34365453          	0x34365453
    1856:	4d5f 5841 5f5f      	0x5f5f58414d5f
    185c:	3020                	fld	fs0,96(s0)
    185e:	3778                	fld	fa4,232(a4)
    1860:	6666                	flw	fa2,88(sp)
    1862:	6666                	flw	fa2,88(sp)
    1864:	6666                	flw	fa2,88(sp)
    1866:	6666                	flw	fa2,88(sp)
    1868:	6666                	flw	fa2,88(sp)
    186a:	6666                	flw	fa2,88(sp)
    186c:	6666                	flw	fa2,88(sp)
    186e:	4c66                	lw	s8,88(sp)
    1870:	004c                	addi	a1,sp,4
    1872:	5f5f 5046 465f      	0x465f50465f5f
    1878:	5341                	li	t1,-16
    187a:	5f54                	lw	a3,60(a4)
    187c:	4d46                	lw	s10,80(sp)
    187e:	4641                	li	a2,16
    1880:	31203233          	0x31203233
    1884:	5f00                	lw	s0,56(a4)
    1886:	575f 4e49 5f54      	0x5f544e49575f
    188c:	54444957          	0x54444957
    1890:	5f48                	lw	a0,60(a4)
    1892:	205f 3233 5f00      	0x5f003233205f
    1898:	465f 544c 3231      	0x3231544c465f
    189e:	5f38                	lw	a4,120(a4)
    18a0:	4544                	lw	s1,12(a0)
    18a2:	414d4943          	fmadd.s	fs2,fs10,fs4,fs0,rmm
    18a6:	5f4c                	lw	a1,60(a4)
    18a8:	4944                	lw	s1,20(a0)
    18aa:	205f5f47          	fmsub.s	ft10,ft10,ft5,ft4,unknown
    18ae:	5f003633          	0x5f003633
    18b2:	575f 4843 5241      	0x52414843575f
    18b8:	4d5f 4e49 5f5f      	0x5f5f4e494d5f
    18be:	2820                	fld	fs0,80(s0)
    18c0:	5f2d                	li	t5,-21
    18c2:	575f 4843 5241      	0x52414843575f
    18c8:	4d5f 5841 5f5f      	0x5f5f58414d5f
    18ce:	2d20                	fld	fs0,88(a0)
    18d0:	3120                	fld	fs0,96(a0)
    18d2:	0029                	c.nop	10
    18d4:	5f5f 4347 5f43      	0x5f4343475f5f
    18da:	5441                	li	s0,-16
    18dc:	43494d4f          	fnmadd.d	fs10,fs2,fs4,fs0,rmm
    18e0:	435f 4148 3152      	0x31524148435f
    18e6:	5f36                	lw	t5,108(sp)
    18e8:	5f54                	lw	a3,60(a4)
    18ea:	4f4c                	lw	a1,28(a4)
    18ec:	465f4b43          	fmadd.q	fs6,ft10,ft5,fs0,rmm
    18f0:	4552                	lw	a0,20(sp)
    18f2:	2045                	jal	1992 <_start-0x7fffe66e>
    18f4:	0031                	c.nop	12
    18f6:	5f5f 6972 6373      	0x637369725f5f
    18fc:	5f76                	lw	t5,124(sp)
    18fe:	2069                	jal	1988 <_start-0x7fffe678>
    1900:	3032                	fld	ft0,296(sp)
    1902:	3030                	fld	fa2,96(s0)
    1904:	3030                	fld	fa2,96(s0)
    1906:	0030                	addi	a2,sp,8
    1908:	5f5f 5046 465f      	0x465f50465f5f
    190e:	5341                	li	t1,-16
    1910:	5f54                	lw	a3,60(a4)
    1912:	4d46                	lw	s10,80(sp)
    1914:	2041                	jal	1994 <_start-0x7fffe66c>
    1916:	0031                	c.nop	12
    1918:	5f5f 4c46 3354      	0x33544c465f5f
    191e:	5832                	lw	a6,44(sp)
    1920:	445f 4749 5f5f      	0x5f5f4749445f
    1926:	3120                	fld	fs0,96(a0)
    1928:	0035                	c.nop	13
    192a:	5f5f 4c46 3354      	0x33544c465f5f
    1930:	5832                	lw	a6,44(sp)
    1932:	485f 5341 445f      	0x445f5341485f
    1938:	4e45                	li	t3,17
    193a:	5f4d524f          	fnmadd.q	ft4,fs10,fs4,fa1,unknown
    193e:	205f 0031 5f5f      	0x5f5f0031205f
    1944:	4e49                	li	t3,18
    1946:	4d54                	lw	a3,28(a0)
    1948:	5841                	li	a6,-16
    194a:	435f 6328 2029      	0x20296328435f
    1950:	23232063          	0x23232063
    1954:	4c20                	lw	s0,88(s0)
    1956:	004c                	addi	a1,sp,4
    1958:	5f5f 4c46 5f54      	0x5f544c465f5f
    195e:	4f4e                	lw	t5,208(sp)
    1960:	4d52                	lw	s10,20(sp)
    1962:	4d5f 5841 5f5f      	0x5f5f58414d5f
    1968:	3320                	fld	fs0,96(a4)
    196a:	342e                	fld	fs0,232(sp)
    196c:	3230                	fld	fa2,96(a2)
    196e:	3238                	fld	fa4,96(a2)
    1970:	36363433          	0x36363433
    1974:	32353833          	0x32353833
    1978:	3838                	fld	fa4,112(s0)
    197a:	3935                	jal	15b6 <_start-0x7fffea4a>
    197c:	3138                	fld	fa4,96(a0)
    197e:	3731                	jal	188a <_start-0x7fffe776>
    1980:	3430                	fld	fa2,104(s0)
    1982:	3831                	jal	119e <_start-0x7fffee62>
    1984:	34383433          	0x34383433
    1988:	3135                	jal	15b4 <_start-0x7fffea4c>
    198a:	3936                	fld	fs2,360(sp)
    198c:	3532                	fld	fa0,296(sp)
    198e:	2b65                	jal	1f46 <_start-0x7fffe0ba>
    1990:	00463833          	sltu	a6,a2,tp
    1994:	5f5f 6972 6373      	0x637369725f5f
    199a:	5f76                	lw	t5,124(sp)
    199c:	756d                	lui	a0,0xffffb
    199e:	206c                	fld	fa1,192(s0)
    19a0:	0031                	c.nop	12
    19a2:	5f5f 5450 4452      	0x445254505f5f
    19a8:	4649                	li	a2,18
    19aa:	5f46                	lw	t5,112(sp)
    19ac:	414d                	li	sp,19
    19ae:	5f58                	lw	a4,60(a4)
    19b0:	205f 7830 6637      	0x66377830205f
    19b6:	6666                	flw	fa2,88(sp)
    19b8:	6666                	flw	fa2,88(sp)
    19ba:	6666                	flw	fa2,88(sp)
    19bc:	5f00                	lw	s0,56(a4)
    19be:	465f 544c 3436      	0x3436544c465f
    19c4:	4d5f 4e49 315f      	0x315f4e494d5f
    19ca:	5f30                	lw	a2,120(a4)
    19cc:	5845                	li	a6,-15
    19ce:	5f50                	lw	a2,60(a4)
    19d0:	205f 2d28 3033      	0x30332d28205f
    19d6:	5f002937          	lui	s2,0x5f002
    19da:	495f 544e 4c5f      	0x4c5f544e495f
    19e0:	4145                	li	sp,17
    19e2:	5f385453          	0x5f385453
    19e6:	5954                	lw	a3,52(a0)
    19e8:	4550                	lw	a2,12(a0)
    19ea:	5f5f 7320 6769      	0x676973205f5f
    19f0:	656e                	flw	fa0,216(sp)
    19f2:	2064                	fld	fs1,192(s0)
    19f4:	72616863          	bltu	sp,t1,2124 <_start-0x7fffdedc>
    19f8:	5f00                	lw	s0,56(a4)
    19fa:	555f 4e49 3154      	0x31544e49555f
    1a00:	5f36                	lw	t5,108(sp)
    1a02:	29632843          	fmadd.s	fa6,ft6,fs6,ft5,rdn
    1a06:	6320                	flw	fs0,64(a4)
    1a08:	5f00                	lw	s0,56(a4)
    1a0a:	535f 5248 5f54      	0x5f545248535f
    1a10:	414d                	li	sp,19
    1a12:	5f58                	lw	a4,60(a4)
    1a14:	205f 7830 6637      	0x66377830205f
    1a1a:	6666                	flw	fa2,88(sp)
    1a1c:	5f00                	lw	s0,56(a4)
    1a1e:	535f 5a49 4f45      	0x4f455a49535f
    1a24:	5f46                	lw	t5,112(sp)
    1a26:	4c46                	lw	s8,80(sp)
    1a28:	5f54414f          	fnmadd.q	ft2,fs0,fs5,fa1,rmm
    1a2c:	205f 0034 5f5f      	0x5f5f0034205f
    1a32:	41484357          	0x41484357
    1a36:	5f52                	lw	t5,52(sp)
    1a38:	414d                	li	sp,19
    1a3a:	5f58                	lw	a4,60(a4)
    1a3c:	205f 7830 6637      	0x66377830205f
    1a42:	6666                	flw	fa2,88(sp)
    1a44:	6666                	flw	fa2,88(sp)
    1a46:	6666                	flw	fa2,88(sp)
    1a48:	5f00                	lw	s0,56(a4)
    1a4a:	465f 544c 3231      	0x3231544c465f
    1a50:	5f38                	lw	a4,120(a4)
    1a52:	4544                	lw	s1,12(a0)
    1a54:	4f4e                	lw	t5,208(sp)
    1a56:	4d52                	lw	s10,20(sp)
    1a58:	4d5f 4e49 5f5f      	0x5f5f4e494d5f
    1a5e:	3620                	fld	fs0,104(a2)
    1a60:	342e                	fld	fs0,232(sp)
    1a62:	37313537          	lui	a0,0x37313
    1a66:	3135                	jal	1692 <_start-0x7fffe96e>
    1a68:	3931                	jal	1684 <_start-0x7fffe97c>
    1a6a:	3334                	fld	fa3,96(a4)
    1a6c:	3038                	fld	fa4,96(s0)
    1a6e:	3532                	fld	fa0,296(sp)
    1a70:	3131                	jal	167c <_start-0x7fffe984>
    1a72:	3930                	fld	fa2,112(a0)
    1a74:	3432                	fld	fs0,296(sp)
    1a76:	3334                	fld	fa3,96(a4)
    1a78:	3938                	fld	fa4,112(a0)
    1a7a:	3835                	jal	12b6 <_start-0x7fffed4a>
    1a7c:	3232                	fld	ft4,296(sp)
    1a7e:	36343637          	lui	a2,0x36343
    1a82:	3535                	jal	18ae <_start-0x7fffe752>
    1a84:	2d65                	jal	213c <_start-0x7fffdec4>
    1a86:	3934                	fld	fa3,112(a0)
    1a88:	3636                	fld	fa2,360(sp)
    1a8a:	3146                	fld	ft2,112(sp)
    1a8c:	3832                	fld	fa6,296(sp)
    1a8e:	5f00                	lw	s0,56(a4)
    1a90:	535f 4454 5f43      	0x5f434454535f
    1a96:	205f 0031 5f5f      	0x5f5f0031205f
    1a9c:	4544524f          	0x4544524f
    1aa0:	5f52                	lw	t5,52(sp)
    1aa2:	4450                	lw	a2,12(s0)
    1aa4:	5f50                	lw	a2,60(a4)
    1aa6:	4e45                	li	t3,17
    1aa8:	4944                	lw	s1,20(a0)
    1aaa:	4e41                	li	t3,16
    1aac:	5f5f 3320 3134      	0x313433205f5f
    1ab2:	0032                	c.slli	zero,0xc
    1ab4:	5f5f 4c46 3654      	0x36544c465f5f
    1aba:	5f34                	lw	a3,120(a4)
    1abc:	4f4e                	lw	t5,208(sp)
    1abe:	4d52                	lw	s10,20(sp)
    1ac0:	4d5f 5841 5f5f      	0x5f5f58414d5f
    1ac6:	3120                	fld	fs0,96(a0)
    1ac8:	372e                	fld	fa4,232(sp)
    1aca:	3739                	jal	19d8 <_start-0x7fffe628>
    1acc:	3936                	fld	fs2,360(sp)
    1ace:	34333133          	0x34333133
    1ad2:	3638                	fld	fa4,104(a2)
    1ad4:	3332                	fld	ft6,296(sp)
    1ad6:	3531                	jal	18e2 <_start-0x7fffe71e>
    1ad8:	31383037          	lui	zero,0x31383
    1adc:	3534                	fld	fa3,104(a0)
    1ade:	3732                	fld	fa4,296(sp)
    1ae0:	3234                	fld	fa3,96(a2)
    1ae2:	31333733          	0x31333733
    1ae6:	33343037          	lui	zero,0x33343
    1aea:	3735                	jal	1a16 <_start-0x7fffe5ea>
    1aec:	2b65                	jal	20a4 <_start-0x7fffdf5c>
    1aee:	46383033          	0x46383033
    1af2:	3436                	fld	fs0,360(sp)
    1af4:	5f00                	lw	s0,56(a4)
    1af6:	4f5f 4452 5245      	0x524544524f5f
    1afc:	4c5f 5449 4c54      	0x4c5454494c5f
    1b02:	5f45                	li	t5,-15
    1b04:	4e45                	li	t3,17
    1b06:	4944                	lw	s1,20(a0)
    1b08:	4e41                	li	t3,16
    1b0a:	5f5f 3120 3332      	0x333231205f5f
    1b10:	0034                	addi	a3,sp,8
    1b12:	5f5f 4957 544e      	0x544e49575f5f
    1b18:	545f 5059 5f45      	0x5f455059545f
    1b1e:	205f 6e75 6973      	0x69736e75205f
    1b24:	64656e67          	0x64656e67
    1b28:	6920                	flw	fs0,80(a0)
    1b2a:	746e                	flw	fs0,248(sp)
    1b2c:	5f00                	lw	s0,56(a4)
    1b2e:	495f 544e 4c5f      	0x4c5f544e495f
    1b34:	4145                	li	sp,17
    1b36:	34365453          	0x34365453
    1b3a:	545f 5059 5f45      	0x5f455059545f
    1b40:	205f 6f6c 676e      	0x676e6f6c205f
    1b46:	6c20                	flw	fs0,88(s0)
    1b48:	20676e6f          	jal	t3,77d4e <_start-0x7ff882b2>
    1b4c:	6e69                	lui	t3,0x1a
    1b4e:	0074                	addi	a3,sp,12
    1b50:	5f5f 5441 4d4f      	0x4d4f54415f5f
    1b56:	4349                	li	t1,18
    1b58:	525f 4c45 5841      	0x58414c45525f
    1b5e:	4445                	li	s0,17
    1b60:	3020                	fld	fs0,96(s0)
    1b62:	5f00                	lw	s0,56(a4)
    1b64:	725f 7369 7663      	0x76637369725f
    1b6a:	615f 6f74 696d      	0x696d6f74615f
    1b70:	00312063          	0x312063
    1b74:	5f5f 4e49 5f54      	0x5f544e495f5f
    1b7a:	454c                	lw	a1,12(a0)
    1b7c:	5341                	li	t1,-16
    1b7e:	3354                	fld	fa3,160(a4)
    1b80:	5f32                	lw	t5,44(sp)
    1b82:	414d                	li	sp,19
    1b84:	5f58                	lw	a4,60(a4)
    1b86:	205f 7830 6637      	0x66377830205f
    1b8c:	6666                	flw	fa2,88(sp)
    1b8e:	6666                	flw	fa2,88(sp)
    1b90:	6666                	flw	fa2,88(sp)
    1b92:	004c                	addi	a1,sp,4
    1b94:	5f5f 6972 6373      	0x637369725f5f
    1b9a:	5f76                	lw	t5,124(sp)
    1b9c:	2064                	fld	fs1,192(s0)
    1b9e:	3032                	fld	ft0,296(sp)
    1ba0:	3030                	fld	fa2,96(s0)
    1ba2:	3030                	fld	fa2,96(s0)
    1ba4:	0030                	addi	a2,sp,8
    1ba6:	5f5f 6972 6373      	0x637369725f5f
    1bac:	5f76                	lw	t5,124(sp)
    1bae:	697a                	flw	fs2,156(sp)
    1bb0:	6566                	flw	fa0,88(sp)
    1bb2:	636e                	flw	ft6,216(sp)
    1bb4:	6965                	lui	s2,0x19
    1bb6:	3220                	fld	fs0,96(a2)
    1bb8:	3030                	fld	fa2,96(s0)
    1bba:	3030                	fld	fa2,96(s0)
    1bbc:	3030                	fld	fa2,96(s0)
    1bbe:	5f00                	lw	s0,56(a4)
    1bc0:	475f 4343 495f      	0x495f4343475f
    1bc6:	4345                	li	t1,17
    1bc8:	355f 3935 3220      	0x32203935355f
    1bce:	5f00                	lw	s0,56(a4)
    1bd0:	465f 544c 3233      	0x3233544c465f
    1bd6:	5f58                	lw	a4,60(a4)
    1bd8:	4544                	lw	s1,12(a0)
    1bda:	4f4e                	lw	t5,208(sp)
    1bdc:	4d52                	lw	s10,20(sp)
    1bde:	4d5f 4e49 5f5f      	0x5f5f4e494d5f
    1be4:	3420                	fld	fs0,104(s0)
    1be6:	392e                	fld	fs2,232(sp)
    1be8:	3034                	fld	fa3,96(s0)
    1bea:	3536                	fld	fa0,360(sp)
    1bec:	3436                	fld	fs0,360(sp)
    1bee:	3835                	jal	142a <_start-0x7fffebd6>
    1bf0:	3134                	fld	fa3,96(a0)
    1bf2:	3432                	fld	fs0,296(sp)
    1bf4:	3536                	fld	fa0,360(sp)
    1bf6:	3434                	fld	fa3,104(s0)
    1bf8:	3731                	jal	1b04 <_start-0x7fffe4fc>
    1bfa:	3536                	fld	fa0,360(sp)
    1bfc:	3836                	fld	fa6,360(sp)
    1bfe:	38323937          	lui	s2,0x38323
    1c02:	3836                	fld	fa6,360(sp)
    1c04:	3232                	fld	ft4,296(sp)
    1c06:	3331                	jal	1912 <_start-0x7fffe6ee>
    1c08:	2d653237          	lui	tp,0x2d653
    1c0c:	46343233          	0x46343233
    1c10:	00783233          	sltu	tp,a6,t2
    1c14:	5f5f 4c46 3654      	0x36544c465f5f
    1c1a:	5834                	lw	a3,112(s0)
    1c1c:	4d5f 4e41 5f54      	0x5f544e414d5f
    1c22:	4944                	lw	s1,20(a0)
    1c24:	205f5f47          	fmsub.s	ft10,ft10,ft5,ft4,unknown
    1c28:	3131                	jal	1834 <_start-0x7fffe7cc>
    1c2a:	5f5f0033          	0x5f5f0033
    1c2e:	4c46                	lw	s8,80(sp)
    1c30:	3654                	fld	fa3,168(a2)
    1c32:	5834                	lw	a3,112(s0)
    1c34:	495f 5f53 4549      	0x45495f53495f
    1c3a:	30365f43          	fmadd.s	ft10,fa2,ft3,ft6,unknown
    1c3e:	3535                	jal	1a6a <_start-0x7fffe596>
    1c40:	5f39                	li	t5,-18
    1c42:	205f 0032 5f5f      	0x5f5f0032205f
    1c48:	4c46                	lw	s8,80(sp)
    1c4a:	3654                	fld	fa3,168(a2)
    1c4c:	5834                	lw	a3,112(s0)
    1c4e:	485f 5341 515f      	0x515f5341485f
    1c54:	4955                	li	s2,21
    1c56:	5445                	li	s0,-15
    1c58:	4e5f 4e41 5f5f      	0x5f5f4e414e5f
    1c5e:	3120                	fld	fs0,96(a0)
    1c60:	5f00                	lw	s0,56(a4)
    1c62:	4c5f 4244 5f4c      	0x5f4c42444c5f
    1c68:	4148                	lw	a0,4(a0)
    1c6a:	55515f53          	0x55515f53
    1c6e:	4549                	li	a0,18
    1c70:	5f54                	lw	a3,60(a4)
    1c72:	414e                	lw	sp,208(sp)
    1c74:	5f4e                	lw	t5,240(sp)
    1c76:	205f 0031 5f5f      	0x5f5f0031205f
    1c7c:	5f474953          	0x5f474953
    1c80:	5441                	li	s0,-16
    1c82:	43494d4f          	fnmadd.d	fs10,fs2,fs4,fs0,rmm
    1c86:	4d5f 5841 5f5f      	0x5f5f58414d5f
    1c8c:	3020                	fld	fs0,96(s0)
    1c8e:	3778                	fld	fa4,232(a4)
    1c90:	6666                	flw	fa2,88(sp)
    1c92:	6666                	flw	fa2,88(sp)
    1c94:	6666                	flw	fa2,88(sp)
    1c96:	0066                	c.slli	zero,0x19
    1c98:	5f5f 4c46 3154      	0x31544c465f5f
    1c9e:	3832                	fld	fa6,296(sp)
    1ca0:	4d5f 4e41 5f54      	0x5f544e414d5f
    1ca6:	4944                	lw	s1,20(a0)
    1ca8:	205f5f47          	fmsub.s	ft10,ft10,ft5,ft4,unknown
    1cac:	3131                	jal	18b8 <_start-0x7fffe748>
    1cae:	5f5f0033          	0x5f5f0033
    1cb2:	4955                	li	s2,21
    1cb4:	544e                	lw	s0,240(sp)
    1cb6:	5450                	lw	a2,44(s0)
    1cb8:	5f52                	lw	t5,52(sp)
    1cba:	5954                	lw	a3,52(a0)
    1cbc:	4550                	lw	a2,12(a0)
    1cbe:	5f5f 7520 736e      	0x736e75205f5f
    1cc4:	6769                	lui	a4,0x1a
    1cc6:	656e                	flw	fa0,216(sp)
    1cc8:	2064                	fld	fs1,192(s0)
    1cca:	6e69                	lui	t3,0x1a
    1ccc:	0074                	addi	a3,sp,12
    1cce:	5f5f 444c 4c42      	0x4c42444c5f5f
    1cd4:	4e5f 524f 5f4d      	0x5f4d524f4e5f
    1cda:	414d                	li	sp,19
    1cdc:	5f58                	lw	a4,60(a4)
    1cde:	205f 2e31 3831      	0x38312e31205f
    1ce4:	3739                	jal	1bf2 <_start-0x7fffe40e>
    1ce6:	39343133          	0x39343133
    1cea:	3335                	jal	1a16 <_start-0x7fffe5ea>
    1cec:	3735                	jal	1c18 <_start-0x7fffe3e8>
    1cee:	3332                	fld	ft6,296(sp)
    1cf0:	3731                	jal	1bfc <_start-0x7fffe404>
    1cf2:	3536                	fld	fa0,360(sp)
    1cf4:	3830                	fld	fa2,112(s0)
    1cf6:	3735                	jal	1c22 <_start-0x7fffe3de>
    1cf8:	3935                	jal	1934 <_start-0x7fffe6cc>
    1cfa:	36363233          	0x36363233
    1cfe:	3832                	fld	fa6,296(sp)
    1d00:	3030                	fld	fa2,96(s0)
    1d02:	65323037          	lui	zero,0x65323
    1d06:	3339342b          	0x3339342b
    1d0a:	4c32                	lw	s8,12(sp)
    1d0c:	5f00                	lw	s0,56(a4)
    1d0e:	555f 4e49 3654      	0x36544e49555f
    1d14:	5f34                	lw	a3,120(a4)
    1d16:	29632843          	fmadd.s	fa6,ft6,fs6,ft5,rdn
    1d1a:	6320                	flw	fs0,64(a4)
    1d1c:	2320                	fld	fs0,64(a4)
    1d1e:	4c552023          	sw	t0,1216(a0) # 373134c0 <_start-0x48cecb40>
    1d22:	004c                	addi	a1,sp,4
    1d24:	5f5f 4c46 3654      	0x36544c465f5f
    1d2a:	5f34                	lw	a3,120(a4)
    1d2c:	414d                	li	sp,19
    1d2e:	544e                	lw	s0,240(sp)
    1d30:	445f 4749 5f5f      	0x5f5f4749445f
    1d36:	3520                	fld	fs0,104(a0)
    1d38:	5f5f0033          	0x5f5f0033
    1d3c:	4c46                	lw	s8,80(sp)
    1d3e:	5f54                	lw	a3,60(a4)
    1d40:	4148                	lw	a0,4(a0)
    1d42:	4e495f53          	0x4e495f53
    1d46:	4946                	lw	s2,80(sp)
    1d48:	494e                	lw	s2,208(sp)
    1d4a:	5954                	lw	a3,52(a0)
    1d4c:	5f5f 3120 5f00      	0x5f0031205f5f
    1d52:	465f 544c 3436      	0x3436544c465f
    1d58:	445f 4345 4d49      	0x4d494345445f
    1d5e:	4c41                	li	s8,16
    1d60:	445f 4749 5f5f      	0x5f5f4749445f
    1d66:	3120                	fld	fs0,96(a0)
    1d68:	5f5f0037          	lui	zero,0x5f5f0
    1d6c:	43554e47          	fmsub.d	ft8,fa0,fs5,fs0,rmm
    1d70:	575f 4449 5f45      	0x5f454449575f
    1d76:	5845                	li	a6,-15
    1d78:	4345                	li	t1,17
    1d7a:	5455                	li	s0,-11
    1d7c:	4f49                	li	t5,18
    1d7e:	5f4e                	lw	t5,240(sp)
    1d80:	52414843          	fmadd.d	fa6,ft2,ft4,fa0,rmm
    1d84:	5f544553          	0x5f544553
    1d88:	414e                	lw	sp,208(sp)
    1d8a:	454d                	li	a0,19
    1d8c:	2220                	fld	fs0,64(a2)
    1d8e:	5455                	li	s0,-11
    1d90:	2d46                	fld	fs10,80(sp)
    1d92:	454c3233          	0x454c3233
    1d96:	0022                	c.slli	zero,0x8
    1d98:	5f5f 4f4c 474e      	0x474e4f4c5f5f
    1d9e:	4c5f 4e4f 5f47      	0x5f474e4f4c5f
    1da4:	54444957          	0x54444957
    1da8:	5f48                	lw	a0,60(a4)
    1daa:	205f 3436 5f00      	0x5f003436205f
    1db0:	465f 544c 3436      	0x3436544c465f
    1db6:	445f 4e45 524f      	0x524f4e45445f
    1dbc:	5f4d                	li	t5,-13
    1dbe:	494d                	li	s2,19
    1dc0:	5f4e                	lw	t5,240(sp)
    1dc2:	205f 2e34 3439      	0x34392e34205f
    1dc8:	3630                	fld	fa2,104(a2)
    1dca:	3635                	jal	18f6 <_start-0x7fffe70a>
    1dcc:	3534                	fld	fa3,104(a0)
    1dce:	3438                	fld	fa4,104(s0)
    1dd0:	3231                	jal	16dc <_start-0x7fffe924>
    1dd2:	3634                	fld	fa3,104(a2)
    1dd4:	3435                	jal	1800 <_start-0x7fffe800>
    1dd6:	3134                	fld	fa3,96(a0)
    1dd8:	36353637          	lui	a2,0x36353
    1ddc:	3738                	fld	fa4,104(a4)
    1dde:	3239                	jal	16ec <_start-0x7fffe914>
    1de0:	3638                	fld	fa4,104(a2)
    1de2:	3238                	fld	fa4,96(a2)
    1de4:	3132                	fld	ft2,296(sp)
    1de6:	65323733          	0x65323733
    1dea:	332d                	jal	1b14 <_start-0x7fffe4ec>
    1dec:	3432                	fld	fs0,296(sp)
    1dee:	3646                	fld	fa2,112(sp)
    1df0:	0034                	addi	a3,sp,8
    1df2:	5f5f 6972 6373      	0x637369725f5f
    1df8:	5f76                	lw	t5,124(sp)
    1dfa:	2066                	fld	ft0,88(sp)
    1dfc:	3032                	fld	ft0,296(sp)
    1dfe:	3030                	fld	fa2,96(s0)
    1e00:	3030                	fld	fa2,96(s0)
    1e02:	0030                	addi	a2,sp,8
    1e04:	5f5f 4e49 3154      	0x31544e495f5f
    1e0a:	5f36                	lw	t5,108(sp)
    1e0c:	5954                	lw	a3,52(a0)
    1e0e:	4550                	lw	a2,12(a0)
    1e10:	5f5f 7320 6f68      	0x6f6873205f5f
    1e16:	7472                	flw	fs0,60(sp)
    1e18:	6920                	flw	fs0,80(a0)
    1e1a:	746e                	flw	fs0,248(sp)
    1e1c:	5f00                	lw	s0,56(a4)
    1e1e:	535f 5a49 4f45      	0x4f455a49535f
    1e24:	5f46                	lw	t5,112(sp)
    1e26:	4f4c                	lw	a1,28(a4)
    1e28:	474e                	lw	a4,208(sp)
    1e2a:	5f5f 3420 5f00      	0x5f0034205f5f
    1e30:	555f 4e49 5f54      	0x5f544e49555f
    1e36:	4146                	lw	sp,80(sp)
    1e38:	32335453          	0x32335453
    1e3c:	4d5f 5841 5f5f      	0x5f5f58414d5f
    1e42:	3020                	fld	fs0,96(s0)
    1e44:	6678                	flw	fa4,76(a2)
    1e46:	6666                	flw	fa2,88(sp)
    1e48:	6666                	flw	fa2,88(sp)
    1e4a:	6666                	flw	fa2,88(sp)
    1e4c:	5566                	lw	a0,120(sp)
    1e4e:	5f00                	lw	s0,56(a4)
    1e50:	535f 4454 5f43      	0x5f434454535f
    1e56:	5455                	li	s0,-11
    1e58:	5f46                	lw	t5,112(sp)
    1e5a:	3631                	jal	1966 <_start-0x7fffe69a>
    1e5c:	5f5f 3120 5f00      	0x5f0031205f5f
    1e62:	475f 554e 5f43      	0x5f43554e475f
    1e68:	5845                	li	a6,-15
    1e6a:	4345                	li	t1,17
    1e6c:	5455                	li	s0,-11
    1e6e:	4f49                	li	t5,18
    1e70:	5f4e                	lw	t5,240(sp)
    1e72:	52414843          	fmadd.d	fa6,ft2,ft4,fa0,rmm
    1e76:	5f544553          	0x5f544553
    1e7a:	414e                	lw	sp,208(sp)
    1e7c:	454d                	li	a0,19
    1e7e:	2220                	fld	fs0,64(a2)
    1e80:	5455                	li	s0,-11
    1e82:	2d46                	fld	fs10,80(sp)
    1e84:	2238                	fld	fa4,64(a2)
    1e86:	5f00                	lw	s0,56(a4)
    1e88:	555f 4e49 5f54      	0x5f544e49555f
    1e8e:	4146                	lw	sp,80(sp)
    1e90:	5f385453          	0x5f385453
    1e94:	5954                	lw	a3,52(a0)
    1e96:	4550                	lw	a2,12(a0)
    1e98:	5f5f 7520 736e      	0x736e75205f5f
    1e9e:	6769                	lui	a4,0x1a
    1ea0:	656e                	flw	fa0,216(sp)
    1ea2:	2064                	fld	fs1,192(s0)
    1ea4:	6e69                	lui	t3,0x1a
    1ea6:	0074                	addi	a3,sp,12
    1ea8:	5f5f 5450 4452      	0x445254505f5f
    1eae:	4649                	li	a2,18
    1eb0:	5f46                	lw	t5,112(sp)
    1eb2:	5954                	lw	a3,52(a0)
    1eb4:	4550                	lw	a2,12(a0)
    1eb6:	5f5f 6920 746e      	0x746e69205f5f
    1ebc:	5f00                	lw	s0,56(a4)
    1ebe:	4c5f 4244 5f4c      	0x5f4c42444c5f
    1ec4:	4148                	lw	a0,4(a0)
    1ec6:	45445f53          	0x45445f53
    1eca:	4f4e                	lw	t5,208(sp)
    1ecc:	4d52                	lw	s10,20(sp)
    1ece:	5f5f 3120 5f00      	0x5f0031205f5f
    1ed4:	555f 4e49 5f54      	0x5f544e49555f
    1eda:	454c                	lw	a1,12(a0)
    1edc:	5341                	li	t1,-16
    1ede:	3354                	fld	fa3,160(a4)
    1ee0:	5f32                	lw	t5,44(sp)
    1ee2:	414d                	li	sp,19
    1ee4:	5f58                	lw	a4,60(a4)
    1ee6:	205f 7830 6666      	0x66667830205f
    1eec:	6666                	flw	fa2,88(sp)
    1eee:	6666                	flw	fa2,88(sp)
    1ef0:	6666                	flw	fa2,88(sp)
    1ef2:	4c55                	li	s8,21
    1ef4:	5f00                	lw	s0,56(a4)
    1ef6:	725f 7369 7663      	0x76637369725f
    1efc:	665f 6f6c 7461      	0x74616f6c665f
    1f02:	615f 6962 645f      	0x645f6962615f
    1f08:	6c62756f          	jal	a0,295ce <_start-0x7ffd6a32>
    1f0c:	2065                	jal	1fb4 <_start-0x7fffe04c>
    1f0e:	0031                	c.nop	12
    1f10:	5f5f 4c46 3654      	0x36544c465f5f
    1f16:	5834                	lw	a3,112(s0)
    1f18:	455f 5350 4c49      	0x4c495350455f
    1f1e:	5f5f4e4f          	fnmadd.q	ft8,ft10,fs5,fa1,rmm
    1f22:	3120                	fld	fs0,96(a0)
    1f24:	392e                	fld	fs2,232(sp)
    1f26:	3532                	fld	fa0,296(sp)
    1f28:	3239                	jal	1836 <_start-0x7fffe7ca>
    1f2a:	3939                	jal	1b48 <_start-0x7fffe4b8>
    1f2c:	3434                	fld	fa3,104(s0)
    1f2e:	32373833          	0x32373833
    1f32:	35383533          	0x35383533
    1f36:	35353033          	0x35353033
    1f3a:	3739                	jal	1e48 <_start-0x7fffe1b8>
    1f3c:	32343937          	lui	s2,0x32343
    1f40:	3835                	jal	177c <_start-0x7fffe884>
    1f42:	3934                	fld	fa3,112(a0)
    1f44:	3732                	fld	fa4,296(sp)
    1f46:	2d653233          	0x2d653233
    1f4a:	36463433          	0x36463433
    1f4e:	7834                	flw	fa3,112(s0)
    1f50:	5f00                	lw	s0,56(a4)
    1f52:	495f 544e 465f      	0x465f544e495f
    1f58:	5341                	li	t1,-16
    1f5a:	3354                	fld	fa3,160(a4)
    1f5c:	5f32                	lw	t5,44(sp)
    1f5e:	414d                	li	sp,19
    1f60:	5f58                	lw	a4,60(a4)
    1f62:	205f 7830 6637      	0x66377830205f
    1f68:	6666                	flw	fa2,88(sp)
    1f6a:	6666                	flw	fa2,88(sp)
    1f6c:	6666                	flw	fa2,88(sp)
    1f6e:	5f00                	lw	s0,56(a4)
    1f70:	525f 4745 5349      	0x53494745525f
    1f76:	4554                	lw	a3,12(a0)
    1f78:	5f52                	lw	t5,52(sp)
    1f7a:	5250                	lw	a2,36(a2)
    1f7c:	4645                	li	a2,17
    1f7e:	5849                	li	a6,-14
    1f80:	5f5f 0020 5f5f      	0x5f5f00205f5f
    1f86:	5441                	li	s0,-16
    1f88:	43494d4f          	fnmadd.d	fs10,fs2,fs4,fs0,rmm
    1f8c:	435f 4e4f 5553      	0x55534e4f435f
    1f92:	454d                	li	a0,19
    1f94:	3120                	fld	fs0,96(a0)
    1f96:	5f00                	lw	s0,56(a4)
    1f98:	4c5f 4244 5f4c      	0x5f4c42444c5f
    1f9e:	4544                	lw	s1,12(a0)
    1fa0:	414d4943          	fmadd.s	fs2,fs10,fs4,fs0,rmm
    1fa4:	5f4c                	lw	a1,60(a4)
    1fa6:	4944                	lw	s1,20(a0)
    1fa8:	205f5f47          	fmsub.s	ft10,ft10,ft5,ft4,unknown
    1fac:	5f003633          	0x5f003633
    1fb0:	535f 4454 5f43      	0x5f434454535f
    1fb6:	5455                	li	s0,-11
    1fb8:	5f46                	lw	t5,112(sp)
    1fba:	5f5f3233          	0x5f5f3233
    1fbe:	3120                	fld	fs0,96(a0)
    1fc0:	5f00                	lw	s0,56(a4)
    1fc2:	555f 4e49 3154      	0x31544e49555f
    1fc8:	5f36                	lw	t5,108(sp)
    1fca:	5954                	lw	a3,52(a0)
    1fcc:	4550                	lw	a2,12(a0)
    1fce:	5f5f 7320 6f68      	0x6f6873205f5f
    1fd4:	7472                	flw	fs0,60(sp)
    1fd6:	7520                	flw	fs0,104(a0)
    1fd8:	736e                	flw	ft6,248(sp)
    1fda:	6769                	lui	a4,0x1a
    1fdc:	656e                	flw	fa0,216(sp)
    1fde:	2064                	fld	fs1,192(s0)
    1fe0:	6e69                	lui	t3,0x1a
    1fe2:	0074                	addi	a3,sp,12
    1fe4:	5f5f 4c46 3654      	0x36544c465f5f
    1fea:	5834                	lw	a3,112(s0)
    1fec:	4d5f 5841 315f      	0x315f58414d5f
    1ff2:	5f30                	lw	a2,120(a4)
    1ff4:	5845                	li	a6,-15
    1ff6:	5f50                	lw	a2,60(a4)
    1ff8:	205f 3934 3233      	0x32333934205f
    1ffe:	5f00                	lw	s0,56(a4)
    2000:	4c5f 4244 5f4c      	0x5f4c42444c5f
    2006:	4944                	lw	s1,20(a0)
    2008:	205f5f47          	fmsub.s	ft10,ft10,ft5,ft4,unknown
    200c:	5f003333          	0x5f003333
    2010:	465f 544c 3436      	0x3436544c465f
    2016:	5f58                	lw	a4,60(a4)
    2018:	494d                	li	s2,19
    201a:	5f4e                	lw	t5,240(sp)
    201c:	5845                	li	a6,-15
    201e:	5f50                	lw	a2,60(a4)
    2020:	205f 2d28 3631      	0x36312d28205f
    2026:	29313833          	0x29313833
    202a:	5f00                	lw	s0,56(a4)
    202c:	465f 544c 3233      	0x3233544c465f
    2032:	485f 5341 515f      	0x515f5341485f
    2038:	4955                	li	s2,21
    203a:	5445                	li	s0,-15
    203c:	4e5f 4e41 5f5f      	0x5f5f4e414e5f
    2042:	3120                	fld	fs0,96(a0)
    2044:	5f00                	lw	s0,56(a4)
    2046:	535f 5a49 4f45      	0x4f455a49535f
    204c:	5f46                	lw	t5,112(sp)
    204e:	5450                	lw	a2,44(s0)
    2050:	4452                	lw	s0,20(sp)
    2052:	4649                	li	a2,18
    2054:	5f46                	lw	t5,112(sp)
    2056:	5f54                	lw	a3,60(a4)
    2058:	205f 0034 5f5f      	0x5f5f0034205f
    205e:	4c46                	lw	s8,80(sp)
    2060:	3154                	fld	fa3,160(a0)
    2062:	3832                	fld	fa6,296(sp)
    2064:	4d5f 5841 5f5f      	0x5f5f58414d5f
    206a:	3120                	fld	fs0,96(a0)
    206c:	312e                	fld	ft2,232(sp)
    206e:	3938                	fld	fa4,112(a0)
    2070:	34313337          	lui	t1,0x34313
    2074:	3539                	jal	1e82 <_start-0x7fffe17e>
    2076:	32373533          	0x32373533
    207a:	36373133          	0x36373133
    207e:	3035                	jal	18aa <_start-0x7fffe756>
    2080:	3538                	fld	fa4,104(a0)
    2082:	33393537          	lui	a0,0x33393
    2086:	3632                	fld	fa2,296(sp)
    2088:	3236                	fld	ft4,360(sp)
    208a:	3038                	fld	fa4,96(s0)
    208c:	3730                	fld	fa2,104(a4)
    208e:	3230                	fld	fa2,96(a2)
    2090:	2b65                	jal	2648 <_start-0x7fffd9b8>
    2092:	3934                	fld	fa3,112(a0)
    2094:	31463233          	0x31463233
    2098:	3832                	fld	fa6,296(sp)
    209a:	5f00                	lw	s0,56(a4)
    209c:	465f 5f50 4146      	0x41465f50465f
    20a2:	465f5453          	0x465f5453
    20a6:	414d                	li	sp,19
    20a8:	3346                	fld	ft6,112(sp)
    20aa:	7832                	flw	fa6,44(sp)
    20ac:	3120                	fld	fs0,96(a0)
    20ae:	5f00                	lw	s0,56(a4)
    20b0:	495f 544e 465f      	0x465f544e495f
    20b6:	5341                	li	t1,-16
    20b8:	3154                	fld	fa3,160(a0)
    20ba:	5f36                	lw	t5,108(sp)
    20bc:	414d                	li	sp,19
    20be:	5f58                	lw	a4,60(a4)
    20c0:	205f 7830 6637      	0x66377830205f
    20c6:	6666                	flw	fa2,88(sp)
    20c8:	6666                	flw	fa2,88(sp)
    20ca:	6666                	flw	fa2,88(sp)
    20cc:	5f00                	lw	s0,56(a4)
    20ce:	475f 5858 415f      	0x415f5858475f
    20d4:	4942                	lw	s2,16(sp)
    20d6:	565f 5245 4953      	0x49535245565f
    20dc:	31204e4f          	fnmadd.s	ft8,ft0,fs2,ft6,rmm
    20e0:	3130                	fld	fa2,96(a0)
    20e2:	0036                	c.slli	zero,0xd
    20e4:	5f5f 4953 5f47      	0x5f4749535f5f
    20ea:	5441                	li	s0,-16
    20ec:	43494d4f          	fnmadd.d	fs10,fs2,fs4,fs0,rmm
    20f0:	4d5f 4e49 5f5f      	0x5f5f4e494d5f
    20f6:	2820                	fld	fs0,80(s0)
    20f8:	5f2d                	li	t5,-21
    20fa:	535f 4749 415f      	0x415f4749535f
    2100:	4f54                	lw	a3,28(a4)
    2102:	494d                	li	s2,19
    2104:	414d5f43          	fmadd.s	ft10,fs10,fs4,fs0,unknown
    2108:	5f58                	lw	a4,60(a4)
    210a:	205f 202d 2931      	0x2931202d205f
    2110:	5f00                	lw	s0,56(a4)
    2112:	725f 7369 7663      	0x76637369725f
    2118:	665f 6964 2076      	0x20766964665f
    211e:	0031                	c.nop	12
    2120:	5f5f 4e49 5f54      	0x5f544e495f5f
    2126:	4146                	lw	sp,80(sp)
    2128:	34365453          	0x34365453
    212c:	575f 4449 4854      	0x48544449575f
    2132:	5f5f 3620 0034      	0x3436205f5f
    2138:	5f5f 4c46 3154      	0x31544c465f5f
    213e:	3832                	fld	fa6,296(sp)
    2140:	4d5f 4e49 5f5f      	0x5f5f4e494d5f
    2146:	3320                	fld	fs0,96(a4)
    2148:	332e                	fld	ft6,232(sp)
    214a:	3236                	fld	ft4,360(sp)
    214c:	3031                	jal	1958 <_start-0x7fffe6a8>
    214e:	33343133          	0x33343133
    2152:	3131                	jal	1d5e <_start-0x7fffe2a2>
    2154:	3032                	fld	ft0,296(sp)
    2156:	3339                	jal	1e64 <_start-0x7fffe19c>
    2158:	3035                	jal	1984 <_start-0x7fffe67c>
    215a:	3236                	fld	ft4,360(sp)
    215c:	3236                	fld	ft4,360(sp)
    215e:	3736                	fld	fa4,360(sp)
    2160:	37313837          	lui	a6,0x37313
    2164:	37313233          	0x37313233
    2168:	3235                	jal	1a94 <_start-0x7fffe56c>
    216a:	3036                	fld	ft0,360(sp)
    216c:	2d65                	jal	2824 <_start-0x7fffd7dc>
    216e:	3934                	fld	fa3,112(a0)
    2170:	31463233          	0x31463233
    2174:	3832                	fld	fa6,296(sp)
    2176:	5f00                	lw	s0,56(a4)
    2178:	495f 544e 465f      	0x465f544e495f
    217e:	5341                	li	t1,-16
    2180:	3354                	fld	fa3,160(a4)
    2182:	5f32                	lw	t5,44(sp)
    2184:	5954                	lw	a3,52(a0)
    2186:	4550                	lw	a2,12(a0)
    2188:	5f5f 6920 746e      	0x746e69205f5f
    218e:	5f00                	lw	s0,56(a4)
    2190:	465f 544c 3233      	0x3233544c465f
    2196:	445f 4e45 524f      	0x524f4e45445f
    219c:	5f4d                	li	t5,-13
    219e:	494d                	li	s2,19
    21a0:	5f4e                	lw	t5,240(sp)
    21a2:	205f 2e31 3034      	0x30342e31205f
    21a8:	3231                	jal	1ab4 <_start-0x7fffe54c>
    21aa:	3839                	jal	19c8 <_start-0x7fffe638>
    21ac:	3634                	fld	fa3,104(a2)
    21ae:	3334                	fld	fa3,96(a4)
    21b0:	3432                	fld	fs0,296(sp)
    21b2:	3138                	fld	fa4,96(a0)
    21b4:	30373037          	lui	zero,0x30373
    21b8:	3239                	jal	1ac6 <_start-0x7fffe53a>
    21ba:	39323733          	0x39323733
    21be:	3835                	jal	19fa <_start-0x7fffe606>
    21c0:	39383233          	0x39383233
    21c4:	3139                	jal	1dd2 <_start-0x7fffe22e>
    21c6:	3136                	fld	ft2,360(sp)
    21c8:	342d6533          	0x342d6533
    21cc:	4635                	li	a2,13
    21ce:	5f003233          	0x5f003233
    21d2:	555f 4e49 5f54      	0x5f544e49555f
    21d8:	4146                	lw	sp,80(sp)
    21da:	36315453          	0x36315453
    21de:	545f 5059 5f45      	0x5f455059545f
    21e4:	205f 6e75 6973      	0x69736e75205f
    21ea:	64656e67          	0x64656e67
    21ee:	6920                	flw	fs0,80(a0)
    21f0:	746e                	flw	fs0,248(sp)
    21f2:	5f00                	lw	s0,56(a4)
    21f4:	465f 544c 3436      	0x3436544c465f
    21fa:	445f 4749 5f5f      	0x5f5f4749445f
    2200:	3120                	fld	fs0,96(a0)
    2202:	0035                	c.nop	13
    2204:	5f5f 6972 6373      	0x637369725f5f
    220a:	2076                	fld	ft0,344(sp)
    220c:	0031                	c.nop	12
    220e:	5f5f 4347 5f43      	0x5f4343475f5f
    2214:	5441                	li	s0,-16
    2216:	43494d4f          	fnmadd.d	fs10,fs2,fs4,fs0,rmm
    221a:	4c5f 4e4f 5f47      	0x5f474e4f4c5f
    2220:	4f4c                	lw	a1,28(a4)
    2222:	465f4b43          	fmadd.q	fs6,ft10,ft5,fs0,rmm
    2226:	4552                	lw	a0,20(sp)
    2228:	2045                	jal	22c8 <_start-0x7fffdd38>
    222a:	0032                	c.slli	zero,0xc
    222c:	5f5f 4244 5f4c      	0x5f4c42445f5f
    2232:	414d                	li	sp,19
    2234:	5f58                	lw	a4,60(a4)
    2236:	205f 2828 6f64      	0x6f642828205f
    223c:	6275                	lui	tp,0x1d
    223e:	656c                	flw	fa1,76(a0)
    2240:	3129                	jal	1e4a <_start-0x7fffe1b6>
    2242:	372e                	fld	fa4,232(sp)
    2244:	3739                	jal	2152 <_start-0x7fffdeae>
    2246:	3936                	fld	fs2,360(sp)
    2248:	34333133          	0x34333133
    224c:	3638                	fld	fa4,104(a2)
    224e:	3332                	fld	ft6,296(sp)
    2250:	3531                	jal	205c <_start-0x7fffdfa4>
    2252:	31383037          	lui	zero,0x31383
    2256:	3534                	fld	fa3,104(a0)
    2258:	3732                	fld	fa4,296(sp)
    225a:	3234                	fld	fa3,96(a2)
    225c:	31333733          	0x31333733
    2260:	33343037          	lui	zero,0x33343
    2264:	3735                	jal	2190 <_start-0x7fffde70>
    2266:	2b65                	jal	281e <_start-0x7fffd7e2>
    2268:	4c383033          	0x4c383033
    226c:	0029                	c.nop	10
    226e:	5f5f 4c46 3654      	0x36544c465f5f
    2274:	5834                	lw	a3,112(s0)
    2276:	445f 4749 5f5f      	0x5f5f4749445f
    227c:	3320                	fld	fs0,96(a4)
    227e:	5f5f0033          	0x5f5f0033
    2282:	4e49                	li	t3,18
    2284:	3854                	fld	fa3,176(s0)
    2286:	4d5f 5841 5f5f      	0x5f5f58414d5f
    228c:	3020                	fld	fs0,96(s0)
    228e:	3778                	fld	fa4,232(a4)
    2290:	0066                	c.slli	zero,0x19
    2292:	5f5f 4244 5f4c      	0x5f4c42445f5f
    2298:	4148                	lw	a0,4(a0)
    229a:	55515f53          	0x55515f53
    229e:	4549                	li	a0,18
    22a0:	5f54                	lw	a3,60(a4)
    22a2:	414e                	lw	sp,208(sp)
    22a4:	5f4e                	lw	t5,240(sp)
    22a6:	205f 0031 5f5f      	0x5f5f0031205f
    22ac:	4c46                	lw	s8,80(sp)
    22ae:	5f54                	lw	a3,60(a4)
    22b0:	494d                	li	s2,19
    22b2:	5f4e                	lw	t5,240(sp)
    22b4:	3031                	jal	1ac0 <_start-0x7fffe540>
    22b6:	455f 5058 5f5f      	0x5f5f5058455f
    22bc:	2820                	fld	fs0,80(s0)
    22be:	332d                	jal	1fe8 <_start-0x7fffe018>
    22c0:	5f002937          	lui	s2,0x5f002
    22c4:	495f 544e 465f      	0x465f544e495f
    22ca:	5341                	li	t1,-16
    22cc:	3854                	fld	fa3,176(s0)
    22ce:	575f 4449 4854      	0x48544449575f
    22d4:	5f5f 3320 0032      	0x3233205f5f
    22da:	5f5f 4c46 3154      	0x31544c465f5f
    22e0:	3832                	fld	fa6,296(sp)
    22e2:	4d5f 5841 315f      	0x315f58414d5f
    22e8:	5f30                	lw	a2,120(a4)
    22ea:	5845                	li	a6,-15
    22ec:	5f50                	lw	a2,60(a4)
    22ee:	205f 3934 3233      	0x32333934205f
    22f4:	5f00                	lw	s0,56(a4)
    22f6:	415f 4f54 494d      	0x494d4f54415f
    22fc:	43415f43          	fmadd.d	ft10,ft2,fs4,fs0,unknown
    2300:	5f51                	li	t5,-12
    2302:	4552                	lw	a0,20(sp)
    2304:	204c                	fld	fa1,128(s0)
    2306:	0034                	addi	a3,sp,8
    2308:	5f5f 4357 4148      	0x414843575f5f
    230e:	5f52                	lw	t5,52(sp)
    2310:	5954                	lw	a3,52(a0)
    2312:	4550                	lw	a2,12(a0)
    2314:	5f5f 6920 746e      	0x746e69205f5f
    231a:	5f00                	lw	s0,56(a4)
    231c:	465f 544c 3231      	0x3231544c465f
    2322:	5f38                	lw	a4,120(a4)
    2324:	4f4e                	lw	t5,208(sp)
    2326:	4d52                	lw	s10,20(sp)
    2328:	4d5f 5841 5f5f      	0x5f5f58414d5f
    232e:	3120                	fld	fs0,96(a0)
    2330:	312e                	fld	ft2,232(sp)
    2332:	3938                	fld	fa4,112(a0)
    2334:	34313337          	lui	t1,0x34313
    2338:	3539                	jal	2146 <_start-0x7fffdeba>
    233a:	32373533          	0x32373533
    233e:	36373133          	0x36373133
    2342:	3035                	jal	1b6e <_start-0x7fffe492>
    2344:	3538                	fld	fa4,104(a0)
    2346:	33393537          	lui	a0,0x33393
    234a:	3632                	fld	fa2,296(sp)
    234c:	3236                	fld	ft4,360(sp)
    234e:	3038                	fld	fa4,96(s0)
    2350:	3730                	fld	fa2,104(a4)
    2352:	3230                	fld	fa2,96(a2)
    2354:	2b65                	jal	290c <_start-0x7fffd6f4>
    2356:	3934                	fld	fa3,112(a0)
    2358:	31463233          	0x31463233
    235c:	3832                	fld	fa6,296(sp)
    235e:	5f00                	lw	s0,56(a4)
    2360:	725f 7369 7663      	0x76637369725f
    2366:	785f 656c 206e      	0x206e656c785f
    236c:	5f003233          	0x5f003233
    2370:	465f 4e49 5449      	0x54494e49465f
    2376:	5f45                	li	t5,-15
    2378:	414d                	li	sp,19
    237a:	4854                	lw	a3,20(s0)
    237c:	4f5f 4c4e 5f59      	0x5f594c4e4f5f
    2382:	205f 0030 5f5f      	0x5f5f0030205f
    2388:	4f4c                	lw	a1,28(a4)
    238a:	474e                	lw	a4,208(sp)
    238c:	4d5f 5841 5f5f      	0x5f5f58414d5f
    2392:	3020                	fld	fs0,96(s0)
    2394:	3778                	fld	fa4,232(a4)
    2396:	6666                	flw	fa2,88(sp)
    2398:	6666                	flw	fa2,88(sp)
    239a:	6666                	flw	fa2,88(sp)
    239c:	4c66                	lw	s8,88(sp)
    239e:	5f00                	lw	s0,56(a4)
    23a0:	505f 5254 4944      	0x49445254505f
    23a6:	4646                	lw	a2,80(sp)
    23a8:	575f 4449 4854      	0x48544449575f
    23ae:	5f5f 3320 0032      	0x3233205f5f
    23b4:	5f5f 5355 5245      	0x524553555f5f
    23ba:	4c5f 4241 4c45      	0x4c4542414c5f
    23c0:	505f 4552 4946      	0x49464552505f
    23c6:	5f58                	lw	a4,60(a4)
    23c8:	205f 5f00 465f      	0x465f5f00205f
    23ce:	544c                	lw	a1,44(s0)
    23d0:	3436                	fld	fs0,360(sp)
    23d2:	5f58                	lw	a4,60(a4)
    23d4:	414d                	li	sp,19
    23d6:	5f58                	lw	a4,60(a4)
    23d8:	5845                	li	a6,-15
    23da:	5f50                	lw	a2,60(a4)
    23dc:	205f 3631 3833      	0x38333631205f
    23e2:	0034                	addi	a3,sp,8
    23e4:	5f5f 4c46 3354      	0x33544c465f5f
    23ea:	5f32                	lw	t5,44(sp)
    23ec:	494d                	li	s2,19
    23ee:	5f4e                	lw	t5,240(sp)
    23f0:	5845                	li	a6,-15
    23f2:	5f50                	lw	a2,60(a4)
    23f4:	205f 2d28 3231      	0x32312d28205f
    23fa:	2935                	jal	2836 <_start-0x7fffd7ca>
    23fc:	5f00                	lw	s0,56(a4)
    23fe:	465f 544c 3233      	0x3233544c465f
    2404:	4d5f 5841 5f5f      	0x5f5f58414d5f
    240a:	3320                	fld	fs0,96(a4)
    240c:	342e                	fld	fs0,232(sp)
    240e:	3230                	fld	fa2,96(a2)
    2410:	3238                	fld	fa4,96(a2)
    2412:	36363433          	0x36363433
    2416:	32353833          	0x32353833
    241a:	3838                	fld	fa4,112(s0)
    241c:	3935                	jal	2058 <_start-0x7fffdfa8>
    241e:	3138                	fld	fa4,96(a0)
    2420:	3731                	jal	232c <_start-0x7fffdcd4>
    2422:	3430                	fld	fa2,104(s0)
    2424:	3831                	jal	1c40 <_start-0x7fffe3c0>
    2426:	34383433          	0x34383433
    242a:	3135                	jal	2056 <_start-0x7fffdfaa>
    242c:	3936                	fld	fs2,360(sp)
    242e:	3532                	fld	fa0,296(sp)
    2430:	2b65                	jal	29e8 <_start-0x7fffd618>
    2432:	33463833          	0x33463833
    2436:	0032                	c.slli	zero,0xc
    2438:	5f5f 4955 544e      	0x544e49555f5f
    243e:	465f 5341 3654      	0x36545341465f
    2444:	5f34                	lw	a3,120(a4)
    2446:	5954                	lw	a3,52(a0)
    2448:	4550                	lw	a2,12(a0)
    244a:	5f5f 6c20 6e6f      	0x6e6f6c205f5f
    2450:	6f6c2067          	0x6f6c2067
    2454:	676e                	flw	fa4,216(sp)
    2456:	7520                	flw	fs0,104(a0)
    2458:	736e                	flw	ft6,248(sp)
    245a:	6769                	lui	a4,0x1a
    245c:	656e                	flw	fa0,216(sp)
    245e:	2064                	fld	fs1,192(s0)
    2460:	6e69                	lui	t3,0x1a
    2462:	0074                	addi	a3,sp,12
    2464:	5f5f 4955 544e      	0x544e49555f5f
    246a:	5f38                	lw	a4,120(a4)
    246c:	29632843          	fmadd.s	fa6,ft6,fs6,ft5,rdn
    2470:	6320                	flw	fs0,64(a4)
    2472:	5f00                	lw	s0,56(a4)
    2474:	465f 544c 3231      	0x3231544c465f
    247a:	5f38                	lw	a4,120(a4)
    247c:	4944                	lw	s1,20(a0)
    247e:	205f5f47          	fmsub.s	ft10,ft10,ft5,ft4,unknown
    2482:	5f003333          	0x5f003333
    2486:	555f 4e49 5f54      	0x5f544e49555f
    248c:	454c                	lw	a1,12(a0)
    248e:	5341                	li	t1,-16
    2490:	3854                	fld	fa3,176(s0)
    2492:	545f 5059 5f45      	0x5f455059545f
    2498:	205f 6e75 6973      	0x69736e75205f
    249e:	64656e67          	0x64656e67
    24a2:	6320                	flw	fs0,64(a4)
    24a4:	6168                	flw	fa0,68(a0)
    24a6:	0072                	c.slli	zero,0x1c
    24a8:	5f5f 6972 6373      	0x637369725f5f
    24ae:	5f76                	lw	t5,124(sp)
    24b0:	697a                	flw	fs2,156(sp)
    24b2:	20727363          	bgeu	tp,t2,26b8 <_start-0x7fffd948>
    24b6:	3032                	fld	ft0,296(sp)
    24b8:	3030                	fld	fa2,96(s0)
    24ba:	3030                	fld	fa2,96(s0)
    24bc:	0030                	addi	a2,sp,8
    24be:	5f5f 4e49 5f54      	0x5f544e495f5f
    24c4:	454c                	lw	a1,12(a0)
    24c6:	5341                	li	t1,-16
    24c8:	3654                	fld	fa3,168(a2)
    24ca:	5f34                	lw	a3,120(a4)
    24cc:	54444957          	0x54444957
    24d0:	5f48                	lw	a0,60(a4)
    24d2:	205f 3436 5f00      	0x5f003436205f
    24d8:	495f 544e 3233      	0x3233544e495f
    24de:	4d5f 5841 5f5f      	0x5f5f58414d5f
    24e4:	3020                	fld	fs0,96(s0)
    24e6:	3778                	fld	fa4,232(a4)
    24e8:	6666                	flw	fa2,88(sp)
    24ea:	6666                	flw	fa2,88(sp)
    24ec:	6666                	flw	fa2,88(sp)
    24ee:	4c66                	lw	s8,88(sp)
    24f0:	6d00                	flw	fs0,24(a0)
    24f2:	6961                	lui	s2,0x18
    24f4:	006e                	c.slli	zero,0x1b
    24f6:	5f5f 4c46 3354      	0x33544c465f5f
    24fc:	5832                	lw	a6,44(sp)
    24fe:	4d5f 4e49 455f      	0x455f4e494d5f
    2504:	5058                	lw	a4,36(s0)
    2506:	5f5f 2820 312d      	0x312d28205f5f
    250c:	3230                	fld	fa2,96(a2)
    250e:	2931                	jal	292a <_start-0x7fffd6d6>
    2510:	5f00                	lw	s0,56(a4)
    2512:	475f 4343 485f      	0x485f4343475f
    2518:	5641                	li	a2,-16
    251a:	5f45                	li	t5,-15
    251c:	5744                	lw	s1,44(a4)
    251e:	5241                	li	tp,-16
    2520:	3246                	fld	ft4,112(sp)
    2522:	435f 4946 415f      	0x415f4946435f
    2528:	31204d53          	0x31204d53
    252c:	5f00                	lw	s0,56(a4)
    252e:	495f 544e 4c5f      	0x4c5f544e495f
    2534:	4145                	li	sp,17
    2536:	5f385453          	0x5f385453
    253a:	414d                	li	sp,19
    253c:	5f58                	lw	a4,60(a4)
    253e:	205f 7830 6637      	0x66377830205f
    2544:	5f00                	lw	s0,56(a4)
    2546:	475f 4343 415f      	0x415f4343475f
    254c:	4f54                	lw	a3,28(a4)
    254e:	494d                	li	s2,19
    2550:	4f425f43          	fmadd.q	ft10,ft4,fs4,fs1,unknown
    2554:	4c5f4c4f          	0x4c5f4c4f
    2558:	5f4b434f          	fnmadd.q	ft6,fs6,fs4,fa1,rmm
    255c:	5246                	lw	tp,112(sp)
    255e:	4545                	li	a0,17
    2560:	3120                	fld	fs0,96(a0)
    2562:	5f00                	lw	s0,56(a4)
    2564:	555f 4e49 5f54      	0x5f544e49555f
    256a:	454c                	lw	a1,12(a0)
    256c:	5341                	li	t1,-16
    256e:	3654                	fld	fa3,168(a2)
    2570:	5f34                	lw	a3,120(a4)
    2572:	414d                	li	sp,19
    2574:	5f58                	lw	a4,60(a4)
    2576:	205f 7830 6666      	0x66667830205f
    257c:	6666                	flw	fa2,88(sp)
    257e:	6666                	flw	fa2,88(sp)
    2580:	6666                	flw	fa2,88(sp)
    2582:	6666                	flw	fa2,88(sp)
    2584:	6666                	flw	fa2,88(sp)
    2586:	6666                	flw	fa2,88(sp)
    2588:	6666                	flw	fa2,88(sp)
    258a:	4c55                	li	s8,21
    258c:	004c                	addi	a1,sp,4
    258e:	5f5f 4244 5f4c      	0x5f4c42445f5f
    2594:	494d                	li	s2,19
    2596:	5f4e                	lw	t5,240(sp)
    2598:	3031                	jal	1da4 <_start-0x7fffe25c>
    259a:	455f 5058 5f5f      	0x5f5f5058455f
    25a0:	2820                	fld	fs0,80(s0)
    25a2:	332d                	jal	22cc <_start-0x7fffdd34>
    25a4:	3730                	fld	fa2,104(a4)
    25a6:	0029                	c.nop	10
    25a8:	5f5f 4e47 4355      	0x43554e475f5f
    25ae:	535f 4454 5f43      	0x5f434454535f
    25b4:	4e49                	li	t3,18
    25b6:	494c                	lw	a1,20(a0)
    25b8:	454e                	lw	a0,208(sp)
    25ba:	5f5f 3120 5f00      	0x5f0031205f5f
    25c0:	465f 544c 3436      	0x3436544c465f
    25c6:	4d5f 5841 315f      	0x315f58414d5f
    25cc:	5f30                	lw	a2,120(a4)
    25ce:	5845                	li	a6,-15
    25d0:	5f50                	lw	a2,60(a4)
    25d2:	205f 3033 0038      	0x383033205f
    25d8:	5f5f 4c46 3654      	0x36544c465f5f
    25de:	5f34                	lw	a3,120(a4)
    25e0:	494d                	li	s2,19
    25e2:	5f4e                	lw	t5,240(sp)
    25e4:	5845                	li	a6,-15
    25e6:	5f50                	lw	a2,60(a4)
    25e8:	205f 2d28 3031      	0x30312d28205f
    25ee:	3132                	fld	ft2,296(sp)
    25f0:	0029                	c.nop	10
    25f2:	30747263          	bgeu	s0,t2,28f6 <_start-0x7fffd70a>
    25f6:	732e                	flw	ft6,232(sp)
    25f8:	2f00                	fld	fs0,24(a4)
    25fa:	656d                	lui	a0,0x1b
    25fc:	6964                	flw	fs1,84(a0)
    25fe:	2f61                	jal	2d96 <_start-0x7fffd26a>
    2600:	756e                	flw	fa0,248(sp)
    2602:	6f6e                	flw	ft10,216(sp)
    2604:	4444482f          	0x4444482f
    2608:	726f772f          	0x726f772f
    260c:	72702f6b          	0x72702f6b
    2610:	63656a6f          	jal	s4,58c46 <_start-0x7ffa73ba>
    2614:	7374                	flw	fa3,100(a4)
    2616:	6570732f          	0x6570732f
    261a:	682d7363          	bgeu	s10,sp,2ca0 <_start-0x7fffd360>
    261e:	49522f77          	0x49522f77
    2622:	2f564353          	0x2f564353
    2626:	6572                	flw	fa0,28(sp)
    2628:	72756f73          	csrrsi	t5,0x727,10
    262c:	2f736563          	bltu	t1,s7,2916 <_start-0x7fffd6ea>
    2630:	2f67726f          	jal	tp,79926 <_start-0x7ff866da>
    2634:	63657073          	csrci	0x636,10
    2638:	69522f73          	csrrs	t5,0x695,tp
    263c:	2f766373          	csrrsi	t1,0x2f7,12
    2640:	7865                	lui	a6,0xffff9
    2642:	6d61                	lui	s10,0x18
    2644:	6c70                	flw	fa2,92(s0)
    2646:	7365                	lui	t1,0xffff9
    2648:	7369722f          	0x7369722f
    264c:	625f7663          	bgeu	t5,t0,2c78 <_start-0x7fffd388>
    2650:	7261                	lui	tp,0xffff8
    2652:	5f65                	li	t5,-7
    2654:	656d                	lui	a0,0x1b
    2656:	6174                	flw	fa3,68(a0)
    2658:	5f6c                	lw	a1,124(a4)
    265a:	6571                	lui	a0,0x1c
    265c:	756d                	lui	a0,0xffffb
    265e:	6d5f 6c75 0074      	0x746c756d5f
    2664:	20554e47          	fmsub.s	ft8,fa0,ft5,ft4,rmm
    2668:	5341                	li	t1,-16
    266a:	3220                	fld	fs0,96(a2)
    266c:	332e                	fld	ft6,232(sp)
    266e:	          	lui	zero,0x0

Disassembly of section .debug_macro:

00000000 <.debug_macro>:
   0:	0005                	c.nop	1
   2:	0002                	c.slli64	zero
   4:	0000                	unimp
   6:	0700                	addi	s0,sp,896
   8:	0011                	c.nop	4
   a:	0000                	unimp
   c:	04010003          	lb	zero,64(sp) # 4c303040 <_start-0x33cfcfc0>
  10:	0500                	addi	s0,sp,640
  12:	0000                	unimp
  14:	0005                	c.nop	1
  16:	00001a8f          	0x1a8f
  1a:	0005                	c.nop	1
  1c:	040c                	addi	a1,sp,512
  1e:	0000                	unimp
  20:	0005                	c.nop	1
  22:	00001e4f          	fnmadd.s	ft8,ft0,ft0,ft0,rtz
  26:	0005                	c.nop	1
  28:	00001faf          	0x1faf
  2c:	0005                	c.nop	1
  2e:	00000fcb          	fnmsub.s	ft11,ft0,ft0,ft0,rne
  32:	0005                	c.nop	1
  34:	0f50                	addi	a2,sp,916
  36:	0000                	unimp
  38:	0005                	c.nop	1
  3a:	0e4c                	addi	a1,sp,788
  3c:	0000                	unimp
  3e:	0005                	c.nop	1
  40:	129c                	addi	a5,sp,352
  42:	0000                	unimp
  44:	0005                	c.nop	1
  46:	14be                	slli	s1,s1,0x2f
  48:	0000                	unimp
  4a:	0005                	c.nop	1
  4c:	1b50                	addi	a2,sp,436
  4e:	0000                	unimp
  50:	0005                	c.nop	1
  52:	023e                	slli	tp,tp,0xf
  54:	0000                	unimp
  56:	0005                	c.nop	1
  58:	1649                	addi	a2,a2,-14
  5a:	0000                	unimp
  5c:	0005                	c.nop	1
  5e:	00000ddb          	0xddb
  62:	0005                	c.nop	1
  64:	22f5                	jal	250 <_start-0x7ffffdb0>
  66:	0000                	unimp
  68:	0005                	c.nop	1
  6a:	1f84                	addi	s1,sp,1008
  6c:	0000                	unimp
  6e:	0005                	c.nop	1
  70:	0000236f          	jal	t1,2070 <_start-0x7fffdf90>
  74:	0005                	c.nop	1
  76:	1356                	slli	t1,t1,0x35
  78:	0000                	unimp
  7a:	0005                	c.nop	1
  7c:	1e1d                	addi	t3,t3,-25
  7e:	0000                	unimp
  80:	0005                	c.nop	1
  82:	0d1f 0000 0005      	0x500000d1f
  88:	1112                	slli	sp,sp,0x24
  8a:	0000                	unimp
  8c:	0005                	c.nop	1
  8e:	1a1d                	addi	s4,s4,-25
  90:	0000                	unimp
  92:	0005                	c.nop	1
  94:	0b60                	addi	s0,sp,412
  96:	0000                	unimp
  98:	0005                	c.nop	1
  9a:	0e24                	addi	s1,sp,792
  9c:	0000                	unimp
  9e:	0005                	c.nop	1
  a0:	005e                	c.slli	zero,0x17
  a2:	0000                	unimp
  a4:	0005                	c.nop	1
  a6:	03e6                	slli	t2,t2,0x19
  a8:	0000                	unimp
  aa:	0005                	c.nop	1
  ac:	133d                	addi	t1,t1,-17
  ae:	0000                	unimp
  b0:	0005                	c.nop	1
  b2:	1af5                	addi	s5,s5,-3
  b4:	0000                	unimp
  b6:	0005                	c.nop	1
  b8:	1060                	addi	s0,sp,44
  ba:	0000                	unimp
  bc:	0005                	c.nop	1
  be:	1a9a                	slli	s5,s5,0x26
  c0:	0000                	unimp
  c2:	0005                	c.nop	1
  c4:	0994                	addi	a3,sp,208
  c6:	0000                	unimp
  c8:	0005                	c.nop	1
  ca:	0a25                	addi	s4,s4,9
  cc:	0000                	unimp
  ce:	0005                	c.nop	1
  d0:	0119                	addi	sp,sp,6
  d2:	0000                	unimp
  d4:	0005                	c.nop	1
  d6:	1e61                	addi	t3,t3,-8
  d8:	0000                	unimp
  da:	0005                	c.nop	1
  dc:	1d6a                	slli	s10,s10,0x3a
  de:	0000                	unimp
  e0:	0005                	c.nop	1
  e2:	05ec                	addi	a1,sp,716
  e4:	0000                	unimp
  e6:	0005                	c.nop	1
  e8:	1ea8                	addi	a0,sp,888
  ea:	0000                	unimp
  ec:	0005                	c.nop	1
  ee:	2308                	fld	fa0,0(a4)
  f0:	0000                	unimp
  f2:	0005                	c.nop	1
  f4:	1b12                	slli	s6,s6,0x24
  f6:	0000                	unimp
  f8:	0005                	c.nop	1
  fa:	10da                	slli	ra,ra,0x36
  fc:	0000                	unimp
  fe:	0005                	c.nop	1
 100:	00000c9b          	0xc9b
 104:	0005                	c.nop	1
 106:	107a                	c.slli	zero,0x3e
 108:	0000                	unimp
 10a:	0005                	c.nop	1
 10c:	035a                	slli	t1,t1,0x16
 10e:	0000                	unimp
 110:	0005                	c.nop	1
 112:	07a6                	slli	a5,a5,0x9
 114:	0000                	unimp
 116:	0005                	c.nop	1
 118:	097a                	slli	s2,s2,0x1e
 11a:	0000                	unimp
 11c:	0005                	c.nop	1
 11e:	1e04                	addi	s1,sp,816
 120:	0000                	unimp
 122:	0005                	c.nop	1
 124:	0a6e                	slli	s4,s4,0x1b
 126:	0000                	unimp
 128:	0005                	c.nop	1
 12a:	154d                	addi	a0,a0,-13
 12c:	0000                	unimp
 12e:	0005                	c.nop	1
 130:	0789                	addi	a5,a5,2
 132:	0000                	unimp
 134:	0005                	c.nop	1
 136:	1fc1                	addi	t6,t6,-16
 138:	0000                	unimp
 13a:	0005                	c.nop	1
 13c:	17bd                	addi	a5,a5,-17
 13e:	0000                	unimp
 140:	0005                	c.nop	1
 142:	000001bf 19d90005 	0x19d90005000001bf
 14a:	0000                	unimp
 14c:	0005                	c.nop	1
 14e:	0a86                	slli	s5,s5,0x1
 150:	0000                	unimp
 152:	0005                	c.nop	1
 154:	17f5                	addi	a5,a5,-3
 156:	0000                	unimp
 158:	0005                	c.nop	1
 15a:	1b2d                	addi	s6,s6,-21
 15c:	0000                	unimp
 15e:	0005                	c.nop	1
 160:	2485                	jal	3c0 <_start-0x7ffffc40>
 162:	0000                	unimp
 164:	0005                	c.nop	1
 166:	1581                	addi	a1,a1,-32
 168:	0000                	unimp
 16a:	0005                	c.nop	1
 16c:	012e                	slli	sp,sp,0xb
 16e:	0000                	unimp
 170:	0005                	c.nop	1
 172:	0000068f          	0x68f
 176:	0005                	c.nop	1
 178:	0664                	addi	s1,sp,780
 17a:	0000                	unimp
 17c:	0005                	c.nop	1
 17e:	0aa5                	addi	s5,s5,9
 180:	0000                	unimp
 182:	0005                	c.nop	1
 184:	00002177          	0x2177
 188:	0005                	c.nop	1
 18a:	0000131b          	0x131b
 18e:	0005                	c.nop	1
 190:	00001e87          	0x1e87
 194:	0005                	c.nop	1
 196:	21d1                	jal	65a <_start-0x7ffff9a6>
 198:	0000                	unimp
 19a:	0005                	c.nop	1
 19c:	176d                	addi	a4,a4,-5
 19e:	0000                	unimp
 1a0:	0005                	c.nop	1
 1a2:	2438                	fld	fa4,72(s0)
 1a4:	0000                	unimp
 1a6:	0005                	c.nop	1
 1a8:	06fe                	slli	a3,a3,0x1f
 1aa:	0000                	unimp
 1ac:	0005                	c.nop	1
 1ae:	1cb0                	addi	a2,sp,632
 1b0:	0000                	unimp
 1b2:	0005                	c.nop	1
 1b4:	20cd                	jal	296 <_start-0x7ffffd6a>
 1b6:	0000                	unimp
 1b8:	0005                	c.nop	1
 1ba:	1289                	addi	t0,t0,-30
 1bc:	0000                	unimp
 1be:	0005                	c.nop	1
 1c0:	1a09                	addi	s4,s4,-30
 1c2:	0000                	unimp
 1c4:	0005                	c.nop	1
 1c6:	125a                	slli	tp,tp,0x36
 1c8:	0000                	unimp
 1ca:	0005                	c.nop	1
 1cc:	2386                	fld	ft7,64(sp)
 1ce:	0000                	unimp
 1d0:	0005                	c.nop	1
 1d2:	0eee                	slli	t4,t4,0x1b
 1d4:	0000                	unimp
 1d6:	0005                	c.nop	1
 1d8:	1a30                	addi	a2,sp,312
 1da:	0000                	unimp
 1dc:	0005                	c.nop	1
 1de:	18b1                	addi	a7,a7,-20
 1e0:	0000                	unimp
 1e2:	0005                	c.nop	1
 1e4:	000005d3          	fadd.s	fa1,ft0,ft0,rne
 1e8:	0005                	c.nop	1
 1ea:	0e14                	addi	a3,sp,784
 1ec:	0000                	unimp
 1ee:	0005                	c.nop	1
 1f0:	19a2                	slli	s3,s3,0x28
 1f2:	0000                	unimp
 1f4:	0005                	c.nop	1
 1f6:	00000ba3          	sb	zero,23(zero) # 17 <_start-0x7fffffe9>
 1fa:	0005                	c.nop	1
 1fc:	0638                	addi	a4,sp,776
 1fe:	0000                	unimp
 200:	0005                	c.nop	1
 202:	00000777          	0x777
 206:	0005                	c.nop	1
 208:	1455                	addi	s0,s0,-11
 20a:	0000                	unimp
 20c:	0005                	c.nop	1
 20e:	0d44                	addi	s1,sp,660
 210:	0000                	unimp
 212:	0005                	c.nop	1
 214:	1d98                	addi	a4,sp,752
 216:	0000                	unimp
 218:	0005                	c.nop	1
 21a:	00000167          	jalr	sp,zero # 0 <_start-0x80000000>
 21e:	0005                	c.nop	1
 220:	1885                	addi	a7,a7,-31
 222:	0000                	unimp
 224:	0005                	c.nop	1
 226:	239f 0000 0005      	0x50000239f
 22c:	0c29                	addi	s8,s8,10
 22e:	0000                	unimp
 230:	0005                	c.nop	1
 232:	0abd                	addi	s5,s5,15
 234:	0000                	unimp
 236:	0005                	c.nop	1
 238:	1942                	slli	s2,s2,0x30
 23a:	0000                	unimp
 23c:	0005                	c.nop	1
 23e:	168d                	addi	a3,a3,-29
 240:	0000                	unimp
 242:	0005                	c.nop	1
 244:	018a                	slli	gp,gp,0x2
 246:	0000                	unimp
 248:	0005                	c.nop	1
 24a:	147a                	slli	s0,s0,0x3e
 24c:	0000                	unimp
 24e:	0005                	c.nop	1
 250:	1c7a                	slli	s8,s8,0x3e
 252:	0000                	unimp
 254:	0005                	c.nop	1
 256:	20e4                	fld	fs1,192(s1)
 258:	0000                	unimp
 25a:	0005                	c.nop	1
 25c:	00000cc3          	fmadd.s	fs9,ft0,ft0,ft0,rne
 260:	0005                	c.nop	1
 262:	2280                	fld	fs0,0(a3)
 264:	0000                	unimp
 266:	0005                	c.nop	1
 268:	000013af          	0x13af
 26c:	0005                	c.nop	1
 26e:	000024d7          	0x24d7
 272:	0005                	c.nop	1
 274:	000009bb          	0x9bb
 278:	0005                	c.nop	1
 27a:	0b90                	addi	a2,sp,464
 27c:	0000                	unimp
 27e:	0005                	c.nop	1
 280:	00000943          	fmadd.s	fs2,ft0,ft0,ft0,rne
 284:	0005                	c.nop	1
 286:	14f2                	slli	s1,s1,0x3c
 288:	0000                	unimp
 28a:	0005                	c.nop	1
 28c:	0e5d                	addi	t3,t3,23
 28e:	0000                	unimp
 290:	0005                	c.nop	1
 292:	252d                	jal	8bc <_start-0x7ffff744>
 294:	0000                	unimp
 296:	0005                	c.nop	1
 298:	0e3e                	slli	t3,t3,0xf
 29a:	0000                	unimp
 29c:	0005                	c.nop	1
 29e:	156a                	slli	a0,a0,0x3a
 2a0:	0000                	unimp
 2a2:	0005                	c.nop	1
 2a4:	00001813          	slli	a6,zero,0x0
 2a8:	0005                	c.nop	1
 2aa:	1194                	addi	a3,sp,224
 2ac:	0000                	unimp
 2ae:	0005                	c.nop	1
 2b0:	0832                	slli	a6,a6,0xc
 2b2:	0000                	unimp
 2b4:	0005                	c.nop	1
 2b6:	1b74                	addi	a3,sp,444
 2b8:	0000                	unimp
 2ba:	0005                	c.nop	1
 2bc:	0bea                	slli	s7,s7,0x1a
 2be:	0000                	unimp
 2c0:	0005                	c.nop	1
 2c2:	0341                	addi	t1,t1,16
 2c4:	0000                	unimp
 2c6:	0005                	c.nop	1
 2c8:	1849                	addi	a6,a6,-14
 2ca:	0000                	unimp
 2cc:	0005                	c.nop	1
 2ce:	0104                	addi	s1,sp,128
 2d0:	0000                	unimp
 2d2:	0005                	c.nop	1
 2d4:	24be                	fld	fs1,456(sp)
 2d6:	0000                	unimp
 2d8:	0005                	c.nop	1
 2da:	00001367          	0x1367
 2de:	0005                	c.nop	1
 2e0:	2464                	fld	fs1,200(s0)
 2e2:	0000                	unimp
 2e4:	0005                	c.nop	1
 2e6:	0a52                	slli	s4,s4,0x14
 2e8:	0000                	unimp
 2ea:	0005                	c.nop	1
 2ec:	19f9                	addi	s3,s3,-2
 2ee:	0000                	unimp
 2f0:	0005                	c.nop	1
 2f2:	00001ed3          	fadd.s	ft9,ft0,ft0,rtz
 2f6:	0005                	c.nop	1
 2f8:	17df 0000 0005      	0x5000017df
 2fe:	00002563          	0x2563
 302:	0005                	c.nop	1
 304:	1d0d                	addi	s10,s10,-29
 306:	0000                	unimp
 308:	0005                	c.nop	1
 30a:	01a2                	slli	gp,gp,0x8
 30c:	0000                	unimp
 30e:	0005                	c.nop	1
 310:	000022c3          	fmadd.s	ft5,ft0,ft0,ft0,rdn
 314:	0005                	c.nop	1
 316:	000020af          	amoadd.w	ra,zero,(zero)
 31a:	0005                	c.nop	1
 31c:	0f74                	addi	a3,sp,924
 31e:	0000                	unimp
 320:	0005                	c.nop	1
 322:	1f51                	addi	t5,t5,-12
 324:	0000                	unimp
 326:	0005                	c.nop	1
 328:	0036                	c.slli	zero,0xd
 32a:	0000                	unimp
 32c:	0005                	c.nop	1
 32e:	150e                	slli	a0,a0,0x23
 330:	0000                	unimp
 332:	0005                	c.nop	1
 334:	2120                	fld	fs0,64(a0)
 336:	0000                	unimp
 338:	0005                	c.nop	1
 33a:	0000                	unimp
 33c:	0000                	unimp
 33e:	0005                	c.nop	1
 340:	0909                	addi	s2,s2,2
 342:	0000                	unimp
 344:	0005                	c.nop	1
 346:	00001e2f          	0x1e2f
 34a:	0005                	c.nop	1
 34c:	00000cdb          	0xcdb
 350:	0005                	c.nop	1
 352:	0929                	addi	s2,s2,10
 354:	0000                	unimp
 356:	0005                	c.nop	1
 358:	0c15                	addi	s8,s8,5
 35a:	0000                	unimp
 35c:	0005                	c.nop	1
 35e:	15d9                	addi	a1,a1,-10
 360:	0000                	unimp
 362:	0005                	c.nop	1
 364:	00001bbf 0fa20005 	0xfa2000500001bbf
 36c:	0000                	unimp
 36e:	0005                	c.nop	1
 370:	15f5                	addi	a1,a1,-3
 372:	0000                	unimp
 374:	0005                	c.nop	1
 376:	04de                	slli	s1,s1,0x17
 378:	0000                	unimp
 37a:	0005                	c.nop	1
 37c:	0ed8                	addi	a4,sp,852
 37e:	0000                	unimp
 380:	0005                	c.nop	1
 382:	017a                	slli	sp,sp,0x1e
 384:	0000                	unimp
 386:	0005                	c.nop	1
 388:	1466                	slli	s0,s0,0x39
 38a:	0000                	unimp
 38c:	0005                	c.nop	1
 38e:	0d36                	slli	s10,s10,0xd
 390:	0000                	unimp
 392:	0005                	c.nop	1
 394:	0fdd                	addi	t6,t6,23
 396:	0000                	unimp
 398:	0005                	c.nop	1
 39a:	22aa                	fld	ft5,136(sp)
 39c:	0000                	unimp
 39e:	0005                	c.nop	1
 3a0:	11cd                	addi	gp,gp,-13
 3a2:	0000                	unimp
 3a4:	0005                	c.nop	1
 3a6:	0dee                	slli	s11,s11,0x1b
 3a8:	0000                	unimp
 3aa:	0005                	c.nop	1
 3ac:	1305                	addi	t1,t1,-31
 3ae:	0000                	unimp
 3b0:	0005                	c.nop	1
 3b2:	16d0                	addi	a2,sp,868
 3b4:	0000                	unimp
 3b6:	0005                	c.nop	1
 3b8:	1958                	addi	a4,sp,180
 3ba:	0000                	unimp
 3bc:	0005                	c.nop	1
 3be:	1125                	addi	sp,sp,-23
 3c0:	0000                	unimp
 3c2:	0005                	c.nop	1
 3c4:	00ca                	slli	ra,ra,0x12
 3c6:	0000                	unimp
 3c8:	0005                	c.nop	1
 3ca:	0ae1                	addi	s5,s5,24
 3cc:	0000                	unimp
 3ce:	0005                	c.nop	1
 3d0:	08d8                	addi	a4,sp,84
 3d2:	0000                	unimp
 3d4:	0005                	c.nop	1
 3d6:	1d3a                	slli	s10,s10,0x2e
 3d8:	0000                	unimp
 3da:	0005                	c.nop	1
 3dc:	0f5c                	addi	a5,sp,916
 3de:	0000                	unimp
 3e0:	0005                	c.nop	1
 3e2:	0fba                	slli	t6,t6,0xe
 3e4:	0000                	unimp
 3e6:	0005                	c.nop	1
 3e8:	0072                	c.slli	zero,0x1c
 3ea:	0000                	unimp
 3ec:	0005                	c.nop	1
 3ee:	0000067b          	0x67b
 3f2:	0005                	c.nop	1
 3f4:	12f6                	slli	t0,t0,0x3d
 3f6:	0000                	unimp
 3f8:	0005                	c.nop	1
 3fa:	07fe                	slli	a5,a5,0x1f
 3fc:	0000                	unimp
 3fe:	0005                	c.nop	1
 400:	258e                	fld	fa1,192(sp)
 402:	0000                	unimp
 404:	0005                	c.nop	1
 406:	15aa                	slli	a1,a1,0x2a
 408:	0000                	unimp
 40a:	0005                	c.nop	1
 40c:	02b4                	addi	a3,sp,328
 40e:	0000                	unimp
 410:	0005                	c.nop	1
 412:	12df 0000 0005      	0x5000012df
 418:	222c                	fld	fa1,64(a2)
 41a:	0000                	unimp
 41c:	0005                	c.nop	1
 41e:	09de                	slli	s3,s3,0x17
 420:	0000                	unimp
 422:	0005                	c.nop	1
 424:	06bc                	addi	a5,sp,840
 426:	0000                	unimp
 428:	0005                	c.nop	1
 42a:	0556                	slli	a0,a0,0x15
 42c:	0000                	unimp
 42e:	0005                	c.nop	1
 430:	0d92                	slli	s11,s11,0x4
 432:	0000                	unimp
 434:	0005                	c.nop	1
 436:	11e1                	addi	gp,gp,-8
 438:	0000                	unimp
 43a:	0005                	c.nop	1
 43c:	03f5                	addi	t2,t2,29
 43e:	0000                	unimp
 440:	0005                	c.nop	1
 442:	2292                	fld	ft5,256(sp)
 444:	0000                	unimp
 446:	0005                	c.nop	1
 448:	1908                	addi	a0,sp,176
 44a:	0000                	unimp
 44c:	0005                	c.nop	1
 44e:	0e82                	c.slli64	t4
 450:	0000                	unimp
 452:	0005                	c.nop	1
 454:	038c                	addi	a1,sp,448
 456:	0000                	unimp
 458:	0005                	c.nop	1
 45a:	1fff                	0x1fff
 45c:	0000                	unimp
 45e:	0005                	c.nop	1
 460:	0d05                	addi	s10,s10,1
 462:	0000                	unimp
 464:	0005                	c.nop	1
 466:	109d                	addi	ra,ra,-25
 468:	0000                	unimp
 46a:	0005                	c.nop	1
 46c:	08a9                	addi	a7,a7,10
 46e:	0000                	unimp
 470:	0005                	c.nop	1
 472:	0225                	addi	tp,tp,9
 474:	0000                	unimp
 476:	0005                	c.nop	1
 478:	104d                	c.nop	-13
 47a:	0000                	unimp
 47c:	0005                	c.nop	1
 47e:	00001f97          	auipc	t6,0x1
 482:	0005                	c.nop	1
 484:	0000086f          	jal	a6,484 <_start-0x7ffffb7c>
 488:	0005                	c.nop	1
 48a:	1cce                	slli	s9,s9,0x33
 48c:	0000                	unimp
 48e:	0005                	c.nop	1
 490:	00000307          	0x307
 494:	0005                	c.nop	1
 496:	0d56                	slli	s10,s10,0x15
 498:	0000                	unimp
 49a:	0005                	c.nop	1
 49c:	0b1f 0000 0005      	0x500000b1f
 4a2:	1ebd                	addi	t4,t4,-17
 4a4:	0000                	unimp
 4a6:	0005                	c.nop	1
 4a8:	08c0                	addi	s0,sp,84
 4aa:	0000                	unimp
 4ac:	0005                	c.nop	1
 4ae:	1c61                	addi	s8,s8,-8
 4b0:	0000                	unimp
 4b2:	0005                	c.nop	1
 4b4:	148e                	slli	s1,s1,0x23
 4b6:	0000                	unimp
 4b8:	0005                	c.nop	1
 4ba:	0f8c                	addi	a1,sp,976
 4bc:	0000                	unimp
 4be:	0005                	c.nop	1
 4c0:	004e                	c.slli	zero,0x13
 4c2:	0000                	unimp
 4c4:	0005                	c.nop	1
 4c6:	23e4                	fld	fs1,192(a5)
 4c8:	0000                	unimp
 4ca:	0005                	c.nop	1
 4cc:	12b2                	slli	t0,t0,0x2c
 4ce:	0000                	unimp
 4d0:	0005                	c.nop	1
 4d2:	0bd4                	addi	a3,sp,468
 4d4:	0000                	unimp
 4d6:	0005                	c.nop	1
 4d8:	14a6                	slli	s1,s1,0x29
 4da:	0000                	unimp
 4dc:	0005                	c.nop	1
 4de:	1675                	addi	a2,a2,-3
 4e0:	0000                	unimp
 4e2:	0005                	c.nop	1
 4e4:	23fd                	jal	ad2 <_start-0x7ffff52e>
 4e6:	0000                	unimp
 4e8:	0005                	c.nop	1
 4ea:	07be                	slli	a5,a5,0xf
 4ec:	0000                	unimp
 4ee:	0005                	c.nop	1
 4f0:	0f15                	addi	t5,t5,5
 4f2:	0000                	unimp
 4f4:	0005                	c.nop	1
 4f6:	00000c3b          	0xc3b
 4fa:	0005                	c.nop	1
 4fc:	0000218f          	0x218f
 500:	0005                	c.nop	1
 502:	0621                	addi	a2,a2,8
 504:	0000                	unimp
 506:	0005                	c.nop	1
 508:	020c                	addi	a1,sp,256
 50a:	0000                	unimp
 50c:	0005                	c.nop	1
 50e:	0000202b          	0x202b
 512:	0005                	c.nop	1
 514:	1872                	slli	a6,a6,0x3c
 516:	0000                	unimp
 518:	0005                	c.nop	1
 51a:	1754                	addi	a3,sp,932
 51c:	0000                	unimp
 51e:	0005                	c.nop	1
 520:	1d24                	addi	s1,sp,696
 522:	0000                	unimp
 524:	0005                	c.nop	1
 526:	000021f3          	csrr	gp,ustatus
 52a:	0005                	c.nop	1
 52c:	25d8                	fld	fa4,136(a1)
 52e:	0000                	unimp
 530:	0005                	c.nop	1
 532:	19bd                	addi	s3,s3,-17
 534:	0000                	unimp
 536:	0005                	c.nop	1
 538:	0bfe                	slli	s7,s7,0x1f
 53a:	0000                	unimp
 53c:	0005                	c.nop	1
 53e:	000025bf 1d510005 	0x1d510005000025bf
 546:	0000                	unimp
 548:	0005                	c.nop	1
 54a:	0251                	addi	tp,tp,20
 54c:	0000                	unimp
 54e:	0005                	c.nop	1
 550:	1ab4                	addi	a3,sp,376
 552:	0000                	unimp
 554:	0005                	c.nop	1
 556:	000002cb          	fnmsub.s	ft5,ft0,ft0,ft0,rne
 55a:	0005                	c.nop	1
 55c:	04ff                	0x4ff
 55e:	0000                	unimp
 560:	0005                	c.nop	1
 562:	00001daf          	0x1daf
 566:	0005                	c.nop	1
 568:	001f 0000 0005      	0x50000001f
 56e:	115c                	addi	a5,sp,164
 570:	0000                	unimp
 572:	0005                	c.nop	1
 574:	00000607          	0x607
 578:	0005                	c.nop	1
 57a:	028d                	addi	t0,t0,3
 57c:	0000                	unimp
 57e:	0005                	c.nop	1
 580:	165c                	addi	a5,sp,804
 582:	0000                	unimp
 584:	0005                	c.nop	1
 586:	1c98                	addi	a4,sp,624
 588:	0000                	unimp
 58a:	0005                	c.nop	1
 58c:	00002473          	csrr	s0,ustatus
 590:	0005                	c.nop	1
 592:	08ed                	addi	a7,a7,27
 594:	0000                	unimp
 596:	0005                	c.nop	1
 598:	123c                	addi	a5,sp,296
 59a:	0000                	unimp
 59c:	0005                	c.nop	1
 59e:	13e9                	addi	t2,t2,-6
 5a0:	0000                	unimp
 5a2:	0005                	c.nop	1
 5a4:	22da                	fld	ft5,400(sp)
 5a6:	0000                	unimp
 5a8:	0005                	c.nop	1
 5aa:	00001897          	auipc	a7,0x1
 5ae:	0005                	c.nop	1
 5b0:	205c                	fld	fa5,128(s0)
 5b2:	0000                	unimp
 5b4:	0005                	c.nop	1
 5b6:	0000231b          	0x231b
 5ba:	0005                	c.nop	1
 5bc:	2138                	fld	fa4,64(a0)
 5be:	0000                	unimp
 5c0:	0005                	c.nop	1
 5c2:	0089                	addi	ra,ra,2
 5c4:	0000                	unimp
 5c6:	0005                	c.nop	1
 5c8:	1a49                	addi	s4,s4,-14
 5ca:	0000                	unimp
 5cc:	0005                	c.nop	1
 5ce:	1271                	addi	tp,tp,-4
 5d0:	0000                	unimp
 5d2:	0005                	c.nop	1
 5d4:	10f8                	addi	a4,sp,108
 5d6:	0000                	unimp
 5d8:	0005                	c.nop	1
 5da:	182e                	slli	a6,a6,0x2b
 5dc:	0000                	unimp
 5de:	0005                	c.nop	1
 5e0:	000015bf 15360005 	0x15360005000015bf
 5e8:	0000                	unimp
 5ea:	0005                	c.nop	1
 5ec:	1918                	addi	a4,sp,176
 5ee:	0000                	unimp
 5f0:	0005                	c.nop	1
 5f2:	24f6                	fld	fs1,344(sp)
 5f4:	0000                	unimp
 5f6:	0005                	c.nop	1
 5f8:	0468                	addi	a0,sp,524
 5fa:	0000                	unimp
 5fc:	0005                	c.nop	1
 5fe:	0bbc                	addi	a5,sp,472
 600:	0000                	unimp
 602:	0005                	c.nop	1
 604:	1380                	addi	s0,sp,480
 606:	0000                	unimp
 608:	0005                	c.nop	1
 60a:	171c                	addi	a5,sp,928
 60c:	0000                	unimp
 60e:	0005                	c.nop	1
 610:	0000160b          	0x160b
 614:	0005                	c.nop	1
 616:	0425                	addi	s0,s0,9
 618:	0000                	unimp
 61a:	0005                	c.nop	1
 61c:	0ff4                	addi	a3,sp,988
 61e:	0000                	unimp
 620:	0005                	c.nop	1
 622:	0485                	addi	s1,s1,1
 624:	0000                	unimp
 626:	0005                	c.nop	1
 628:	00001bcf          	fnmadd.s	fs7,ft0,ft0,ft0,rtz
 62c:	0005                	c.nop	1
 62e:	192a                	slli	s2,s2,0x2a
 630:	0000                	unimp
 632:	0005                	c.nop	1
 634:	000017a3          	sh	zero,15(zero) # f <_start-0x7ffffff1>
 638:	0005                	c.nop	1
 63a:	1032                	c.slli	zero,0x2c
 63c:	0000                	unimp
 63e:	0005                	c.nop	1
 640:	0000209b          	0x209b
 644:	0005                	c.nop	1
 646:	064a                	slli	a2,a2,0x12
 648:	0000                	unimp
 64a:	0005                	c.nop	1
 64c:	1c14                	addi	a3,sp,560
 64e:	0000                	unimp
 650:	0005                	c.nop	1
 652:	226e                	fld	ft4,216(sp)
 654:	0000                	unimp
 656:	0005                	c.nop	1
 658:	0000200f          	0x200f
 65c:	0005                	c.nop	1
 65e:	0000059b          	0x59b
 662:	0005                	c.nop	1
 664:	000023cb          	fnmsub.s	ft7,ft0,ft0,ft0,rdn
 668:	0005                	c.nop	1
 66a:	1fe4                	addi	s1,sp,1020
 66c:	0000                	unimp
 66e:	0005                	c.nop	1
 670:	05b9                	addi	a1,a1,14
 672:	0000                	unimp
 674:	0005                	c.nop	1
 676:	1416                	slli	s0,s0,0x25
 678:	0000                	unimp
 67a:	0005                	c.nop	1
 67c:	03a2                	slli	t2,t2,0x8
 67e:	0000                	unimp
 680:	0005                	c.nop	1
 682:	0e99                	addi	t4,t4,6
 684:	0000                	unimp
 686:	0005                	c.nop	1
 688:	1f10                	addi	a2,sp,944
 68a:	0000                	unimp
 68c:	0005                	c.nop	1
 68e:	11f6                	slli	gp,gp,0x3d
 690:	0000                	unimp
 692:	0005                	c.nop	1
 694:	04c6                	slli	s1,s1,0x11
 696:	0000                	unimp
 698:	0005                	c.nop	1
 69a:	000011a3          	sh	zero,3(zero) # 3 <_start-0x7ffffffd>
 69e:	0005                	c.nop	1
 6a0:	1c46                	slli	s8,s8,0x31
 6a2:	0000                	unimp
 6a4:	0005                	c.nop	1
 6a6:	1c2c                	addi	a1,sp,568
 6a8:	0000                	unimp
 6aa:	0005                	c.nop	1
 6ac:	00001f6f          	jal	t5,16ac <_start-0x7fffe954>
 6b0:	0005                	c.nop	1
 6b2:	23b4                	fld	fa3,64(a5)
 6b4:	0000                	unimp
 6b6:	0005                	c.nop	1
 6b8:	25a8                	fld	fa0,72(a1)
 6ba:	0000                	unimp
 6bc:	0005                	c.nop	1
 6be:	0e04                	addi	s1,sp,784
 6c0:	0000                	unimp
 6c2:	0005                	c.nop	1
 6c4:	1402                	slli	s0,s0,0x20
 6c6:	0000                	unimp
 6c8:	0005                	c.nop	1
 6ca:	13c4                	addi	s1,sp,484
 6cc:	0000                	unimp
 6ce:	0005                	c.nop	1
 6d0:	2545                	jal	d70 <_start-0x7ffff290>
 6d2:	0000                	unimp
 6d4:	0005                	c.nop	1
 6d6:	1736                	slli	a4,a4,0x2d
 6d8:	0000                	unimp
 6da:	0005                	c.nop	1
 6dc:	18d4                	addi	a3,sp,116
 6de:	0000                	unimp
 6e0:	0005                	c.nop	1
 6e2:	0c79                	addi	s8,s8,30
 6e4:	0000                	unimp
 6e6:	0005                	c.nop	1
 6e8:	0959                	addi	s2,s2,22
 6ea:	0000                	unimp
 6ec:	0005                	c.nop	1
 6ee:	000014d3          	fadd.s	fs1,ft0,ft0,rtz
 6f2:	0005                	c.nop	1
 6f4:	000016b3          	sll	a3,zero,zero
 6f8:	0005                	c.nop	1
 6fa:	220e                	fld	ft4,192(sp)
 6fc:	0000                	unimp
 6fe:	0005                	c.nop	1
 700:	1175                	addi	sp,sp,-3
 702:	0000                	unimp
 704:	0005                	c.nop	1
 706:	0000084b          	fnmsub.s	fa6,ft0,ft0,ft0,rne
 70a:	0005                	c.nop	1
 70c:	10b9                	addi	ra,ra,-18
 70e:	0000                	unimp
 710:	0005                	c.nop	1
 712:	2511                	jal	d16 <_start-0x7ffff2ea>
 714:	0000                	unimp
 716:	0005                	c.nop	1
 718:	0816                	slli	a6,a6,0x5
 71a:	0000                	unimp
 71c:	0005                	c.nop	1
 71e:	00001707          	0x1707
 722:	0005                	c.nop	1
 724:	02a0                	addi	s0,sp,328
 726:	0000                	unimp
 728:	0005                	c.nop	1
 72a:	2045                	jal	7ca <_start-0x7ffff836>
 72c:	0000                	unimp
 72e:	0005                	c.nop	1
 730:	2204                	fld	fs1,0(a2)
 732:	0000                	unimp
 734:	0005                	c.nop	1
 736:	139a                	slli	t2,t2,0x26
 738:	0000                	unimp
 73a:	0005                	c.nop	1
 73c:	00001b63          	bnez	zero,752 <_start-0x7ffff8ae>
 740:	0005                	c.nop	1
 742:	1994                	addi	a3,sp,240
 744:	0000                	unimp
 746:	0005                	c.nop	1
 748:	0000178f          	0x178f
 74c:	0005                	c.nop	1
 74e:	0156                	slli	sp,sp,0x15
 750:	0000                	unimp
 752:	0005                	c.nop	1
 754:	235f 0000 0005      	0x50000235f
 75a:	037c                	addi	a5,sp,396
 75c:	0000                	unimp
 75e:	0005                	c.nop	1
 760:	2111                	jal	b64 <_start-0x7ffff49c>
 762:	0000                	unimp
 764:	0005                	c.nop	1
 766:	11bd                	addi	gp,gp,-17
 768:	0000                	unimp
 76a:	0005                	c.nop	1
 76c:	1ef5                	addi	t4,t4,-3
 76e:	0000                	unimp
 770:	0005                	c.nop	1
 772:	053e                	slli	a0,a0,0xf
 774:	0000                	unimp
 776:	0005                	c.nop	1
 778:	01e6                	slli	gp,gp,0x19
 77a:	0000                	unimp
 77c:	0005                	c.nop	1
 77e:	18f6                	slli	a7,a7,0x3d
 780:	0000                	unimp
 782:	0005                	c.nop	1
 784:	01fa                	slli	gp,gp,0x1e
 786:	0000                	unimp
 788:	0005                	c.nop	1
 78a:	0b74                	addi	a3,sp,412
 78c:	0000                	unimp
 78e:	0005                	c.nop	1
 790:	1df2                	slli	s11,s11,0x3c
 792:	0000                	unimp
 794:	0005                	c.nop	1
 796:	1b94                	addi	a3,sp,496
 798:	0000                	unimp
 79a:	0005                	c.nop	1
 79c:	12cd                	addi	t0,t0,-13
 79e:	0000                	unimp
 7a0:	0005                	c.nop	1
 7a2:	24a8                	fld	fa0,72(s1)
 7a4:	0000                	unimp
 7a6:	0005                	c.nop	1
 7a8:	1ba6                	slli	s7,s7,0x29
 7aa:	0000                	unimp
 7ac:	0005                	c.nop	1
 7ae:	0b86                	slli	s7,s7,0x1
 7b0:	0000                	unimp
	...

Disassembly of section .debug_line_str:

00000000 <.debug_line_str>:
   0:	64656d2f          	0x64656d2f
   4:	6169                	addi	sp,sp,208
   6:	6e756e2f          	0x6e756e2f
   a:	44482f6f          	jal	t5,8244e <_start-0x7ff7dbb2>
   e:	2f44                	fld	fs1,152(a4)
  10:	6b726f77          	0x6b726f77
  14:	6f72702f          	0x6f72702f
  18:	656a                	flw	fa0,152(sp)
  1a:	2f737463          	bgeu	t1,s7,302 <_start-0x7ffffcfe>
  1e:	63657073          	csrci	0x636,10
  22:	77682d73          	csrrs	s10,0x776,a6
  26:	5349522f          	0x5349522f
  2a:	722f5643          	fmadd.d	fa2,ft10,ft2,fa4,unknown
  2e:	7365                	lui	t1,0xffff9
  30:	6372756f          	jal	a0,27e66 <_start-0x7ffd819a>
  34:	7365                	lui	t1,0xffff9
  36:	67726f2f          	0x67726f2f
  3a:	6570732f          	0x6570732f
  3e:	522f7363          	bgeu	t5,sp,564 <_start-0x7ffffa9c>
  42:	7369                	lui	t1,0xffffa
  44:	652f7663          	bgeu	t5,s2,690 <_start-0x7ffff970>
  48:	6178                	flw	fa4,68(a0)
  4a:	706d                	c.lui	zero,0xffffb
  4c:	656c                	flw	fa1,76(a0)
  4e:	69722f73          	csrrs	t5,0x697,tp
  52:	5f766373          	csrrsi	t1,0x5f7,12
  56:	6162                	flw	ft2,24(sp)
  58:	6572                	flw	fa0,28(sp)
  5a:	6d5f 7465 6c61      	0x6c6174656d5f
  60:	715f 6d65 5f75      	0x5f756d65715f
  66:	756d                	lui	a0,0xffffb
  68:	746c                	flw	fa1,108(s0)
  6a:	7400                	flw	fs0,40(s0)
  6c:	7365                	lui	t1,0xffff9
  6e:	3674                	fld	fa3,232(a2)
  70:	2e34                	fld	fa3,88(a2)
  72:	72630063          	beq	t1,t1,792 <_start-0x7ffff86e>
  76:	3074                	fld	fa3,224(s0)
  78:	732e                	flw	ft6,232(sp)
	...
