	.file	"test64.c"
	.option nopic
	.attribute arch, "rv32i2p0_m2p0_a2p0_f2p0"
	.attribute unaligned_access, 0
	.attribute stack_align, 16
	.text
.Ltext0:
	.cfi_sections	.debug_frame
	.align	2
	.globl	mult
	.type	mult, @function
mult:
.LFB0:
	.file 1 "test64.c"
	.loc 1 3 14
	.cfi_startproc
	addi	sp,sp,-32
	.cfi_def_cfa_offset 32
	sw	s0,28(sp)
	.cfi_offset 8, -4
	addi	s0,sp,32
	.cfi_def_cfa 8, 0
	.loc 1 4 15
	lui	a5,%hi(.LC0)
	flw	fa5,%lo(.LC0)(a5)
	fsw	fa5,-20(s0)
	.loc 1 4 24
	lui	a5,%hi(.LC1)
	flw	fa5,%lo(.LC1)(a5)
	fsw	fa5,-24(s0)
	.loc 1 5 17
	flw	fa4,-20(s0)
	flw	fa5,-24(s0)
	fmul.s	fa5,fa4,fa5
	.loc 1 6 1
	fmv.s	fa0,fa5
	lw	s0,28(sp)
	.cfi_restore 8
	.cfi_def_cfa 2, 32
	addi	sp,sp,32
	.cfi_def_cfa_offset 0
	jr	ra
	.cfi_endproc
.LFE0:
	.size	mult, .-mult
	.align	2
	.globl	main
	.type	main, @function
main:
.LFB1:
	.loc 1 8 12
	.cfi_startproc
	addi	sp,sp,-16
	.cfi_def_cfa_offset 16
	sw	ra,12(sp)
	sw	s0,8(sp)
	.cfi_offset 1, -4
	.cfi_offset 8, -8
	addi	s0,sp,16
	.cfi_def_cfa 8, 0
	.loc 1 10 15
	call	mult
	fmv.s	fa5,fa0
	.loc 1 10 9
	fcvt.w.s a5,fa5,rtz
	.loc 1 11 1
	mv	a0,a5
	lw	ra,12(sp)
	.cfi_restore 1
	lw	s0,8(sp)
	.cfi_restore 8
	.cfi_def_cfa 2, 16
	addi	sp,sp,16
	.cfi_def_cfa_offset 0
	jr	ra
	.cfi_endproc
.LFE1:
	.size	main, .-main
	.section	.rodata
	.align	2
.LC0:
	.word	1148846080
	.align	2
.LC1:
	.word	1077936128
	.text
.Letext0: