
test.elf:     file format elf32-microblaze


Disassembly of section .vectors.reset:

00000000 <_start>:
   0:	b8080050 	brai	80	// 50 <_TEXT_START_ADDR>

Disassembly of section .vectors.sw_exception:

00000008 <_vector_sw_exception>:
   8:	b80801d0 	brai	464	// 1d0 <_exception_handler>

Disassembly of section .vectors.interrupt:

00000010 <_vector_interrupt>:
  10:	b80801e0 	brai	480	// 1e0 <_interrupt_handler>

Disassembly of section .vectors.hw_exception:

00000020 <_vector_hw_exception>:
  20:	b80801d8 	brai	472	// 1d8 <_hw_exception_handler>

Disassembly of section .text:

00000050 <_start1>:
  50:	31a00518 	addik	r13, r0, 1304	// 518 <_SDA_BASE_>
  54:	30400408 	addik	r2, r0, 1032	// 408 <_SDA2_BASE_>
  58:	b0000000 	imm	0
  5c:	30208528 	addik	r1, r0, -31448
  60:	b9f400c0 	brlid	r15, 192	// 120 <_crtinit>
  64:	80000000 	or	r0, r0, r0
  68:	b9f40190 	brlid	r15, 400	// 1f8 <exit>
  6c:	30a30000 	addik	r5, r3, 0

00000070 <_exit>:
  70:	b8000000 	bri	0	// 70 <_exit>

00000074 <__do_global_dtors_aux>:
  74:	e0600518 	lbui	r3, r0, 1304	// 518 <_SDA_BASE_>
  78:	3021ffe4 	addik	r1, r1, -28
  7c:	f9e10000 	swi	r15, r1, 0
  80:	bc030014 	beqi	r3, 20		// 94
  84:	b8000040 	bri	64		// c4
  88:	f8600410 	swi	r3, r0, 1040	// 410 <p.2214>
  8c:	99fc2000 	brald	r15, r4
  90:	80000000 	or	r0, r0, r0
  94:	e8600410 	lwi	r3, r0, 1040	// 410 <p.2214>
  98:	e8830000 	lwi	r4, r3, 0
  9c:	be24ffec 	bneid	r4, -20		// 88
  a0:	30630004 	addik	r3, r3, 4
  a4:	b0000000 	imm	0
  a8:	30600000 	addik	r3, r0, 0
  ac:	bc030010 	beqi	r3, 16		// bc
  b0:	30a0050c 	addik	r5, r0, 1292	// 50c <_edata>
  b4:	99fc1800 	brald	r15, r3
  b8:	80000000 	or	r0, r0, r0
  bc:	30600001 	addik	r3, r0, 1
  c0:	f0600518 	sbi	r3, r0, 1304	// 518 <_SDA_BASE_>
  c4:	e9e10000 	lwi	r15, r1, 0
  c8:	b60f0008 	rtsd	r15, 8
  cc:	3021001c 	addik	r1, r1, 28

000000d0 <frame_dummy>:
  d0:	b0000000 	imm	0
  d4:	30600000 	addik	r3, r0, 0
  d8:	3021ffe4 	addik	r1, r1, -28
  dc:	f9e10000 	swi	r15, r1, 0
  e0:	30a0050c 	addik	r5, r0, 1292	// 50c <_edata>
  e4:	30c0051c 	addik	r6, r0, 1308	// 51c <object.2269>
  e8:	bc03000c 	beqi	r3, 12		// f4
  ec:	99fc1800 	brald	r15, r3
  f0:	80000000 	or	r0, r0, r0
  f4:	e8600510 	lwi	r3, r0, 1296	// 510 <__JCR_END__>
  f8:	b0000000 	imm	0
  fc:	30800000 	addik	r4, r0, 0
 100:	bc030014 	beqi	r3, 20		// 114
 104:	30a00510 	addik	r5, r0, 1296	// 510 <__JCR_END__>
 108:	bc04000c 	beqi	r4, 12		// 114
 10c:	99fc2000 	brald	r15, r4
 110:	80000000 	or	r0, r0, r0
 114:	e9e10000 	lwi	r15, r1, 0
 118:	b60f0008 	rtsd	r15, 8
 11c:	3021001c 	addik	r1, r1, 28

00000120 <_crtinit>:
 120:	2021ffec 	addi	r1, r1, -20
 124:	f9e10000 	swi	r15, r1, 0
 128:	20c00518 	addi	r6, r0, 1304	// 518 <_SDA_BASE_>
 12c:	20e00518 	addi	r7, r0, 1304	// 518 <_SDA_BASE_>
 130:	06463800 	rsub	r18, r6, r7
 134:	bc720014 	blei	r18, 20		// 148
 138:	f8060000 	swi	r0, r6, 0
 13c:	20c60004 	addi	r6, r6, 4
 140:	06463800 	rsub	r18, r6, r7
 144:	bc92fff4 	bgti	r18, -12		// 138
 148:	20c00518 	addi	r6, r0, 1304	// 518 <_SDA_BASE_>
 14c:	20e00534 	addi	r7, r0, 1332	// 534 <__bss_end>
 150:	06463800 	rsub	r18, r6, r7
 154:	bc720014 	blei	r18, 20		// 168
 158:	f8060000 	swi	r0, r6, 0
 15c:	20c60004 	addi	r6, r6, 4
 160:	06463800 	rsub	r18, r6, r7
 164:	bc92fff4 	bgti	r18, -12		// 158
 168:	b9f40088 	brlid	r15, 136	// 1f0 <_program_init>
 16c:	80000000 	or	r0, r0, r0
 170:	b9f40240 	brlid	r15, 576	// 3b0 <_etext>
 174:	80000000 	or	r0, r0, r0
 178:	20c00000 	addi	r6, r0, 0
 17c:	20e00000 	addi	r7, r0, 0
 180:	b9f4002c 	brlid	r15, 44	// 1ac <main>
 184:	20a00000 	addi	r5, r0, 0
 188:	32630000 	addik	r19, r3, 0
 18c:	b9f40248 	brlid	r15, 584	// 3d4 <__fini>
 190:	80000000 	or	r0, r0, r0
 194:	b9f40054 	brlid	r15, 84	// 1e8 <_program_clean>
 198:	80000000 	or	r0, r0, r0
 19c:	c9e10000 	lw	r15, r1, r0
 1a0:	30730000 	addik	r3, r19, 0
 1a4:	b60f0008 	rtsd	r15, 8
 1a8:	20210014 	addi	r1, r1, 20

000001ac <main>:
 1ac:	10a00000 	addk	r5, r0, r0
 1b0:	10850000 	addk	r4, r5, r0
 1b4:	40642000 	mul	r3, r4, r4
 1b8:	30840001 	addik	r4, r4, 1
 1bc:	aa440800 	xori	r18, r4, 2048
 1c0:	be32fff4 	bneid	r18, -12		// 1b4
 1c4:	10a51800 	addk	r5, r5, r3
 1c8:	b60f0008 	rtsd	r15, 8
 1cc:	10650000 	addk	r3, r5, r0

000001d0 <_exception_handler>:
 1d0:	b6110000 	rtsd	r17, 0
 1d4:	80000000 	or	r0, r0, r0

000001d8 <_hw_exception_handler>:
 1d8:	b6910000 	rted	r17, 0
 1dc:	80000000 	or	r0, r0, r0

000001e0 <_interrupt_handler>:
 1e0:	b62e0000 	rtid	r14, 0
 1e4:	80000000 	or	r0, r0, r0

000001e8 <_program_clean>:
 1e8:	b60f0008 	rtsd	r15, 8
 1ec:	80000000 	or	r0, r0, r0

000001f0 <_program_init>:
 1f0:	b60f0008 	rtsd	r15, 8
 1f4:	80000000 	or	r0, r0, r0

000001f8 <exit>:
 1f8:	3021ffe0 	addik	r1, r1, -32
 1fc:	10c00000 	addk	r6, r0, r0
 200:	fa61001c 	swi	r19, r1, 28
 204:	f9e10000 	swi	r15, r1, 0
 208:	b9f40024 	brlid	r15, 36	// 22c <__call_exitprocs>
 20c:	12650000 	addk	r19, r5, r0
 210:	e8a00400 	lwi	r5, r0, 1024	// 400 <_frodata>
 214:	e8650028 	lwi	r3, r5, 40
 218:	bc03000c 	beqi	r3, 12		// 224
 21c:	99fc1800 	brald	r15, r3
 220:	80000000 	or	r0, r0, r0
 224:	b9f4fe4c 	brlid	r15, -436	// 70 <_exit>
 228:	10b30000 	addk	r5, r19, r0

0000022c <__call_exitprocs>:
 22c:	e8600400 	lwi	r3, r0, 1024	// 400 <_frodata>
 230:	3021ffc8 	addik	r1, r1, -56
 234:	fb410030 	swi	r26, r1, 48
 238:	fb610034 	swi	r27, r1, 52
 23c:	f9e10000 	swi	r15, r1, 0
 240:	fa61001c 	swi	r19, r1, 28
 244:	fac10020 	swi	r22, r1, 32
 248:	fae10024 	swi	r23, r1, 36
 24c:	fb010028 	swi	r24, r1, 40
 250:	fb21002c 	swi	r25, r1, 44
 254:	eb230048 	lwi	r25, r3, 72
 258:	13650000 	addk	r27, r5, r0
 25c:	be1900d0 	beqid	r25, 208		// 32c
 260:	13460000 	addk	r26, r6, r0
 264:	e8790004 	lwi	r3, r25, 4
 268:	eb190088 	lwi	r24, r25, 136
 26c:	3263ffff 	addik	r19, r3, -1
 270:	bc5300bc 	blti	r19, 188		// 32c
 274:	10939800 	addk	r4, r19, r19
 278:	10842000 	addk	r4, r4, r4
 27c:	30640008 	addik	r3, r4, 8
 280:	12f91800 	addk	r23, r25, r3
 284:	b810002c 	brid	44		// 2b0
 288:	12d82000 	addk	r22, r24, r4
 28c:	bc180010 	beqi	r24, 16		// 29c
 290:	e8760080 	lwi	r3, r22, 128
 294:	1643d000 	rsubk	r18, r3, r26
 298:	bc12001c 	beqi	r18, 28		// 2b4
 29c:	3273ffff 	addik	r19, r19, -1
 2a0:	32d6fffc 	addik	r22, r22, -4
 2a4:	aa53ffff 	xori	r18, r19, -1
 2a8:	be120084 	beqid	r18, 132		// 32c
 2ac:	32f7fffc 	addik	r23, r23, -4
 2b0:	bc3affdc 	bnei	r26, -36		// 28c
 2b4:	e8790004 	lwi	r3, r25, 4
 2b8:	e8f70000 	lwi	r7, r23, 0
 2bc:	3063ffff 	addik	r3, r3, -1
 2c0:	16439800 	rsubk	r18, r3, r19
 2c4:	bc120090 	beqi	r18, 144		// 354
 2c8:	f8170000 	swi	r0, r23, 0
 2cc:	bc07ffd0 	beqi	r7, -48		// 29c
 2d0:	be18004c 	beqid	r24, 76		// 31c
 2d4:	30800001 	addik	r4, r0, 1
 2d8:	e8780100 	lwi	r3, r24, 256
 2dc:	a653001f 	andi	r18, r19, 31
 2e0:	be120014 	beqid	r18, 20		// 2f4
 2e4:	10840000 	addk	r4, r4, r0
 2e8:	3252ffff 	addik	r18, r18, -1
 2ec:	be32fffc 	bneid	r18, -4		// 2e8
 2f0:	10842000 	addk	r4, r4, r4
 2f4:	84641800 	and	r3, r4, r3
 2f8:	bc030024 	beqi	r3, 36		// 31c
 2fc:	e8780104 	lwi	r3, r24, 260
 300:	84641800 	and	r3, r4, r3
 304:	bc030058 	beqi	r3, 88		// 35c
 308:	e8b60000 	lwi	r5, r22, 0
 30c:	99fc3800 	brald	r15, r7
 310:	3273ffff 	addik	r19, r19, -1
 314:	b810ff90 	brid	-112		// 2a4
 318:	32d6fffc 	addik	r22, r22, -4
 31c:	99fc3800 	brald	r15, r7
 320:	3273ffff 	addik	r19, r19, -1
 324:	b810ff80 	brid	-128		// 2a4
 328:	32d6fffc 	addik	r22, r22, -4
 32c:	e9e10000 	lwi	r15, r1, 0
 330:	ea61001c 	lwi	r19, r1, 28
 334:	eac10020 	lwi	r22, r1, 32
 338:	eae10024 	lwi	r23, r1, 36
 33c:	eb010028 	lwi	r24, r1, 40
 340:	eb21002c 	lwi	r25, r1, 44
 344:	eb410030 	lwi	r26, r1, 48
 348:	eb610034 	lwi	r27, r1, 52
 34c:	b60f0008 	rtsd	r15, 8
 350:	30210038 	addik	r1, r1, 56
 354:	fa790004 	swi	r19, r25, 4
 358:	b800ff74 	bri	-140		// 2cc
 35c:	e8d60000 	lwi	r6, r22, 0
 360:	99fc3800 	brald	r15, r7
 364:	10bb0000 	addk	r5, r27, r0
 368:	b810ff38 	brid	-200		// 2a0
 36c:	3273ffff 	addik	r19, r19, -1

00000370 <__do_global_ctors_aux>:
 370:	e86003f0 	lwi	r3, r0, 1008	// 3f0 <__CTOR_LIST__>
 374:	3021ffe0 	addik	r1, r1, -32
 378:	fa61001c 	swi	r19, r1, 28
 37c:	f9e10000 	swi	r15, r1, 0
 380:	326003f0 	addik	r19, r0, 1008	// 3f0 <__CTOR_LIST__>
 384:	aa43ffff 	xori	r18, r3, -1
 388:	bc120018 	beqi	r18, 24		// 3a0
 38c:	99fc1800 	brald	r15, r3
 390:	3273fffc 	addik	r19, r19, -4
 394:	e8730000 	lwi	r3, r19, 0
 398:	aa43ffff 	xori	r18, r3, -1
 39c:	bc32fff0 	bnei	r18, -16		// 38c
 3a0:	e9e10000 	lwi	r15, r1, 0
 3a4:	ea61001c 	lwi	r19, r1, 28
 3a8:	b60f0008 	rtsd	r15, 8
 3ac:	30210020 	addik	r1, r1, 32

Disassembly of section .init:

000003b0 <__init>:
 3b0:	3021fff8 	addik	r1, r1, -8
 3b4:	d9e00800 	sw	r15, r0, r1
 3b8:	b9f4fd18 	brlid	r15, -744	// d0 <frame_dummy>
 3bc:	80000000 	or	r0, r0, r0
 3c0:	b9f4ffb0 	brlid	r15, -80	// 370 <__do_global_ctors_aux>
 3c4:	80000000 	or	r0, r0, r0
 3c8:	c9e00800 	lw	r15, r0, r1
 3cc:	b60f0008 	rtsd	r15, 8
 3d0:	30210008 	addik	r1, r1, 8

Disassembly of section .fini:

000003d4 <__fini>:
 3d4:	3021fff8 	addik	r1, r1, -8
 3d8:	d9e00800 	sw	r15, r0, r1
 3dc:	b9f4fc98 	brlid	r15, -872	// 74 <__do_global_dtors_aux>
 3e0:	80000000 	or	r0, r0, r0
 3e4:	c9e00800 	lw	r15, r0, r1
 3e8:	b60f0008 	rtsd	r15, 8
 3ec:	30210008 	addik	r1, r1, 8
