
helloworld.elf:     file format elf32-microblazeel


Disassembly of section .vectors.reset:

00000000 <_start>:
   0:	b0000000 	imm	0
   4:	b8080050 	brai	80	// 50 <_start1>

Disassembly of section .vectors.sw_exception:

00000008 <_vector_sw_exception>:
   8:	b0000000 	imm	0
   c:	b8080570 	brai	1392	// 570 <_exception_handler>

Disassembly of section .vectors.interrupt:

00000010 <_vector_interrupt>:
  10:	b0000000 	imm	0
  14:	b8080754 	brai	1876	// 754 <__interrupt_handler>

Disassembly of section .vectors.hw_exception:

00000020 <_vector_hw_exception>:
  20:	b0000000 	imm	0
  24:	b80802ec 	brai	748	// 2ec <_hw_exception_handler>

Disassembly of section .text:

00000050 <_start1>:
  50:	b0000000 	imm	0
  54:	31a00c28 	addik	r13, r0, 3112	// c28 <_SDA_BASE_>
  58:	b0000000 	imm	0
  5c:	30400b00 	addik	r2, r0, 2816	// b00 <_SDA2_BASE_>
  60:	b0000000 	imm	0
  64:	30201828 	addik	r1, r0, 6184
  68:	b0000000 	imm	0
  6c:	b9f401d0 	brlid	r15, 464	// 23c <_crtinit>
  70:	80000000 	or	r0, r0, r0
  74:	b0000000 	imm	0
  78:	b9f402ec 	brlid	r15, 748	// 364 <exit>
  7c:	30a30000 	addik	r5, r3, 0

00000080 <_exit>:
  80:	b8000000 	bri	0	// 80 <_exit>

00000084 <deregister_tm_clones>:
  84:	b0000000 	imm	0
  88:	30a00c28 	addik	r5, r0, 3112	// c28 <_SDA_BASE_>
  8c:	b0000000 	imm	0
  90:	30600c28 	addik	r3, r0, 3112	// c28 <_SDA_BASE_>
  94:	88632800 	xor	r3, r3, r5
  98:	bc03002c 	beqi	r3, 44		// c4
  9c:	b0000000 	imm	0
  a0:	30600000 	addik	r3, r0, 0
  a4:	bc030020 	beqi	r3, 32		// c4
  a8:	3021ffe4 	addik	r1, r1, -28
  ac:	f9e10000 	swi	r15, r1, 0
  b0:	99fc1800 	brald	r15, r3
  b4:	80000000 	or	r0, r0, r0
  b8:	e9e10000 	lwi	r15, r1, 0
  bc:	b60f0008 	rtsd	r15, 8
  c0:	3021001c 	addik	r1, r1, 28
  c4:	b60f0008 	rtsd	r15, 8
  c8:	80000000 	or	r0, r0, r0

000000cc <register_tm_clones>:
  cc:	b0000000 	imm	0
  d0:	30a00c28 	addik	r5, r0, 3112	// c28 <_SDA_BASE_>
  d4:	b0000000 	imm	0
  d8:	30c00c28 	addik	r6, r0, 3112	// c28 <_SDA_BASE_>
  dc:	14c53000 	rsubk	r6, r5, r6
  e0:	64c60202 	bsrai	r6, r6, 2
  e4:	6466001f 	bsrli	r3, r6, 31
  e8:	10c33000 	addk	r6, r3, r6
  ec:	90c60001 	sra	r6, r6
  f0:	bc06002c 	beqi	r6, 44		// 11c
  f4:	b0000000 	imm	0
  f8:	30600000 	addik	r3, r0, 0
  fc:	bc030020 	beqi	r3, 32		// 11c
 100:	3021ffe4 	addik	r1, r1, -28
 104:	f9e10000 	swi	r15, r1, 0
 108:	99fc1800 	brald	r15, r3
 10c:	80000000 	or	r0, r0, r0
 110:	e9e10000 	lwi	r15, r1, 0
 114:	b60f0008 	rtsd	r15, 8
 118:	3021001c 	addik	r1, r1, 28
 11c:	b60f0008 	rtsd	r15, 8
 120:	80000000 	or	r0, r0, r0

00000124 <__do_global_dtors_aux>:
 124:	b0000000 	imm	0
 128:	e0600c28 	lbui	r3, r0, 3112	// c28 <_SDA_BASE_>
 12c:	bc2300c4 	bnei	r3, 196		// 1f0
 130:	3021ffdc 	addik	r1, r1, -36
 134:	fa61001c 	swi	r19, r1, 28
 138:	b0000000 	imm	0
 13c:	30800ae0 	addik	r4, r0, 2784	// ae0 <__CTOR_END__>
 140:	b0000000 	imm	0
 144:	32600ae4 	addik	r19, r0, 2788	// ae4 <__DTOR_END__>
 148:	b0000000 	imm	0
 14c:	e8600c2c 	lwi	r3, r0, 3116	// c2c <dtor_idx.5045>
 150:	fac10020 	swi	r22, r1, 32
 154:	16649800 	rsubk	r19, r4, r19
 158:	66730202 	bsrai	r19, r19, 2
 15c:	f9e10000 	swi	r15, r1, 0
 160:	3273ffff 	addik	r19, r19, -1
 164:	b0000000 	imm	0
 168:	32c00ae0 	addik	r22, r0, 2784	// ae0 <__CTOR_END__>
 16c:	16531803 	cmpu	r18, r19, r3
 170:	beb20034 	bgeid	r18, 52		// 1a4
 174:	30630001 	addik	r3, r3, 1
 178:	64830402 	bslli	r4, r3, 2
 17c:	c884b000 	lw	r4, r4, r22
 180:	b0000000 	imm	0
 184:	f8600c2c 	swi	r3, r0, 3116	// c2c <dtor_idx.5045>
 188:	99fc2000 	brald	r15, r4
 18c:	80000000 	or	r0, r0, r0
 190:	b0000000 	imm	0
 194:	e8600c2c 	lwi	r3, r0, 3116	// c2c <dtor_idx.5045>
 198:	16531803 	cmpu	r18, r19, r3
 19c:	be52ffdc 	bltid	r18, -36		// 178
 1a0:	30630001 	addik	r3, r3, 1
 1a4:	b9f4fee0 	brlid	r15, -288	// 84 <deregister_tm_clones>
 1a8:	80000000 	or	r0, r0, r0
 1ac:	b0000000 	imm	0
 1b0:	30600000 	addik	r3, r0, 0
 1b4:	be030020 	beqid	r3, 32		// 1d4
 1b8:	e9e10000 	lwi	r15, r1, 0
 1bc:	b0000000 	imm	0
 1c0:	30a00c28 	addik	r5, r0, 3112	// c28 <_SDA_BASE_>
 1c4:	b000ffff 	imm	-1
 1c8:	b9f4fe38 	brlid	r15, -456	// 0 <_start>
 1cc:	80000000 	or	r0, r0, r0
 1d0:	e9e10000 	lwi	r15, r1, 0
 1d4:	ea61001c 	lwi	r19, r1, 28
 1d8:	eac10020 	lwi	r22, r1, 32
 1dc:	30600001 	addik	r3, r0, 1
 1e0:	b0000000 	imm	0
 1e4:	f0600c28 	sbi	r3, r0, 3112	// c28 <_SDA_BASE_>
 1e8:	b60f0008 	rtsd	r15, 8
 1ec:	30210024 	addik	r1, r1, 36
 1f0:	b60f0008 	rtsd	r15, 8
 1f4:	80000000 	or	r0, r0, r0

000001f8 <frame_dummy>:
 1f8:	b0000000 	imm	0
 1fc:	30600000 	addik	r3, r0, 0
 200:	3021ffe4 	addik	r1, r1, -28
 204:	be030024 	beqid	r3, 36		// 228
 208:	f9e10000 	swi	r15, r1, 0
 20c:	b0000000 	imm	0
 210:	30c00c30 	addik	r6, r0, 3120	// c30 <object.5055>
 214:	b0000000 	imm	0
 218:	30a00c28 	addik	r5, r0, 3112	// c28 <_SDA_BASE_>
 21c:	b000ffff 	imm	-1
 220:	b9f4fde0 	brlid	r15, -544	// 0 <_start>
 224:	80000000 	or	r0, r0, r0
 228:	b9f4fea4 	brlid	r15, -348	// cc <register_tm_clones>
 22c:	80000000 	or	r0, r0, r0
 230:	e9e10000 	lwi	r15, r1, 0
 234:	b60f0008 	rtsd	r15, 8
 238:	3021001c 	addik	r1, r1, 28

0000023c <_crtinit>:
 23c:	2021ffd8 	addi	r1, r1, -40
 240:	f9e10000 	swi	r15, r1, 0
 244:	b0000000 	imm	0
 248:	20c00c28 	addi	r6, r0, 3112	// c28 <_SDA_BASE_>
 24c:	b0000000 	imm	0
 250:	20e00c28 	addi	r7, r0, 3112	// c28 <_SDA_BASE_>
 254:	06463800 	rsub	r18, r6, r7
 258:	bc720014 	blei	r18, 20		// 26c
 25c:	f8060000 	swi	r0, r6, 0
 260:	20c60004 	addi	r6, r6, 4
 264:	06463800 	rsub	r18, r6, r7
 268:	bc92fff4 	bgti	r18, -12		// 25c
 26c:	b0000000 	imm	0
 270:	20c00c28 	addi	r6, r0, 3112	// c28 <_SDA_BASE_>
 274:	b0000000 	imm	0
 278:	20e00c48 	addi	r7, r0, 3144	// c48 <__bss_end>
 27c:	06463800 	rsub	r18, r6, r7
 280:	bc720014 	blei	r18, 20		// 294
 284:	f8060000 	swi	r0, r6, 0
 288:	20c60004 	addi	r6, r6, 4
 28c:	06463800 	rsub	r18, r6, r7
 290:	bc92fff4 	bgti	r18, -12		// 284
 294:	b0000000 	imm	0
 298:	b9f402e4 	brlid	r15, 740	// 57c <_program_init>
 29c:	80000000 	or	r0, r0, r0
 2a0:	b0000000 	imm	0
 2a4:	b9f407d8 	brlid	r15, 2008	// a7c <__init>
 2a8:	80000000 	or	r0, r0, r0
 2ac:	20c00000 	addi	r6, r0, 0
 2b0:	20e00000 	addi	r7, r0, 0
 2b4:	b0000000 	imm	0
 2b8:	b9f4031c 	brlid	r15, 796	// 5d4 <main>
 2bc:	20a00000 	addi	r5, r0, 0
 2c0:	32630000 	addik	r19, r3, 0
 2c4:	b0000000 	imm	0
 2c8:	b9f407f0 	brlid	r15, 2032	// ab8 <__fini>
 2cc:	80000000 	or	r0, r0, r0
 2d0:	b0000000 	imm	0
 2d4:	b9f402a0 	brlid	r15, 672	// 574 <_program_clean>
 2d8:	80000000 	or	r0, r0, r0
 2dc:	c9e10000 	lw	r15, r1, r0
 2e0:	30730000 	addik	r3, r19, 0
 2e4:	b60f0008 	rtsd	r15, 8
 2e8:	20210028 	addi	r1, r1, 40

000002ec <_hw_exception_handler>:
 2ec:	b8000000 	bri	0	// 2ec <_hw_exception_handler>

000002f0 <microblaze_enable_dcache>:
 2f0:	95008001 	mfs	r8, rmsr
 2f4:	a1080080 	ori	r8, r8, 128
 2f8:	9408c001 	mts	rmsr, r8
 2fc:	b60f0008 	rtsd	r15, 8
 300:	80000000 	or	r0, r0, r0

00000304 <microblaze_enable_icache>:
 304:	95008001 	mfs	r8, rmsr
 308:	a1080020 	ori	r8, r8, 32
 30c:	9408c001 	mts	rmsr, r8
 310:	b60f0008 	rtsd	r15, 8
 314:	80000000 	or	r0, r0, r0

00000318 <microblaze_disable_dcache>:
 318:	3021fff8 	addik	r1, r1, -8
 31c:	95608001 	mfs	r11, rmsr
 320:	a56bff7f 	andi	r11, r11, -129
 324:	940bc001 	mts	rmsr, r11
 328:	b60f0008 	rtsd	r15, 8
 32c:	20210008 	addi	r1, r1, 8

00000330 <microblaze_disable_icache>:
 330:	95008001 	mfs	r8, rmsr
 334:	a508ffdf 	andi	r8, r8, -33
 338:	9408c001 	mts	rmsr, r8
 33c:	b60f0008 	rtsd	r15, 8
 340:	80000000 	or	r0, r0, r0

00000344 <microblaze_flush_cache_ext>:
 344:	b60f0008 	rtsd	r15, 8
 348:	80000000 	or	r0, r0, r0

0000034c <microblaze_invalidate_cache_ext>:
 34c:	b60f0008 	rtsd	r15, 8
 350:	80000000 	or	r0, r0, r0

00000354 <microblaze_invalidate_dcache>:
 354:	b60f0008 	rtsd	r15, 8
 358:	80000000 	or	r0, r0, r0

0000035c <microblaze_invalidate_icache>:
 35c:	b60f0008 	rtsd	r15, 8
 360:	80000000 	or	r0, r0, r0

00000364 <exit>:
 364:	3021ffe0 	addik	r1, r1, -32
 368:	10c00000 	addk	r6, r0, r0
 36c:	fa61001c 	swi	r19, r1, 28
 370:	f9e10000 	swi	r15, r1, 0
 374:	b0000000 	imm	0
 378:	b9f4002c 	brlid	r15, 44	// 3a4 <__call_exitprocs>
 37c:	12650000 	addk	r19, r5, r0
 380:	b0000000 	imm	0
 384:	e8a00af8 	lwi	r5, r0, 2808	// af8 <_global_impure_ptr>
 388:	e8650028 	lwi	r3, r5, 40
 38c:	bc03000c 	beqi	r3, 12		// 398
 390:	99fc1800 	brald	r15, r3
 394:	80000000 	or	r0, r0, r0
 398:	b000ffff 	imm	-1
 39c:	b9f4fce4 	brlid	r15, -796	// 80 <_exit>
 3a0:	10b30000 	addk	r5, r19, r0

000003a4 <__call_exitprocs>:
 3a4:	3021ffb8 	addik	r1, r1, -72
 3a8:	fb010028 	swi	r24, r1, 40
 3ac:	b0000000 	imm	0
 3b0:	eb000af8 	lwi	r24, r0, 2808	// af8 <_global_impure_ptr>
 3b4:	fb21002c 	swi	r25, r1, 44
 3b8:	fb610034 	swi	r27, r1, 52
 3bc:	fba1003c 	swi	r29, r1, 60
 3c0:	13650000 	addk	r27, r5, r0
 3c4:	13a60000 	addk	r29, r6, r0
 3c8:	b0000000 	imm	0
 3cc:	33200000 	addik	r25, r0, 0
 3d0:	fae10024 	swi	r23, r1, 36
 3d4:	fb410030 	swi	r26, r1, 48
 3d8:	f9e10000 	swi	r15, r1, 0
 3dc:	fa61001c 	swi	r19, r1, 28
 3e0:	fac10020 	swi	r22, r1, 32
 3e4:	fb810038 	swi	r28, r1, 56
 3e8:	fbc10040 	swi	r30, r1, 64
 3ec:	fbe10044 	swi	r31, r1, 68
 3f0:	33580048 	addik	r26, r24, 72
 3f4:	32e00001 	addik	r23, r0, 1
 3f8:	ead80048 	lwi	r22, r24, 72
 3fc:	be160080 	beqid	r22, 128		// 47c
 400:	13da0000 	addk	r30, r26, r0
 404:	ea760004 	lwi	r19, r22, 4
 408:	3273ffff 	addik	r19, r19, -1
 40c:	be530030 	bltid	r19, 48		// 43c
 410:	eb960088 	lwi	r28, r22, 136
 414:	bc1d00a0 	beqi	r29, 160		// 4b4
 418:	be1c0018 	beqid	r28, 24		// 430
 41c:	30730020 	addik	r3, r19, 32
 420:	64630402 	bslli	r3, r3, 2
 424:	c863e000 	lw	r3, r3, r28
 428:	8863e800 	xor	r3, r3, r29
 42c:	bc030088 	beqi	r3, 136		// 4b4
 430:	3273ffff 	addik	r19, r19, -1
 434:	a873ffff 	xori	r3, r19, -1
 438:	bc23ffdc 	bnei	r3, -36		// 414
 43c:	be190044 	beqid	r25, 68		// 480
 440:	e9e10000 	lwi	r15, r1, 0
 444:	e8960004 	lwi	r4, r22, 4
 448:	be240100 	bneid	r4, 256		// 548
 44c:	e8760000 	lwi	r3, r22, 0
 450:	bc0300f8 	beqi	r3, 248		// 548
 454:	be1c0014 	beqid	r28, 20		// 468
 458:	f87e0000 	swi	r3, r30, 0
 45c:	b000ffff 	imm	-1
 460:	b9f4fba0 	brlid	r15, -1120	// 0 <_start>
 464:	10bc0000 	addk	r5, r28, r0
 468:	b000ffff 	imm	-1
 46c:	b9f4fb94 	brlid	r15, -1132	// 0 <_start>
 470:	10b60000 	addk	r5, r22, r0
 474:	eade0000 	lwi	r22, r30, 0
 478:	bc36ff8c 	bnei	r22, -116		// 404
 47c:	e9e10000 	lwi	r15, r1, 0
 480:	ea61001c 	lwi	r19, r1, 28
 484:	eac10020 	lwi	r22, r1, 32
 488:	eae10024 	lwi	r23, r1, 36
 48c:	eb010028 	lwi	r24, r1, 40
 490:	eb21002c 	lwi	r25, r1, 44
 494:	eb410030 	lwi	r26, r1, 48
 498:	eb610034 	lwi	r27, r1, 52
 49c:	eb810038 	lwi	r28, r1, 56
 4a0:	eba1003c 	lwi	r29, r1, 60
 4a4:	ebc10040 	lwi	r30, r1, 64
 4a8:	ebe10044 	lwi	r31, r1, 68
 4ac:	b60f0008 	rtsd	r15, 8
 4b0:	30210048 	addik	r1, r1, 72
 4b4:	e8760004 	lwi	r3, r22, 4
 4b8:	64d30402 	bslli	r6, r19, 2
 4bc:	3063ffff 	addik	r3, r3, -1
 4c0:	10b63000 	addk	r5, r22, r6
 4c4:	88639800 	xor	r3, r3, r19
 4c8:	be030078 	beqid	r3, 120		// 540
 4cc:	e8850008 	lwi	r4, r5, 8
 4d0:	f8050008 	swi	r0, r5, 8
 4d4:	bc04ff5c 	beqi	r4, -164		// 430
 4d8:	be3c0034 	bneid	r28, 52		// 50c
 4dc:	ebf60004 	lwi	r31, r22, 4
 4e0:	99fc2000 	brald	r15, r4
 4e4:	80000000 	or	r0, r0, r0
 4e8:	e8760004 	lwi	r3, r22, 4
 4ec:	8863f800 	xor	r3, r3, r31
 4f0:	bc23ff08 	bnei	r3, -248		// 3f8
 4f4:	e87e0000 	lwi	r3, r30, 0
 4f8:	8863b000 	xor	r3, r3, r22
 4fc:	be03ff38 	beqid	r3, -200		// 434
 500:	3273ffff 	addik	r19, r19, -1
 504:	b810fef8 	brid	-264		// 3fc
 508:	ead80048 	lwi	r22, r24, 72
 50c:	e87c0100 	lwi	r3, r28, 256
 510:	44f79c00 	bsll	r7, r23, r19
 514:	84671800 	and	r3, r7, r3
 518:	bc03ffc8 	beqi	r3, -56		// 4e0
 51c:	e87c0104 	lwi	r3, r28, 260
 520:	c8a6e000 	lw	r5, r6, r28
 524:	84e71800 	and	r7, r7, r3
 528:	be270038 	bneid	r7, 56		// 560
 52c:	10c50000 	addk	r6, r5, r0
 530:	99fc2000 	brald	r15, r4
 534:	10bb0000 	addk	r5, r27, r0
 538:	b810ffb4 	brid	-76		// 4ec
 53c:	e8760004 	lwi	r3, r22, 4
 540:	b810ff94 	brid	-108		// 4d4
 544:	fa760004 	swi	r19, r22, 4
 548:	13d60000 	addk	r30, r22, r0
 54c:	12c30000 	addk	r22, r3, r0
 550:	be36feb4 	bneid	r22, -332		// 404
 554:	e9e10000 	lwi	r15, r1, 0
 558:	b810ff2c 	brid	-212		// 484
 55c:	ea61001c 	lwi	r19, r1, 28
 560:	99fc2000 	brald	r15, r4
 564:	80000000 	or	r0, r0, r0
 568:	b810ff84 	brid	-124		// 4ec
 56c:	e8760004 	lwi	r3, r22, 4

00000570 <_exception_handler>:
 570:	98085800 	bra	r11

00000574 <_program_clean>:
 574:	b60f0008 	rtsd	r15, 8
 578:	80000000 	or	r0, r0, r0

0000057c <_program_init>:
 57c:	b60f0008 	rtsd	r15, 8
 580:	80000000 	or	r0, r0, r0

00000584 <__do_global_ctors_aux>:
 584:	b0000000 	imm	0
 588:	e8600ad8 	lwi	r3, r0, 2776	// ad8 <__CTOR_LIST__>
 58c:	a883ffff 	xori	r4, r3, -1
 590:	bc04003c 	beqi	r4, 60		// 5cc
 594:	3021fff8 	addik	r1, r1, -8
 598:	fa610004 	swi	r19, r1, 4
 59c:	b0000000 	imm	0
 5a0:	32600ad8 	addik	r19, r0, 2776	// ad8 <__CTOR_LIST__>
 5a4:	f9e10000 	swi	r15, r1, 0
 5a8:	99fc1800 	brald	r15, r3
 5ac:	3273fffc 	addik	r19, r19, -4
 5b0:	e8730000 	lwi	r3, r19, 0
 5b4:	a883ffff 	xori	r4, r3, -1
 5b8:	be24fff0 	bneid	r4, -16		// 5a8
 5bc:	e9e10000 	lwi	r15, r1, 0
 5c0:	ea610004 	lwi	r19, r1, 4
 5c4:	b60f0008 	rtsd	r15, 8
 5c8:	30210008 	addik	r1, r1, 8
 5cc:	b60f0008 	rtsd	r15, 8
 5d0:	80000000 	or	r0, r0, r0

000005d4 <main>:
 5d4:	3021ffe0 	addik	r1, r1, -32
 5d8:	f9e10000 	swi	r15, r1, 0
 5dc:	fa61001c 	swi	r19, r1, 28
 5e0:	12610000 	addk	r19, r1, r0
 5e4:	b0000000 	imm	0
 5e8:	b9f400f0 	brlid	r15, 240	// 6d8 <init_platform>
 5ec:	80000000 	or	r0, r0, r0
 5f0:	b0000000 	imm	0
 5f4:	30a00ae8 	addik	r5, r0, 2792	// ae8 <__rodata_start>
 5f8:	b0000000 	imm	0
 5fc:	b9f401fc 	brlid	r15, 508	// 7f8 <print>
 600:	80000000 	or	r0, r0, r0
 604:	b0000000 	imm	0
 608:	b9f40114 	brlid	r15, 276	// 71c <cleanup_platform>
 60c:	80000000 	or	r0, r0, r0
 610:	10600000 	addk	r3, r0, r0
 614:	e9e10000 	lwi	r15, r1, 0
 618:	10330000 	addk	r1, r19, r0
 61c:	ea61001c 	lwi	r19, r1, 28
 620:	30210020 	addik	r1, r1, 32
 624:	b60f0008 	rtsd	r15, 8
 628:	80000000 	or	r0, r0, r0

0000062c <enable_caches>:
 62c:	3021fff8 	addik	r1, r1, -8
 630:	f9e10000 	swi	r15, r1, 0
 634:	fa610004 	swi	r19, r1, 4
 638:	12610000 	addk	r19, r1, r0
 63c:	b000ffff 	imm	-1
 640:	b9f4fcc4 	brlid	r15, -828	// 304 <microblaze_enable_icache>
 644:	80000000 	or	r0, r0, r0
 648:	b000ffff 	imm	-1
 64c:	b9f4fca4 	brlid	r15, -860	// 2f0 <microblaze_enable_dcache>
 650:	80000000 	or	r0, r0, r0
 654:	80000000 	or	r0, r0, r0
 658:	e9e10000 	lwi	r15, r1, 0
 65c:	10330000 	addk	r1, r19, r0
 660:	ea610004 	lwi	r19, r1, 4
 664:	30210008 	addik	r1, r1, 8
 668:	b60f0008 	rtsd	r15, 8
 66c:	80000000 	or	r0, r0, r0

00000670 <disable_caches>:
 670:	3021fff8 	addik	r1, r1, -8
 674:	f9e10000 	swi	r15, r1, 0
 678:	fa610004 	swi	r19, r1, 4
 67c:	12610000 	addk	r19, r1, r0
 680:	b0000000 	imm	0
 684:	b9f401bc 	brlid	r15, 444	// 840 <Xil_DCacheDisable>
 688:	80000000 	or	r0, r0, r0
 68c:	b0000000 	imm	0
 690:	b9f40200 	brlid	r15, 512	// 890 <Xil_ICacheDisable>
 694:	80000000 	or	r0, r0, r0
 698:	80000000 	or	r0, r0, r0
 69c:	e9e10000 	lwi	r15, r1, 0
 6a0:	10330000 	addk	r1, r19, r0
 6a4:	ea610004 	lwi	r19, r1, 4
 6a8:	30210008 	addik	r1, r1, 8
 6ac:	b60f0008 	rtsd	r15, 8
 6b0:	80000000 	or	r0, r0, r0

000006b4 <init_uart>:
 6b4:	3021fff8 	addik	r1, r1, -8
 6b8:	fa610004 	swi	r19, r1, 4
 6bc:	12610000 	addk	r19, r1, r0
 6c0:	80000000 	or	r0, r0, r0
 6c4:	10330000 	addk	r1, r19, r0
 6c8:	ea610004 	lwi	r19, r1, 4
 6cc:	30210008 	addik	r1, r1, 8
 6d0:	b60f0008 	rtsd	r15, 8
 6d4:	80000000 	or	r0, r0, r0

000006d8 <init_platform>:
 6d8:	3021ffe0 	addik	r1, r1, -32
 6dc:	f9e10000 	swi	r15, r1, 0
 6e0:	fa61001c 	swi	r19, r1, 28
 6e4:	12610000 	addk	r19, r1, r0
 6e8:	b000ffff 	imm	-1
 6ec:	b9f4ff40 	brlid	r15, -192	// 62c <enable_caches>
 6f0:	80000000 	or	r0, r0, r0
 6f4:	b000ffff 	imm	-1
 6f8:	b9f4ffbc 	brlid	r15, -68	// 6b4 <init_uart>
 6fc:	80000000 	or	r0, r0, r0
 700:	80000000 	or	r0, r0, r0
 704:	e9e10000 	lwi	r15, r1, 0
 708:	10330000 	addk	r1, r19, r0
 70c:	ea61001c 	lwi	r19, r1, 28
 710:	30210020 	addik	r1, r1, 32
 714:	b60f0008 	rtsd	r15, 8
 718:	80000000 	or	r0, r0, r0

0000071c <cleanup_platform>:
 71c:	3021ffe0 	addik	r1, r1, -32
 720:	f9e10000 	swi	r15, r1, 0
 724:	fa61001c 	swi	r19, r1, 28
 728:	12610000 	addk	r19, r1, r0
 72c:	b000ffff 	imm	-1
 730:	b9f4ff40 	brlid	r15, -192	// 670 <disable_caches>
 734:	80000000 	or	r0, r0, r0
 738:	80000000 	or	r0, r0, r0
 73c:	e9e10000 	lwi	r15, r1, 0
 740:	10330000 	addk	r1, r19, r0
 744:	ea61001c 	lwi	r19, r1, 28
 748:	30210020 	addik	r1, r1, 32
 74c:	b60f0008 	rtsd	r15, 8
 750:	80000000 	or	r0, r0, r0

00000754 <__interrupt_handler>:
 754:	3021ffac 	addik	r1, r1, -84
 758:	f9e10000 	swi	r15, r1, 0
 75c:	f8210020 	swi	r1, r1, 32
 760:	f8610024 	swi	r3, r1, 36
 764:	f8810028 	swi	r4, r1, 40
 768:	f8a1002c 	swi	r5, r1, 44
 76c:	f8c10030 	swi	r6, r1, 48
 770:	f8e10034 	swi	r7, r1, 52
 774:	f9010038 	swi	r8, r1, 56
 778:	f921003c 	swi	r9, r1, 60
 77c:	f9410040 	swi	r10, r1, 64
 780:	b0000000 	imm	0
 784:	30600bf4 	addik	r3, r0, 3060	// bf4 <MB_InterruptVectorTable>
 788:	f9610044 	swi	r11, r1, 68
 78c:	f9810048 	swi	r12, r1, 72
 790:	fa21004c 	swi	r17, r1, 76
 794:	95608001 	mfs	r11, rmsr
 798:	e8830000 	lwi	r4, r3, 0
 79c:	e8a30004 	lwi	r5, r3, 4
 7a0:	fa410050 	swi	r18, r1, 80
 7a4:	f961001c 	swi	r11, r1, 28
 7a8:	99fc2000 	brald	r15, r4
 7ac:	80000000 	or	r0, r0, r0
 7b0:	e9e10000 	lwi	r15, r1, 0
 7b4:	e961001c 	lwi	r11, r1, 28
 7b8:	e8210020 	lwi	r1, r1, 32
 7bc:	940bc001 	mts	rmsr, r11
 7c0:	e8610024 	lwi	r3, r1, 36
 7c4:	e8810028 	lwi	r4, r1, 40
 7c8:	e8a1002c 	lwi	r5, r1, 44
 7cc:	e8c10030 	lwi	r6, r1, 48
 7d0:	e8e10034 	lwi	r7, r1, 52
 7d4:	e9010038 	lwi	r8, r1, 56
 7d8:	e921003c 	lwi	r9, r1, 60
 7dc:	e9410040 	lwi	r10, r1, 64
 7e0:	e9610044 	lwi	r11, r1, 68
 7e4:	e9810048 	lwi	r12, r1, 72
 7e8:	ea21004c 	lwi	r17, r1, 76
 7ec:	ea410050 	lwi	r18, r1, 80
 7f0:	b62e0000 	rtid	r14, 0
 7f4:	30210054 	addik	r1, r1, 84

000007f8 <print>:
 7f8:	3021fff8 	addik	r1, r1, -8
 7fc:	fa610004 	swi	r19, r1, 4
 800:	f9e10000 	swi	r15, r1, 0
 804:	12650000 	addk	r19, r5, r0
 808:	e0a50000 	lbui	r5, r5, 0
 80c:	90a50060 	sext8	r5, r5
 810:	be050024 	beqid	r5, 36		// 834
 814:	e9e10000 	lwi	r15, r1, 0
 818:	b0000000 	imm	0
 81c:	b9f40210 	brlid	r15, 528	// a2c <outbyte>
 820:	32730001 	addik	r19, r19, 1
 824:	e0b30000 	lbui	r5, r19, 0
 828:	90a50060 	sext8	r5, r5
 82c:	be25ffec 	bneid	r5, -20		// 818
 830:	e9e10000 	lwi	r15, r1, 0
 834:	ea610004 	lwi	r19, r1, 4
 838:	b60f0008 	rtsd	r15, 8
 83c:	30210008 	addik	r1, r1, 8

00000840 <Xil_DCacheDisable>:
 840:	3021fffc 	addik	r1, r1, -4
 844:	f9e10000 	swi	r15, r1, 0
 848:	b000ffff 	imm	-1
 84c:	b9f4faf8 	brlid	r15, -1288	// 344 <microblaze_flush_cache_ext>
 850:	80000000 	or	r0, r0, r0
 854:	b000ffff 	imm	-1
 858:	b9f4fafc 	brlid	r15, -1284	// 354 <microblaze_invalidate_dcache>
 85c:	80000000 	or	r0, r0, r0
 860:	b000ffff 	imm	-1
 864:	b9f4fae8 	brlid	r15, -1304	// 34c <microblaze_invalidate_cache_ext>
 868:	80000000 	or	r0, r0, r0
 86c:	b000ffff 	imm	-1
 870:	b9f4fae4 	brlid	r15, -1308	// 354 <microblaze_invalidate_dcache>
 874:	80000000 	or	r0, r0, r0
 878:	b000ffff 	imm	-1
 87c:	b9f4fa9c 	brlid	r15, -1380	// 318 <microblaze_disable_dcache>
 880:	80000000 	or	r0, r0, r0
 884:	e9e10000 	lwi	r15, r1, 0
 888:	b60f0008 	rtsd	r15, 8
 88c:	30210004 	addik	r1, r1, 4

00000890 <Xil_ICacheDisable>:
 890:	3021fffc 	addik	r1, r1, -4
 894:	f9e10000 	swi	r15, r1, 0
 898:	b000ffff 	imm	-1
 89c:	b9f4fab0 	brlid	r15, -1360	// 34c <microblaze_invalidate_cache_ext>
 8a0:	80000000 	or	r0, r0, r0
 8a4:	b000ffff 	imm	-1
 8a8:	b9f4fab4 	brlid	r15, -1356	// 35c <microblaze_invalidate_icache>
 8ac:	80000000 	or	r0, r0, r0
 8b0:	b000ffff 	imm	-1
 8b4:	b9f4fa7c 	brlid	r15, -1412	// 330 <microblaze_disable_icache>
 8b8:	80000000 	or	r0, r0, r0
 8bc:	e9e10000 	lwi	r15, r1, 0
 8c0:	b60f0008 	rtsd	r15, 8
 8c4:	30210004 	addik	r1, r1, 4

000008c8 <XIntc_DeviceInterruptHandler>:
 8c8:	6065002c 	muli	r3, r5, 44
 8cc:	3021ffc4 	addik	r1, r1, -60
 8d0:	f9e10000 	swi	r15, r1, 0
 8d4:	fa61001c 	swi	r19, r1, 28
 8d8:	fac10020 	swi	r22, r1, 32
 8dc:	fae10024 	swi	r23, r1, 36
 8e0:	fb010028 	swi	r24, r1, 40
 8e4:	fb21002c 	swi	r25, r1, 44
 8e8:	fb410030 	swi	r26, r1, 48
 8ec:	fb610034 	swi	r27, r1, 52
 8f0:	fb810038 	swi	r28, r1, 56
 8f4:	b0000000 	imm	0
 8f8:	30630bfc 	addik	r3, r3, 3068
 8fc:	e8830004 	lwi	r4, r3, 4
 900:	e863000c 	lwi	r3, r3, 12
 904:	e8c40000 	lwi	r6, r4, 0
 908:	eac40008 	lwi	r22, r4, 8
 90c:	a8630001 	xori	r3, r3, 1
 910:	be230014 	bneid	r3, 20		// 924
 914:	86d63000 	and	r22, r22, r6
 918:	e8640020 	lwi	r3, r4, 32
 91c:	a863ffff 	xori	r3, r3, -1
 920:	86d61800 	and	r22, r22, r3
 924:	6305002c 	muli	r24, r5, 44
 928:	b0000000 	imm	0
 92c:	33380bfc 	addik	r25, r24, 3068
 930:	e8790014 	lwi	r3, r25, 20
 934:	be6300cc 	bleid	r3, 204		// a00
 938:	12600000 	addk	r19, r0, r0
 93c:	b0000000 	imm	0
 940:	33580c04 	addik	r26, r24, 3076
 944:	b0000000 	imm	0
 948:	33780c00 	addik	r27, r24, 3072
 94c:	b0000000 	imm	0
 950:	33980c18 	addik	r28, r24, 3096
 954:	b0000000 	imm	0
 958:	33380c10 	addik	r25, r24, 3088
 95c:	b8100018 	brid	24		// 974
 960:	32e00001 	addik	r23, r0, 1
 964:	e8790000 	lwi	r3, r25, 0
 968:	16439801 	cmp	r18, r3, r19
 96c:	beb20098 	bgeid	r18, 152		// a04
 970:	e9e10000 	lwi	r15, r1, 0
 974:	30730005 	addik	r3, r19, 5
 978:	64930403 	bslli	r4, r19, 3
 97c:	64630403 	bslli	r3, r3, 3
 980:	1084c000 	addk	r4, r4, r24
 984:	1063c000 	addk	r3, r3, r24
 988:	a4b60001 	andi	r5, r22, 1
 98c:	b0000000 	imm	0
 990:	30630bfc 	addik	r3, r3, 3068
 994:	b0000000 	imm	0
 998:	30840bfc 	addik	r4, r4, 3068
 99c:	92d60041 	srl	r22, r22
 9a0:	be050058 	beqid	r5, 88		// 9f8
 9a4:	32730001 	addik	r19, r19, 1
 9a8:	e8ba0000 	lwi	r5, r26, 0
 9ac:	84b72800 	and	r5, r23, r5
 9b0:	bc05000c 	beqi	r5, 12		// 9bc
 9b4:	e8bb0000 	lwi	r5, r27, 0
 9b8:	fae5000c 	swi	r23, r5, 12
 9bc:	e8840024 	lwi	r4, r4, 36
 9c0:	99fc2000 	brald	r15, r4
 9c4:	e8a30000 	lwi	r5, r3, 0
 9c8:	e87a0000 	lwi	r3, r26, 0
 9cc:	84771800 	and	r3, r23, r3
 9d0:	bc23000c 	bnei	r3, 12		// 9dc
 9d4:	e87b0000 	lwi	r3, r27, 0
 9d8:	fae3000c 	swi	r23, r3, 12
 9dc:	e89b0000 	lwi	r4, r27, 0
 9e0:	e87c0000 	lwi	r3, r28, 0
 9e4:	e8a40000 	lwi	r5, r4, 0
 9e8:	e8840008 	lwi	r4, r4, 8
 9ec:	a8630001 	xori	r3, r3, 1
 9f0:	be030014 	beqid	r3, 20		// a04
 9f4:	e9e10000 	lwi	r15, r1, 0
 9f8:	be36ff6c 	bneid	r22, -148		// 964
 9fc:	12f7b800 	addk	r23, r23, r23
 a00:	e9e10000 	lwi	r15, r1, 0
 a04:	ea61001c 	lwi	r19, r1, 28
 a08:	eac10020 	lwi	r22, r1, 32
 a0c:	eae10024 	lwi	r23, r1, 36
 a10:	eb010028 	lwi	r24, r1, 40
 a14:	eb21002c 	lwi	r25, r1, 44
 a18:	eb410030 	lwi	r26, r1, 48
 a1c:	eb610034 	lwi	r27, r1, 52
 a20:	eb810038 	lwi	r28, r1, 56
 a24:	b60f0008 	rtsd	r15, 8
 a28:	3021003c 	addik	r1, r1, 60

00000a2c <outbyte>:
 a2c:	a4c500ff 	andi	r6, r5, 255
 a30:	b0004060 	imm	16480
 a34:	30a00000 	addik	r5, r0, 0
 a38:	3021fffc 	addik	r1, r1, -4
 a3c:	f9e10000 	swi	r15, r1, 0
 a40:	b0000000 	imm	0
 a44:	b9f40014 	brlid	r15, 20	// a58 <XUartLite_SendByte>
 a48:	80000000 	or	r0, r0, r0
 a4c:	e9e10000 	lwi	r15, r1, 0
 a50:	b60f0008 	rtsd	r15, 8
 a54:	30210004 	addik	r1, r1, 4

00000a58 <XUartLite_SendByte>:
 a58:	30850008 	addik	r4, r5, 8
 a5c:	e8640000 	lwi	r3, r4, 0
 a60:	a4630008 	andi	r3, r3, 8
 a64:	bc23fff8 	bnei	r3, -8		// a5c
 a68:	f8c50004 	swi	r6, r5, 4
 a6c:	b60f0008 	rtsd	r15, 8
 a70:	80000000 	or	r0, r0, r0

00000a74 <XNullHandler>:
 a74:	b60f0008 	rtsd	r15, 8
 a78:	80000000 	or	r0, r0, r0

Disassembly of section .init:

00000a7c <__init>:
 a7c:	3021fff0 	addik	r1, r1, -16
 a80:	d9e00800 	sw	r15, r0, r1
 a84:	3160ffff 	addik	r11, r0, -1
 a88:	940bc802 	mts	rshr, r11
 a8c:	31600000 	addik	r11, r0, 0
 a90:	940bc800 	mts	rslr, r11
 a94:	b000ffff 	imm	-1
 a98:	b9f4f760 	brlid	r15, -2208	// 1f8 <frame_dummy>
 a9c:	80000000 	or	r0, r0, r0
 aa0:	b000ffff 	imm	-1
 aa4:	b9f4fae0 	brlid	r15, -1312	// 584 <__do_global_ctors_aux>
 aa8:	80000000 	or	r0, r0, r0
 aac:	c9e00800 	lw	r15, r0, r1
 ab0:	b60f0008 	rtsd	r15, 8
 ab4:	30210010 	addik	r1, r1, 16

Disassembly of section .fini:

00000ab8 <__fini>:
 ab8:	3021fff0 	addik	r1, r1, -16
 abc:	d9e00800 	sw	r15, r0, r1
 ac0:	b000ffff 	imm	-1
 ac4:	b9f4f660 	brlid	r15, -2464	// 124 <__do_global_dtors_aux>
 ac8:	80000000 	or	r0, r0, r0
 acc:	c9e00800 	lw	r15, r0, r1
 ad0:	b60f0008 	rtsd	r15, 8
 ad4:	30210010 	addik	r1, r1, 16
 