
2mm.elf:     file format elf32-littleriscv


Disassembly of section .init:

80000000 <_start>:
80000000:	00001197          	auipc	gp,0x1
80000004:	eb018193          	addi	gp,gp,-336 # 80000eb0 <__global_pointer$>
80000008:	08000117          	auipc	sp,0x8000
8000000c:	ff810113          	addi	sp,sp,-8 # 88000000 <__stack_top>
80000010:	00010433          	add	s0,sp,zero
80000014:	008000ef          	jal	ra,8000001c <main>
80000018:	3d80006f          	j	800003f0 <exit>

Disassembly of section .text:

8000001c <main>:
8000001c:	d9010113          	addi	sp,sp,-624
80000020:	ffff1337          	lui	t1,0xffff1
80000024:	0000f7b7          	lui	a5,0xf
80000028:	26112623          	sw	ra,620(sp)
8000002c:	26812423          	sw	s0,616(sp)
80000030:	26912223          	sw	s1,612(sp)
80000034:	27212023          	sw	s2,608(sp)
80000038:	25312e23          	sw	s3,604(sp)
8000003c:	25412c23          	sw	s4,600(sp)
80000040:	25512a23          	sw	s5,596(sp)
80000044:	25078713          	addi	a4,a5,592 # f250 <_start-0x7fff0db0>
80000048:	00610133          	add	sp,sp,t1
8000004c:	ffff9937          	lui	s2,0xffff9
80000050:	00270733          	add	a4,a4,sp
80000054:	ad090913          	addi	s2,s2,-1328 # ffff8ad0 <__stack_top+0x77ff8ad0>
80000058:	00078a93          	mv	s5,a5
8000005c:	01270933          	add	s2,a4,s2
80000060:	ffff34b7          	lui	s1,0xffff3
80000064:	25078713          	addi	a4,a5,592
80000068:	ffff1437          	lui	s0,0xffff1
8000006c:	00270733          	add	a4,a4,sp
80000070:	250a8693          	addi	a3,s5,592
80000074:	d1048493          	addi	s1,s1,-752 # ffff2d10 <__stack_top+0x77ff2d10>
80000078:	009704b3          	add	s1,a4,s1
8000007c:	002686b3          	add	a3,a3,sp
80000080:	25078713          	addi	a4,a5,592
80000084:	ffff6a37          	lui	s4,0xffff6
80000088:	dcc40793          	addi	a5,s0,-564 # ffff0dcc <__stack_top+0x77ff0dcc>
8000008c:	ffffc9b7          	lui	s3,0xffffc
80000090:	00270733          	add	a4,a4,sp
80000094:	00f687b3          	add	a5,a3,a5
80000098:	8d0a0a13          	addi	s4,s4,-1840 # ffff58d0 <__stack_top+0x77ff58d0>
8000009c:	250a8693          	addi	a3,s5,592
800000a0:	18098993          	addi	s3,s3,384 # ffffc180 <__stack_top+0x77ffc180>
800000a4:	01470a33          	add	s4,a4,s4
800000a8:	013709b3          	add	s3,a4,s3
800000ac:	002686b3          	add	a3,a3,sp
800000b0:	dc840713          	addi	a4,s0,-568
800000b4:	00090893          	mv	a7,s2
800000b8:	00048813          	mv	a6,s1
800000bc:	00e68733          	add	a4,a3,a4
800000c0:	01412223          	sw	s4,4(sp)
800000c4:	01312023          	sw	s3,0(sp)
800000c8:	05000693          	li	a3,80
800000cc:	04600613          	li	a2,70
800000d0:	03200593          	li	a1,50
800000d4:	02800513          	li	a0,40
800000d8:	088000ef          	jal	ra,80000160 <init_array>
800000dc:	01c12587          	flw	fa1,28(sp)
800000e0:	01812507          	flw	fa0,24(sp)
800000e4:	250a8693          	addi	a3,s5,592
800000e8:	002686b3          	add	a3,a3,sp
800000ec:	dd040713          	addi	a4,s0,-560
800000f0:	01412023          	sw	s4,0(sp)
800000f4:	02800513          	li	a0,40
800000f8:	00098893          	mv	a7,s3
800000fc:	00090813          	mv	a6,s2
80000100:	00048793          	mv	a5,s1
80000104:	00e68733          	add	a4,a3,a4
80000108:	04600613          	li	a2,70
8000010c:	05000693          	li	a3,80
80000110:	03200593          	li	a1,50
80000114:	198000ef          	jal	ra,800002ac <kernel_2mm>
80000118:	0000f337          	lui	t1,0xf
8000011c:	00610133          	add	sp,sp,t1
80000120:	26c12083          	lw	ra,620(sp)
80000124:	26812403          	lw	s0,616(sp)
80000128:	26412483          	lw	s1,612(sp)
8000012c:	26012903          	lw	s2,608(sp)
80000130:	25c12983          	lw	s3,604(sp)
80000134:	25812a03          	lw	s4,600(sp)
80000138:	25412a83          	lw	s5,596(sp)
8000013c:	00000513          	li	a0,0
80000140:	27010113          	addi	sp,sp,624
80000144:	00008067          	ret

80000148 <register_fini>:
80000148:	00000793          	li	a5,0
8000014c:	00078863          	beqz	a5,8000015c <register_fini+0x14>
80000150:	80000537          	lui	a0,0x80000
80000154:	55450513          	addi	a0,a0,1364 # 80000554 <__stack_top+0xf8000554>
80000158:	3e80006f          	j	80000540 <atexit>
8000015c:	00008067          	ret

80000160 <init_array>:
80000160:	c281a787          	flw	fa5,-984(gp) # 80000ad8 <__SDATA_BEGIN__>
80000164:	00f72027          	fsw	fa5,0(a4)
80000168:	c2c1a787          	flw	fa5,-980(gp) # 80000adc <__SDATA_BEGIN__+0x4>
8000016c:	00f7a027          	fsw	fa5,0(a5)
80000170:	04a05663          	blez	a0,800001bc <init_array+0x5c>
80000174:	00080e93          	mv	t4,a6
80000178:	00000e13          	li	t3,0
8000017c:	02c05a63          	blez	a2,800001b0 <init_array+0x50>
80000180:	d0057753          	fcvt.s.w	fa4,a0
80000184:	000e8813          	mv	a6,t4
80000188:	00100713          	li	a4,1
8000018c:	00000793          	li	a5,0
80000190:	02a76333          	rem	t1,a4,a0
80000194:	00480813          	addi	a6,a6,4
80000198:	00178793          	addi	a5,a5,1
8000019c:	01c70733          	add	a4,a4,t3
800001a0:	d00377d3          	fcvt.s.w	fa5,t1
800001a4:	18e7f7d3          	fdiv.s	fa5,fa5,fa4
800001a8:	fef82e27          	fsw	fa5,-4(a6)
800001ac:	fef612e3          	bne	a2,a5,80000190 <init_array+0x30>
800001b0:	001e0e13          	addi	t3,t3,1
800001b4:	118e8e93          	addi	t4,t4,280
800001b8:	fdc512e3          	bne	a0,t3,8000017c <init_array+0x1c>
800001bc:	04c05663          	blez	a2,80000208 <init_array+0xa8>
800001c0:	00088e13          	mv	t3,a7
800001c4:	00000313          	li	t1,0
800001c8:	02b05a63          	blez	a1,800001fc <init_array+0x9c>
800001cc:	d005f753          	fcvt.s.w	fa4,a1
800001d0:	000e0813          	mv	a6,t3
800001d4:	00030713          	mv	a4,t1
800001d8:	00000793          	li	a5,0
800001dc:	02b768b3          	rem	a7,a4,a1
800001e0:	00480813          	addi	a6,a6,4
800001e4:	00178793          	addi	a5,a5,1
800001e8:	00670733          	add	a4,a4,t1
800001ec:	d008f7d3          	fcvt.s.w	fa5,a7
800001f0:	18e7f7d3          	fdiv.s	fa5,fa5,fa4
800001f4:	fef82e27          	fsw	fa5,-4(a6)
800001f8:	feb792e3          	bne	a5,a1,800001dc <init_array+0x7c>
800001fc:	00130313          	addi	t1,t1,1 # f001 <_start-0x7fff0fff>
80000200:	0c8e0e13          	addi	t3,t3,200
80000204:	fc6612e3          	bne	a2,t1,800001c8 <init_array+0x68>
80000208:	04b05a63          	blez	a1,8000025c <init_array+0xfc>
8000020c:	00012e83          	lw	t4,0(sp)
80000210:	00100e13          	li	t3,1
80000214:	00000313          	li	t1,0
80000218:	02d05a63          	blez	a3,8000024c <init_array+0xec>
8000021c:	d006f753          	fcvt.s.w	fa4,a3
80000220:	000e8813          	mv	a6,t4
80000224:	000e0713          	mv	a4,t3
80000228:	00000793          	li	a5,0
8000022c:	02d768b3          	rem	a7,a4,a3
80000230:	00480813          	addi	a6,a6,4
80000234:	00178793          	addi	a5,a5,1
80000238:	00670733          	add	a4,a4,t1
8000023c:	d008f7d3          	fcvt.s.w	fa5,a7
80000240:	18e7f7d3          	fdiv.s	fa5,fa5,fa4
80000244:	fef82e27          	fsw	fa5,-4(a6)
80000248:	fef692e3          	bne	a3,a5,8000022c <init_array+0xcc>
8000024c:	00130313          	addi	t1,t1,1
80000250:	003e0e13          	addi	t3,t3,3
80000254:	140e8e93          	addi	t4,t4,320
80000258:	fc6590e3          	bne	a1,t1,80000218 <init_array+0xb8>
8000025c:	04a05663          	blez	a0,800002a8 <init_array+0x148>
80000260:	00412303          	lw	t1,4(sp)
80000264:	00000893          	li	a7,0
80000268:	02d05a63          	blez	a3,8000029c <init_array+0x13c>
8000026c:	d0067753          	fcvt.s.w	fa4,a2
80000270:	00189593          	slli	a1,a7,0x1
80000274:	00030713          	mv	a4,t1
80000278:	00000793          	li	a5,0
8000027c:	02c5e833          	rem	a6,a1,a2
80000280:	00470713          	addi	a4,a4,4
80000284:	00178793          	addi	a5,a5,1
80000288:	011585b3          	add	a1,a1,a7
8000028c:	d00877d3          	fcvt.s.w	fa5,a6
80000290:	18e7f7d3          	fdiv.s	fa5,fa5,fa4
80000294:	fef72e27          	fsw	fa5,-4(a4)
80000298:	fef692e3          	bne	a3,a5,8000027c <init_array+0x11c>
8000029c:	00188893          	addi	a7,a7,1
800002a0:	14030313          	addi	t1,t1,320
800002a4:	fd1512e3          	bne	a0,a7,80000268 <init_array+0x108>
800002a8:	00008067          	ret

800002ac <kernel_2mm>:
800002ac:	14a05063          	blez	a0,800003ec <kernel_2mm+0x140>
800002b0:	ff010113          	addi	sp,sp,-16
800002b4:	00060f93          	mv	t6,a2
800002b8:	00261613          	slli	a2,a2,0x2
800002bc:	00812623          	sw	s0,12(sp)
800002c0:	00912423          	sw	s1,8(sp)
800002c4:	00050393          	mv	t2,a0
800002c8:	00080493          	mv	s1,a6
800002cc:	00058313          	mv	t1,a1
800002d0:	00068e13          	mv	t3,a3
800002d4:	00070413          	mv	s0,a4
800002d8:	00078813          	mv	a6,a5
800002dc:	00c78633          	add	a2,a5,a2
800002e0:	00070e93          	mv	t4,a4
800002e4:	00070293          	mv	t0,a4
800002e8:	00000f13          	li	t5,0
800002ec:	00048513          	mv	a0,s1
800002f0:	00028693          	mv	a3,t0
800002f4:	00000593          	li	a1,0
800002f8:	04605463          	blez	t1,80000340 <kernel_2mm+0x94>
800002fc:	0006a023          	sw	zero,0(a3)
80000300:	f0000753          	fmv.w.x	fa4,zero
80000304:	00050713          	mv	a4,a0
80000308:	00080793          	mv	a5,a6
8000030c:	03f05263          	blez	t6,80000330 <kernel_2mm+0x84>
80000310:	0007a787          	flw	fa5,0(a5)
80000314:	00072687          	flw	fa3,0(a4)
80000318:	00478793          	addi	a5,a5,4
8000031c:	10f577d3          	fmul.s	fa5,fa0,fa5
80000320:	0c870713          	addi	a4,a4,200
80000324:	70d7f743          	fmadd.s	fa4,fa5,fa3,fa4
80000328:	00e6a027          	fsw	fa4,0(a3)
8000032c:	fec792e3          	bne	a5,a2,80000310 <kernel_2mm+0x64>
80000330:	00158593          	addi	a1,a1,1
80000334:	00468693          	addi	a3,a3,4
80000338:	00450513          	addi	a0,a0,4
8000033c:	fcb310e3          	bne	t1,a1,800002fc <kernel_2mm+0x50>
80000340:	001f0793          	addi	a5,t5,1
80000344:	11880813          	addi	a6,a6,280
80000348:	11860613          	addi	a2,a2,280
8000034c:	0c828293          	addi	t0,t0,200
80000350:	00f38663          	beq	t2,a5,8000035c <kernel_2mm+0xb0>
80000354:	00078f13          	mv	t5,a5
80000358:	f95ff06f          	j	800002ec <kernel_2mm+0x40>
8000035c:	01012803          	lw	a6,16(sp)
80000360:	00231613          	slli	a2,t1,0x2
80000364:	00c40633          	add	a2,s0,a2
80000368:	00000f93          	li	t6,0
8000036c:	00088513          	mv	a0,a7
80000370:	00080693          	mv	a3,a6
80000374:	00000593          	li	a1,0
80000378:	05c05463          	blez	t3,800003c0 <kernel_2mm+0x114>
8000037c:	0006a787          	flw	fa5,0(a3)
80000380:	00050713          	mv	a4,a0
80000384:	000e8793          	mv	a5,t4
80000388:	10f5f7d3          	fmul.s	fa5,fa1,fa5
8000038c:	00f6a027          	fsw	fa5,0(a3)
80000390:	02605063          	blez	t1,800003b0 <kernel_2mm+0x104>
80000394:	0007a687          	flw	fa3,0(a5)
80000398:	00072707          	flw	fa4,0(a4)
8000039c:	00478793          	addi	a5,a5,4
800003a0:	14070713          	addi	a4,a4,320
800003a4:	78e6f7c3          	fmadd.s	fa5,fa3,fa4,fa5
800003a8:	00f6a027          	fsw	fa5,0(a3)
800003ac:	fec794e3          	bne	a5,a2,80000394 <kernel_2mm+0xe8>
800003b0:	00158593          	addi	a1,a1,1
800003b4:	00468693          	addi	a3,a3,4
800003b8:	00450513          	addi	a0,a0,4
800003bc:	fcbe10e3          	bne	t3,a1,8000037c <kernel_2mm+0xd0>
800003c0:	001f8793          	addi	a5,t6,1
800003c4:	0c8e8e93          	addi	t4,t4,200
800003c8:	0c860613          	addi	a2,a2,200
800003cc:	14080813          	addi	a6,a6,320
800003d0:	01ff0663          	beq	t5,t6,800003dc <kernel_2mm+0x130>
800003d4:	00078f93          	mv	t6,a5
800003d8:	f95ff06f          	j	8000036c <kernel_2mm+0xc0>
800003dc:	00c12403          	lw	s0,12(sp)
800003e0:	00812483          	lw	s1,8(sp)
800003e4:	01010113          	addi	sp,sp,16
800003e8:	00008067          	ret
800003ec:	00008067          	ret

800003f0 <exit>:
800003f0:	ff010113          	addi	sp,sp,-16
800003f4:	00000593          	li	a1,0
800003f8:	00812423          	sw	s0,8(sp)
800003fc:	00112623          	sw	ra,12(sp)
80000400:	00050413          	mv	s0,a0
80000404:	01c000ef          	jal	ra,80000420 <__call_exitprocs>
80000408:	c301a503          	lw	a0,-976(gp) # 80000ae0 <_global_impure_ptr>
8000040c:	03c52783          	lw	a5,60(a0)
80000410:	00078463          	beqz	a5,80000418 <exit+0x28>
80000414:	000780e7          	jalr	a5
80000418:	00040513          	mv	a0,s0
8000041c:	22c000ef          	jal	ra,80000648 <_exit>

80000420 <__call_exitprocs>:
80000420:	fd010113          	addi	sp,sp,-48
80000424:	01412c23          	sw	s4,24(sp)
80000428:	c301aa03          	lw	s4,-976(gp) # 80000ae0 <_global_impure_ptr>
8000042c:	03212023          	sw	s2,32(sp)
80000430:	02112623          	sw	ra,44(sp)
80000434:	148a2903          	lw	s2,328(s4)
80000438:	02812423          	sw	s0,40(sp)
8000043c:	02912223          	sw	s1,36(sp)
80000440:	01312e23          	sw	s3,28(sp)
80000444:	01512a23          	sw	s5,20(sp)
80000448:	01612823          	sw	s6,16(sp)
8000044c:	01712623          	sw	s7,12(sp)
80000450:	01812423          	sw	s8,8(sp)
80000454:	04090063          	beqz	s2,80000494 <__call_exitprocs+0x74>
80000458:	00050b13          	mv	s6,a0
8000045c:	00058b93          	mv	s7,a1
80000460:	00100a93          	li	s5,1
80000464:	fff00993          	li	s3,-1
80000468:	00492483          	lw	s1,4(s2)
8000046c:	fff48413          	addi	s0,s1,-1
80000470:	02044263          	bltz	s0,80000494 <__call_exitprocs+0x74>
80000474:	00249493          	slli	s1,s1,0x2
80000478:	009904b3          	add	s1,s2,s1
8000047c:	040b8463          	beqz	s7,800004c4 <__call_exitprocs+0xa4>
80000480:	1044a783          	lw	a5,260(s1)
80000484:	05778063          	beq	a5,s7,800004c4 <__call_exitprocs+0xa4>
80000488:	fff40413          	addi	s0,s0,-1
8000048c:	ffc48493          	addi	s1,s1,-4
80000490:	ff3416e3          	bne	s0,s3,8000047c <__call_exitprocs+0x5c>
80000494:	02c12083          	lw	ra,44(sp)
80000498:	02812403          	lw	s0,40(sp)
8000049c:	02412483          	lw	s1,36(sp)
800004a0:	02012903          	lw	s2,32(sp)
800004a4:	01c12983          	lw	s3,28(sp)
800004a8:	01812a03          	lw	s4,24(sp)
800004ac:	01412a83          	lw	s5,20(sp)
800004b0:	01012b03          	lw	s6,16(sp)
800004b4:	00c12b83          	lw	s7,12(sp)
800004b8:	00812c03          	lw	s8,8(sp)
800004bc:	03010113          	addi	sp,sp,48
800004c0:	00008067          	ret
800004c4:	00492783          	lw	a5,4(s2)
800004c8:	0044a683          	lw	a3,4(s1)
800004cc:	fff78793          	addi	a5,a5,-1
800004d0:	04878e63          	beq	a5,s0,8000052c <__call_exitprocs+0x10c>
800004d4:	0004a223          	sw	zero,4(s1)
800004d8:	fa0688e3          	beqz	a3,80000488 <__call_exitprocs+0x68>
800004dc:	18892783          	lw	a5,392(s2)
800004e0:	008a9733          	sll	a4,s5,s0
800004e4:	00492c03          	lw	s8,4(s2)
800004e8:	00f777b3          	and	a5,a4,a5
800004ec:	02079263          	bnez	a5,80000510 <__call_exitprocs+0xf0>
800004f0:	000680e7          	jalr	a3
800004f4:	00492703          	lw	a4,4(s2)
800004f8:	148a2783          	lw	a5,328(s4)
800004fc:	01871463          	bne	a4,s8,80000504 <__call_exitprocs+0xe4>
80000500:	f92784e3          	beq	a5,s2,80000488 <__call_exitprocs+0x68>
80000504:	f80788e3          	beqz	a5,80000494 <__call_exitprocs+0x74>
80000508:	00078913          	mv	s2,a5
8000050c:	f5dff06f          	j	80000468 <__call_exitprocs+0x48>
80000510:	18c92783          	lw	a5,396(s2)
80000514:	0844a583          	lw	a1,132(s1)
80000518:	00f77733          	and	a4,a4,a5
8000051c:	00071c63          	bnez	a4,80000534 <__call_exitprocs+0x114>
80000520:	000b0513          	mv	a0,s6
80000524:	000680e7          	jalr	a3
80000528:	fcdff06f          	j	800004f4 <__call_exitprocs+0xd4>
8000052c:	00892223          	sw	s0,4(s2)
80000530:	fa9ff06f          	j	800004d8 <__call_exitprocs+0xb8>
80000534:	00058513          	mv	a0,a1
80000538:	000680e7          	jalr	a3
8000053c:	fb9ff06f          	j	800004f4 <__call_exitprocs+0xd4>

80000540 <atexit>:
80000540:	00050593          	mv	a1,a0
80000544:	00000693          	li	a3,0
80000548:	00000613          	li	a2,0
8000054c:	00000513          	li	a0,0
80000550:	0600006f          	j	800005b0 <__register_exitproc>

80000554 <__libc_fini_array>:
80000554:	ff010113          	addi	sp,sp,-16
80000558:	00812423          	sw	s0,8(sp)
8000055c:	800017b7          	lui	a5,0x80001
80000560:	80001437          	lui	s0,0x80001
80000564:	6ac40413          	addi	s0,s0,1708 # 800016ac <__stack_top+0xf80016ac>
80000568:	6ac78793          	addi	a5,a5,1708 # 800016ac <__stack_top+0xf80016ac>
8000056c:	408787b3          	sub	a5,a5,s0
80000570:	00912223          	sw	s1,4(sp)
80000574:	00112623          	sw	ra,12(sp)
80000578:	4027d493          	srai	s1,a5,0x2
8000057c:	02048063          	beqz	s1,8000059c <__libc_fini_array+0x48>
80000580:	ffc78793          	addi	a5,a5,-4
80000584:	00878433          	add	s0,a5,s0
80000588:	00042783          	lw	a5,0(s0)
8000058c:	fff48493          	addi	s1,s1,-1
80000590:	ffc40413          	addi	s0,s0,-4
80000594:	000780e7          	jalr	a5
80000598:	fe0498e3          	bnez	s1,80000588 <__libc_fini_array+0x34>
8000059c:	00c12083          	lw	ra,12(sp)
800005a0:	00812403          	lw	s0,8(sp)
800005a4:	00412483          	lw	s1,4(sp)
800005a8:	01010113          	addi	sp,sp,16
800005ac:	00008067          	ret

800005b0 <__register_exitproc>:
800005b0:	c301a703          	lw	a4,-976(gp) # 80000ae0 <_global_impure_ptr>
800005b4:	14872783          	lw	a5,328(a4)
800005b8:	04078c63          	beqz	a5,80000610 <__register_exitproc+0x60>
800005bc:	0047a703          	lw	a4,4(a5)
800005c0:	01f00813          	li	a6,31
800005c4:	06e84e63          	blt	a6,a4,80000640 <__register_exitproc+0x90>
800005c8:	00271813          	slli	a6,a4,0x2
800005cc:	02050663          	beqz	a0,800005f8 <__register_exitproc+0x48>
800005d0:	01078333          	add	t1,a5,a6
800005d4:	08c32423          	sw	a2,136(t1)
800005d8:	1887a883          	lw	a7,392(a5)
800005dc:	00100613          	li	a2,1
800005e0:	00e61633          	sll	a2,a2,a4
800005e4:	00c8e8b3          	or	a7,a7,a2
800005e8:	1917a423          	sw	a7,392(a5)
800005ec:	10d32423          	sw	a3,264(t1)
800005f0:	00200693          	li	a3,2
800005f4:	02d50463          	beq	a0,a3,8000061c <__register_exitproc+0x6c>
800005f8:	00170713          	addi	a4,a4,1
800005fc:	00e7a223          	sw	a4,4(a5)
80000600:	010787b3          	add	a5,a5,a6
80000604:	00b7a423          	sw	a1,8(a5)
80000608:	00000513          	li	a0,0
8000060c:	00008067          	ret
80000610:	14c70793          	addi	a5,a4,332
80000614:	14f72423          	sw	a5,328(a4)
80000618:	fa5ff06f          	j	800005bc <__register_exitproc+0xc>
8000061c:	18c7a683          	lw	a3,396(a5)
80000620:	00170713          	addi	a4,a4,1
80000624:	00e7a223          	sw	a4,4(a5)
80000628:	00c6e633          	or	a2,a3,a2
8000062c:	18c7a623          	sw	a2,396(a5)
80000630:	010787b3          	add	a5,a5,a6
80000634:	00b7a423          	sw	a1,8(a5)
80000638:	00000513          	li	a0,0
8000063c:	00008067          	ret
80000640:	fff00513          	li	a0,-1
80000644:	00008067          	ret

80000648 <_exit>:
80000648:	05d00893          	li	a7,93
8000064c:	00000073          	ecall
80000650:	00054463          	bltz	a0,80000658 <_exit+0x10>
80000654:	0000006f          	j	80000654 <_exit+0xc>
80000658:	ff010113          	addi	sp,sp,-16
8000065c:	00812423          	sw	s0,8(sp)
80000660:	00050413          	mv	s0,a0
80000664:	00112623          	sw	ra,12(sp)
80000668:	40800433          	neg	s0,s0
8000066c:	00c000ef          	jal	ra,80000678 <__errno>
80000670:	00852023          	sw	s0,0(a0)
80000674:	0000006f          	j	80000674 <_exit+0x2c>

80000678 <__errno>:
80000678:	c341a503          	lw	a0,-972(gp) # 80000ae4 <_impure_ptr>
8000067c:	00008067          	ret
