
3mm.elf:     file format elf32-littleriscv


Disassembly of section .init:

80000000 <_start>:
80000000:	00001197          	auipc	gp,0x1
80000004:	f5018193          	addi	gp,gp,-176 # 80000f50 <__global_pointer$>
80000008:	08000117          	auipc	sp,0x8000
8000000c:	ff810113          	addi	sp,sp,-8 # 88000000 <__stack_top>
80000010:	00010433          	add	s0,sp,zero
80000014:	008000ef          	jal	ra,8000001c <main>
80000018:	4740006f          	j	8000048c <exit>

Disassembly of section .text:

8000001c <main>:
8000001c:	81010113          	addi	sp,sp,-2032
80000020:	fffea337          	lui	t1,0xfffea
80000024:	7d412c23          	sw	s4,2008(sp)
80000028:	bb030313          	addi	t1,t1,-1104 # fffe9bb0 <__stack_top+0x77fe9bb0>
8000002c:	00017a37          	lui	s4,0x17
80000030:	7e112623          	sw	ra,2028(sp)
80000034:	7e812423          	sw	s0,2024(sp)
80000038:	7e912223          	sw	s1,2020(sp)
8000003c:	7f212023          	sw	s2,2016(sp)
80000040:	7d312e23          	sw	s3,2012(sp)
80000044:	c20a0793          	addi	a5,s4,-992 # 16c20 <_start-0x7ffe93e0>
80000048:	00610133          	add	sp,sp,t1
8000004c:	ffff7937          	lui	s2,0xffff7
80000050:	002787b3          	add	a5,a5,sp
80000054:	a0090913          	addi	s2,s2,-1536 # ffff6a00 <__stack_top+0x77ff6a00>
80000058:	01278933          	add	s2,a5,s2
8000005c:	ffff04b7          	lui	s1,0xffff0
80000060:	c20a0793          	addi	a5,s4,-992
80000064:	002787b3          	add	a5,a5,sp
80000068:	47048493          	addi	s1,s1,1136 # ffff0470 <__stack_top+0x77ff0470>
8000006c:	009784b3          	add	s1,a5,s1
80000070:	fffeb437          	lui	s0,0xfffeb
80000074:	c20a0793          	addi	a5,s4,-992
80000078:	002787b3          	add	a5,a5,sp
8000007c:	33040413          	addi	s0,s0,816 # fffeb330 <__stack_top+0x77feb330>
80000080:	00878433          	add	s0,a5,s0
80000084:	ffffb9b7          	lui	s3,0xffffb
80000088:	c20a0793          	addi	a5,s4,-992
8000008c:	002787b3          	add	a5,a5,sp
80000090:	88098993          	addi	s3,s3,-1920 # ffffa880 <__stack_top+0x77ffa880>
80000094:	013789b3          	add	s3,a5,s3
80000098:	00090893          	mv	a7,s2
8000009c:	00048813          	mv	a6,s1
800000a0:	00040793          	mv	a5,s0
800000a4:	01312023          	sw	s3,0(sp)
800000a8:	05000713          	li	a4,80
800000ac:	04600693          	li	a3,70
800000b0:	03c00613          	li	a2,60
800000b4:	03200593          	li	a1,50
800000b8:	02800513          	li	a0,40
800000bc:	0b0000ef          	jal	ra,8000016c <init_array>
800000c0:	c20a0793          	addi	a5,s4,-992
800000c4:	fffee737          	lui	a4,0xfffee
800000c8:	002787b3          	add	a5,a5,sp
800000cc:	8b070713          	addi	a4,a4,-1872 # fffed8b0 <__stack_top+0x77fed8b0>
800000d0:	00e78733          	add	a4,a5,a4
800000d4:	c20a0613          	addi	a2,s4,-992
800000d8:	ffff37b7          	lui	a5,0xffff3
800000dc:	00260633          	add	a2,a2,sp
800000e0:	35078793          	addi	a5,a5,848 # ffff3350 <__stack_top+0x77ff3350>
800000e4:	00f607b3          	add	a5,a2,a5
800000e8:	00f12023          	sw	a5,0(sp)
800000ec:	fffe97b7          	lui	a5,0xfffe9
800000f0:	3f078793          	addi	a5,a5,1008 # fffe93f0 <__stack_top+0x77fe93f0>
800000f4:	00e12623          	sw	a4,12(sp)
800000f8:	01312423          	sw	s3,8(sp)
800000fc:	01212223          	sw	s2,4(sp)
80000100:	02800513          	li	a0,40
80000104:	00048893          	mv	a7,s1
80000108:	00040813          	mv	a6,s0
8000010c:	00f607b3          	add	a5,a2,a5
80000110:	05000713          	li	a4,80
80000114:	04600693          	li	a3,70
80000118:	03c00613          	li	a2,60
8000011c:	03200593          	li	a1,50
80000120:	1b0000ef          	jal	ra,800002d0 <kernel_3mm>
80000124:	00016337          	lui	t1,0x16
80000128:	45030313          	addi	t1,t1,1104 # 16450 <_start-0x7ffe9bb0>
8000012c:	00610133          	add	sp,sp,t1
80000130:	7ec12083          	lw	ra,2028(sp)
80000134:	7e812403          	lw	s0,2024(sp)
80000138:	7e412483          	lw	s1,2020(sp)
8000013c:	7e012903          	lw	s2,2016(sp)
80000140:	7dc12983          	lw	s3,2012(sp)
80000144:	7d812a03          	lw	s4,2008(sp)
80000148:	00000513          	li	a0,0
8000014c:	7f010113          	addi	sp,sp,2032
80000150:	00008067          	ret

80000154 <register_fini>:
80000154:	00000793          	li	a5,0
80000158:	00078863          	beqz	a5,80000168 <register_fini+0x14>
8000015c:	80000537          	lui	a0,0x80000
80000160:	5f050513          	addi	a0,a0,1520 # 800005f0 <__stack_top+0xf80005f0>
80000164:	4780006f          	j	800005dc <atexit>
80000168:	00008067          	ret

8000016c <init_array>:
8000016c:	04a05a63          	blez	a0,800001c0 <init_array+0x54>
80000170:	00251293          	slli	t0,a0,0x2
80000174:	00a282b3          	add	t0,t0,a0
80000178:	00078f93          	mv	t6,a5
8000017c:	00000f13          	li	t5,0
80000180:	02c05a63          	blez	a2,800001b4 <init_array+0x48>
80000184:	d002f753          	fcvt.s.w	fa4,t0
80000188:	000f8e13          	mv	t3,t6
8000018c:	00100313          	li	t1,1
80000190:	00000793          	li	a5,0
80000194:	02a36eb3          	rem	t4,t1,a0
80000198:	004e0e13          	addi	t3,t3,4
8000019c:	00178793          	addi	a5,a5,1
800001a0:	01e30333          	add	t1,t1,t5
800001a4:	d00ef7d3          	fcvt.s.w	fa5,t4
800001a8:	18e7f7d3          	fdiv.s	fa5,fa5,fa4
800001ac:	fefe2e27          	fsw	fa5,-4(t3)
800001b0:	fef612e3          	bne	a2,a5,80000194 <init_array+0x28>
800001b4:	001f0f13          	addi	t5,t5,1
800001b8:	0f0f8f93          	addi	t6,t6,240
800001bc:	fde512e3          	bne	a0,t5,80000180 <init_array+0x14>
800001c0:	04c05a63          	blez	a2,80000214 <init_array+0xa8>
800001c4:	00259f13          	slli	t5,a1,0x2
800001c8:	00bf0f33          	add	t5,t5,a1
800001cc:	00080e93          	mv	t4,a6
800001d0:	00000e13          	li	t3,0
800001d4:	02b05a63          	blez	a1,80000208 <init_array+0x9c>
800001d8:	d00f7753          	fcvt.s.w	fa4,t5
800001dc:	002e0813          	addi	a6,t3,2
800001e0:	000e8513          	mv	a0,t4
800001e4:	00000793          	li	a5,0
800001e8:	02b86333          	rem	t1,a6,a1
800001ec:	00450513          	addi	a0,a0,4
800001f0:	00178793          	addi	a5,a5,1
800001f4:	01c80833          	add	a6,a6,t3
800001f8:	d00377d3          	fcvt.s.w	fa5,t1
800001fc:	18e7f7d3          	fdiv.s	fa5,fa5,fa4
80000200:	fef52e27          	fsw	fa5,-4(a0)
80000204:	feb792e3          	bne	a5,a1,800001e8 <init_array+0x7c>
80000208:	001e0e13          	addi	t3,t3,1
8000020c:	0c8e8e93          	addi	t4,t4,200
80000210:	fdc612e3          	bne	a2,t3,800001d4 <init_array+0x68>
80000214:	04b05e63          	blez	a1,80000270 <init_array+0x104>
80000218:	00269f13          	slli	t5,a3,0x2
8000021c:	00df0f33          	add	t5,t5,a3
80000220:	00088e13          	mv	t3,a7
80000224:	00000e93          	li	t4,0
80000228:	00000313          	li	t1,0
8000022c:	02e05a63          	blez	a4,80000260 <init_array+0xf4>
80000230:	d00f7753          	fcvt.s.w	fa4,t5
80000234:	000e0813          	mv	a6,t3
80000238:	000e8513          	mv	a0,t4
8000023c:	00000793          	li	a5,0
80000240:	02d568b3          	rem	a7,a0,a3
80000244:	00480813          	addi	a6,a6,4
80000248:	00178793          	addi	a5,a5,1
8000024c:	00650533          	add	a0,a0,t1
80000250:	d008f7d3          	fcvt.s.w	fa5,a7
80000254:	18e7f7d3          	fdiv.s	fa5,fa5,fa4
80000258:	fef82e27          	fsw	fa5,-4(a6)
8000025c:	fef712e3          	bne	a4,a5,80000240 <init_array+0xd4>
80000260:	00130313          	addi	t1,t1,1
80000264:	003e8e93          	addi	t4,t4,3
80000268:	140e0e13          	addi	t3,t3,320
8000026c:	fc6590e3          	bne	a1,t1,8000022c <init_array+0xc0>
80000270:	04e05e63          	blez	a4,800002cc <init_array+0x160>
80000274:	00012e03          	lw	t3,0(sp)
80000278:	00261e93          	slli	t4,a2,0x2
8000027c:	00ce8eb3          	add	t4,t4,a2
80000280:	00200313          	li	t1,2
80000284:	00000893          	li	a7,0
80000288:	02d05a63          	blez	a3,800002bc <init_array+0x150>
8000028c:	d00ef753          	fcvt.s.w	fa4,t4
80000290:	000e0513          	mv	a0,t3
80000294:	00030593          	mv	a1,t1
80000298:	00000793          	li	a5,0
8000029c:	02c5e833          	rem	a6,a1,a2
800002a0:	00450513          	addi	a0,a0,4
800002a4:	00178793          	addi	a5,a5,1
800002a8:	011585b3          	add	a1,a1,a7
800002ac:	d00877d3          	fcvt.s.w	fa5,a6
800002b0:	18e7f7d3          	fdiv.s	fa5,fa5,fa4
800002b4:	fef52e27          	fsw	fa5,-4(a0)
800002b8:	fef692e3          	bne	a3,a5,8000029c <init_array+0x130>
800002bc:	00188893          	addi	a7,a7,1
800002c0:	00230313          	addi	t1,t1,2
800002c4:	118e0e13          	addi	t3,t3,280
800002c8:	fd1710e3          	bne	a4,a7,80000288 <init_array+0x11c>
800002cc:	00008067          	ret

800002d0 <kernel_3mm>:
800002d0:	ff010113          	addi	sp,sp,-16
800002d4:	00050313          	mv	t1,a0
800002d8:	00812623          	sw	s0,12(sp)
800002dc:	00912423          	sw	s1,8(sp)
800002e0:	01212223          	sw	s2,4(sp)
800002e4:	01012e03          	lw	t3,16(sp)
800002e8:	01812f83          	lw	t6,24(sp)
800002ec:	00068513          	mv	a0,a3
800002f0:	00070f13          	mv	t5,a4
800002f4:	00078e93          	mv	t4,a5
800002f8:	18605663          	blez	t1,80000484 <kernel_3mm+0x1b4>
800002fc:	00060393          	mv	t2,a2
80000300:	00261613          	slli	a2,a2,0x2
80000304:	00088913          	mv	s2,a7
80000308:	00080293          	mv	t0,a6
8000030c:	00c80633          	add	a2,a6,a2
80000310:	00078493          	mv	s1,a5
80000314:	00000413          	li	s0,0
80000318:	00090893          	mv	a7,s2
8000031c:	00048693          	mv	a3,s1
80000320:	00000813          	li	a6,0
80000324:	04b05263          	blez	a1,80000368 <kernel_3mm+0x98>
80000328:	0006a023          	sw	zero,0(a3)
8000032c:	f00007d3          	fmv.w.x	fa5,zero
80000330:	00088713          	mv	a4,a7
80000334:	00028793          	mv	a5,t0
80000338:	02705063          	blez	t2,80000358 <kernel_3mm+0x88>
8000033c:	0007a687          	flw	fa3,0(a5)
80000340:	00072707          	flw	fa4,0(a4)
80000344:	00478793          	addi	a5,a5,4
80000348:	0c870713          	addi	a4,a4,200
8000034c:	78e6f7c3          	fmadd.s	fa5,fa3,fa4,fa5
80000350:	00f6a027          	fsw	fa5,0(a3)
80000354:	fec794e3          	bne	a5,a2,8000033c <kernel_3mm+0x6c>
80000358:	00180813          	addi	a6,a6,1
8000035c:	00468693          	addi	a3,a3,4
80000360:	00488893          	addi	a7,a7,4
80000364:	fd0592e3          	bne	a1,a6,80000328 <kernel_3mm+0x58>
80000368:	00140413          	addi	s0,s0,1
8000036c:	0f028293          	addi	t0,t0,240
80000370:	0f060613          	addi	a2,a2,240
80000374:	0c848493          	addi	s1,s1,200
80000378:	fa8310e3          	bne	t1,s0,80000318 <kernel_3mm+0x48>
8000037c:	08b05063          	blez	a1,800003fc <kernel_3mm+0x12c>
80000380:	01412283          	lw	t0,20(sp)
80000384:	002f1613          	slli	a2,t5,0x2
80000388:	000e0413          	mv	s0,t3
8000038c:	00c28633          	add	a2,t0,a2
80000390:	00000393          	li	t2,0
80000394:	000f8893          	mv	a7,t6
80000398:	00040693          	mv	a3,s0
8000039c:	00000813          	li	a6,0
800003a0:	04a05263          	blez	a0,800003e4 <kernel_3mm+0x114>
800003a4:	0006a023          	sw	zero,0(a3)
800003a8:	f00007d3          	fmv.w.x	fa5,zero
800003ac:	00088713          	mv	a4,a7
800003b0:	00028793          	mv	a5,t0
800003b4:	03e05063          	blez	t5,800003d4 <kernel_3mm+0x104>
800003b8:	0007a687          	flw	fa3,0(a5)
800003bc:	00072707          	flw	fa4,0(a4)
800003c0:	00478793          	addi	a5,a5,4
800003c4:	11870713          	addi	a4,a4,280
800003c8:	78e6f7c3          	fmadd.s	fa5,fa3,fa4,fa5
800003cc:	00f6a027          	fsw	fa5,0(a3)
800003d0:	fec794e3          	bne	a5,a2,800003b8 <kernel_3mm+0xe8>
800003d4:	00180813          	addi	a6,a6,1
800003d8:	00468693          	addi	a3,a3,4
800003dc:	00488893          	addi	a7,a7,4
800003e0:	fd0512e3          	bne	a0,a6,800003a4 <kernel_3mm+0xd4>
800003e4:	00138393          	addi	t2,t2,1
800003e8:	14028293          	addi	t0,t0,320
800003ec:	14060613          	addi	a2,a2,320
800003f0:	11840413          	addi	s0,s0,280
800003f4:	fab3c0e3          	blt	t2,a1,80000394 <kernel_3mm+0xc4>
800003f8:	06605c63          	blez	t1,80000470 <kernel_3mm+0x1a0>
800003fc:	01c12f83          	lw	t6,28(sp)
80000400:	00259613          	slli	a2,a1,0x2
80000404:	00ce8633          	add	a2,t4,a2
80000408:	00000f13          	li	t5,0
8000040c:	000e0893          	mv	a7,t3
80000410:	000f8693          	mv	a3,t6
80000414:	00000813          	li	a6,0
80000418:	04a05263          	blez	a0,8000045c <kernel_3mm+0x18c>
8000041c:	0006a023          	sw	zero,0(a3)
80000420:	f00007d3          	fmv.w.x	fa5,zero
80000424:	00088713          	mv	a4,a7
80000428:	000e8793          	mv	a5,t4
8000042c:	02b05063          	blez	a1,8000044c <kernel_3mm+0x17c>
80000430:	0007a687          	flw	fa3,0(a5)
80000434:	00072707          	flw	fa4,0(a4)
80000438:	00478793          	addi	a5,a5,4
8000043c:	11870713          	addi	a4,a4,280
80000440:	78e6f7c3          	fmadd.s	fa5,fa3,fa4,fa5
80000444:	00f6a027          	fsw	fa5,0(a3)
80000448:	fef614e3          	bne	a2,a5,80000430 <kernel_3mm+0x160>
8000044c:	00180813          	addi	a6,a6,1
80000450:	00468693          	addi	a3,a3,4
80000454:	00488893          	addi	a7,a7,4
80000458:	fd0512e3          	bne	a0,a6,8000041c <kernel_3mm+0x14c>
8000045c:	001f0f13          	addi	t5,t5,1
80000460:	0c8e8e93          	addi	t4,t4,200
80000464:	0c860613          	addi	a2,a2,200
80000468:	118f8f93          	addi	t6,t6,280
8000046c:	fa6f40e3          	blt	t5,t1,8000040c <kernel_3mm+0x13c>
80000470:	00c12403          	lw	s0,12(sp)
80000474:	00812483          	lw	s1,8(sp)
80000478:	00412903          	lw	s2,4(sp)
8000047c:	01010113          	addi	sp,sp,16
80000480:	00008067          	ret
80000484:	eeb04ee3          	bgtz	a1,80000380 <kernel_3mm+0xb0>
80000488:	fe9ff06f          	j	80000470 <kernel_3mm+0x1a0>

8000048c <exit>:
8000048c:	ff010113          	addi	sp,sp,-16
80000490:	00000593          	li	a1,0
80000494:	00812423          	sw	s0,8(sp)
80000498:	00112623          	sw	ra,12(sp)
8000049c:	00050413          	mv	s0,a0
800004a0:	01c000ef          	jal	ra,800004bc <__call_exitprocs>
800004a4:	c281a503          	lw	a0,-984(gp) # 80000b78 <_global_impure_ptr>
800004a8:	03c52783          	lw	a5,60(a0)
800004ac:	00078463          	beqz	a5,800004b4 <exit+0x28>
800004b0:	000780e7          	jalr	a5
800004b4:	00040513          	mv	a0,s0
800004b8:	22c000ef          	jal	ra,800006e4 <_exit>

800004bc <__call_exitprocs>:
800004bc:	fd010113          	addi	sp,sp,-48
800004c0:	01412c23          	sw	s4,24(sp)
800004c4:	c281aa03          	lw	s4,-984(gp) # 80000b78 <_global_impure_ptr>
800004c8:	03212023          	sw	s2,32(sp)
800004cc:	02112623          	sw	ra,44(sp)
800004d0:	148a2903          	lw	s2,328(s4)
800004d4:	02812423          	sw	s0,40(sp)
800004d8:	02912223          	sw	s1,36(sp)
800004dc:	01312e23          	sw	s3,28(sp)
800004e0:	01512a23          	sw	s5,20(sp)
800004e4:	01612823          	sw	s6,16(sp)
800004e8:	01712623          	sw	s7,12(sp)
800004ec:	01812423          	sw	s8,8(sp)
800004f0:	04090063          	beqz	s2,80000530 <__call_exitprocs+0x74>
800004f4:	00050b13          	mv	s6,a0
800004f8:	00058b93          	mv	s7,a1
800004fc:	00100a93          	li	s5,1
80000500:	fff00993          	li	s3,-1
80000504:	00492483          	lw	s1,4(s2)
80000508:	fff48413          	addi	s0,s1,-1
8000050c:	02044263          	bltz	s0,80000530 <__call_exitprocs+0x74>
80000510:	00249493          	slli	s1,s1,0x2
80000514:	009904b3          	add	s1,s2,s1
80000518:	040b8463          	beqz	s7,80000560 <__call_exitprocs+0xa4>
8000051c:	1044a783          	lw	a5,260(s1)
80000520:	05778063          	beq	a5,s7,80000560 <__call_exitprocs+0xa4>
80000524:	fff40413          	addi	s0,s0,-1
80000528:	ffc48493          	addi	s1,s1,-4
8000052c:	ff3416e3          	bne	s0,s3,80000518 <__call_exitprocs+0x5c>
80000530:	02c12083          	lw	ra,44(sp)
80000534:	02812403          	lw	s0,40(sp)
80000538:	02412483          	lw	s1,36(sp)
8000053c:	02012903          	lw	s2,32(sp)
80000540:	01c12983          	lw	s3,28(sp)
80000544:	01812a03          	lw	s4,24(sp)
80000548:	01412a83          	lw	s5,20(sp)
8000054c:	01012b03          	lw	s6,16(sp)
80000550:	00c12b83          	lw	s7,12(sp)
80000554:	00812c03          	lw	s8,8(sp)
80000558:	03010113          	addi	sp,sp,48
8000055c:	00008067          	ret
80000560:	00492783          	lw	a5,4(s2)
80000564:	0044a683          	lw	a3,4(s1)
80000568:	fff78793          	addi	a5,a5,-1
8000056c:	04878e63          	beq	a5,s0,800005c8 <__call_exitprocs+0x10c>
80000570:	0004a223          	sw	zero,4(s1)
80000574:	fa0688e3          	beqz	a3,80000524 <__call_exitprocs+0x68>
80000578:	18892783          	lw	a5,392(s2)
8000057c:	008a9733          	sll	a4,s5,s0
80000580:	00492c03          	lw	s8,4(s2)
80000584:	00f777b3          	and	a5,a4,a5
80000588:	02079263          	bnez	a5,800005ac <__call_exitprocs+0xf0>
8000058c:	000680e7          	jalr	a3
80000590:	00492703          	lw	a4,4(s2)
80000594:	148a2783          	lw	a5,328(s4)
80000598:	01871463          	bne	a4,s8,800005a0 <__call_exitprocs+0xe4>
8000059c:	f92784e3          	beq	a5,s2,80000524 <__call_exitprocs+0x68>
800005a0:	f80788e3          	beqz	a5,80000530 <__call_exitprocs+0x74>
800005a4:	00078913          	mv	s2,a5
800005a8:	f5dff06f          	j	80000504 <__call_exitprocs+0x48>
800005ac:	18c92783          	lw	a5,396(s2)
800005b0:	0844a583          	lw	a1,132(s1)
800005b4:	00f77733          	and	a4,a4,a5
800005b8:	00071c63          	bnez	a4,800005d0 <__call_exitprocs+0x114>
800005bc:	000b0513          	mv	a0,s6
800005c0:	000680e7          	jalr	a3
800005c4:	fcdff06f          	j	80000590 <__call_exitprocs+0xd4>
800005c8:	00892223          	sw	s0,4(s2)
800005cc:	fa9ff06f          	j	80000574 <__call_exitprocs+0xb8>
800005d0:	00058513          	mv	a0,a1
800005d4:	000680e7          	jalr	a3
800005d8:	fb9ff06f          	j	80000590 <__call_exitprocs+0xd4>

800005dc <atexit>:
800005dc:	00050593          	mv	a1,a0
800005e0:	00000693          	li	a3,0
800005e4:	00000613          	li	a2,0
800005e8:	00000513          	li	a0,0
800005ec:	0600006f          	j	8000064c <__register_exitproc>

800005f0 <__libc_fini_array>:
800005f0:	ff010113          	addi	sp,sp,-16
800005f4:	00812423          	sw	s0,8(sp)
800005f8:	800017b7          	lui	a5,0x80001
800005fc:	80001437          	lui	s0,0x80001
80000600:	74840413          	addi	s0,s0,1864 # 80001748 <__stack_top+0xf8001748>
80000604:	74878793          	addi	a5,a5,1864 # 80001748 <__stack_top+0xf8001748>
80000608:	408787b3          	sub	a5,a5,s0
8000060c:	00912223          	sw	s1,4(sp)
80000610:	00112623          	sw	ra,12(sp)
80000614:	4027d493          	srai	s1,a5,0x2
80000618:	02048063          	beqz	s1,80000638 <__libc_fini_array+0x48>
8000061c:	ffc78793          	addi	a5,a5,-4
80000620:	00878433          	add	s0,a5,s0
80000624:	00042783          	lw	a5,0(s0)
80000628:	fff48493          	addi	s1,s1,-1
8000062c:	ffc40413          	addi	s0,s0,-4
80000630:	000780e7          	jalr	a5
80000634:	fe0498e3          	bnez	s1,80000624 <__libc_fini_array+0x34>
80000638:	00c12083          	lw	ra,12(sp)
8000063c:	00812403          	lw	s0,8(sp)
80000640:	00412483          	lw	s1,4(sp)
80000644:	01010113          	addi	sp,sp,16
80000648:	00008067          	ret

8000064c <__register_exitproc>:
8000064c:	c281a703          	lw	a4,-984(gp) # 80000b78 <_global_impure_ptr>
80000650:	14872783          	lw	a5,328(a4)
80000654:	04078c63          	beqz	a5,800006ac <__register_exitproc+0x60>
80000658:	0047a703          	lw	a4,4(a5)
8000065c:	01f00813          	li	a6,31
80000660:	06e84e63          	blt	a6,a4,800006dc <__register_exitproc+0x90>
80000664:	00271813          	slli	a6,a4,0x2
80000668:	02050663          	beqz	a0,80000694 <__register_exitproc+0x48>
8000066c:	01078333          	add	t1,a5,a6
80000670:	08c32423          	sw	a2,136(t1)
80000674:	1887a883          	lw	a7,392(a5)
80000678:	00100613          	li	a2,1
8000067c:	00e61633          	sll	a2,a2,a4
80000680:	00c8e8b3          	or	a7,a7,a2
80000684:	1917a423          	sw	a7,392(a5)
80000688:	10d32423          	sw	a3,264(t1)
8000068c:	00200693          	li	a3,2
80000690:	02d50463          	beq	a0,a3,800006b8 <__register_exitproc+0x6c>
80000694:	00170713          	addi	a4,a4,1
80000698:	00e7a223          	sw	a4,4(a5)
8000069c:	010787b3          	add	a5,a5,a6
800006a0:	00b7a423          	sw	a1,8(a5)
800006a4:	00000513          	li	a0,0
800006a8:	00008067          	ret
800006ac:	14c70793          	addi	a5,a4,332
800006b0:	14f72423          	sw	a5,328(a4)
800006b4:	fa5ff06f          	j	80000658 <__register_exitproc+0xc>
800006b8:	18c7a683          	lw	a3,396(a5)
800006bc:	00170713          	addi	a4,a4,1
800006c0:	00e7a223          	sw	a4,4(a5)
800006c4:	00c6e633          	or	a2,a3,a2
800006c8:	18c7a623          	sw	a2,396(a5)
800006cc:	010787b3          	add	a5,a5,a6
800006d0:	00b7a423          	sw	a1,8(a5)
800006d4:	00000513          	li	a0,0
800006d8:	00008067          	ret
800006dc:	fff00513          	li	a0,-1
800006e0:	00008067          	ret

800006e4 <_exit>:
800006e4:	05d00893          	li	a7,93
800006e8:	00000073          	ecall
800006ec:	00054463          	bltz	a0,800006f4 <_exit+0x10>
800006f0:	0000006f          	j	800006f0 <_exit+0xc>
800006f4:	ff010113          	addi	sp,sp,-16
800006f8:	00812423          	sw	s0,8(sp)
800006fc:	00050413          	mv	s0,a0
80000700:	00112623          	sw	ra,12(sp)
80000704:	40800433          	neg	s0,s0
80000708:	00c000ef          	jal	ra,80000714 <__errno>
8000070c:	00852023          	sw	s0,0(a0)
80000710:	0000006f          	j	80000710 <_exit+0x2c>

80000714 <__errno>:
80000714:	c2c1a503          	lw	a0,-980(gp) # 80000b7c <_impure_ptr>
80000718:	00008067          	ret
