
adi.elf:     file format elf32-littleriscv


Disassembly of section .init:

80000000 <_start>:
80000000:	00001197          	auipc	gp,0x1
80000004:	ee818193          	addi	gp,gp,-280 # 80000ee8 <__global_pointer$>
80000008:	08000117          	auipc	sp,0x8000
8000000c:	ff810113          	addi	sp,sp,-8 # 88000000 <__stack_top>
80000010:	00010433          	add	s0,sp,zero
80000014:	008000ef          	jal	ra,8000001c <main>
80000018:	4100006f          	j	80000428 <exit>

Disassembly of section .text:

8000001c <main>:
8000001c:	ef010113          	addi	sp,sp,-272
80000020:	10912223          	sw	s1,260(sp)
80000024:	ffff2337          	lui	t1,0xffff2
80000028:	0000e4b7          	lui	s1,0xe
8000002c:	10112623          	sw	ra,268(sp)
80000030:	10812423          	sw	s0,264(sp)
80000034:	10048793          	addi	a5,s1,256 # e100 <_start-0x7fff1f00>
80000038:	00610133          	add	sp,sp,t1
8000003c:	ffff2437          	lui	s0,0xffff2
80000040:	002787b3          	add	a5,a5,sp
80000044:	f0040413          	addi	s0,s0,-256 # ffff1f00 <__stack_top+0x77ff1f00>
80000048:	00878433          	add	s0,a5,s0
8000004c:	00040593          	mv	a1,s0
80000050:	03c00513          	li	a0,60
80000054:	088000ef          	jal	ra,800000dc <init_array>
80000058:	10048713          	addi	a4,s1,256
8000005c:	ffffc7b7          	lui	a5,0xffffc
80000060:	00270733          	add	a4,a4,sp
80000064:	7c078793          	addi	a5,a5,1984 # ffffc7c0 <__stack_top+0x77ffc7c0>
80000068:	00f707b3          	add	a5,a4,a5
8000006c:	10048693          	addi	a3,s1,256
80000070:	ffff9737          	lui	a4,0xffff9
80000074:	002686b3          	add	a3,a3,sp
80000078:	f8070713          	addi	a4,a4,-128 # ffff8f80 <__stack_top+0x77ff8f80>
8000007c:	00e68733          	add	a4,a3,a4
80000080:	10048613          	addi	a2,s1,256
80000084:	ffff56b7          	lui	a3,0xffff5
80000088:	00260633          	add	a2,a2,sp
8000008c:	74068693          	addi	a3,a3,1856 # ffff5740 <__stack_top+0x77ff5740>
80000090:	02800513          	li	a0,40
80000094:	00d606b3          	add	a3,a2,a3
80000098:	03c00593          	li	a1,60
8000009c:	00040613          	mv	a2,s0
800000a0:	078000ef          	jal	ra,80000118 <kernel_adi>
800000a4:	0000e337          	lui	t1,0xe
800000a8:	00610133          	add	sp,sp,t1
800000ac:	10c12083          	lw	ra,268(sp)
800000b0:	10812403          	lw	s0,264(sp)
800000b4:	10412483          	lw	s1,260(sp)
800000b8:	00000513          	li	a0,0
800000bc:	11010113          	addi	sp,sp,272
800000c0:	00008067          	ret

800000c4 <register_fini>:
800000c4:	00000793          	li	a5,0
800000c8:	00078863          	beqz	a5,800000d8 <register_fini+0x14>
800000cc:	80000537          	lui	a0,0x80000
800000d0:	58c50513          	addi	a0,a0,1420 # 8000058c <__stack_top+0xf800058c>
800000d4:	4a40006f          	j	80000578 <atexit>
800000d8:	00008067          	ret

800000dc <init_array>:
800000dc:	02a05c63          	blez	a0,80000114 <init_array+0x38>
800000e0:	d0057753          	fcvt.s.w	fa4,a0
800000e4:	00000693          	li	a3,0
800000e8:	00d507b3          	add	a5,a0,a3
800000ec:	00058713          	mv	a4,a1
800000f0:	d007f7d3          	fcvt.s.w	fa5,a5
800000f4:	00470713          	addi	a4,a4,4
800000f8:	fff78793          	addi	a5,a5,-1
800000fc:	18e7f7d3          	fdiv.s	fa5,fa5,fa4
80000100:	fef72e27          	fsw	fa5,-4(a4)
80000104:	fed796e3          	bne	a5,a3,800000f0 <init_array+0x14>
80000108:	00168693          	addi	a3,a3,1
8000010c:	0f058593          	addi	a1,a1,240
80000110:	fcd51ce3          	bne	a0,a3,800000e8 <init_array+0xc>
80000114:	00008067          	ret

80000118 <kernel_adi>:
80000118:	fc010113          	addi	sp,sp,-64
8000011c:	02912c23          	sw	s1,56(sp)
80000120:	00058493          	mv	s1,a1
80000124:	c281a287          	flw	ft5,-984(gp) # 80000b10 <__SDATA_BEGIN__>
80000128:	d004f753          	fcvt.s.w	fa4,s1
8000012c:	d00577d3          	fcvt.s.w	fa5,a0
80000130:	18e2f753          	fdiv.s	fa4,ft5,fa4
80000134:	c2c1a607          	flw	fa2,-980(gp) # 80000b14 <__SDATA_BEGIN__+0x4>
80000138:	02812e23          	sw	s0,60(sp)
8000013c:	03212a23          	sw	s2,52(sp)
80000140:	03312823          	sw	s3,48(sp)
80000144:	03412623          	sw	s4,44(sp)
80000148:	03512423          	sw	s5,40(sp)
8000014c:	03612223          	sw	s6,36(sp)
80000150:	03712023          	sw	s7,32(sp)
80000154:	01812e23          	sw	s8,28(sp)
80000158:	01912c23          	sw	s9,24(sp)
8000015c:	01a12a23          	sw	s10,20(sp)
80000160:	01b12823          	sw	s11,16(sp)
80000164:	00e12423          	sw	a4,8(sp)
80000168:	00f12623          	sw	a5,12(sp)
8000016c:	18f2f7d3          	fdiv.s	fa5,ft5,fa5
80000170:	10e77753          	fmul.s	fa4,fa4,fa4
80000174:	00f7f153          	fadd.s	ft2,fa5,fa5
80000178:	18e7f7d3          	fdiv.s	fa5,fa5,fa4
8000017c:	18e17153          	fdiv.s	ft2,ft2,fa4
80000180:	20f796d3          	fneg.s	fa3,fa5
80000184:	0057f0d3          	fadd.s	ft1,fa5,ft5
80000188:	10c6f6d3          	fmul.s	fa3,fa3,fa2
8000018c:	202117d3          	fneg.s	fa5,ft2
80000190:	00517153          	fadd.s	ft2,ft2,ft5
80000194:	10c7f653          	fmul.s	fa2,fa5,fa2
80000198:	24a05c63          	blez	a0,800003f0 <kernel_adi+0x2d8>
8000019c:	00449a93          	slli	s5,s1,0x4
800001a0:	00249b13          	slli	s6,s1,0x2
800001a4:	409a8ab3          	sub	s5,s5,s1
800001a8:	fff48d93          	addi	s11,s1,-1
800001ac:	0e870793          	addi	a5,a4,232
800001b0:	20c61253          	fneg.s	ft4,fa2
800001b4:	20d691d3          	fneg.s	ft3,fa3
800001b8:	004a9a93          	slli	s5,s5,0x4
800001bc:	002d9b93          	slli	s7,s11,0x2
800001c0:	016787b3          	add	a5,a5,s6
800001c4:	c301a307          	flw	ft6,-976(gp) # 80000b18 <__SDATA_BEGIN__+0x8>
800001c8:	00150713          	addi	a4,a0,1
800001cc:	f10a8913          	addi	s2,s5,-240
800001d0:	ffcb0293          	addi	t0,s6,-4
800001d4:	00068993          	mv	s3,a3
800001d8:	00e12023          	sw	a4,0(sp)
800001dc:	00f12223          	sw	a5,4(sp)
800001e0:	ff8b0b13          	addi	s6,s6,-8
800001e4:	01568ab3          	add	s5,a3,s5
800001e8:	004b8c93          	addi	s9,s7,4
800001ec:	ffcb8c13          	addi	s8,s7,-4
800001f0:	00100d13          	li	s10,1
800001f4:	ffe48493          	addi	s1,s1,-2
800001f8:	0f060a13          	addi	s4,a2,240
800001fc:	00400393          	li	t2,4
80000200:	00100793          	li	a5,1
80000204:	1fb7d063          	bge	a5,s11,800003e4 <kernel_adi+0x2cc>
80000208:	00812783          	lw	a5,8(sp)
8000020c:	2866f3c3          	fmadd.s	ft7,fa3,ft6,ft5
80000210:	00412f83          	lw	t6,4(sp)
80000214:	0f078813          	addi	a6,a5,240
80000218:	00c12783          	lw	a5,12(sp)
8000021c:	00498413          	addi	s0,s3,4
80000220:	00080313          	mv	t1,a6
80000224:	0f078513          	addi	a0,a5,240
80000228:	00050e13          	mv	t3,a0
8000022c:	00800f13          	li	t5,8
80000230:	00400893          	li	a7,4
80000234:	00000e93          	li	t4,0
80000238:	00542027          	fsw	ft5,0(s0)
8000023c:	00032023          	sw	zero,0(t1) # e000 <_start-0x7fff2000>
80000240:	00042787          	flw	fa5,0(s0)
80000244:	41da0633          	sub	a2,s4,t4
80000248:	000e0693          	mv	a3,t3
8000024c:	00fe2027          	fsw	fa5,0(t3)
80000250:	00030793          	mv	a5,t1
80000254:	0007a787          	flw	fa5,0(a5)
80000258:	01d60733          	add	a4,a2,t4
8000025c:	00478793          	addi	a5,a5,4
80000260:	10c7f743          	fmadd.s	fa4,fa5,fa2,ft2
80000264:	011705b3          	add	a1,a4,a7
80000268:	0f060613          	addi	a2,a2,240
8000026c:	01e70733          	add	a4,a4,t5
80000270:	00468693          	addi	a3,a3,4
80000274:	18e277d3          	fdiv.s	fa5,ft4,fa4
80000278:	00f7a027          	fsw	fa5,0(a5)
8000027c:	0005a007          	flw	ft0,0(a1)
80000280:	f1062507          	flw	fa0,-240(a2)
80000284:	00072587          	flw	fa1,0(a4)
80000288:	1003f053          	fmul.s	ft0,ft7,ft0
8000028c:	ffc6a787          	flw	fa5,-4(a3)
80000290:	00a6f54b          	fnmsub.s	fa0,fa3,fa0,ft0
80000294:	50d5f5cb          	fnmsub.s	fa1,fa1,fa3,fa0
80000298:	58c7f7cb          	fnmsub.s	fa5,fa5,fa2,fa1
8000029c:	18e7f7d3          	fdiv.s	fa5,fa5,fa4
800002a0:	00f6a027          	fsw	fa5,0(a3)
800002a4:	fbf798e3          	bne	a5,t6,80000254 <kernel_adi+0x13c>
800002a8:	011907b3          	add	a5,s2,a7
800002ac:	00f987b3          	add	a5,s3,a5
800002b0:	0057a027          	fsw	ft5,0(a5)
800002b4:	00890733          	add	a4,s2,s0
800002b8:	000b0793          	mv	a5,s6
800002bc:	02905663          	blez	s1,800002e8 <kernel_adi+0x1d0>
800002c0:	00f30633          	add	a2,t1,a5
800002c4:	00fe06b3          	add	a3,t3,a5
800002c8:	00072587          	flw	fa1,0(a4)
800002cc:	00062787          	flw	fa5,0(a2)
800002d0:	0006a707          	flw	fa4,0(a3)
800002d4:	f1070713          	addi	a4,a4,-240
800002d8:	ffc78793          	addi	a5,a5,-4
800002dc:	70b7f7c3          	fmadd.s	fa5,fa5,fa1,fa4
800002e0:	00f72027          	fsw	fa5,0(a4)
800002e4:	fc079ee3          	bnez	a5,800002c0 <kernel_adi+0x1a8>
800002e8:	00488893          	addi	a7,a7,4
800002ec:	00440413          	addi	s0,s0,4
800002f0:	0f030313          	addi	t1,t1,240
800002f4:	0f0e0e13          	addi	t3,t3,240
800002f8:	ffce8e93          	addi	t4,t4,-4
800002fc:	004f0f13          	addi	t5,t5,4
80000300:	0f0f8f93          	addi	t6,t6,240
80000304:	f2589ae3          	bne	a7,t0,80000238 <kernel_adi+0x120>
80000308:	286673c3          	fmadd.s	ft7,fa2,ft6,ft5
8000030c:	000a0f13          	mv	t5,s4
80000310:	1e098313          	addi	t1,s3,480
80000314:	005f2027          	fsw	ft5,0(t5)
80000318:	00082023          	sw	zero,0(a6)
8000031c:	000f2787          	flw	fa5,0(t5)
80000320:	e2030e93          	addi	t4,t1,-480
80000324:	f1030e13          	addi	t3,t1,-240
80000328:	00f52027          	fsw	fa5,0(a0)
8000032c:	00050693          	mv	a3,a0
80000330:	00080713          	mv	a4,a6
80000334:	00400793          	li	a5,4
80000338:	00072787          	flw	fa5,0(a4)
8000033c:	00470713          	addi	a4,a4,4
80000340:	00fe08b3          	add	a7,t3,a5
80000344:	08d7f743          	fmadd.s	fa4,fa5,fa3,ft1
80000348:	00fe85b3          	add	a1,t4,a5
8000034c:	00f30633          	add	a2,t1,a5
80000350:	00468693          	addi	a3,a3,4
80000354:	00478793          	addi	a5,a5,4
80000358:	18e1f7d3          	fdiv.s	fa5,ft3,fa4
8000035c:	00f72027          	fsw	fa5,0(a4)
80000360:	0008a007          	flw	ft0,0(a7)
80000364:	0005a507          	flw	fa0,0(a1)
80000368:	00062587          	flw	fa1,0(a2)
8000036c:	1003f053          	fmul.s	ft0,ft7,ft0
80000370:	ffc6a787          	flw	fa5,-4(a3)
80000374:	00a6754b          	fnmsub.s	fa0,fa2,fa0,ft0
80000378:	50c5f5cb          	fnmsub.s	fa1,fa1,fa2,fa0
8000037c:	58d7f7cb          	fnmsub.s	fa5,fa5,fa3,fa1
80000380:	18e7f7d3          	fdiv.s	fa5,fa5,fa4
80000384:	00f6a027          	fsw	fa5,0(a3)
80000388:	fa5798e3          	bne	a5,t0,80000338 <kernel_adi+0x220>
8000038c:	017f07b3          	add	a5,t5,s7
80000390:	0057a027          	fsw	ft5,0(a5)
80000394:	02905e63          	blez	s1,800003d0 <kernel_adi+0x2b8>
80000398:	205285d3          	fmv.s	fa1,ft5
8000039c:	01ec8633          	add	a2,s9,t5
800003a0:	000c0793          	mv	a5,s8
800003a4:	00c0006f          	j	800003b0 <kernel_adi+0x298>
800003a8:	20f785d3          	fmv.s	fa1,fa5
800003ac:	ffc78793          	addi	a5,a5,-4
800003b0:	00f806b3          	add	a3,a6,a5
800003b4:	00f50733          	add	a4,a0,a5
800003b8:	0006a787          	flw	fa5,0(a3)
800003bc:	00072707          	flw	fa4,0(a4)
800003c0:	ffc60613          	addi	a2,a2,-4
800003c4:	70b7f7c3          	fmadd.s	fa5,fa5,fa1,fa4
800003c8:	fef62e27          	fsw	fa5,-4(a2)
800003cc:	fc779ee3          	bne	a5,t2,800003a8 <kernel_adi+0x290>
800003d0:	0f030313          	addi	t1,t1,240
800003d4:	0f0f0f13          	addi	t5,t5,240
800003d8:	0f080813          	addi	a6,a6,240
800003dc:	0f050513          	addi	a0,a0,240
800003e0:	f3531ae3          	bne	t1,s5,80000314 <kernel_adi+0x1fc>
800003e4:	00012783          	lw	a5,0(sp)
800003e8:	001d0d13          	addi	s10,s10,1
800003ec:	e0fd1ae3          	bne	s10,a5,80000200 <kernel_adi+0xe8>
800003f0:	03c12403          	lw	s0,60(sp)
800003f4:	03812483          	lw	s1,56(sp)
800003f8:	03412903          	lw	s2,52(sp)
800003fc:	03012983          	lw	s3,48(sp)
80000400:	02c12a03          	lw	s4,44(sp)
80000404:	02812a83          	lw	s5,40(sp)
80000408:	02412b03          	lw	s6,36(sp)
8000040c:	02012b83          	lw	s7,32(sp)
80000410:	01c12c03          	lw	s8,28(sp)
80000414:	01812c83          	lw	s9,24(sp)
80000418:	01412d03          	lw	s10,20(sp)
8000041c:	01012d83          	lw	s11,16(sp)
80000420:	04010113          	addi	sp,sp,64
80000424:	00008067          	ret

80000428 <exit>:
80000428:	ff010113          	addi	sp,sp,-16
8000042c:	00000593          	li	a1,0
80000430:	00812423          	sw	s0,8(sp)
80000434:	00112623          	sw	ra,12(sp)
80000438:	00050413          	mv	s0,a0
8000043c:	01c000ef          	jal	ra,80000458 <__call_exitprocs>
80000440:	c341a503          	lw	a0,-972(gp) # 80000b1c <_global_impure_ptr>
80000444:	03c52783          	lw	a5,60(a0)
80000448:	00078463          	beqz	a5,80000450 <exit+0x28>
8000044c:	000780e7          	jalr	a5
80000450:	00040513          	mv	a0,s0
80000454:	22c000ef          	jal	ra,80000680 <_exit>

80000458 <__call_exitprocs>:
80000458:	fd010113          	addi	sp,sp,-48
8000045c:	01412c23          	sw	s4,24(sp)
80000460:	c341aa03          	lw	s4,-972(gp) # 80000b1c <_global_impure_ptr>
80000464:	03212023          	sw	s2,32(sp)
80000468:	02112623          	sw	ra,44(sp)
8000046c:	148a2903          	lw	s2,328(s4)
80000470:	02812423          	sw	s0,40(sp)
80000474:	02912223          	sw	s1,36(sp)
80000478:	01312e23          	sw	s3,28(sp)
8000047c:	01512a23          	sw	s5,20(sp)
80000480:	01612823          	sw	s6,16(sp)
80000484:	01712623          	sw	s7,12(sp)
80000488:	01812423          	sw	s8,8(sp)
8000048c:	04090063          	beqz	s2,800004cc <__call_exitprocs+0x74>
80000490:	00050b13          	mv	s6,a0
80000494:	00058b93          	mv	s7,a1
80000498:	00100a93          	li	s5,1
8000049c:	fff00993          	li	s3,-1
800004a0:	00492483          	lw	s1,4(s2)
800004a4:	fff48413          	addi	s0,s1,-1
800004a8:	02044263          	bltz	s0,800004cc <__call_exitprocs+0x74>
800004ac:	00249493          	slli	s1,s1,0x2
800004b0:	009904b3          	add	s1,s2,s1
800004b4:	040b8463          	beqz	s7,800004fc <__call_exitprocs+0xa4>
800004b8:	1044a783          	lw	a5,260(s1)
800004bc:	05778063          	beq	a5,s7,800004fc <__call_exitprocs+0xa4>
800004c0:	fff40413          	addi	s0,s0,-1
800004c4:	ffc48493          	addi	s1,s1,-4
800004c8:	ff3416e3          	bne	s0,s3,800004b4 <__call_exitprocs+0x5c>
800004cc:	02c12083          	lw	ra,44(sp)
800004d0:	02812403          	lw	s0,40(sp)
800004d4:	02412483          	lw	s1,36(sp)
800004d8:	02012903          	lw	s2,32(sp)
800004dc:	01c12983          	lw	s3,28(sp)
800004e0:	01812a03          	lw	s4,24(sp)
800004e4:	01412a83          	lw	s5,20(sp)
800004e8:	01012b03          	lw	s6,16(sp)
800004ec:	00c12b83          	lw	s7,12(sp)
800004f0:	00812c03          	lw	s8,8(sp)
800004f4:	03010113          	addi	sp,sp,48
800004f8:	00008067          	ret
800004fc:	00492783          	lw	a5,4(s2)
80000500:	0044a683          	lw	a3,4(s1)
80000504:	fff78793          	addi	a5,a5,-1
80000508:	04878e63          	beq	a5,s0,80000564 <__call_exitprocs+0x10c>
8000050c:	0004a223          	sw	zero,4(s1)
80000510:	fa0688e3          	beqz	a3,800004c0 <__call_exitprocs+0x68>
80000514:	18892783          	lw	a5,392(s2)
80000518:	008a9733          	sll	a4,s5,s0
8000051c:	00492c03          	lw	s8,4(s2)
80000520:	00f777b3          	and	a5,a4,a5
80000524:	02079263          	bnez	a5,80000548 <__call_exitprocs+0xf0>
80000528:	000680e7          	jalr	a3
8000052c:	00492703          	lw	a4,4(s2)
80000530:	148a2783          	lw	a5,328(s4)
80000534:	01871463          	bne	a4,s8,8000053c <__call_exitprocs+0xe4>
80000538:	f92784e3          	beq	a5,s2,800004c0 <__call_exitprocs+0x68>
8000053c:	f80788e3          	beqz	a5,800004cc <__call_exitprocs+0x74>
80000540:	00078913          	mv	s2,a5
80000544:	f5dff06f          	j	800004a0 <__call_exitprocs+0x48>
80000548:	18c92783          	lw	a5,396(s2)
8000054c:	0844a583          	lw	a1,132(s1)
80000550:	00f77733          	and	a4,a4,a5
80000554:	00071c63          	bnez	a4,8000056c <__call_exitprocs+0x114>
80000558:	000b0513          	mv	a0,s6
8000055c:	000680e7          	jalr	a3
80000560:	fcdff06f          	j	8000052c <__call_exitprocs+0xd4>
80000564:	00892223          	sw	s0,4(s2)
80000568:	fa9ff06f          	j	80000510 <__call_exitprocs+0xb8>
8000056c:	00058513          	mv	a0,a1
80000570:	000680e7          	jalr	a3
80000574:	fb9ff06f          	j	8000052c <__call_exitprocs+0xd4>

80000578 <atexit>:
80000578:	00050593          	mv	a1,a0
8000057c:	00000693          	li	a3,0
80000580:	00000613          	li	a2,0
80000584:	00000513          	li	a0,0
80000588:	0600006f          	j	800005e8 <__register_exitproc>

8000058c <__libc_fini_array>:
8000058c:	ff010113          	addi	sp,sp,-16
80000590:	00812423          	sw	s0,8(sp)
80000594:	800017b7          	lui	a5,0x80001
80000598:	80001437          	lui	s0,0x80001
8000059c:	6e440413          	addi	s0,s0,1764 # 800016e4 <__stack_top+0xf80016e4>
800005a0:	6e478793          	addi	a5,a5,1764 # 800016e4 <__stack_top+0xf80016e4>
800005a4:	408787b3          	sub	a5,a5,s0
800005a8:	00912223          	sw	s1,4(sp)
800005ac:	00112623          	sw	ra,12(sp)
800005b0:	4027d493          	srai	s1,a5,0x2
800005b4:	02048063          	beqz	s1,800005d4 <__libc_fini_array+0x48>
800005b8:	ffc78793          	addi	a5,a5,-4
800005bc:	00878433          	add	s0,a5,s0
800005c0:	00042783          	lw	a5,0(s0)
800005c4:	fff48493          	addi	s1,s1,-1
800005c8:	ffc40413          	addi	s0,s0,-4
800005cc:	000780e7          	jalr	a5
800005d0:	fe0498e3          	bnez	s1,800005c0 <__libc_fini_array+0x34>
800005d4:	00c12083          	lw	ra,12(sp)
800005d8:	00812403          	lw	s0,8(sp)
800005dc:	00412483          	lw	s1,4(sp)
800005e0:	01010113          	addi	sp,sp,16
800005e4:	00008067          	ret

800005e8 <__register_exitproc>:
800005e8:	c341a703          	lw	a4,-972(gp) # 80000b1c <_global_impure_ptr>
800005ec:	14872783          	lw	a5,328(a4)
800005f0:	04078c63          	beqz	a5,80000648 <__register_exitproc+0x60>
800005f4:	0047a703          	lw	a4,4(a5)
800005f8:	01f00813          	li	a6,31
800005fc:	06e84e63          	blt	a6,a4,80000678 <__register_exitproc+0x90>
80000600:	00271813          	slli	a6,a4,0x2
80000604:	02050663          	beqz	a0,80000630 <__register_exitproc+0x48>
80000608:	01078333          	add	t1,a5,a6
8000060c:	08c32423          	sw	a2,136(t1)
80000610:	1887a883          	lw	a7,392(a5)
80000614:	00100613          	li	a2,1
80000618:	00e61633          	sll	a2,a2,a4
8000061c:	00c8e8b3          	or	a7,a7,a2
80000620:	1917a423          	sw	a7,392(a5)
80000624:	10d32423          	sw	a3,264(t1)
80000628:	00200693          	li	a3,2
8000062c:	02d50463          	beq	a0,a3,80000654 <__register_exitproc+0x6c>
80000630:	00170713          	addi	a4,a4,1
80000634:	00e7a223          	sw	a4,4(a5)
80000638:	010787b3          	add	a5,a5,a6
8000063c:	00b7a423          	sw	a1,8(a5)
80000640:	00000513          	li	a0,0
80000644:	00008067          	ret
80000648:	14c70793          	addi	a5,a4,332
8000064c:	14f72423          	sw	a5,328(a4)
80000650:	fa5ff06f          	j	800005f4 <__register_exitproc+0xc>
80000654:	18c7a683          	lw	a3,396(a5)
80000658:	00170713          	addi	a4,a4,1
8000065c:	00e7a223          	sw	a4,4(a5)
80000660:	00c6e633          	or	a2,a3,a2
80000664:	18c7a623          	sw	a2,396(a5)
80000668:	010787b3          	add	a5,a5,a6
8000066c:	00b7a423          	sw	a1,8(a5)
80000670:	00000513          	li	a0,0
80000674:	00008067          	ret
80000678:	fff00513          	li	a0,-1
8000067c:	00008067          	ret

80000680 <_exit>:
80000680:	05d00893          	li	a7,93
80000684:	00000073          	ecall
80000688:	00054463          	bltz	a0,80000690 <_exit+0x10>
8000068c:	0000006f          	j	8000068c <_exit+0xc>
80000690:	ff010113          	addi	sp,sp,-16
80000694:	00812423          	sw	s0,8(sp)
80000698:	00050413          	mv	s0,a0
8000069c:	00112623          	sw	ra,12(sp)
800006a0:	40800433          	neg	s0,s0
800006a4:	00c000ef          	jal	ra,800006b0 <__errno>
800006a8:	00852023          	sw	s0,0(a0)
800006ac:	0000006f          	j	800006ac <_exit+0x2c>

800006b0 <__errno>:
800006b0:	c381a503          	lw	a0,-968(gp) # 80000b20 <_impure_ptr>
800006b4:	00008067          	ret
