
bicg.elf:     file format elf32-littleriscv


Disassembly of section .init:

80000000 <_start>:
80000000:	00001197          	auipc	gp,0x1
80000004:	e4018193          	addi	gp,gp,-448 # 80000e40 <__global_pointer$>
80000008:	08000117          	auipc	sp,0x8000
8000000c:	ff810113          	addi	sp,sp,-8 # 88000000 <__stack_top>
80000010:	00010433          	add	s0,sp,zero
80000014:	008000ef          	jal	ra,8000001c <main>
80000018:	2880006f          	j	800002a0 <exit>

Disassembly of section .text:

8000001c <main>:
8000001c:	81010113          	addi	sp,sp,-2032
80000020:	ffff2337          	lui	t1,0xffff2
80000024:	7d412c23          	sw	s4,2008(sp)
80000028:	f9030313          	addi	t1,t1,-112 # ffff1f90 <__stack_top+0x77ff1f90>
8000002c:	0000fa37          	lui	s4,0xf
80000030:	7e112623          	sw	ra,2028(sp)
80000034:	7e812423          	sw	s0,2024(sp)
80000038:	7e912223          	sw	s1,2020(sp)
8000003c:	7f212023          	sw	s2,2016(sp)
80000040:	7d312e23          	sw	s3,2012(sp)
80000044:	ffff2437          	lui	s0,0xffff2
80000048:	00610133          	add	sp,sp,t1
8000004c:	840a0793          	addi	a5,s4,-1984 # e840 <_start-0x7fff17c0>
80000050:	002787b3          	add	a5,a5,sp
80000054:	99040913          	addi	s2,s0,-1648 # ffff1990 <__stack_top+0x77ff1990>
80000058:	01278933          	add	s2,a5,s2
8000005c:	840a0793          	addi	a5,s4,-1984
80000060:	002787b3          	add	a5,a5,sp
80000064:	d5040993          	addi	s3,s0,-688
80000068:	013789b3          	add	s3,a5,s3
8000006c:	840a0793          	addi	a5,s4,-1984
80000070:	002787b3          	add	a5,a5,sp
80000074:	f4040493          	addi	s1,s0,-192
80000078:	009784b3          	add	s1,a5,s1
8000007c:	00090713          	mv	a4,s2
80000080:	00098693          	mv	a3,s3
80000084:	00048613          	mv	a2,s1
80000088:	07c00593          	li	a1,124
8000008c:	07400513          	li	a0,116
80000090:	088000ef          	jal	ra,80000118 <init_array>
80000094:	840a0713          	addi	a4,s4,-1984
80000098:	840a0613          	addi	a2,s4,-1984
8000009c:	ffff16b7          	lui	a3,0xffff1
800000a0:	b6040413          	addi	s0,s0,-1184
800000a4:	00260633          	add	a2,a2,sp
800000a8:	00270733          	add	a4,a4,sp
800000ac:	7c068693          	addi	a3,a3,1984 # ffff17c0 <__stack_top+0x77ff17c0>
800000b0:	07400513          	li	a0,116
800000b4:	00098813          	mv	a6,s3
800000b8:	00090793          	mv	a5,s2
800000bc:	00870733          	add	a4,a4,s0
800000c0:	00d606b3          	add	a3,a2,a3
800000c4:	07c00593          	li	a1,124
800000c8:	00048613          	mv	a2,s1
800000cc:	0e4000ef          	jal	ra,800001b0 <kernel_bicg>
800000d0:	0000e337          	lui	t1,0xe
800000d4:	07030313          	addi	t1,t1,112 # e070 <_start-0x7fff1f90>
800000d8:	00610133          	add	sp,sp,t1
800000dc:	7ec12083          	lw	ra,2028(sp)
800000e0:	7e812403          	lw	s0,2024(sp)
800000e4:	7e412483          	lw	s1,2020(sp)
800000e8:	7e012903          	lw	s2,2016(sp)
800000ec:	7dc12983          	lw	s3,2012(sp)
800000f0:	7d812a03          	lw	s4,2008(sp)
800000f4:	00000513          	li	a0,0
800000f8:	7f010113          	addi	sp,sp,2032
800000fc:	00008067          	ret

80000100 <register_fini>:
80000100:	00000793          	li	a5,0
80000104:	00078863          	beqz	a5,80000114 <register_fini+0x14>
80000108:	80000537          	lui	a0,0x80000
8000010c:	4e050513          	addi	a0,a0,1248 # 800004e0 <__stack_top+0xf80004e0>
80000110:	3bc0006f          	j	800004cc <atexit>
80000114:	00008067          	ret

80000118 <init_array>:
80000118:	02a05463          	blez	a0,80000140 <init_array+0x28>
8000011c:	d0057753          	fcvt.s.w	fa4,a0
80000120:	00000793          	li	a5,0
80000124:	02a7e833          	rem	a6,a5,a0
80000128:	00470713          	addi	a4,a4,4
8000012c:	00178793          	addi	a5,a5,1
80000130:	d00877d3          	fcvt.s.w	fa5,a6
80000134:	18e7f7d3          	fdiv.s	fa5,fa5,fa4
80000138:	fef72e27          	fsw	fa5,-4(a4)
8000013c:	fef514e3          	bne	a0,a5,80000124 <init_array+0xc>
80000140:	06b05663          	blez	a1,800001ac <init_array+0x94>
80000144:	d005f753          	fcvt.s.w	fa4,a1
80000148:	00251813          	slli	a6,a0,0x2
8000014c:	40a00333          	neg	t1,a0
80000150:	01060833          	add	a6,a2,a6
80000154:	00068893          	mv	a7,a3
80000158:	00231313          	slli	t1,t1,0x2
8000015c:	00000613          	li	a2,0
80000160:	02b666b3          	rem	a3,a2,a1
80000164:	010307b3          	add	a5,t1,a6
80000168:	00060713          	mv	a4,a2
8000016c:	d006f7d3          	fcvt.s.w	fa5,a3
80000170:	18e7f7d3          	fdiv.s	fa5,fa5,fa4
80000174:	00f8a027          	fsw	fa5,0(a7)
80000178:	02a05063          	blez	a0,80000198 <init_array+0x80>
8000017c:	02b766b3          	rem	a3,a4,a1
80000180:	00478793          	addi	a5,a5,4
80000184:	00c70733          	add	a4,a4,a2
80000188:	d006f7d3          	fcvt.s.w	fa5,a3
8000018c:	18e7f7d3          	fdiv.s	fa5,fa5,fa4
80000190:	fef7ae27          	fsw	fa5,-4(a5)
80000194:	ff0794e3          	bne	a5,a6,8000017c <init_array+0x64>
80000198:	00160613          	addi	a2,a2,1
8000019c:	00488893          	addi	a7,a7,4
800001a0:	1d080813          	addi	a6,a6,464
800001a4:	fac59ee3          	bne	a1,a2,80000160 <init_array+0x48>
800001a8:	00008067          	ret
800001ac:	00008067          	ret

800001b0 <kernel_bicg>:
800001b0:	fe010113          	addi	sp,sp,-32
800001b4:	00812c23          	sw	s0,24(sp)
800001b8:	00912a23          	sw	s1,20(sp)
800001bc:	01212823          	sw	s2,16(sp)
800001c0:	01312623          	sw	s3,12(sp)
800001c4:	01412423          	sw	s4,8(sp)
800001c8:	01512223          	sw	s5,4(sp)
800001cc:	00112e23          	sw	ra,28(sp)
800001d0:	00050a13          	mv	s4,a0
800001d4:	00058993          	mv	s3,a1
800001d8:	00060913          	mv	s2,a2
800001dc:	00070413          	mv	s0,a4
800001e0:	00078a93          	mv	s5,a5
800001e4:	00080493          	mv	s1,a6
800001e8:	00a05c63          	blez	a0,80000200 <kernel_bicg+0x50>
800001ec:	00251613          	slli	a2,a0,0x2
800001f0:	00000593          	li	a1,0
800001f4:	00068513          	mv	a0,a3
800001f8:	0d8000ef          	jal	ra,800002d0 <memset>
800001fc:	00050693          	mv	a3,a0
80000200:	07305e63          	blez	s3,8000027c <kernel_bicg+0xcc>
80000204:	00299e93          	slli	t4,s3,0x2
80000208:	002a1313          	slli	t1,s4,0x2
8000020c:	00040893          	mv	a7,s0
80000210:	00090e13          	mv	t3,s2
80000214:	00048813          	mv	a6,s1
80000218:	01d40eb3          	add	t4,s0,t4
8000021c:	00668333          	add	t1,a3,t1
80000220:	0008a023          	sw	zero,0(a7)
80000224:	000a8593          	mv	a1,s5
80000228:	000e0613          	mv	a2,t3
8000022c:	00068713          	mv	a4,a3
80000230:	03405e63          	blez	s4,8000026c <kernel_bicg+0xbc>
80000234:	00062687          	flw	fa3,0(a2)
80000238:	00072707          	flw	fa4,0(a4)
8000023c:	00082787          	flw	fa5,0(a6)
80000240:	00470713          	addi	a4,a4,4
80000244:	00460613          	addi	a2,a2,4
80000248:	70d7f7c3          	fmadd.s	fa5,fa5,fa3,fa4
8000024c:	00458593          	addi	a1,a1,4
80000250:	fef72e27          	fsw	fa5,-4(a4)
80000254:	ffc62787          	flw	fa5,-4(a2)
80000258:	ffc5a687          	flw	fa3,-4(a1)
8000025c:	0008a707          	flw	fa4,0(a7)
80000260:	70d7f7c3          	fmadd.s	fa5,fa5,fa3,fa4
80000264:	00f8a027          	fsw	fa5,0(a7)
80000268:	fce316e3          	bne	t1,a4,80000234 <kernel_bicg+0x84>
8000026c:	00488893          	addi	a7,a7,4
80000270:	1d0e0e13          	addi	t3,t3,464
80000274:	00480813          	addi	a6,a6,4
80000278:	fbd894e3          	bne	a7,t4,80000220 <kernel_bicg+0x70>
8000027c:	01c12083          	lw	ra,28(sp)
80000280:	01812403          	lw	s0,24(sp)
80000284:	01412483          	lw	s1,20(sp)
80000288:	01012903          	lw	s2,16(sp)
8000028c:	00c12983          	lw	s3,12(sp)
80000290:	00812a03          	lw	s4,8(sp)
80000294:	00412a83          	lw	s5,4(sp)
80000298:	02010113          	addi	sp,sp,32
8000029c:	00008067          	ret

800002a0 <exit>:
800002a0:	ff010113          	addi	sp,sp,-16
800002a4:	00000593          	li	a1,0
800002a8:	00812423          	sw	s0,8(sp)
800002ac:	00112623          	sw	ra,12(sp)
800002b0:	00050413          	mv	s0,a0
800002b4:	0f8000ef          	jal	ra,800003ac <__call_exitprocs>
800002b8:	c281a503          	lw	a0,-984(gp) # 80000a68 <_global_impure_ptr>
800002bc:	03c52783          	lw	a5,60(a0)
800002c0:	00078463          	beqz	a5,800002c8 <exit+0x28>
800002c4:	000780e7          	jalr	a5
800002c8:	00040513          	mv	a0,s0
800002cc:	308000ef          	jal	ra,800005d4 <_exit>

800002d0 <memset>:
800002d0:	00f00313          	li	t1,15
800002d4:	00050713          	mv	a4,a0
800002d8:	02c37e63          	bgeu	t1,a2,80000314 <memset+0x44>
800002dc:	00f77793          	andi	a5,a4,15
800002e0:	0a079063          	bnez	a5,80000380 <memset+0xb0>
800002e4:	08059263          	bnez	a1,80000368 <memset+0x98>
800002e8:	ff067693          	andi	a3,a2,-16
800002ec:	00f67613          	andi	a2,a2,15
800002f0:	00e686b3          	add	a3,a3,a4
800002f4:	00b72023          	sw	a1,0(a4)
800002f8:	00b72223          	sw	a1,4(a4)
800002fc:	00b72423          	sw	a1,8(a4)
80000300:	00b72623          	sw	a1,12(a4)
80000304:	01070713          	addi	a4,a4,16
80000308:	fed766e3          	bltu	a4,a3,800002f4 <memset+0x24>
8000030c:	00061463          	bnez	a2,80000314 <memset+0x44>
80000310:	00008067          	ret
80000314:	40c306b3          	sub	a3,t1,a2
80000318:	00269693          	slli	a3,a3,0x2
8000031c:	00000297          	auipc	t0,0x0
80000320:	005686b3          	add	a3,a3,t0
80000324:	00c68067          	jr	12(a3)
80000328:	00b70723          	sb	a1,14(a4)
8000032c:	00b706a3          	sb	a1,13(a4)
80000330:	00b70623          	sb	a1,12(a4)
80000334:	00b705a3          	sb	a1,11(a4)
80000338:	00b70523          	sb	a1,10(a4)
8000033c:	00b704a3          	sb	a1,9(a4)
80000340:	00b70423          	sb	a1,8(a4)
80000344:	00b703a3          	sb	a1,7(a4)
80000348:	00b70323          	sb	a1,6(a4)
8000034c:	00b702a3          	sb	a1,5(a4)
80000350:	00b70223          	sb	a1,4(a4)
80000354:	00b701a3          	sb	a1,3(a4)
80000358:	00b70123          	sb	a1,2(a4)
8000035c:	00b700a3          	sb	a1,1(a4)
80000360:	00b70023          	sb	a1,0(a4)
80000364:	00008067          	ret
80000368:	0ff5f593          	andi	a1,a1,255
8000036c:	00859693          	slli	a3,a1,0x8
80000370:	00d5e5b3          	or	a1,a1,a3
80000374:	01059693          	slli	a3,a1,0x10
80000378:	00d5e5b3          	or	a1,a1,a3
8000037c:	f6dff06f          	j	800002e8 <memset+0x18>
80000380:	00279693          	slli	a3,a5,0x2
80000384:	00000297          	auipc	t0,0x0
80000388:	005686b3          	add	a3,a3,t0
8000038c:	00008293          	mv	t0,ra
80000390:	fa0680e7          	jalr	-96(a3)
80000394:	00028093          	mv	ra,t0
80000398:	ff078793          	addi	a5,a5,-16
8000039c:	40f70733          	sub	a4,a4,a5
800003a0:	00f60633          	add	a2,a2,a5
800003a4:	f6c378e3          	bgeu	t1,a2,80000314 <memset+0x44>
800003a8:	f3dff06f          	j	800002e4 <memset+0x14>

800003ac <__call_exitprocs>:
800003ac:	fd010113          	addi	sp,sp,-48
800003b0:	01412c23          	sw	s4,24(sp)
800003b4:	c281aa03          	lw	s4,-984(gp) # 80000a68 <_global_impure_ptr>
800003b8:	03212023          	sw	s2,32(sp)
800003bc:	02112623          	sw	ra,44(sp)
800003c0:	148a2903          	lw	s2,328(s4)
800003c4:	02812423          	sw	s0,40(sp)
800003c8:	02912223          	sw	s1,36(sp)
800003cc:	01312e23          	sw	s3,28(sp)
800003d0:	01512a23          	sw	s5,20(sp)
800003d4:	01612823          	sw	s6,16(sp)
800003d8:	01712623          	sw	s7,12(sp)
800003dc:	01812423          	sw	s8,8(sp)
800003e0:	04090063          	beqz	s2,80000420 <__call_exitprocs+0x74>
800003e4:	00050b13          	mv	s6,a0
800003e8:	00058b93          	mv	s7,a1
800003ec:	00100a93          	li	s5,1
800003f0:	fff00993          	li	s3,-1
800003f4:	00492483          	lw	s1,4(s2)
800003f8:	fff48413          	addi	s0,s1,-1
800003fc:	02044263          	bltz	s0,80000420 <__call_exitprocs+0x74>
80000400:	00249493          	slli	s1,s1,0x2
80000404:	009904b3          	add	s1,s2,s1
80000408:	040b8463          	beqz	s7,80000450 <__call_exitprocs+0xa4>
8000040c:	1044a783          	lw	a5,260(s1)
80000410:	05778063          	beq	a5,s7,80000450 <__call_exitprocs+0xa4>
80000414:	fff40413          	addi	s0,s0,-1
80000418:	ffc48493          	addi	s1,s1,-4
8000041c:	ff3416e3          	bne	s0,s3,80000408 <__call_exitprocs+0x5c>
80000420:	02c12083          	lw	ra,44(sp)
80000424:	02812403          	lw	s0,40(sp)
80000428:	02412483          	lw	s1,36(sp)
8000042c:	02012903          	lw	s2,32(sp)
80000430:	01c12983          	lw	s3,28(sp)
80000434:	01812a03          	lw	s4,24(sp)
80000438:	01412a83          	lw	s5,20(sp)
8000043c:	01012b03          	lw	s6,16(sp)
80000440:	00c12b83          	lw	s7,12(sp)
80000444:	00812c03          	lw	s8,8(sp)
80000448:	03010113          	addi	sp,sp,48
8000044c:	00008067          	ret
80000450:	00492783          	lw	a5,4(s2)
80000454:	0044a683          	lw	a3,4(s1)
80000458:	fff78793          	addi	a5,a5,-1
8000045c:	04878e63          	beq	a5,s0,800004b8 <__call_exitprocs+0x10c>
80000460:	0004a223          	sw	zero,4(s1)
80000464:	fa0688e3          	beqz	a3,80000414 <__call_exitprocs+0x68>
80000468:	18892783          	lw	a5,392(s2)
8000046c:	008a9733          	sll	a4,s5,s0
80000470:	00492c03          	lw	s8,4(s2)
80000474:	00f777b3          	and	a5,a4,a5
80000478:	02079263          	bnez	a5,8000049c <__call_exitprocs+0xf0>
8000047c:	000680e7          	jalr	a3
80000480:	00492703          	lw	a4,4(s2)
80000484:	148a2783          	lw	a5,328(s4)
80000488:	01871463          	bne	a4,s8,80000490 <__call_exitprocs+0xe4>
8000048c:	f92784e3          	beq	a5,s2,80000414 <__call_exitprocs+0x68>
80000490:	f80788e3          	beqz	a5,80000420 <__call_exitprocs+0x74>
80000494:	00078913          	mv	s2,a5
80000498:	f5dff06f          	j	800003f4 <__call_exitprocs+0x48>
8000049c:	18c92783          	lw	a5,396(s2)
800004a0:	0844a583          	lw	a1,132(s1)
800004a4:	00f77733          	and	a4,a4,a5
800004a8:	00071c63          	bnez	a4,800004c0 <__call_exitprocs+0x114>
800004ac:	000b0513          	mv	a0,s6
800004b0:	000680e7          	jalr	a3
800004b4:	fcdff06f          	j	80000480 <__call_exitprocs+0xd4>
800004b8:	00892223          	sw	s0,4(s2)
800004bc:	fa9ff06f          	j	80000464 <__call_exitprocs+0xb8>
800004c0:	00058513          	mv	a0,a1
800004c4:	000680e7          	jalr	a3
800004c8:	fb9ff06f          	j	80000480 <__call_exitprocs+0xd4>

800004cc <atexit>:
800004cc:	00050593          	mv	a1,a0
800004d0:	00000693          	li	a3,0
800004d4:	00000613          	li	a2,0
800004d8:	00000513          	li	a0,0
800004dc:	0600006f          	j	8000053c <__register_exitproc>

800004e0 <__libc_fini_array>:
800004e0:	ff010113          	addi	sp,sp,-16
800004e4:	00812423          	sw	s0,8(sp)
800004e8:	800017b7          	lui	a5,0x80001
800004ec:	80001437          	lui	s0,0x80001
800004f0:	63840413          	addi	s0,s0,1592 # 80001638 <__stack_top+0xf8001638>
800004f4:	63878793          	addi	a5,a5,1592 # 80001638 <__stack_top+0xf8001638>
800004f8:	408787b3          	sub	a5,a5,s0
800004fc:	00912223          	sw	s1,4(sp)
80000500:	00112623          	sw	ra,12(sp)
80000504:	4027d493          	srai	s1,a5,0x2
80000508:	02048063          	beqz	s1,80000528 <__libc_fini_array+0x48>
8000050c:	ffc78793          	addi	a5,a5,-4
80000510:	00878433          	add	s0,a5,s0
80000514:	00042783          	lw	a5,0(s0)
80000518:	fff48493          	addi	s1,s1,-1
8000051c:	ffc40413          	addi	s0,s0,-4
80000520:	000780e7          	jalr	a5
80000524:	fe0498e3          	bnez	s1,80000514 <__libc_fini_array+0x34>
80000528:	00c12083          	lw	ra,12(sp)
8000052c:	00812403          	lw	s0,8(sp)
80000530:	00412483          	lw	s1,4(sp)
80000534:	01010113          	addi	sp,sp,16
80000538:	00008067          	ret

8000053c <__register_exitproc>:
8000053c:	c281a703          	lw	a4,-984(gp) # 80000a68 <_global_impure_ptr>
80000540:	14872783          	lw	a5,328(a4)
80000544:	04078c63          	beqz	a5,8000059c <__register_exitproc+0x60>
80000548:	0047a703          	lw	a4,4(a5)
8000054c:	01f00813          	li	a6,31
80000550:	06e84e63          	blt	a6,a4,800005cc <__register_exitproc+0x90>
80000554:	00271813          	slli	a6,a4,0x2
80000558:	02050663          	beqz	a0,80000584 <__register_exitproc+0x48>
8000055c:	01078333          	add	t1,a5,a6
80000560:	08c32423          	sw	a2,136(t1)
80000564:	1887a883          	lw	a7,392(a5)
80000568:	00100613          	li	a2,1
8000056c:	00e61633          	sll	a2,a2,a4
80000570:	00c8e8b3          	or	a7,a7,a2
80000574:	1917a423          	sw	a7,392(a5)
80000578:	10d32423          	sw	a3,264(t1)
8000057c:	00200693          	li	a3,2
80000580:	02d50463          	beq	a0,a3,800005a8 <__register_exitproc+0x6c>
80000584:	00170713          	addi	a4,a4,1
80000588:	00e7a223          	sw	a4,4(a5)
8000058c:	010787b3          	add	a5,a5,a6
80000590:	00b7a423          	sw	a1,8(a5)
80000594:	00000513          	li	a0,0
80000598:	00008067          	ret
8000059c:	14c70793          	addi	a5,a4,332
800005a0:	14f72423          	sw	a5,328(a4)
800005a4:	fa5ff06f          	j	80000548 <__register_exitproc+0xc>
800005a8:	18c7a683          	lw	a3,396(a5)
800005ac:	00170713          	addi	a4,a4,1
800005b0:	00e7a223          	sw	a4,4(a5)
800005b4:	00c6e633          	or	a2,a3,a2
800005b8:	18c7a623          	sw	a2,396(a5)
800005bc:	010787b3          	add	a5,a5,a6
800005c0:	00b7a423          	sw	a1,8(a5)
800005c4:	00000513          	li	a0,0
800005c8:	00008067          	ret
800005cc:	fff00513          	li	a0,-1
800005d0:	00008067          	ret

800005d4 <_exit>:
800005d4:	05d00893          	li	a7,93
800005d8:	00000073          	ecall
800005dc:	00054463          	bltz	a0,800005e4 <_exit+0x10>
800005e0:	0000006f          	j	800005e0 <_exit+0xc>
800005e4:	ff010113          	addi	sp,sp,-16
800005e8:	00812423          	sw	s0,8(sp)
800005ec:	00050413          	mv	s0,a0
800005f0:	00112623          	sw	ra,12(sp)
800005f4:	40800433          	neg	s0,s0
800005f8:	00c000ef          	jal	ra,80000604 <__errno>
800005fc:	00852023          	sw	s0,0(a0)
80000600:	0000006f          	j	80000600 <_exit+0x2c>

80000604 <__errno>:
80000604:	c2c1a503          	lw	a0,-980(gp) # 80000a6c <_impure_ptr>
80000608:	00008067          	ret
