
fdtd-2d.elf:     file format elf32-littleriscv


Disassembly of section .init:

80000000 <_start>:
80000000:	00001197          	auipc	gp,0x1
80000004:	e5018193          	addi	gp,gp,-432 # 80000e50 <__global_pointer$>
80000008:	08000117          	auipc	sp,0x8000
8000000c:	ff810113          	addi	sp,sp,-8 # 88000000 <__stack_top>
80000010:	00010433          	add	s0,sp,zero
80000014:	008000ef          	jal	ra,8000001c <main>
80000018:	3740006f          	j	8000038c <exit>

Disassembly of section .text:

8000001c <main>:
8000001c:	e4010113          	addi	sp,sp,-448
80000020:	ffff2337          	lui	t1,0xffff2
80000024:	0000e7b7          	lui	a5,0xe
80000028:	1a112e23          	sw	ra,444(sp)
8000002c:	1a812c23          	sw	s0,440(sp)
80000030:	1a912a23          	sw	s1,436(sp)
80000034:	1b212823          	sw	s2,432(sp)
80000038:	1b312623          	sw	s3,428(sp)
8000003c:	ffff2437          	lui	s0,0xffff2
80000040:	00610133          	add	sp,sp,t1
80000044:	1a078713          	addi	a4,a5,416 # e1a0 <_start-0x7fff1e60>
80000048:	00270733          	add	a4,a4,sp
8000004c:	e6040993          	addi	s3,s0,-416 # ffff1e60 <__stack_top+0x77ff1e60>
80000050:	013709b3          	add	s3,a4,s3
80000054:	ffffb937          	lui	s2,0xffffb
80000058:	1a078713          	addi	a4,a5,416
8000005c:	00270733          	add	a4,a4,sp
80000060:	50090913          	addi	s2,s2,1280 # ffffb500 <__stack_top+0x77ffb500>
80000064:	01270933          	add	s2,a4,s2
80000068:	ffff74b7          	lui	s1,0xffff7
8000006c:	1a078713          	addi	a4,a5,416
80000070:	00270733          	add	a4,a4,sp
80000074:	f0040413          	addi	s0,s0,-256
80000078:	a0048493          	addi	s1,s1,-1536 # ffff6a00 <__stack_top+0x77ff6a00>
8000007c:	00870433          	add	s0,a4,s0
80000080:	009704b3          	add	s1,a4,s1
80000084:	00098813          	mv	a6,s3
80000088:	00090793          	mv	a5,s2
8000008c:	00048713          	mv	a4,s1
80000090:	00040693          	mv	a3,s0
80000094:	05000613          	li	a2,80
80000098:	03c00593          	li	a1,60
8000009c:	02800513          	li	a0,40
800000a0:	064000ef          	jal	ra,80000104 <init_array>
800000a4:	00098813          	mv	a6,s3
800000a8:	00090793          	mv	a5,s2
800000ac:	00048713          	mv	a4,s1
800000b0:	00040693          	mv	a3,s0
800000b4:	02800513          	li	a0,40
800000b8:	05000613          	li	a2,80
800000bc:	03c00593          	li	a1,60
800000c0:	0fc000ef          	jal	ra,800001bc <kernel_fdtd_2d>
800000c4:	0000e337          	lui	t1,0xe
800000c8:	00610133          	add	sp,sp,t1
800000cc:	1bc12083          	lw	ra,444(sp)
800000d0:	1b812403          	lw	s0,440(sp)
800000d4:	1b412483          	lw	s1,436(sp)
800000d8:	1b012903          	lw	s2,432(sp)
800000dc:	1ac12983          	lw	s3,428(sp)
800000e0:	00000513          	li	a0,0
800000e4:	1c010113          	addi	sp,sp,448
800000e8:	00008067          	ret

800000ec <register_fini>:
800000ec:	00000793          	li	a5,0
800000f0:	00078863          	beqz	a5,80000100 <register_fini+0x14>
800000f4:	80000537          	lui	a0,0x80000
800000f8:	4f050513          	addi	a0,a0,1264 # 800004f0 <__stack_top+0xf80004f0>
800000fc:	3e00006f          	j	800004dc <atexit>
80000100:	00008067          	ret

80000104 <init_array>:
80000104:	00000893          	li	a7,0
80000108:	00a05c63          	blez	a0,80000120 <init_array+0x1c>
8000010c:	d008f7d3          	fcvt.s.w	fa5,a7
80000110:	00188893          	addi	a7,a7,1
80000114:	00480813          	addi	a6,a6,4
80000118:	fef82e27          	fsw	fa5,-4(a6)
8000011c:	ff1518e3          	bne	a0,a7,8000010c <init_array+0x8>
80000120:	08b05c63          	blez	a1,800001b8 <init_array+0xb4>
80000124:	00068e13          	mv	t3,a3
80000128:	00070e93          	mv	t4,a4
8000012c:	00078f13          	mv	t5,a5
80000130:	00000313          	li	t1,0
80000134:	06c05863          	blez	a2,800001a4 <init_array+0xa0>
80000138:	d0037653          	fcvt.s.w	fa2,t1
8000013c:	d005f5d3          	fcvt.s.w	fa1,a1
80000140:	d0067553          	fcvt.s.w	fa0,a2
80000144:	000f0813          	mv	a6,t5
80000148:	000e8513          	mv	a0,t4
8000014c:	000e0693          	mv	a3,t3
80000150:	00000793          	li	a5,0
80000154:	00078713          	mv	a4,a5
80000158:	00178793          	addi	a5,a5,1
8000015c:	00270893          	addi	a7,a4,2
80000160:	d007f6d3          	fcvt.s.w	fa3,a5
80000164:	d008f753          	fcvt.s.w	fa4,a7
80000168:	00370713          	addi	a4,a4,3
8000016c:	d00777d3          	fcvt.s.w	fa5,a4
80000170:	10c6f6d3          	fmul.s	fa3,fa3,fa2
80000174:	10c77753          	fmul.s	fa4,fa4,fa2
80000178:	10c7f7d3          	fmul.s	fa5,fa5,fa2
8000017c:	00468693          	addi	a3,a3,4
80000180:	00450513          	addi	a0,a0,4
80000184:	18b6f6d3          	fdiv.s	fa3,fa3,fa1
80000188:	00480813          	addi	a6,a6,4
8000018c:	18a77753          	fdiv.s	fa4,fa4,fa0
80000190:	fed6ae27          	fsw	fa3,-4(a3)
80000194:	18b7f7d3          	fdiv.s	fa5,fa5,fa1
80000198:	fee52e27          	fsw	fa4,-4(a0)
8000019c:	fef82e27          	fsw	fa5,-4(a6)
800001a0:	fac79ae3          	bne	a5,a2,80000154 <init_array+0x50>
800001a4:	00130313          	addi	t1,t1,1 # e001 <_start-0x7fff1fff>
800001a8:	140e0e13          	addi	t3,t3,320
800001ac:	140e8e93          	addi	t4,t4,320
800001b0:	140f0f13          	addi	t5,t5,320
800001b4:	f86590e3          	bne	a1,t1,80000134 <init_array+0x30>
800001b8:	00008067          	ret

800001bc <kernel_fdtd_2d>:
800001bc:	00050293          	mv	t0,a0
800001c0:	1ca05463          	blez	a0,80000388 <kernel_fdtd_2d+0x1cc>
800001c4:	00078f13          	mv	t5,a5
800001c8:	c281a707          	flw	fa4,-984(gp) # 80000a78 <__SDATA_BEGIN__>
800001cc:	c2c1a507          	flw	fa0,-980(gp) # 80000a7c <__SDATA_BEGIN__+0x4>
800001d0:	fe010113          	addi	sp,sp,-32
800001d4:	00058513          	mv	a0,a1
800001d8:	fff58313          	addi	t1,a1,-1
800001dc:	00812e23          	sw	s0,28(sp)
800001e0:	00912c23          	sw	s1,24(sp)
800001e4:	01212a23          	sw	s2,20(sp)
800001e8:	01312823          	sw	s3,16(sp)
800001ec:	01412623          	sw	s4,12(sp)
800001f0:	00068f93          	mv	t6,a3
800001f4:	00070e93          	mv	t4,a4
800001f8:	00000e13          	li	t3,0
800001fc:	00100893          	li	a7,1
80000200:	fff60593          	addi	a1,a2,-1
80000204:	000e8713          	mv	a4,t4
80000208:	00000793          	li	a5,0
8000020c:	00c05c63          	blez	a2,80000224 <kernel_fdtd_2d+0x68>
80000210:	00082787          	flw	fa5,0(a6)
80000214:	00178793          	addi	a5,a5,1
80000218:	00470713          	addi	a4,a4,4
8000021c:	fef72e27          	fsw	fa5,-4(a4)
80000220:	fef618e3          	bne	a2,a5,80000210 <kernel_fdtd_2d+0x54>
80000224:	14a8de63          	bge	a7,a0,80000380 <kernel_fdtd_2d+0x1c4>
80000228:	140e8493          	addi	s1,t4,320
8000022c:	000f0713          	mv	a4,t5
80000230:	00100413          	li	s0,1
80000234:	14070913          	addi	s2,a4,320
80000238:	00090393          	mv	t2,s2
8000023c:	00048793          	mv	a5,s1
80000240:	00000693          	li	a3,0
80000244:	02c05863          	blez	a2,80000274 <kernel_fdtd_2d+0xb8>
80000248:	0003a787          	flw	fa5,0(t2)
8000024c:	00072607          	flw	fa2,0(a4)
80000250:	0007a687          	flw	fa3,0(a5)
80000254:	00478793          	addi	a5,a5,4
80000258:	08c7f7d3          	fsub.s	fa5,fa5,fa2
8000025c:	00168693          	addi	a3,a3,1
80000260:	00438393          	addi	t2,t2,4
80000264:	00470713          	addi	a4,a4,4
80000268:	68e7f7cb          	fnmsub.s	fa5,fa5,fa4,fa3
8000026c:	fef7ae27          	fsw	fa5,-4(a5)
80000270:	fcd61ce3          	bne	a2,a3,80000248 <kernel_fdtd_2d+0x8c>
80000274:	00140413          	addi	s0,s0,1
80000278:	14048493          	addi	s1,s1,320
8000027c:	00090713          	mv	a4,s2
80000280:	fa851ae3          	bne	a0,s0,80000234 <kernel_fdtd_2d+0x78>
80000284:	004f8493          	addi	s1,t6,4
80000288:	000f0413          	mv	s0,t5
8000028c:	00000393          	li	t2,0
80000290:	00040713          	mv	a4,s0
80000294:	00048793          	mv	a5,s1
80000298:	00100693          	li	a3,1
8000029c:	02c8d663          	bge	a7,a2,800002c8 <kernel_fdtd_2d+0x10c>
800002a0:	00472787          	flw	fa5,4(a4)
800002a4:	00072607          	flw	fa2,0(a4)
800002a8:	0007a687          	flw	fa3,0(a5)
800002ac:	00478793          	addi	a5,a5,4
800002b0:	08c7f7d3          	fsub.s	fa5,fa5,fa2
800002b4:	00168693          	addi	a3,a3,1
800002b8:	00470713          	addi	a4,a4,4
800002bc:	68e7f7cb          	fnmsub.s	fa5,fa5,fa4,fa3
800002c0:	fef7ae27          	fsw	fa5,-4(a5)
800002c4:	fcd61ee3          	bne	a2,a3,800002a0 <kernel_fdtd_2d+0xe4>
800002c8:	00138393          	addi	t2,t2,1
800002cc:	14048493          	addi	s1,s1,320
800002d0:	14040413          	addi	s0,s0,320
800002d4:	faa3cee3          	blt	t2,a0,80000290 <kernel_fdtd_2d+0xd4>
800002d8:	08605063          	blez	t1,80000358 <kernel_fdtd_2d+0x19c>
800002dc:	000f0993          	mv	s3,t5
800002e0:	000f8913          	mv	s2,t6
800002e4:	000e8693          	mv	a3,t4
800002e8:	00000493          	li	s1,0
800002ec:	14068a13          	addi	s4,a3,320
800002f0:	04b05a63          	blez	a1,80000344 <kernel_fdtd_2d+0x188>
800002f4:	000a0413          	mv	s0,s4
800002f8:	00090713          	mv	a4,s2
800002fc:	00098793          	mv	a5,s3
80000300:	00000393          	li	t2,0
80000304:	00072687          	flw	fa3,0(a4)
80000308:	00472787          	flw	fa5,4(a4)
8000030c:	00042587          	flw	fa1,0(s0)
80000310:	0006a607          	flw	fa2,0(a3)
80000314:	08d7f7d3          	fsub.s	fa5,fa5,fa3
80000318:	0007a687          	flw	fa3,0(a5)
8000031c:	00478793          	addi	a5,a5,4
80000320:	00138393          	addi	t2,t2,1
80000324:	00470713          	addi	a4,a4,4
80000328:	00b7f7d3          	fadd.s	fa5,fa5,fa1
8000032c:	00440413          	addi	s0,s0,4
80000330:	00468693          	addi	a3,a3,4
80000334:	08c7f7d3          	fsub.s	fa5,fa5,fa2
80000338:	68a7f7cb          	fnmsub.s	fa5,fa5,fa0,fa3
8000033c:	fef7ae27          	fsw	fa5,-4(a5)
80000340:	fcb392e3          	bne	t2,a1,80000304 <kernel_fdtd_2d+0x148>
80000344:	00148493          	addi	s1,s1,1
80000348:	14098993          	addi	s3,s3,320
8000034c:	14090913          	addi	s2,s2,320
80000350:	000a0693          	mv	a3,s4
80000354:	f8649ce3          	bne	s1,t1,800002ec <kernel_fdtd_2d+0x130>
80000358:	001e0e13          	addi	t3,t3,1
8000035c:	00480813          	addi	a6,a6,4
80000360:	ebc292e3          	bne	t0,t3,80000204 <kernel_fdtd_2d+0x48>
80000364:	01c12403          	lw	s0,28(sp)
80000368:	01812483          	lw	s1,24(sp)
8000036c:	01412903          	lw	s2,20(sp)
80000370:	01012983          	lw	s3,16(sp)
80000374:	00c12a03          	lw	s4,12(sp)
80000378:	02010113          	addi	sp,sp,32
8000037c:	00008067          	ret
80000380:	f5151ce3          	bne	a0,a7,800002d8 <kernel_fdtd_2d+0x11c>
80000384:	f01ff06f          	j	80000284 <kernel_fdtd_2d+0xc8>
80000388:	00008067          	ret

8000038c <exit>:
8000038c:	ff010113          	addi	sp,sp,-16
80000390:	00000593          	li	a1,0
80000394:	00812423          	sw	s0,8(sp)
80000398:	00112623          	sw	ra,12(sp)
8000039c:	00050413          	mv	s0,a0
800003a0:	01c000ef          	jal	ra,800003bc <__call_exitprocs>
800003a4:	c301a503          	lw	a0,-976(gp) # 80000a80 <_global_impure_ptr>
800003a8:	03c52783          	lw	a5,60(a0)
800003ac:	00078463          	beqz	a5,800003b4 <exit+0x28>
800003b0:	000780e7          	jalr	a5
800003b4:	00040513          	mv	a0,s0
800003b8:	22c000ef          	jal	ra,800005e4 <_exit>

800003bc <__call_exitprocs>:
800003bc:	fd010113          	addi	sp,sp,-48
800003c0:	01412c23          	sw	s4,24(sp)
800003c4:	c301aa03          	lw	s4,-976(gp) # 80000a80 <_global_impure_ptr>
800003c8:	03212023          	sw	s2,32(sp)
800003cc:	02112623          	sw	ra,44(sp)
800003d0:	148a2903          	lw	s2,328(s4)
800003d4:	02812423          	sw	s0,40(sp)
800003d8:	02912223          	sw	s1,36(sp)
800003dc:	01312e23          	sw	s3,28(sp)
800003e0:	01512a23          	sw	s5,20(sp)
800003e4:	01612823          	sw	s6,16(sp)
800003e8:	01712623          	sw	s7,12(sp)
800003ec:	01812423          	sw	s8,8(sp)
800003f0:	04090063          	beqz	s2,80000430 <__call_exitprocs+0x74>
800003f4:	00050b13          	mv	s6,a0
800003f8:	00058b93          	mv	s7,a1
800003fc:	00100a93          	li	s5,1
80000400:	fff00993          	li	s3,-1
80000404:	00492483          	lw	s1,4(s2)
80000408:	fff48413          	addi	s0,s1,-1
8000040c:	02044263          	bltz	s0,80000430 <__call_exitprocs+0x74>
80000410:	00249493          	slli	s1,s1,0x2
80000414:	009904b3          	add	s1,s2,s1
80000418:	040b8463          	beqz	s7,80000460 <__call_exitprocs+0xa4>
8000041c:	1044a783          	lw	a5,260(s1)
80000420:	05778063          	beq	a5,s7,80000460 <__call_exitprocs+0xa4>
80000424:	fff40413          	addi	s0,s0,-1
80000428:	ffc48493          	addi	s1,s1,-4
8000042c:	ff3416e3          	bne	s0,s3,80000418 <__call_exitprocs+0x5c>
80000430:	02c12083          	lw	ra,44(sp)
80000434:	02812403          	lw	s0,40(sp)
80000438:	02412483          	lw	s1,36(sp)
8000043c:	02012903          	lw	s2,32(sp)
80000440:	01c12983          	lw	s3,28(sp)
80000444:	01812a03          	lw	s4,24(sp)
80000448:	01412a83          	lw	s5,20(sp)
8000044c:	01012b03          	lw	s6,16(sp)
80000450:	00c12b83          	lw	s7,12(sp)
80000454:	00812c03          	lw	s8,8(sp)
80000458:	03010113          	addi	sp,sp,48
8000045c:	00008067          	ret
80000460:	00492783          	lw	a5,4(s2)
80000464:	0044a683          	lw	a3,4(s1)
80000468:	fff78793          	addi	a5,a5,-1
8000046c:	04878e63          	beq	a5,s0,800004c8 <__call_exitprocs+0x10c>
80000470:	0004a223          	sw	zero,4(s1)
80000474:	fa0688e3          	beqz	a3,80000424 <__call_exitprocs+0x68>
80000478:	18892783          	lw	a5,392(s2)
8000047c:	008a9733          	sll	a4,s5,s0
80000480:	00492c03          	lw	s8,4(s2)
80000484:	00f777b3          	and	a5,a4,a5
80000488:	02079263          	bnez	a5,800004ac <__call_exitprocs+0xf0>
8000048c:	000680e7          	jalr	a3
80000490:	00492703          	lw	a4,4(s2)
80000494:	148a2783          	lw	a5,328(s4)
80000498:	01871463          	bne	a4,s8,800004a0 <__call_exitprocs+0xe4>
8000049c:	f92784e3          	beq	a5,s2,80000424 <__call_exitprocs+0x68>
800004a0:	f80788e3          	beqz	a5,80000430 <__call_exitprocs+0x74>
800004a4:	00078913          	mv	s2,a5
800004a8:	f5dff06f          	j	80000404 <__call_exitprocs+0x48>
800004ac:	18c92783          	lw	a5,396(s2)
800004b0:	0844a583          	lw	a1,132(s1)
800004b4:	00f77733          	and	a4,a4,a5
800004b8:	00071c63          	bnez	a4,800004d0 <__call_exitprocs+0x114>
800004bc:	000b0513          	mv	a0,s6
800004c0:	000680e7          	jalr	a3
800004c4:	fcdff06f          	j	80000490 <__call_exitprocs+0xd4>
800004c8:	00892223          	sw	s0,4(s2)
800004cc:	fa9ff06f          	j	80000474 <__call_exitprocs+0xb8>
800004d0:	00058513          	mv	a0,a1
800004d4:	000680e7          	jalr	a3
800004d8:	fb9ff06f          	j	80000490 <__call_exitprocs+0xd4>

800004dc <atexit>:
800004dc:	00050593          	mv	a1,a0
800004e0:	00000693          	li	a3,0
800004e4:	00000613          	li	a2,0
800004e8:	00000513          	li	a0,0
800004ec:	0600006f          	j	8000054c <__register_exitproc>

800004f0 <__libc_fini_array>:
800004f0:	ff010113          	addi	sp,sp,-16
800004f4:	00812423          	sw	s0,8(sp)
800004f8:	800017b7          	lui	a5,0x80001
800004fc:	80001437          	lui	s0,0x80001
80000500:	64840413          	addi	s0,s0,1608 # 80001648 <__stack_top+0xf8001648>
80000504:	64878793          	addi	a5,a5,1608 # 80001648 <__stack_top+0xf8001648>
80000508:	408787b3          	sub	a5,a5,s0
8000050c:	00912223          	sw	s1,4(sp)
80000510:	00112623          	sw	ra,12(sp)
80000514:	4027d493          	srai	s1,a5,0x2
80000518:	02048063          	beqz	s1,80000538 <__libc_fini_array+0x48>
8000051c:	ffc78793          	addi	a5,a5,-4
80000520:	00878433          	add	s0,a5,s0
80000524:	00042783          	lw	a5,0(s0)
80000528:	fff48493          	addi	s1,s1,-1
8000052c:	ffc40413          	addi	s0,s0,-4
80000530:	000780e7          	jalr	a5
80000534:	fe0498e3          	bnez	s1,80000524 <__libc_fini_array+0x34>
80000538:	00c12083          	lw	ra,12(sp)
8000053c:	00812403          	lw	s0,8(sp)
80000540:	00412483          	lw	s1,4(sp)
80000544:	01010113          	addi	sp,sp,16
80000548:	00008067          	ret

8000054c <__register_exitproc>:
8000054c:	c301a703          	lw	a4,-976(gp) # 80000a80 <_global_impure_ptr>
80000550:	14872783          	lw	a5,328(a4)
80000554:	04078c63          	beqz	a5,800005ac <__register_exitproc+0x60>
80000558:	0047a703          	lw	a4,4(a5)
8000055c:	01f00813          	li	a6,31
80000560:	06e84e63          	blt	a6,a4,800005dc <__register_exitproc+0x90>
80000564:	00271813          	slli	a6,a4,0x2
80000568:	02050663          	beqz	a0,80000594 <__register_exitproc+0x48>
8000056c:	01078333          	add	t1,a5,a6
80000570:	08c32423          	sw	a2,136(t1)
80000574:	1887a883          	lw	a7,392(a5)
80000578:	00100613          	li	a2,1
8000057c:	00e61633          	sll	a2,a2,a4
80000580:	00c8e8b3          	or	a7,a7,a2
80000584:	1917a423          	sw	a7,392(a5)
80000588:	10d32423          	sw	a3,264(t1)
8000058c:	00200693          	li	a3,2
80000590:	02d50463          	beq	a0,a3,800005b8 <__register_exitproc+0x6c>
80000594:	00170713          	addi	a4,a4,1
80000598:	00e7a223          	sw	a4,4(a5)
8000059c:	010787b3          	add	a5,a5,a6
800005a0:	00b7a423          	sw	a1,8(a5)
800005a4:	00000513          	li	a0,0
800005a8:	00008067          	ret
800005ac:	14c70793          	addi	a5,a4,332
800005b0:	14f72423          	sw	a5,328(a4)
800005b4:	fa5ff06f          	j	80000558 <__register_exitproc+0xc>
800005b8:	18c7a683          	lw	a3,396(a5)
800005bc:	00170713          	addi	a4,a4,1
800005c0:	00e7a223          	sw	a4,4(a5)
800005c4:	00c6e633          	or	a2,a3,a2
800005c8:	18c7a623          	sw	a2,396(a5)
800005cc:	010787b3          	add	a5,a5,a6
800005d0:	00b7a423          	sw	a1,8(a5)
800005d4:	00000513          	li	a0,0
800005d8:	00008067          	ret
800005dc:	fff00513          	li	a0,-1
800005e0:	00008067          	ret

800005e4 <_exit>:
800005e4:	05d00893          	li	a7,93
800005e8:	00000073          	ecall
800005ec:	00054463          	bltz	a0,800005f4 <_exit+0x10>
800005f0:	0000006f          	j	800005f0 <_exit+0xc>
800005f4:	ff010113          	addi	sp,sp,-16
800005f8:	00812423          	sw	s0,8(sp)
800005fc:	00050413          	mv	s0,a0
80000600:	00112623          	sw	ra,12(sp)
80000604:	40800433          	neg	s0,s0
80000608:	00c000ef          	jal	ra,80000614 <__errno>
8000060c:	00852023          	sw	s0,0(a0)
80000610:	0000006f          	j	80000610 <_exit+0x2c>

80000614 <__errno>:
80000614:	c341a503          	lw	a0,-972(gp) # 80000a84 <_impure_ptr>
80000618:	00008067          	ret
