
gramschmidt.elf:     file format elf32-littleriscv


Disassembly of section .init:

80000000 <_start>:
80000000:	00001197          	auipc	gp,0x1
80000004:	f8018193          	addi	gp,gp,-128 # 80000f80 <__global_pointer$>
80000008:	08000117          	auipc	sp,0x8000
8000000c:	ff810113          	addi	sp,sp,-8 # 88000000 <__stack_top>
80000010:	00010433          	add	s0,sp,zero
80000014:	008000ef          	jal	ra,8000001c <main>
80000018:	3d40006f          	j	800003ec <exit>

Disassembly of section .text:

8000001c <main>:
8000001c:	ffff1337          	lui	t1,0xffff1
80000020:	81010113          	addi	sp,sp,-2032
80000024:	de030313          	addi	t1,t1,-544 # ffff0de0 <__stack_top+0x77ff0de0>
80000028:	000107b7          	lui	a5,0x10
8000002c:	7e112623          	sw	ra,2028(sp)
80000030:	7e812423          	sw	s0,2024(sp)
80000034:	7e912223          	sw	s1,2020(sp)
80000038:	7f212023          	sw	s2,2016(sp)
8000003c:	a0078713          	addi	a4,a5,-1536 # fa00 <_start-0x7fff0600>
80000040:	00610133          	add	sp,sp,t1
80000044:	ffff5937          	lui	s2,0xffff5
80000048:	00270733          	add	a4,a4,sp
8000004c:	10090913          	addi	s2,s2,256 # ffff5100 <__stack_top+0x77ff5100>
80000050:	01270933          	add	s2,a4,s2
80000054:	ffffa4b7          	lui	s1,0xffffa
80000058:	a0078713          	addi	a4,a5,-1536
8000005c:	ffff0437          	lui	s0,0xffff0
80000060:	00270733          	add	a4,a4,sp
80000064:	c0048493          	addi	s1,s1,-1024 # ffff9c00 <__stack_top+0x77ff9c00>
80000068:	60040413          	addi	s0,s0,1536 # ffff0600 <__stack_top+0x77ff0600>
8000006c:	00870433          	add	s0,a4,s0
80000070:	009704b3          	add	s1,a4,s1
80000074:	00048693          	mv	a3,s1
80000078:	00090713          	mv	a4,s2
8000007c:	00040613          	mv	a2,s0
80000080:	05000593          	li	a1,80
80000084:	03c00513          	li	a0,60
80000088:	05c000ef          	jal	ra,800000e4 <init_array>
8000008c:	00090713          	mv	a4,s2
80000090:	00048693          	mv	a3,s1
80000094:	00040613          	mv	a2,s0
80000098:	03c00513          	li	a0,60
8000009c:	05000593          	li	a1,80
800000a0:	110000ef          	jal	ra,800001b0 <kernel_gramschmidt>
800000a4:	0000f337          	lui	t1,0xf
800000a8:	22030313          	addi	t1,t1,544 # f220 <_start-0x7fff0de0>
800000ac:	00610133          	add	sp,sp,t1
800000b0:	7ec12083          	lw	ra,2028(sp)
800000b4:	7e812403          	lw	s0,2024(sp)
800000b8:	7e412483          	lw	s1,2020(sp)
800000bc:	7e012903          	lw	s2,2016(sp)
800000c0:	00000513          	li	a0,0
800000c4:	7f010113          	addi	sp,sp,2032
800000c8:	00008067          	ret

800000cc <register_fini>:
800000cc:	00000793          	li	a5,0
800000d0:	00078863          	beqz	a5,800000e0 <register_fini+0x14>
800000d4:	80000537          	lui	a0,0x80000
800000d8:	62c50513          	addi	a0,a0,1580 # 8000062c <__stack_top+0xf800062c>
800000dc:	53c0006f          	j	80000618 <atexit>
800000e0:	00008067          	ret

800000e4 <init_array>:
800000e4:	06a05663          	blez	a0,80000150 <init_array+0x6c>
800000e8:	c281a607          	flw	fa2,-984(gp) # 80000ba8 <__SDATA_BEGIN__>
800000ec:	c2c1a687          	flw	fa3,-980(gp) # 80000bac <__SDATA_BEGIN__+0x4>
800000f0:	00060e93          	mv	t4,a2
800000f4:	00070e13          	mv	t3,a4
800000f8:	00000313          	li	t1,0
800000fc:	04b05263          	blez	a1,80000140 <init_array+0x5c>
80000100:	d0057753          	fcvt.s.w	fa4,a0
80000104:	000e0813          	mv	a6,t3
80000108:	000e8613          	mv	a2,t4
8000010c:	00000713          	li	a4,0
80000110:	00000793          	li	a5,0
80000114:	02a768b3          	rem	a7,a4,a0
80000118:	00460613          	addi	a2,a2,4
8000011c:	00480813          	addi	a6,a6,4
80000120:	00178793          	addi	a5,a5,1
80000124:	00670733          	add	a4,a4,t1
80000128:	d008f7d3          	fcvt.s.w	fa5,a7
8000012c:	18e7f7d3          	fdiv.s	fa5,fa5,fa4
80000130:	68c7f7c3          	fmadd.s	fa5,fa5,fa2,fa3
80000134:	fef62e27          	fsw	fa5,-4(a2)
80000138:	fe082e23          	sw	zero,-4(a6)
8000013c:	fcf59ce3          	bne	a1,a5,80000114 <init_array+0x30>
80000140:	00130313          	addi	t1,t1,1
80000144:	140e8e93          	addi	t4,t4,320
80000148:	140e0e13          	addi	t3,t3,320
8000014c:	fa6518e3          	bne	a0,t1,800000fc <init_array+0x18>
80000150:	04b05e63          	blez	a1,800001ac <init_array+0xc8>
80000154:	ff010113          	addi	sp,sp,-16
80000158:	01212023          	sw	s2,0(sp)
8000015c:	00259913          	slli	s2,a1,0x2
80000160:	00812423          	sw	s0,8(sp)
80000164:	00b90433          	add	s0,s2,a1
80000168:	00641413          	slli	s0,s0,0x6
8000016c:	00912223          	sw	s1,4(sp)
80000170:	00112623          	sw	ra,12(sp)
80000174:	00068493          	mv	s1,a3
80000178:	00868433          	add	s0,a3,s0
8000017c:	00048513          	mv	a0,s1
80000180:	00090613          	mv	a2,s2
80000184:	14048493          	addi	s1,s1,320
80000188:	00000593          	li	a1,0
8000018c:	290000ef          	jal	ra,8000041c <memset>
80000190:	fe9416e3          	bne	s0,s1,8000017c <init_array+0x98>
80000194:	00c12083          	lw	ra,12(sp)
80000198:	00812403          	lw	s0,8(sp)
8000019c:	00412483          	lw	s1,4(sp)
800001a0:	00012903          	lw	s2,0(sp)
800001a4:	01010113          	addi	sp,sp,16
800001a8:	00008067          	ret
800001ac:	00008067          	ret

800001b0 <kernel_gramschmidt>:
800001b0:	1ab05863          	blez	a1,80000360 <kernel_gramschmidt+0x1b0>
800001b4:	fb010113          	addi	sp,sp,-80
800001b8:	04912223          	sw	s1,68(sp)
800001bc:	00251493          	slli	s1,a0,0x2
800001c0:	03312e23          	sw	s3,60(sp)
800001c4:	03812423          	sw	s8,40(sp)
800001c8:	00a484b3          	add	s1,s1,a0
800001cc:	00060c13          	mv	s8,a2
800001d0:	00000993          	li	s3,0
800001d4:	00649493          	slli	s1,s1,0x6
800001d8:	04812423          	sw	s0,72(sp)
800001dc:	05212023          	sw	s2,64(sp)
800001e0:	03412c23          	sw	s4,56(sp)
800001e4:	03512a23          	sw	s5,52(sp)
800001e8:	03612823          	sw	s6,48(sp)
800001ec:	03712623          	sw	s7,44(sp)
800001f0:	00812e27          	fsw	fs0,28(sp)
800001f4:	013c07b3          	add	a5,s8,s3
800001f8:	04112623          	sw	ra,76(sp)
800001fc:	00050a13          	mv	s4,a0
80000200:	00970433          	add	s0,a4,s1
80000204:	00070b13          	mv	s6,a4
80000208:	f0000453          	fmv.w.x	fs0,zero
8000020c:	f0000553          	fmv.w.x	fa0,zero
80000210:	00058a93          	mv	s5,a1
80000214:	00068913          	mv	s2,a3
80000218:	009604b3          	add	s1,a2,s1
8000021c:	00000b93          	li	s7,0
80000220:	00078713          	mv	a4,a5
80000224:	0f405e63          	blez	s4,80000320 <kernel_gramschmidt+0x170>
80000228:	00072787          	flw	fa5,0(a4)
8000022c:	14070713          	addi	a4,a4,320
80000230:	50f7f543          	fmadd.s	fa0,fa5,fa5,fa0
80000234:	fe971ae3          	bne	a4,s1,80000228 <kernel_gramschmidt+0x78>
80000238:	001026f3          	frflags	a3
8000023c:	a0851753          	flt.s	a4,fa0,fs0
80000240:	00169073          	fsflags	a3
80000244:	12071063          	bnez	a4,80000364 <kernel_gramschmidt+0x1b4>
80000248:	58057553          	fsqrt.s	fa0,fa0
8000024c:	00a92027          	fsw	fa0,0(s2)
80000250:	013b0733          	add	a4,s6,s3
80000254:	0080006f          	j	8000025c <kernel_gramschmidt+0xac>
80000258:	00092507          	flw	fa0,0(s2)
8000025c:	0007a787          	flw	fa5,0(a5)
80000260:	14070713          	addi	a4,a4,320
80000264:	14078793          	addi	a5,a5,320
80000268:	18a7f553          	fdiv.s	fa0,fa5,fa0
8000026c:	eca72027          	fsw	fa0,-320(a4)
80000270:	fe9794e3          	bne	a5,s1,80000258 <kernel_gramschmidt+0xa8>
80000274:	001b8b93          	addi	s7,s7,1
80000278:	0b7a8a63          	beq	s5,s7,8000032c <kernel_gramschmidt+0x17c>
8000027c:	002b9513          	slli	a0,s7,0x2
80000280:	00448493          	addi	s1,s1,4
80000284:	00ac0533          	add	a0,s8,a0
80000288:	00048593          	mv	a1,s1
8000028c:	00090613          	mv	a2,s2
80000290:	000b8813          	mv	a6,s7
80000294:	00062223          	sw	zero,4(a2)
80000298:	05405c63          	blez	s4,800002f0 <kernel_gramschmidt+0x140>
8000029c:	f00007d3          	fmv.w.x	fa5,zero
800002a0:	013b0733          	add	a4,s6,s3
800002a4:	00050693          	mv	a3,a0
800002a8:	00070793          	mv	a5,a4
800002ac:	0007a687          	flw	fa3,0(a5)
800002b0:	0006a707          	flw	fa4,0(a3)
800002b4:	14078793          	addi	a5,a5,320
800002b8:	14068693          	addi	a3,a3,320
800002bc:	78e6f7c3          	fmadd.s	fa5,fa3,fa4,fa5
800002c0:	00f62227          	fsw	fa5,4(a2)
800002c4:	fe8794e3          	bne	a5,s0,800002ac <kernel_gramschmidt+0xfc>
800002c8:	00050793          	mv	a5,a0
800002cc:	0080006f          	j	800002d4 <kernel_gramschmidt+0x124>
800002d0:	00462787          	flw	fa5,4(a2)
800002d4:	00072707          	flw	fa4,0(a4)
800002d8:	0007a687          	flw	fa3,0(a5)
800002dc:	14078793          	addi	a5,a5,320
800002e0:	14070713          	addi	a4,a4,320
800002e4:	68f777cb          	fnmsub.s	fa5,fa4,fa5,fa3
800002e8:	ecf7a027          	fsw	fa5,-320(a5)
800002ec:	feb792e3          	bne	a5,a1,800002d0 <kernel_gramschmidt+0x120>
800002f0:	00180813          	addi	a6,a6,1
800002f4:	00460613          	addi	a2,a2,4
800002f8:	00450513          	addi	a0,a0,4
800002fc:	00458593          	addi	a1,a1,4
80000300:	f90a9ae3          	bne	s5,a6,80000294 <kernel_gramschmidt+0xe4>
80000304:	00498993          	addi	s3,s3,4
80000308:	013c07b3          	add	a5,s8,s3
8000030c:	f0000553          	fmv.w.x	fa0,zero
80000310:	00440413          	addi	s0,s0,4
80000314:	14490913          	addi	s2,s2,324
80000318:	00078713          	mv	a4,a5
8000031c:	f14046e3          	bgtz	s4,80000228 <kernel_gramschmidt+0x78>
80000320:	00092023          	sw	zero,0(s2)
80000324:	001b8b93          	addi	s7,s7,1
80000328:	f57a9ae3          	bne	s5,s7,8000027c <kernel_gramschmidt+0xcc>
8000032c:	04c12083          	lw	ra,76(sp)
80000330:	04812403          	lw	s0,72(sp)
80000334:	04412483          	lw	s1,68(sp)
80000338:	04012903          	lw	s2,64(sp)
8000033c:	03c12983          	lw	s3,60(sp)
80000340:	03812a03          	lw	s4,56(sp)
80000344:	03412a83          	lw	s5,52(sp)
80000348:	03012b03          	lw	s6,48(sp)
8000034c:	02c12b83          	lw	s7,44(sp)
80000350:	02812c03          	lw	s8,40(sp)
80000354:	01c12407          	flw	fs0,28(sp)
80000358:	05010113          	addi	sp,sp,80
8000035c:	00008067          	ret
80000360:	00008067          	ret
80000364:	00f12623          	sw	a5,12(sp)
80000368:	010000ef          	jal	ra,80000378 <sqrtf>
8000036c:	00c12783          	lw	a5,12(sp)
80000370:	00a92027          	fsw	fa0,0(s2)
80000374:	eddff06f          	j	80000250 <kernel_gramschmidt+0xa0>

80000378 <sqrtf>:
80000378:	fe010113          	addi	sp,sp,-32
8000037c:	00812627          	fsw	fs0,12(sp)
80000380:	20a50453          	fmv.s	fs0,fa0
80000384:	00112e23          	sw	ra,28(sp)
80000388:	00912427          	fsw	fs1,8(sp)
8000038c:	050000ef          	jal	ra,800003dc <__ieee754_sqrtf>
80000390:	a08427d3          	feq.s	a5,fs0,fs0
80000394:	00078863          	beqz	a5,800003a4 <sqrtf+0x2c>
80000398:	f00004d3          	fmv.w.x	fs1,zero
8000039c:	a09417d3          	flt.s	a5,fs0,fs1
800003a0:	00079c63          	bnez	a5,800003b8 <sqrtf+0x40>
800003a4:	01c12083          	lw	ra,28(sp)
800003a8:	00c12407          	flw	fs0,12(sp)
800003ac:	00812487          	flw	fs1,8(sp)
800003b0:	02010113          	addi	sp,sp,32
800003b4:	00008067          	ret
800003b8:	02c000ef          	jal	ra,800003e4 <__errno>
800003bc:	01c12083          	lw	ra,28(sp)
800003c0:	02100793          	li	a5,33
800003c4:	00f52023          	sw	a5,0(a0)
800003c8:	1894f553          	fdiv.s	fa0,fs1,fs1
800003cc:	00c12407          	flw	fs0,12(sp)
800003d0:	00812487          	flw	fs1,8(sp)
800003d4:	02010113          	addi	sp,sp,32
800003d8:	00008067          	ret

800003dc <__ieee754_sqrtf>:
800003dc:	58057553          	fsqrt.s	fa0,fa0
800003e0:	00008067          	ret

800003e4 <__errno>:
800003e4:	c341a503          	lw	a0,-972(gp) # 80000bb4 <_impure_ptr>
800003e8:	00008067          	ret

800003ec <exit>:
800003ec:	ff010113          	addi	sp,sp,-16
800003f0:	00000593          	li	a1,0
800003f4:	00812423          	sw	s0,8(sp)
800003f8:	00112623          	sw	ra,12(sp)
800003fc:	00050413          	mv	s0,a0
80000400:	0f8000ef          	jal	ra,800004f8 <__call_exitprocs>
80000404:	c301a503          	lw	a0,-976(gp) # 80000bb0 <_global_impure_ptr>
80000408:	03c52783          	lw	a5,60(a0)
8000040c:	00078463          	beqz	a5,80000414 <exit+0x28>
80000410:	000780e7          	jalr	a5
80000414:	00040513          	mv	a0,s0
80000418:	308000ef          	jal	ra,80000720 <_exit>

8000041c <memset>:
8000041c:	00f00313          	li	t1,15
80000420:	00050713          	mv	a4,a0
80000424:	02c37e63          	bgeu	t1,a2,80000460 <memset+0x44>
80000428:	00f77793          	andi	a5,a4,15
8000042c:	0a079063          	bnez	a5,800004cc <memset+0xb0>
80000430:	08059263          	bnez	a1,800004b4 <memset+0x98>
80000434:	ff067693          	andi	a3,a2,-16
80000438:	00f67613          	andi	a2,a2,15
8000043c:	00e686b3          	add	a3,a3,a4
80000440:	00b72023          	sw	a1,0(a4)
80000444:	00b72223          	sw	a1,4(a4)
80000448:	00b72423          	sw	a1,8(a4)
8000044c:	00b72623          	sw	a1,12(a4)
80000450:	01070713          	addi	a4,a4,16
80000454:	fed766e3          	bltu	a4,a3,80000440 <memset+0x24>
80000458:	00061463          	bnez	a2,80000460 <memset+0x44>
8000045c:	00008067          	ret
80000460:	40c306b3          	sub	a3,t1,a2
80000464:	00269693          	slli	a3,a3,0x2
80000468:	00000297          	auipc	t0,0x0
8000046c:	005686b3          	add	a3,a3,t0
80000470:	00c68067          	jr	12(a3)
80000474:	00b70723          	sb	a1,14(a4)
80000478:	00b706a3          	sb	a1,13(a4)
8000047c:	00b70623          	sb	a1,12(a4)
80000480:	00b705a3          	sb	a1,11(a4)
80000484:	00b70523          	sb	a1,10(a4)
80000488:	00b704a3          	sb	a1,9(a4)
8000048c:	00b70423          	sb	a1,8(a4)
80000490:	00b703a3          	sb	a1,7(a4)
80000494:	00b70323          	sb	a1,6(a4)
80000498:	00b702a3          	sb	a1,5(a4)
8000049c:	00b70223          	sb	a1,4(a4)
800004a0:	00b701a3          	sb	a1,3(a4)
800004a4:	00b70123          	sb	a1,2(a4)
800004a8:	00b700a3          	sb	a1,1(a4)
800004ac:	00b70023          	sb	a1,0(a4)
800004b0:	00008067          	ret
800004b4:	0ff5f593          	andi	a1,a1,255
800004b8:	00859693          	slli	a3,a1,0x8
800004bc:	00d5e5b3          	or	a1,a1,a3
800004c0:	01059693          	slli	a3,a1,0x10
800004c4:	00d5e5b3          	or	a1,a1,a3
800004c8:	f6dff06f          	j	80000434 <memset+0x18>
800004cc:	00279693          	slli	a3,a5,0x2
800004d0:	00000297          	auipc	t0,0x0
800004d4:	005686b3          	add	a3,a3,t0
800004d8:	00008293          	mv	t0,ra
800004dc:	fa0680e7          	jalr	-96(a3)
800004e0:	00028093          	mv	ra,t0
800004e4:	ff078793          	addi	a5,a5,-16
800004e8:	40f70733          	sub	a4,a4,a5
800004ec:	00f60633          	add	a2,a2,a5
800004f0:	f6c378e3          	bgeu	t1,a2,80000460 <memset+0x44>
800004f4:	f3dff06f          	j	80000430 <memset+0x14>

800004f8 <__call_exitprocs>:
800004f8:	fd010113          	addi	sp,sp,-48
800004fc:	01412c23          	sw	s4,24(sp)
80000500:	c301aa03          	lw	s4,-976(gp) # 80000bb0 <_global_impure_ptr>
80000504:	03212023          	sw	s2,32(sp)
80000508:	02112623          	sw	ra,44(sp)
8000050c:	148a2903          	lw	s2,328(s4)
80000510:	02812423          	sw	s0,40(sp)
80000514:	02912223          	sw	s1,36(sp)
80000518:	01312e23          	sw	s3,28(sp)
8000051c:	01512a23          	sw	s5,20(sp)
80000520:	01612823          	sw	s6,16(sp)
80000524:	01712623          	sw	s7,12(sp)
80000528:	01812423          	sw	s8,8(sp)
8000052c:	04090063          	beqz	s2,8000056c <__call_exitprocs+0x74>
80000530:	00050b13          	mv	s6,a0
80000534:	00058b93          	mv	s7,a1
80000538:	00100a93          	li	s5,1
8000053c:	fff00993          	li	s3,-1
80000540:	00492483          	lw	s1,4(s2)
80000544:	fff48413          	addi	s0,s1,-1
80000548:	02044263          	bltz	s0,8000056c <__call_exitprocs+0x74>
8000054c:	00249493          	slli	s1,s1,0x2
80000550:	009904b3          	add	s1,s2,s1
80000554:	040b8463          	beqz	s7,8000059c <__call_exitprocs+0xa4>
80000558:	1044a783          	lw	a5,260(s1)
8000055c:	05778063          	beq	a5,s7,8000059c <__call_exitprocs+0xa4>
80000560:	fff40413          	addi	s0,s0,-1
80000564:	ffc48493          	addi	s1,s1,-4
80000568:	ff3416e3          	bne	s0,s3,80000554 <__call_exitprocs+0x5c>
8000056c:	02c12083          	lw	ra,44(sp)
80000570:	02812403          	lw	s0,40(sp)
80000574:	02412483          	lw	s1,36(sp)
80000578:	02012903          	lw	s2,32(sp)
8000057c:	01c12983          	lw	s3,28(sp)
80000580:	01812a03          	lw	s4,24(sp)
80000584:	01412a83          	lw	s5,20(sp)
80000588:	01012b03          	lw	s6,16(sp)
8000058c:	00c12b83          	lw	s7,12(sp)
80000590:	00812c03          	lw	s8,8(sp)
80000594:	03010113          	addi	sp,sp,48
80000598:	00008067          	ret
8000059c:	00492783          	lw	a5,4(s2)
800005a0:	0044a683          	lw	a3,4(s1)
800005a4:	fff78793          	addi	a5,a5,-1
800005a8:	04878e63          	beq	a5,s0,80000604 <__call_exitprocs+0x10c>
800005ac:	0004a223          	sw	zero,4(s1)
800005b0:	fa0688e3          	beqz	a3,80000560 <__call_exitprocs+0x68>
800005b4:	18892783          	lw	a5,392(s2)
800005b8:	008a9733          	sll	a4,s5,s0
800005bc:	00492c03          	lw	s8,4(s2)
800005c0:	00f777b3          	and	a5,a4,a5
800005c4:	02079263          	bnez	a5,800005e8 <__call_exitprocs+0xf0>
800005c8:	000680e7          	jalr	a3
800005cc:	00492703          	lw	a4,4(s2)
800005d0:	148a2783          	lw	a5,328(s4)
800005d4:	01871463          	bne	a4,s8,800005dc <__call_exitprocs+0xe4>
800005d8:	f92784e3          	beq	a5,s2,80000560 <__call_exitprocs+0x68>
800005dc:	f80788e3          	beqz	a5,8000056c <__call_exitprocs+0x74>
800005e0:	00078913          	mv	s2,a5
800005e4:	f5dff06f          	j	80000540 <__call_exitprocs+0x48>
800005e8:	18c92783          	lw	a5,396(s2)
800005ec:	0844a583          	lw	a1,132(s1)
800005f0:	00f77733          	and	a4,a4,a5
800005f4:	00071c63          	bnez	a4,8000060c <__call_exitprocs+0x114>
800005f8:	000b0513          	mv	a0,s6
800005fc:	000680e7          	jalr	a3
80000600:	fcdff06f          	j	800005cc <__call_exitprocs+0xd4>
80000604:	00892223          	sw	s0,4(s2)
80000608:	fa9ff06f          	j	800005b0 <__call_exitprocs+0xb8>
8000060c:	00058513          	mv	a0,a1
80000610:	000680e7          	jalr	a3
80000614:	fb9ff06f          	j	800005cc <__call_exitprocs+0xd4>

80000618 <atexit>:
80000618:	00050593          	mv	a1,a0
8000061c:	00000693          	li	a3,0
80000620:	00000613          	li	a2,0
80000624:	00000513          	li	a0,0
80000628:	0600006f          	j	80000688 <__register_exitproc>

8000062c <__libc_fini_array>:
8000062c:	ff010113          	addi	sp,sp,-16
80000630:	00812423          	sw	s0,8(sp)
80000634:	800017b7          	lui	a5,0x80001
80000638:	80001437          	lui	s0,0x80001
8000063c:	77c40413          	addi	s0,s0,1916 # 8000177c <__stack_top+0xf800177c>
80000640:	77c78793          	addi	a5,a5,1916 # 8000177c <__stack_top+0xf800177c>
80000644:	408787b3          	sub	a5,a5,s0
80000648:	00912223          	sw	s1,4(sp)
8000064c:	00112623          	sw	ra,12(sp)
80000650:	4027d493          	srai	s1,a5,0x2
80000654:	02048063          	beqz	s1,80000674 <__libc_fini_array+0x48>
80000658:	ffc78793          	addi	a5,a5,-4
8000065c:	00878433          	add	s0,a5,s0
80000660:	00042783          	lw	a5,0(s0)
80000664:	fff48493          	addi	s1,s1,-1
80000668:	ffc40413          	addi	s0,s0,-4
8000066c:	000780e7          	jalr	a5
80000670:	fe0498e3          	bnez	s1,80000660 <__libc_fini_array+0x34>
80000674:	00c12083          	lw	ra,12(sp)
80000678:	00812403          	lw	s0,8(sp)
8000067c:	00412483          	lw	s1,4(sp)
80000680:	01010113          	addi	sp,sp,16
80000684:	00008067          	ret

80000688 <__register_exitproc>:
80000688:	c301a703          	lw	a4,-976(gp) # 80000bb0 <_global_impure_ptr>
8000068c:	14872783          	lw	a5,328(a4)
80000690:	04078c63          	beqz	a5,800006e8 <__register_exitproc+0x60>
80000694:	0047a703          	lw	a4,4(a5)
80000698:	01f00813          	li	a6,31
8000069c:	06e84e63          	blt	a6,a4,80000718 <__register_exitproc+0x90>
800006a0:	00271813          	slli	a6,a4,0x2
800006a4:	02050663          	beqz	a0,800006d0 <__register_exitproc+0x48>
800006a8:	01078333          	add	t1,a5,a6
800006ac:	08c32423          	sw	a2,136(t1)
800006b0:	1887a883          	lw	a7,392(a5)
800006b4:	00100613          	li	a2,1
800006b8:	00e61633          	sll	a2,a2,a4
800006bc:	00c8e8b3          	or	a7,a7,a2
800006c0:	1917a423          	sw	a7,392(a5)
800006c4:	10d32423          	sw	a3,264(t1)
800006c8:	00200693          	li	a3,2
800006cc:	02d50463          	beq	a0,a3,800006f4 <__register_exitproc+0x6c>
800006d0:	00170713          	addi	a4,a4,1
800006d4:	00e7a223          	sw	a4,4(a5)
800006d8:	010787b3          	add	a5,a5,a6
800006dc:	00b7a423          	sw	a1,8(a5)
800006e0:	00000513          	li	a0,0
800006e4:	00008067          	ret
800006e8:	14c70793          	addi	a5,a4,332
800006ec:	14f72423          	sw	a5,328(a4)
800006f0:	fa5ff06f          	j	80000694 <__register_exitproc+0xc>
800006f4:	18c7a683          	lw	a3,396(a5)
800006f8:	00170713          	addi	a4,a4,1
800006fc:	00e7a223          	sw	a4,4(a5)
80000700:	00c6e633          	or	a2,a3,a2
80000704:	18c7a623          	sw	a2,396(a5)
80000708:	010787b3          	add	a5,a5,a6
8000070c:	00b7a423          	sw	a1,8(a5)
80000710:	00000513          	li	a0,0
80000714:	00008067          	ret
80000718:	fff00513          	li	a0,-1
8000071c:	00008067          	ret

80000720 <_exit>:
80000720:	05d00893          	li	a7,93
80000724:	00000073          	ecall
80000728:	00054463          	bltz	a0,80000730 <_exit+0x10>
8000072c:	0000006f          	j	8000072c <_exit+0xc>
80000730:	ff010113          	addi	sp,sp,-16
80000734:	00812423          	sw	s0,8(sp)
80000738:	00050413          	mv	s0,a0
8000073c:	00112623          	sw	ra,12(sp)
80000740:	40800433          	neg	s0,s0
80000744:	ca1ff0ef          	jal	ra,800003e4 <__errno>
80000748:	00852023          	sw	s0,0(a0)
8000074c:	0000006f          	j	8000074c <_exit+0x2c>
