
jacobi-1d.elf:     file format elf32-littleriscv


Disassembly of section .init:

80000000 <_start>:
80000000:	00002197          	auipc	gp,0x2
80000004:	9f018193          	addi	gp,gp,-1552 # 800019f0 <__global_pointer$>
80000008:	08000117          	auipc	sp,0x8000
8000000c:	ff810113          	addi	sp,sp,-8 # 88000000 <__stack_top>
80000010:	00010433          	add	s0,sp,zero
80000014:	008000ef          	jal	ra,8000001c <main>
80000018:	5d90006f          	j	80000df0 <exit>

Disassembly of section .text:

8000001c <main>:
8000001c:	c3010113          	addi	sp,sp,-976
80000020:	00010593          	mv	a1,sp
80000024:	1e010613          	addi	a2,sp,480
80000028:	07800513          	li	a0,120
8000002c:	3c112623          	sw	ra,972(sp)
80000030:	040000ef          	jal	ra,80000070 <init_array>
80000034:	1e010693          	addi	a3,sp,480
80000038:	00010613          	mv	a2,sp
8000003c:	02800513          	li	a0,40
80000040:	07800593          	li	a1,120
80000044:	070000ef          	jal	ra,800000b4 <kernel_jacobi_1d>
80000048:	3cc12083          	lw	ra,972(sp)
8000004c:	00000513          	li	a0,0
80000050:	3d010113          	addi	sp,sp,976
80000054:	00008067          	ret

80000058 <register_fini>:
80000058:	00000793          	li	a5,0
8000005c:	00078863          	beqz	a5,8000006c <register_fini+0x14>
80000060:	80001537          	lui	a0,0x80001
80000064:	f5450513          	addi	a0,a0,-172 # 80000f54 <__stack_top+0xf8000f54>
80000068:	6d90006f          	j	80000f40 <atexit>
8000006c:	00008067          	ret

80000070 <init_array>:
80000070:	04a05063          	blez	a0,800000b0 <init_array+0x40>
80000074:	d00576d3          	fcvt.s.w	fa3,a0
80000078:	c301a587          	flw	fa1,-976(gp) # 80001620 <__SDATA_BEGIN__+0x8>
8000007c:	c341a607          	flw	fa2,-972(gp) # 80001624 <__SDATA_BEGIN__+0xc>
80000080:	00000793          	li	a5,0
80000084:	d007f7d3          	fcvt.s.w	fa5,a5
80000088:	00458593          	addi	a1,a1,4
8000008c:	00460613          	addi	a2,a2,4
80000090:	00b7f753          	fadd.s	fa4,fa5,fa1
80000094:	00c7f7d3          	fadd.s	fa5,fa5,fa2
80000098:	00178793          	addi	a5,a5,1
8000009c:	18d77753          	fdiv.s	fa4,fa4,fa3
800000a0:	18d7f7d3          	fdiv.s	fa5,fa5,fa3
800000a4:	fee5ae27          	fsw	fa4,-4(a1)
800000a8:	fef62e27          	fsw	fa5,-4(a2)
800000ac:	fcf51ce3          	bne	a0,a5,80000084 <init_array+0x14>
800000b0:	00008067          	ret

800000b4 <kernel_jacobi_1d>:
800000b4:	12a05c63          	blez	a0,800001ec <kernel_jacobi_1d+0x138>
800000b8:	fc010113          	addi	sp,sp,-64
800000bc:	03212823          	sw	s2,48(sp)
800000c0:	03312623          	sw	s3,44(sp)
800000c4:	c281a903          	lw	s2,-984(gp) # 80001618 <__SDATA_BEGIN__>
800000c8:	c2c1a983          	lw	s3,-980(gp) # 8000161c <__SDATA_BEGIN__+0x4>
800000cc:	00259793          	slli	a5,a1,0x2
800000d0:	02912a23          	sw	s1,52(sp)
800000d4:	03412423          	sw	s4,40(sp)
800000d8:	ff868493          	addi	s1,a3,-8
800000dc:	ff860a13          	addi	s4,a2,-8
800000e0:	03512223          	sw	s5,36(sp)
800000e4:	03612023          	sw	s6,32(sp)
800000e8:	01712e23          	sw	s7,28(sp)
800000ec:	01812c23          	sw	s8,24(sp)
800000f0:	01912a23          	sw	s9,20(sp)
800000f4:	01a12823          	sw	s10,16(sp)
800000f8:	02112e23          	sw	ra,60(sp)
800000fc:	02812c23          	sw	s0,56(sp)
80000100:	01b12623          	sw	s11,12(sp)
80000104:	00050c13          	mv	s8,a0
80000108:	00058c93          	mv	s9,a1
8000010c:	00060b93          	mv	s7,a2
80000110:	00068b13          	mv	s6,a3
80000114:	00fa0a33          	add	s4,s4,a5
80000118:	00f484b3          	add	s1,s1,a5
8000011c:	00000a93          	li	s5,0
80000120:	00200d13          	li	s10,2
80000124:	004b0d93          	addi	s11,s6,4
80000128:	000b8413          	mv	s0,s7
8000012c:	079d5e63          	bge	s10,s9,800001a8 <kernel_jacobi_1d+0xf4>
80000130:	00442707          	flw	fa4,4(s0)
80000134:	00042787          	flw	fa5,0(s0)
80000138:	00842507          	flw	fa0,8(s0)
8000013c:	004d8d93          	addi	s11,s11,4
80000140:	00e7f7d3          	fadd.s	fa5,fa5,fa4
80000144:	00440413          	addi	s0,s0,4
80000148:	00a7f553          	fadd.s	fa0,fa5,fa0
8000014c:	04d000ef          	jal	ra,80000998 <__extendsfdf2>
80000150:	00090613          	mv	a2,s2
80000154:	00098693          	mv	a3,s3
80000158:	098000ef          	jal	ra,800001f0 <__muldf3>
8000015c:	159000ef          	jal	ra,80000ab4 <__truncdfsf2>
80000160:	feadae27          	fsw	fa0,-4(s11)
80000164:	fc8a16e3          	bne	s4,s0,80000130 <kernel_jacobi_1d+0x7c>
80000168:	004b8d93          	addi	s11,s7,4
8000016c:	000b0413          	mv	s0,s6
80000170:	00442707          	flw	fa4,4(s0)
80000174:	00042787          	flw	fa5,0(s0)
80000178:	00842507          	flw	fa0,8(s0)
8000017c:	004d8d93          	addi	s11,s11,4
80000180:	00e7f7d3          	fadd.s	fa5,fa5,fa4
80000184:	00440413          	addi	s0,s0,4
80000188:	00a7f553          	fadd.s	fa0,fa5,fa0
8000018c:	00d000ef          	jal	ra,80000998 <__extendsfdf2>
80000190:	00090613          	mv	a2,s2
80000194:	00098693          	mv	a3,s3
80000198:	058000ef          	jal	ra,800001f0 <__muldf3>
8000019c:	119000ef          	jal	ra,80000ab4 <__truncdfsf2>
800001a0:	feadae27          	fsw	fa0,-4(s11)
800001a4:	fc9416e3          	bne	s0,s1,80000170 <kernel_jacobi_1d+0xbc>
800001a8:	001a8a93          	addi	s5,s5,1
800001ac:	f75c1ce3          	bne	s8,s5,80000124 <kernel_jacobi_1d+0x70>
800001b0:	03c12083          	lw	ra,60(sp)
800001b4:	03812403          	lw	s0,56(sp)
800001b8:	03412483          	lw	s1,52(sp)
800001bc:	03012903          	lw	s2,48(sp)
800001c0:	02c12983          	lw	s3,44(sp)
800001c4:	02812a03          	lw	s4,40(sp)
800001c8:	02412a83          	lw	s5,36(sp)
800001cc:	02012b03          	lw	s6,32(sp)
800001d0:	01c12b83          	lw	s7,28(sp)
800001d4:	01812c03          	lw	s8,24(sp)
800001d8:	01412c83          	lw	s9,20(sp)
800001dc:	01012d03          	lw	s10,16(sp)
800001e0:	00c12d83          	lw	s11,12(sp)
800001e4:	04010113          	addi	sp,sp,64
800001e8:	00008067          	ret
800001ec:	00008067          	ret

800001f0 <__muldf3>:
800001f0:	fd010113          	addi	sp,sp,-48
800001f4:	02812423          	sw	s0,40(sp)
800001f8:	01512a23          	sw	s5,20(sp)
800001fc:	01912223          	sw	s9,4(sp)
80000200:	02112623          	sw	ra,44(sp)
80000204:	02912223          	sw	s1,36(sp)
80000208:	03212023          	sw	s2,32(sp)
8000020c:	01312e23          	sw	s3,28(sp)
80000210:	01412c23          	sw	s4,24(sp)
80000214:	01612823          	sw	s6,16(sp)
80000218:	01712623          	sw	s7,12(sp)
8000021c:	01812423          	sw	s8,8(sp)
80000220:	00050413          	mv	s0,a0
80000224:	00060c93          	mv	s9,a2
80000228:	00068a93          	mv	s5,a3
8000022c:	00202973          	frrm	s2
80000230:	0145db93          	srli	s7,a1,0x14
80000234:	00c59993          	slli	s3,a1,0xc
80000238:	7ffbfb93          	andi	s7,s7,2047
8000023c:	00c9d993          	srli	s3,s3,0xc
80000240:	01f5db13          	srli	s6,a1,0x1f
80000244:	020b8a63          	beqz	s7,80000278 <__muldf3+0x88>
80000248:	7ff00793          	li	a5,2047
8000024c:	08fb8863          	beq	s7,a5,800002dc <__muldf3+0xec>
80000250:	01d55793          	srli	a5,a0,0x1d
80000254:	00399993          	slli	s3,s3,0x3
80000258:	0137e9b3          	or	s3,a5,s3
8000025c:	008007b7          	lui	a5,0x800
80000260:	00f9e9b3          	or	s3,s3,a5
80000264:	00351a13          	slli	s4,a0,0x3
80000268:	c01b8b93          	addi	s7,s7,-1023
8000026c:	00000c13          	li	s8,0
80000270:	00000493          	li	s1,0
80000274:	08c0006f          	j	80000300 <__muldf3+0x110>
80000278:	00a9e7b3          	or	a5,s3,a0
8000027c:	10078063          	beqz	a5,8000037c <__muldf3+0x18c>
80000280:	04098063          	beqz	s3,800002c0 <__muldf3+0xd0>
80000284:	00098513          	mv	a0,s3
80000288:	31d000ef          	jal	ra,80000da4 <__clzsi2>
8000028c:	ff550713          	addi	a4,a0,-11
80000290:	01c00793          	li	a5,28
80000294:	02e7cc63          	blt	a5,a4,800002cc <__muldf3+0xdc>
80000298:	01d00793          	li	a5,29
8000029c:	ff850a13          	addi	s4,a0,-8
800002a0:	40e787b3          	sub	a5,a5,a4
800002a4:	014999b3          	sll	s3,s3,s4
800002a8:	00f457b3          	srl	a5,s0,a5
800002ac:	0137e9b3          	or	s3,a5,s3
800002b0:	01441a33          	sll	s4,s0,s4
800002b4:	c0d00b93          	li	s7,-1011
800002b8:	40ab8bb3          	sub	s7,s7,a0
800002bc:	fb1ff06f          	j	8000026c <__muldf3+0x7c>
800002c0:	2e5000ef          	jal	ra,80000da4 <__clzsi2>
800002c4:	02050513          	addi	a0,a0,32
800002c8:	fc5ff06f          	j	8000028c <__muldf3+0x9c>
800002cc:	fd850993          	addi	s3,a0,-40
800002d0:	013419b3          	sll	s3,s0,s3
800002d4:	00000a13          	li	s4,0
800002d8:	fddff06f          	j	800002b4 <__muldf3+0xc4>
800002dc:	00a9e433          	or	s0,s3,a0
800002e0:	0a040863          	beqz	s0,80000390 <__muldf3+0x1a0>
800002e4:	000807b7          	lui	a5,0x80
800002e8:	00f9f7b3          	and	a5,s3,a5
800002ec:	00050a13          	mv	s4,a0
800002f0:	7ff00b93          	li	s7,2047
800002f4:	00300c13          	li	s8,3
800002f8:	01000493          	li	s1,16
800002fc:	f6079ae3          	bnez	a5,80000270 <__muldf3+0x80>
80000300:	014ad513          	srli	a0,s5,0x14
80000304:	00ca9413          	slli	s0,s5,0xc
80000308:	7ff57513          	andi	a0,a0,2047
8000030c:	000c8793          	mv	a5,s9
80000310:	00c45413          	srli	s0,s0,0xc
80000314:	01fada93          	srli	s5,s5,0x1f
80000318:	08050663          	beqz	a0,800003a4 <__muldf3+0x1b4>
8000031c:	7ff00713          	li	a4,2047
80000320:	0ee50663          	beq	a0,a4,8000040c <__muldf3+0x21c>
80000324:	01dcd793          	srli	a5,s9,0x1d
80000328:	00341413          	slli	s0,s0,0x3
8000032c:	0087e433          	or	s0,a5,s0
80000330:	008007b7          	lui	a5,0x800
80000334:	00f46433          	or	s0,s0,a5
80000338:	c0150513          	addi	a0,a0,-1023
8000033c:	003c9793          	slli	a5,s9,0x3
80000340:	00000713          	li	a4,0
80000344:	002c1693          	slli	a3,s8,0x2
80000348:	00e6e6b3          	or	a3,a3,a4
8000034c:	00ab8bb3          	add	s7,s7,a0
80000350:	fff68693          	addi	a3,a3,-1
80000354:	00e00613          	li	a2,14
80000358:	015b45b3          	xor	a1,s6,s5
8000035c:	001b8513          	addi	a0,s7,1
80000360:	16d66c63          	bltu	a2,a3,800004d8 <__muldf3+0x2e8>
80000364:	80001637          	lui	a2,0x80001
80000368:	00269693          	slli	a3,a3,0x2
8000036c:	08060613          	addi	a2,a2,128 # 80001080 <__stack_top+0xf8001080>
80000370:	00c686b3          	add	a3,a3,a2
80000374:	0006a683          	lw	a3,0(a3)
80000378:	00068067          	jr	a3
8000037c:	00000993          	li	s3,0
80000380:	00000a13          	li	s4,0
80000384:	00000b93          	li	s7,0
80000388:	00100c13          	li	s8,1
8000038c:	ee5ff06f          	j	80000270 <__muldf3+0x80>
80000390:	00000993          	li	s3,0
80000394:	00000a13          	li	s4,0
80000398:	7ff00b93          	li	s7,2047
8000039c:	00200c13          	li	s8,2
800003a0:	ed1ff06f          	j	80000270 <__muldf3+0x80>
800003a4:	019467b3          	or	a5,s0,s9
800003a8:	08078463          	beqz	a5,80000430 <__muldf3+0x240>
800003ac:	04040063          	beqz	s0,800003ec <__muldf3+0x1fc>
800003b0:	00040513          	mv	a0,s0
800003b4:	1f1000ef          	jal	ra,80000da4 <__clzsi2>
800003b8:	ff550693          	addi	a3,a0,-11
800003bc:	01c00793          	li	a5,28
800003c0:	02d7ce63          	blt	a5,a3,800003fc <__muldf3+0x20c>
800003c4:	01d00713          	li	a4,29
800003c8:	ff850793          	addi	a5,a0,-8
800003cc:	40d70733          	sub	a4,a4,a3
800003d0:	00f41433          	sll	s0,s0,a5
800003d4:	00ecd733          	srl	a4,s9,a4
800003d8:	00876433          	or	s0,a4,s0
800003dc:	00fc97b3          	sll	a5,s9,a5
800003e0:	c0d00713          	li	a4,-1011
800003e4:	40a70533          	sub	a0,a4,a0
800003e8:	f59ff06f          	j	80000340 <__muldf3+0x150>
800003ec:	000c8513          	mv	a0,s9
800003f0:	1b5000ef          	jal	ra,80000da4 <__clzsi2>
800003f4:	02050513          	addi	a0,a0,32
800003f8:	fc1ff06f          	j	800003b8 <__muldf3+0x1c8>
800003fc:	fd850413          	addi	s0,a0,-40
80000400:	008c9433          	sll	s0,s9,s0
80000404:	00000793          	li	a5,0
80000408:	fd9ff06f          	j	800003e0 <__muldf3+0x1f0>
8000040c:	01946633          	or	a2,s0,s9
80000410:	02060a63          	beqz	a2,80000444 <__muldf3+0x254>
80000414:	00080737          	lui	a4,0x80
80000418:	00e47733          	and	a4,s0,a4
8000041c:	7ff00513          	li	a0,2047
80000420:	02071c63          	bnez	a4,80000458 <__muldf3+0x268>
80000424:	00300713          	li	a4,3
80000428:	01000493          	li	s1,16
8000042c:	f19ff06f          	j	80000344 <__muldf3+0x154>
80000430:	00000413          	li	s0,0
80000434:	00000793          	li	a5,0
80000438:	00000513          	li	a0,0
8000043c:	00100713          	li	a4,1
80000440:	f05ff06f          	j	80000344 <__muldf3+0x154>
80000444:	00000413          	li	s0,0
80000448:	00000793          	li	a5,0
8000044c:	7ff00513          	li	a0,2047
80000450:	00200713          	li	a4,2
80000454:	ef1ff06f          	j	80000344 <__muldf3+0x154>
80000458:	00300713          	li	a4,3
8000045c:	ee9ff06f          	j	80000344 <__muldf3+0x154>
80000460:	00080437          	lui	s0,0x80
80000464:	00000793          	li	a5,0
80000468:	7ff00713          	li	a4,2047
8000046c:	00000593          	li	a1,0
80000470:	01000493          	li	s1,16
80000474:	01471713          	slli	a4,a4,0x14
80000478:	7ff006b7          	lui	a3,0x7ff00
8000047c:	00c41413          	slli	s0,s0,0xc
80000480:	00d77733          	and	a4,a4,a3
80000484:	00c45413          	srli	s0,s0,0xc
80000488:	01f59593          	slli	a1,a1,0x1f
8000048c:	00876433          	or	s0,a4,s0
80000490:	00b46733          	or	a4,s0,a1
80000494:	00078513          	mv	a0,a5
80000498:	00070593          	mv	a1,a4
8000049c:	00048463          	beqz	s1,800004a4 <__muldf3+0x2b4>
800004a0:	0014a073          	csrs	fflags,s1
800004a4:	02c12083          	lw	ra,44(sp)
800004a8:	02812403          	lw	s0,40(sp)
800004ac:	02412483          	lw	s1,36(sp)
800004b0:	02012903          	lw	s2,32(sp)
800004b4:	01c12983          	lw	s3,28(sp)
800004b8:	01812a03          	lw	s4,24(sp)
800004bc:	01412a83          	lw	s5,20(sp)
800004c0:	01012b03          	lw	s6,16(sp)
800004c4:	00c12b83          	lw	s7,12(sp)
800004c8:	00812c03          	lw	s8,8(sp)
800004cc:	00412c83          	lw	s9,4(sp)
800004d0:	03010113          	addi	sp,sp,48
800004d4:	00008067          	ret
800004d8:	00010eb7          	lui	t4,0x10
800004dc:	fffe8e13          	addi	t3,t4,-1 # ffff <_start-0x7fff0001>
800004e0:	010a5713          	srli	a4,s4,0x10
800004e4:	0107d893          	srli	a7,a5,0x10
800004e8:	01ca7a33          	and	s4,s4,t3
800004ec:	01c7f7b3          	and	a5,a5,t3
800004f0:	03488833          	mul	a6,a7,s4
800004f4:	034786b3          	mul	a3,a5,s4
800004f8:	02f70f33          	mul	t5,a4,a5
800004fc:	01e80333          	add	t1,a6,t5
80000500:	0106d813          	srli	a6,a3,0x10
80000504:	00680833          	add	a6,a6,t1
80000508:	03170633          	mul	a2,a4,a7
8000050c:	01e87463          	bgeu	a6,t5,80000514 <__muldf3+0x324>
80000510:	01d60633          	add	a2,a2,t4
80000514:	01085f93          	srli	t6,a6,0x10
80000518:	01c87833          	and	a6,a6,t3
8000051c:	01c6f6b3          	and	a3,a3,t3
80000520:	01045e93          	srli	t4,s0,0x10
80000524:	01c47e33          	and	t3,s0,t3
80000528:	01081813          	slli	a6,a6,0x10
8000052c:	00d80833          	add	a6,a6,a3
80000530:	03c70f33          	mul	t5,a4,t3
80000534:	03ca06b3          	mul	a3,s4,t3
80000538:	034e8a33          	mul	s4,t4,s4
8000053c:	01ea0333          	add	t1,s4,t5
80000540:	0106da13          	srli	s4,a3,0x10
80000544:	006a0a33          	add	s4,s4,t1
80000548:	03d70733          	mul	a4,a4,t4
8000054c:	01ea7663          	bgeu	s4,t5,80000558 <__muldf3+0x368>
80000550:	00010337          	lui	t1,0x10
80000554:	00670733          	add	a4,a4,t1
80000558:	010a5313          	srli	t1,s4,0x10
8000055c:	00e30333          	add	t1,t1,a4
80000560:	00010737          	lui	a4,0x10
80000564:	fff70f13          	addi	t5,a4,-1 # ffff <_start-0x7fff0001>
80000568:	01ea7a33          	and	s4,s4,t5
8000056c:	01e6f6b3          	and	a3,a3,t5
80000570:	0109d413          	srli	s0,s3,0x10
80000574:	010a1a13          	slli	s4,s4,0x10
80000578:	01e9f9b3          	and	s3,s3,t5
8000057c:	03378f33          	mul	t5,a5,s3
80000580:	00da0a33          	add	s4,s4,a3
80000584:	014f8fb3          	add	t6,t6,s4
80000588:	033886b3          	mul	a3,a7,s3
8000058c:	02f407b3          	mul	a5,s0,a5
80000590:	028882b3          	mul	t0,a7,s0
80000594:	00f688b3          	add	a7,a3,a5
80000598:	010f5693          	srli	a3,t5,0x10
8000059c:	011686b3          	add	a3,a3,a7
800005a0:	00f6f463          	bgeu	a3,a5,800005a8 <__muldf3+0x3b8>
800005a4:	00e282b3          	add	t0,t0,a4
800005a8:	00010737          	lui	a4,0x10
800005ac:	fff70793          	addi	a5,a4,-1 # ffff <_start-0x7fff0001>
800005b0:	00ff7f33          	and	t5,t5,a5
800005b4:	0106d893          	srli	a7,a3,0x10
800005b8:	00f6f6b3          	and	a3,a3,a5
800005bc:	03c987b3          	mul	a5,s3,t3
800005c0:	01069693          	slli	a3,a3,0x10
800005c4:	01e686b3          	add	a3,a3,t5
800005c8:	005888b3          	add	a7,a7,t0
800005cc:	03c40e33          	mul	t3,s0,t3
800005d0:	033e89b3          	mul	s3,t4,s3
800005d4:	028e8f33          	mul	t5,t4,s0
800005d8:	01c989b3          	add	s3,s3,t3
800005dc:	0107d413          	srli	s0,a5,0x10
800005e0:	013409b3          	add	s3,s0,s3
800005e4:	01c9f463          	bgeu	s3,t3,800005ec <__muldf3+0x3fc>
800005e8:	00ef0f33          	add	t5,t5,a4
800005ec:	00010e37          	lui	t3,0x10
800005f0:	fffe0e13          	addi	t3,t3,-1 # ffff <_start-0x7fff0001>
800005f4:	01c9f733          	and	a4,s3,t3
800005f8:	01c7f7b3          	and	a5,a5,t3
800005fc:	01071713          	slli	a4,a4,0x10
80000600:	01f60633          	add	a2,a2,t6
80000604:	00f70733          	add	a4,a4,a5
80000608:	01463a33          	sltu	s4,a2,s4
8000060c:	00670733          	add	a4,a4,t1
80000610:	01470433          	add	s0,a4,s4
80000614:	00d60633          	add	a2,a2,a3
80000618:	00d636b3          	sltu	a3,a2,a3
8000061c:	01140e33          	add	t3,s0,a7
80000620:	00de0eb3          	add	t4,t3,a3
80000624:	00673733          	sltu	a4,a4,t1
80000628:	01443433          	sltu	s0,s0,s4
8000062c:	00876433          	or	s0,a4,s0
80000630:	00deb6b3          	sltu	a3,t4,a3
80000634:	0109d993          	srli	s3,s3,0x10
80000638:	011e38b3          	sltu	a7,t3,a7
8000063c:	01340433          	add	s0,s0,s3
80000640:	00d8e6b3          	or	a3,a7,a3
80000644:	00d40433          	add	s0,s0,a3
80000648:	01e40433          	add	s0,s0,t5
8000064c:	017ed793          	srli	a5,t4,0x17
80000650:	00941413          	slli	s0,s0,0x9
80000654:	00f46433          	or	s0,s0,a5
80000658:	00961793          	slli	a5,a2,0x9
8000065c:	0107e7b3          	or	a5,a5,a6
80000660:	00f037b3          	snez	a5,a5
80000664:	01765613          	srli	a2,a2,0x17
80000668:	01000737          	lui	a4,0x1000
8000066c:	00c7e7b3          	or	a5,a5,a2
80000670:	009e9e93          	slli	t4,t4,0x9
80000674:	00e47733          	and	a4,s0,a4
80000678:	01d7e7b3          	or	a5,a5,t4
8000067c:	0a070063          	beqz	a4,8000071c <__muldf3+0x52c>
80000680:	0017d713          	srli	a4,a5,0x1
80000684:	0017f793          	andi	a5,a5,1
80000688:	00f767b3          	or	a5,a4,a5
8000068c:	01f41713          	slli	a4,s0,0x1f
80000690:	00e7e7b3          	or	a5,a5,a4
80000694:	00145413          	srli	s0,s0,0x1
80000698:	3ff50813          	addi	a6,a0,1023
8000069c:	11005a63          	blez	a6,800007b0 <__muldf3+0x5c0>
800006a0:	0077f713          	andi	a4,a5,7
800006a4:	08070863          	beqz	a4,80000734 <__muldf3+0x544>
800006a8:	00200713          	li	a4,2
800006ac:	0014e493          	ori	s1,s1,1
800006b0:	08e90063          	beq	s2,a4,80000730 <__muldf3+0x540>
800006b4:	00300713          	li	a4,3
800006b8:	06e90663          	beq	s2,a4,80000724 <__muldf3+0x534>
800006bc:	06091c63          	bnez	s2,80000734 <__muldf3+0x544>
800006c0:	00f7f713          	andi	a4,a5,15
800006c4:	00400693          	li	a3,4
800006c8:	06d70663          	beq	a4,a3,80000734 <__muldf3+0x544>
800006cc:	00478713          	addi	a4,a5,4 # 800004 <_start-0x7f7ffffc>
800006d0:	00f737b3          	sltu	a5,a4,a5
800006d4:	00f40433          	add	s0,s0,a5
800006d8:	00070793          	mv	a5,a4
800006dc:	0580006f          	j	80000734 <__muldf3+0x544>
800006e0:	000b0593          	mv	a1,s6
800006e4:	00098413          	mv	s0,s3
800006e8:	000a0793          	mv	a5,s4
800006ec:	000c0713          	mv	a4,s8
800006f0:	00200693          	li	a3,2
800006f4:	28d70063          	beq	a4,a3,80000974 <__muldf3+0x784>
800006f8:	00300693          	li	a3,3
800006fc:	28d70463          	beq	a4,a3,80000984 <__muldf3+0x794>
80000700:	00100693          	li	a3,1
80000704:	f8d71ae3          	bne	a4,a3,80000698 <__muldf3+0x4a8>
80000708:	00000413          	li	s0,0
8000070c:	00000793          	li	a5,0
80000710:	2400006f          	j	80000950 <__muldf3+0x760>
80000714:	000a8593          	mv	a1,s5
80000718:	fd9ff06f          	j	800006f0 <__muldf3+0x500>
8000071c:	000b8513          	mv	a0,s7
80000720:	f79ff06f          	j	80000698 <__muldf3+0x4a8>
80000724:	00059863          	bnez	a1,80000734 <__muldf3+0x544>
80000728:	00878713          	addi	a4,a5,8
8000072c:	fa5ff06f          	j	800006d0 <__muldf3+0x4e0>
80000730:	fe059ce3          	bnez	a1,80000728 <__muldf3+0x538>
80000734:	01000737          	lui	a4,0x1000
80000738:	00e47733          	and	a4,s0,a4
8000073c:	00070a63          	beqz	a4,80000750 <__muldf3+0x560>
80000740:	ff000737          	lui	a4,0xff000
80000744:	fff70713          	addi	a4,a4,-1 # feffffff <__stack_top+0x76ffffff>
80000748:	00e47433          	and	s0,s0,a4
8000074c:	40050813          	addi	a6,a0,1024
80000750:	7fe00713          	li	a4,2046
80000754:	01074e63          	blt	a4,a6,80000770 <__muldf3+0x580>
80000758:	0037d713          	srli	a4,a5,0x3
8000075c:	01d41793          	slli	a5,s0,0x1d
80000760:	00e7e7b3          	or	a5,a5,a4
80000764:	00345413          	srli	s0,s0,0x3
80000768:	00080713          	mv	a4,a6
8000076c:	d09ff06f          	j	80000474 <__muldf3+0x284>
80000770:	00200793          	li	a5,2
80000774:	02f90a63          	beq	s2,a5,800007a8 <__muldf3+0x5b8>
80000778:	00300793          	li	a5,3
8000077c:	00f90a63          	beq	s2,a5,80000790 <__muldf3+0x5a0>
80000780:	00091a63          	bnez	s2,80000794 <__muldf3+0x5a4>
80000784:	00000793          	li	a5,0
80000788:	7ff00713          	li	a4,2047
8000078c:	0100006f          	j	8000079c <__muldf3+0x5ac>
80000790:	fe058ae3          	beqz	a1,80000784 <__muldf3+0x594>
80000794:	fff00793          	li	a5,-1
80000798:	7fe00713          	li	a4,2046
8000079c:	0054e493          	ori	s1,s1,5
800007a0:	00078413          	mv	s0,a5
800007a4:	cd1ff06f          	j	80000474 <__muldf3+0x284>
800007a8:	fc059ee3          	bnez	a1,80000784 <__muldf3+0x594>
800007ac:	fe9ff06f          	j	80000794 <__muldf3+0x5a4>
800007b0:	00100713          	li	a4,1
800007b4:	06081063          	bnez	a6,80000814 <__muldf3+0x624>
800007b8:	0077f693          	andi	a3,a5,7
800007bc:	00040713          	mv	a4,s0
800007c0:	04068463          	beqz	a3,80000808 <__muldf3+0x618>
800007c4:	00200693          	li	a3,2
800007c8:	0014e493          	ori	s1,s1,1
800007cc:	02d90c63          	beq	s2,a3,80000804 <__muldf3+0x614>
800007d0:	00300693          	li	a3,3
800007d4:	02d90263          	beq	s2,a3,800007f8 <__muldf3+0x608>
800007d8:	02091863          	bnez	s2,80000808 <__muldf3+0x618>
800007dc:	00f7f693          	andi	a3,a5,15
800007e0:	00400613          	li	a2,4
800007e4:	02c68263          	beq	a3,a2,80000808 <__muldf3+0x618>
800007e8:	ffc7b713          	sltiu	a4,a5,-4
800007ec:	00174713          	xori	a4,a4,1
800007f0:	00870733          	add	a4,a4,s0
800007f4:	0140006f          	j	80000808 <__muldf3+0x618>
800007f8:	00059863          	bnez	a1,80000808 <__muldf3+0x618>
800007fc:	ff87b713          	sltiu	a4,a5,-8
80000800:	fedff06f          	j	800007ec <__muldf3+0x5fc>
80000804:	fe059ce3          	bnez	a1,800007fc <__muldf3+0x60c>
80000808:	01875713          	srli	a4,a4,0x18
8000080c:	00174713          	xori	a4,a4,1
80000810:	00177713          	andi	a4,a4,1
80000814:	00100693          	li	a3,1
80000818:	410686b3          	sub	a3,a3,a6
8000081c:	03800613          	li	a2,56
80000820:	0ed64e63          	blt	a2,a3,8000091c <__muldf3+0x72c>
80000824:	01f00613          	li	a2,31
80000828:	06d64263          	blt	a2,a3,8000088c <__muldf3+0x69c>
8000082c:	41e50513          	addi	a0,a0,1054
80000830:	00a41633          	sll	a2,s0,a0
80000834:	00d7d833          	srl	a6,a5,a3
80000838:	00a797b3          	sll	a5,a5,a0
8000083c:	01066633          	or	a2,a2,a6
80000840:	00f037b3          	snez	a5,a5
80000844:	00f667b3          	or	a5,a2,a5
80000848:	00d45433          	srl	s0,s0,a3
8000084c:	0077f693          	andi	a3,a5,7
80000850:	08068063          	beqz	a3,800008d0 <__muldf3+0x6e0>
80000854:	00200693          	li	a3,2
80000858:	0014e493          	ori	s1,s1,1
8000085c:	06d90863          	beq	s2,a3,800008cc <__muldf3+0x6dc>
80000860:	00300693          	li	a3,3
80000864:	04d90e63          	beq	s2,a3,800008c0 <__muldf3+0x6d0>
80000868:	06091463          	bnez	s2,800008d0 <__muldf3+0x6e0>
8000086c:	00f7f693          	andi	a3,a5,15
80000870:	00400613          	li	a2,4
80000874:	04c68e63          	beq	a3,a2,800008d0 <__muldf3+0x6e0>
80000878:	00478693          	addi	a3,a5,4
8000087c:	00f6b7b3          	sltu	a5,a3,a5
80000880:	00f40433          	add	s0,s0,a5
80000884:	00068793          	mv	a5,a3
80000888:	0480006f          	j	800008d0 <__muldf3+0x6e0>
8000088c:	fe100613          	li	a2,-31
80000890:	41060633          	sub	a2,a2,a6
80000894:	02000893          	li	a7,32
80000898:	00c45633          	srl	a2,s0,a2
8000089c:	00000813          	li	a6,0
800008a0:	01168663          	beq	a3,a7,800008ac <__muldf3+0x6bc>
800008a4:	43e50513          	addi	a0,a0,1086
800008a8:	00a41833          	sll	a6,s0,a0
800008ac:	00f867b3          	or	a5,a6,a5
800008b0:	00f037b3          	snez	a5,a5
800008b4:	00f667b3          	or	a5,a2,a5
800008b8:	00000413          	li	s0,0
800008bc:	f91ff06f          	j	8000084c <__muldf3+0x65c>
800008c0:	00059863          	bnez	a1,800008d0 <__muldf3+0x6e0>
800008c4:	00878693          	addi	a3,a5,8
800008c8:	fb5ff06f          	j	8000087c <__muldf3+0x68c>
800008cc:	fe059ce3          	bnez	a1,800008c4 <__muldf3+0x6d4>
800008d0:	008006b7          	lui	a3,0x800
800008d4:	00d476b3          	and	a3,s0,a3
800008d8:	00068e63          	beqz	a3,800008f4 <__muldf3+0x704>
800008dc:	0014e493          	ori	s1,s1,1
800008e0:	00000413          	li	s0,0
800008e4:	00000793          	li	a5,0
800008e8:	02071663          	bnez	a4,80000914 <__muldf3+0x724>
800008ec:	00100713          	li	a4,1
800008f0:	b85ff06f          	j	80000474 <__muldf3+0x284>
800008f4:	0037d693          	srli	a3,a5,0x3
800008f8:	01d41793          	slli	a5,s0,0x1d
800008fc:	00d7e7b3          	or	a5,a5,a3
80000900:	00345413          	srli	s0,s0,0x3
80000904:	b60708e3          	beqz	a4,80000474 <__muldf3+0x284>
80000908:	0014f713          	andi	a4,s1,1
8000090c:	b60704e3          	beqz	a4,80000474 <__muldf3+0x284>
80000910:	00000713          	li	a4,0
80000914:	0024e493          	ori	s1,s1,2
80000918:	b5dff06f          	j	80000474 <__muldf3+0x284>
8000091c:	0087e7b3          	or	a5,a5,s0
80000920:	02078463          	beqz	a5,80000948 <__muldf3+0x758>
80000924:	00200793          	li	a5,2
80000928:	0014e493          	ori	s1,s1,1
8000092c:	02f90e63          	beq	s2,a5,80000968 <__muldf3+0x778>
80000930:	00300793          	li	a5,3
80000934:	02f90263          	beq	s2,a5,80000958 <__muldf3+0x768>
80000938:	00100793          	li	a5,1
8000093c:	00091463          	bnez	s2,80000944 <__muldf3+0x754>
80000940:	00500793          	li	a5,5
80000944:	0037d793          	srli	a5,a5,0x3
80000948:	0024e493          	ori	s1,s1,2
8000094c:	00000413          	li	s0,0
80000950:	00000713          	li	a4,0
80000954:	b21ff06f          	j	80000474 <__muldf3+0x284>
80000958:	00900793          	li	a5,9
8000095c:	fe0584e3          	beqz	a1,80000944 <__muldf3+0x754>
80000960:	00100793          	li	a5,1
80000964:	fe1ff06f          	j	80000944 <__muldf3+0x754>
80000968:	00900793          	li	a5,9
8000096c:	fc059ce3          	bnez	a1,80000944 <__muldf3+0x754>
80000970:	ff1ff06f          	j	80000960 <__muldf3+0x770>
80000974:	00000413          	li	s0,0
80000978:	00000793          	li	a5,0
8000097c:	7ff00713          	li	a4,2047
80000980:	af5ff06f          	j	80000474 <__muldf3+0x284>
80000984:	00080437          	lui	s0,0x80
80000988:	00000793          	li	a5,0
8000098c:	7ff00713          	li	a4,2047
80000990:	00000593          	li	a1,0
80000994:	ae1ff06f          	j	80000474 <__muldf3+0x284>

80000998 <__extendsfdf2>:
80000998:	ff010113          	addi	sp,sp,-16
8000099c:	e00507d3          	fmv.x.w	a5,fa0
800009a0:	00112623          	sw	ra,12(sp)
800009a4:	00812423          	sw	s0,8(sp)
800009a8:	00912223          	sw	s1,4(sp)
800009ac:	01212023          	sw	s2,0(sp)
800009b0:	00202773          	frrm	a4
800009b4:	0177d493          	srli	s1,a5,0x17
800009b8:	0ff4f493          	andi	s1,s1,255
800009bc:	00148713          	addi	a4,s1,1
800009c0:	00979413          	slli	s0,a5,0x9
800009c4:	0fe77713          	andi	a4,a4,254
800009c8:	00945413          	srli	s0,s0,0x9
800009cc:	01f7d913          	srli	s2,a5,0x1f
800009d0:	04070a63          	beqz	a4,80000a24 <__extendsfdf2+0x8c>
800009d4:	38048513          	addi	a0,s1,896
800009d8:	00345793          	srli	a5,s0,0x3
800009dc:	00000493          	li	s1,0
800009e0:	01d41413          	slli	s0,s0,0x1d
800009e4:	00c79793          	slli	a5,a5,0xc
800009e8:	01451513          	slli	a0,a0,0x14
800009ec:	00c7d793          	srli	a5,a5,0xc
800009f0:	00f567b3          	or	a5,a0,a5
800009f4:	01f91913          	slli	s2,s2,0x1f
800009f8:	0127e733          	or	a4,a5,s2
800009fc:	00040513          	mv	a0,s0
80000a00:	00070593          	mv	a1,a4
80000a04:	00048463          	beqz	s1,80000a0c <__extendsfdf2+0x74>
80000a08:	0014a073          	csrs	fflags,s1
80000a0c:	00c12083          	lw	ra,12(sp)
80000a10:	00812403          	lw	s0,8(sp)
80000a14:	00412483          	lw	s1,4(sp)
80000a18:	00012903          	lw	s2,0(sp)
80000a1c:	01010113          	addi	sp,sp,16
80000a20:	00008067          	ret
80000a24:	04049463          	bnez	s1,80000a6c <__extendsfdf2+0xd4>
80000a28:	06040a63          	beqz	s0,80000a9c <__extendsfdf2+0x104>
80000a2c:	00040513          	mv	a0,s0
80000a30:	374000ef          	jal	ra,80000da4 <__clzsi2>
80000a34:	00a00793          	li	a5,10
80000a38:	02a7c263          	blt	a5,a0,80000a5c <__extendsfdf2+0xc4>
80000a3c:	00b00793          	li	a5,11
80000a40:	40a787b3          	sub	a5,a5,a0
80000a44:	01550713          	addi	a4,a0,21
80000a48:	00f457b3          	srl	a5,s0,a5
80000a4c:	00e41433          	sll	s0,s0,a4
80000a50:	38900713          	li	a4,905
80000a54:	40a70533          	sub	a0,a4,a0
80000a58:	f8dff06f          	j	800009e4 <__extendsfdf2+0x4c>
80000a5c:	ff550793          	addi	a5,a0,-11
80000a60:	00f417b3          	sll	a5,s0,a5
80000a64:	00000413          	li	s0,0
80000a68:	fe9ff06f          	j	80000a50 <__extendsfdf2+0xb8>
80000a6c:	02040e63          	beqz	s0,80000aa8 <__extendsfdf2+0x110>
80000a70:	004007b7          	lui	a5,0x400
80000a74:	00f477b3          	and	a5,s0,a5
80000a78:	00079463          	bnez	a5,80000a80 <__extendsfdf2+0xe8>
80000a7c:	01000713          	li	a4,16
80000a80:	00345793          	srli	a5,s0,0x3
80000a84:	000806b7          	lui	a3,0x80
80000a88:	01d41413          	slli	s0,s0,0x1d
80000a8c:	00d7e7b3          	or	a5,a5,a3
80000a90:	00070493          	mv	s1,a4
80000a94:	7ff00513          	li	a0,2047
80000a98:	f4dff06f          	j	800009e4 <__extendsfdf2+0x4c>
80000a9c:	00000793          	li	a5,0
80000aa0:	00000513          	li	a0,0
80000aa4:	f41ff06f          	j	800009e4 <__extendsfdf2+0x4c>
80000aa8:	00000793          	li	a5,0
80000aac:	00000493          	li	s1,0
80000ab0:	fe5ff06f          	j	80000a94 <__extendsfdf2+0xfc>

80000ab4 <__truncdfsf2>:
80000ab4:	00202873          	frrm	a6
80000ab8:	0145d713          	srli	a4,a1,0x14
80000abc:	7ff77893          	andi	a7,a4,2047
80000ac0:	00c59793          	slli	a5,a1,0xc
80000ac4:	00188713          	addi	a4,a7,1
80000ac8:	0097d793          	srli	a5,a5,0x9
80000acc:	01d55693          	srli	a3,a0,0x1d
80000ad0:	7fe77713          	andi	a4,a4,2046
80000ad4:	00f6e6b3          	or	a3,a3,a5
80000ad8:	01f5d593          	srli	a1,a1,0x1f
80000adc:	00351793          	slli	a5,a0,0x3
80000ae0:	16070a63          	beqz	a4,80000c54 <__truncdfsf2+0x1a0>
80000ae4:	c8088613          	addi	a2,a7,-896
80000ae8:	0fe00713          	li	a4,254
80000aec:	06c75a63          	bge	a4,a2,80000b60 <__truncdfsf2+0xac>
80000af0:	1c080e63          	beqz	a6,80000ccc <__truncdfsf2+0x218>
80000af4:	00300793          	li	a5,3
80000af8:	00f81c63          	bne	a6,a5,80000b10 <__truncdfsf2+0x5c>
80000afc:	1c058863          	beqz	a1,80000ccc <__truncdfsf2+0x218>
80000b00:	fff00793          	li	a5,-1
80000b04:	0fe00613          	li	a2,254
80000b08:	00000713          	li	a4,0
80000b0c:	01c0006f          	j	80000b28 <__truncdfsf2+0x74>
80000b10:	00200793          	li	a5,2
80000b14:	fef816e3          	bne	a6,a5,80000b00 <__truncdfsf2+0x4c>
80000b18:	1a059a63          	bnez	a1,80000ccc <__truncdfsf2+0x218>
80000b1c:	00000713          	li	a4,0
80000b20:	fff00793          	li	a5,-1
80000b24:	0fe00613          	li	a2,254
80000b28:	00500893          	li	a7,5
80000b2c:	00200693          	li	a3,2
80000b30:	0018e893          	ori	a7,a7,1
80000b34:	22d80a63          	beq	a6,a3,80000d68 <__truncdfsf2+0x2b4>
80000b38:	00300693          	li	a3,3
80000b3c:	22d80063          	beq	a6,a3,80000d5c <__truncdfsf2+0x2a8>
80000b40:	00081a63          	bnez	a6,80000b54 <__truncdfsf2+0xa0>
80000b44:	00f7f693          	andi	a3,a5,15
80000b48:	00400513          	li	a0,4
80000b4c:	00a68463          	beq	a3,a0,80000b54 <__truncdfsf2+0xa0>
80000b50:	00478793          	addi	a5,a5,4 # 400004 <_start-0x7fbffffc>
80000b54:	18070263          	beqz	a4,80000cd8 <__truncdfsf2+0x224>
80000b58:	0028e893          	ori	a7,a7,2
80000b5c:	17c0006f          	j	80000cd8 <__truncdfsf2+0x224>
80000b60:	0cc04063          	bgtz	a2,80000c20 <__truncdfsf2+0x16c>
80000b64:	fe900713          	li	a4,-23
80000b68:	0ee64e63          	blt	a2,a4,80000c64 <__truncdfsf2+0x1b0>
80000b6c:	00800737          	lui	a4,0x800
80000b70:	01e00513          	li	a0,30
80000b74:	00e6e6b3          	or	a3,a3,a4
80000b78:	40c50533          	sub	a0,a0,a2
80000b7c:	01f00713          	li	a4,31
80000b80:	06a74863          	blt	a4,a0,80000bf0 <__truncdfsf2+0x13c>
80000b84:	c8288713          	addi	a4,a7,-894
80000b88:	00a7d533          	srl	a0,a5,a0
80000b8c:	00e797b3          	sll	a5,a5,a4
80000b90:	00f037b3          	snez	a5,a5
80000b94:	00e696b3          	sll	a3,a3,a4
80000b98:	00d7e6b3          	or	a3,a5,a3
80000b9c:	00d567b3          	or	a5,a0,a3
80000ba0:	1a078863          	beqz	a5,80000d50 <__truncdfsf2+0x29c>
80000ba4:	00179713          	slli	a4,a5,0x1
80000ba8:	00777693          	andi	a3,a4,7
80000bac:	00000893          	li	a7,0
80000bb0:	02068663          	beqz	a3,80000bdc <__truncdfsf2+0x128>
80000bb4:	00200693          	li	a3,2
80000bb8:	10d80063          	beq	a6,a3,80000cb8 <__truncdfsf2+0x204>
80000bbc:	00300693          	li	a3,3
80000bc0:	0ed80263          	beq	a6,a3,80000ca4 <__truncdfsf2+0x1f0>
80000bc4:	00100893          	li	a7,1
80000bc8:	00081a63          	bnez	a6,80000bdc <__truncdfsf2+0x128>
80000bcc:	00f77693          	andi	a3,a4,15
80000bd0:	00400613          	li	a2,4
80000bd4:	00c68463          	beq	a3,a2,80000bdc <__truncdfsf2+0x128>
80000bd8:	00470713          	addi	a4,a4,4 # 800004 <_start-0x7f7ffffc>
80000bdc:	01b75713          	srli	a4,a4,0x1b
80000be0:	00174713          	xori	a4,a4,1
80000be4:	00177713          	andi	a4,a4,1
80000be8:	00000613          	li	a2,0
80000bec:	0540006f          	j	80000c40 <__truncdfsf2+0x18c>
80000bf0:	ffe00713          	li	a4,-2
80000bf4:	40c70633          	sub	a2,a4,a2
80000bf8:	02000313          	li	t1,32
80000bfc:	00c6d633          	srl	a2,a3,a2
80000c00:	00000713          	li	a4,0
80000c04:	00650663          	beq	a0,t1,80000c10 <__truncdfsf2+0x15c>
80000c08:	ca288713          	addi	a4,a7,-862
80000c0c:	00e69733          	sll	a4,a3,a4
80000c10:	00f767b3          	or	a5,a4,a5
80000c14:	00f037b3          	snez	a5,a5
80000c18:	00f667b3          	or	a5,a2,a5
80000c1c:	f85ff06f          	j	80000ba0 <__truncdfsf2+0xec>
80000c20:	00651513          	slli	a0,a0,0x6
80000c24:	00a03533          	snez	a0,a0
80000c28:	00369693          	slli	a3,a3,0x3
80000c2c:	01d7d793          	srli	a5,a5,0x1d
80000c30:	00d566b3          	or	a3,a0,a3
80000c34:	00f6e7b3          	or	a5,a3,a5
80000c38:	00000713          	li	a4,0
80000c3c:	00000893          	li	a7,0
80000c40:	0077f693          	andi	a3,a5,7
80000c44:	ee0694e3          	bnez	a3,80000b2c <__truncdfsf2+0x78>
80000c48:	08070863          	beqz	a4,80000cd8 <__truncdfsf2+0x224>
80000c4c:	0018f713          	andi	a4,a7,1
80000c50:	f05ff06f          	j	80000b54 <__truncdfsf2+0xa0>
80000c54:	00f6e7b3          	or	a5,a3,a5
80000c58:	00089a63          	bnez	a7,80000c6c <__truncdfsf2+0x1b8>
80000c5c:	00000613          	li	a2,0
80000c60:	06078c63          	beqz	a5,80000cd8 <__truncdfsf2+0x224>
80000c64:	00100793          	li	a5,1
80000c68:	f3dff06f          	j	80000ba4 <__truncdfsf2+0xf0>
80000c6c:	0c078c63          	beqz	a5,80000d44 <__truncdfsf2+0x290>
80000c70:	7ff00793          	li	a5,2047
80000c74:	02f89463          	bne	a7,a5,80000c9c <__truncdfsf2+0x1e8>
80000c78:	004008b7          	lui	a7,0x400
80000c7c:	0116f8b3          	and	a7,a3,a7
80000c80:	0018b893          	seqz	a7,a7
80000c84:	00489893          	slli	a7,a7,0x4
80000c88:	00369693          	slli	a3,a3,0x3
80000c8c:	020007b7          	lui	a5,0x2000
80000c90:	00f6e7b3          	or	a5,a3,a5
80000c94:	0ff00613          	li	a2,255
80000c98:	fa9ff06f          	j	80000c40 <__truncdfsf2+0x18c>
80000c9c:	00000893          	li	a7,0
80000ca0:	fe9ff06f          	j	80000c88 <__truncdfsf2+0x1d4>
80000ca4:	00058893          	mv	a7,a1
80000ca8:	f2059ae3          	bnez	a1,80000bdc <__truncdfsf2+0x128>
80000cac:	00870713          	addi	a4,a4,8
80000cb0:	00100893          	li	a7,1
80000cb4:	f29ff06f          	j	80000bdc <__truncdfsf2+0x128>
80000cb8:	00100893          	li	a7,1
80000cbc:	f20580e3          	beqz	a1,80000bdc <__truncdfsf2+0x128>
80000cc0:	00870713          	addi	a4,a4,8
80000cc4:	00058893          	mv	a7,a1
80000cc8:	f15ff06f          	j	80000bdc <__truncdfsf2+0x128>
80000ccc:	00000793          	li	a5,0
80000cd0:	0ff00613          	li	a2,255
80000cd4:	00500893          	li	a7,5
80000cd8:	04000737          	lui	a4,0x4000
80000cdc:	00e7f733          	and	a4,a5,a4
80000ce0:	00070e63          	beqz	a4,80000cfc <__truncdfsf2+0x248>
80000ce4:	00160613          	addi	a2,a2,1
80000ce8:	0ff00713          	li	a4,255
80000cec:	08e60263          	beq	a2,a4,80000d70 <__truncdfsf2+0x2bc>
80000cf0:	fc000737          	lui	a4,0xfc000
80000cf4:	fff70713          	addi	a4,a4,-1 # fbffffff <__stack_top+0x73ffffff>
80000cf8:	00e7f7b3          	and	a5,a5,a4
80000cfc:	0ff00713          	li	a4,255
80000d00:	0037d793          	srli	a5,a5,0x3
80000d04:	00e61863          	bne	a2,a4,80000d14 <__truncdfsf2+0x260>
80000d08:	00078663          	beqz	a5,80000d14 <__truncdfsf2+0x260>
80000d0c:	004007b7          	lui	a5,0x400
80000d10:	00000593          	li	a1,0
80000d14:	01761613          	slli	a2,a2,0x17
80000d18:	7f800737          	lui	a4,0x7f800
80000d1c:	00979793          	slli	a5,a5,0x9
80000d20:	00e67633          	and	a2,a2,a4
80000d24:	0097d793          	srli	a5,a5,0x9
80000d28:	00f667b3          	or	a5,a2,a5
80000d2c:	01f59593          	slli	a1,a1,0x1f
80000d30:	00b7e7b3          	or	a5,a5,a1
80000d34:	00088463          	beqz	a7,80000d3c <__truncdfsf2+0x288>
80000d38:	0018a073          	csrs	fflags,a7
80000d3c:	f0078553          	fmv.w.x	fa0,a5
80000d40:	00008067          	ret
80000d44:	00000893          	li	a7,0
80000d48:	0ff00613          	li	a2,255
80000d4c:	f8dff06f          	j	80000cd8 <__truncdfsf2+0x224>
80000d50:	00000613          	li	a2,0
80000d54:	00000893          	li	a7,0
80000d58:	f81ff06f          	j	80000cd8 <__truncdfsf2+0x224>
80000d5c:	de059ce3          	bnez	a1,80000b54 <__truncdfsf2+0xa0>
80000d60:	00878793          	addi	a5,a5,8 # 400008 <_start-0x7fbffff8>
80000d64:	df1ff06f          	j	80000b54 <__truncdfsf2+0xa0>
80000d68:	de0586e3          	beqz	a1,80000b54 <__truncdfsf2+0xa0>
80000d6c:	ff5ff06f          	j	80000d60 <__truncdfsf2+0x2ac>
80000d70:	00000793          	li	a5,0
80000d74:	02080463          	beqz	a6,80000d9c <__truncdfsf2+0x2e8>
80000d78:	00300713          	li	a4,3
80000d7c:	00e81a63          	bne	a6,a4,80000d90 <__truncdfsf2+0x2dc>
80000d80:	00058e63          	beqz	a1,80000d9c <__truncdfsf2+0x2e8>
80000d84:	fff00793          	li	a5,-1
80000d88:	0fe00613          	li	a2,254
80000d8c:	0100006f          	j	80000d9c <__truncdfsf2+0x2e8>
80000d90:	00200713          	li	a4,2
80000d94:	fee818e3          	bne	a6,a4,80000d84 <__truncdfsf2+0x2d0>
80000d98:	fe0586e3          	beqz	a1,80000d84 <__truncdfsf2+0x2d0>
80000d9c:	0058e893          	ori	a7,a7,5
80000da0:	f5dff06f          	j	80000cfc <__truncdfsf2+0x248>

80000da4 <__clzsi2>:
80000da4:	000107b7          	lui	a5,0x10
80000da8:	02f57a63          	bgeu	a0,a5,80000ddc <__clzsi2+0x38>
80000dac:	0ff00793          	li	a5,255
80000db0:	00a7b7b3          	sltu	a5,a5,a0
80000db4:	00379793          	slli	a5,a5,0x3
80000db8:	80001737          	lui	a4,0x80001
80000dbc:	02000693          	li	a3,32
80000dc0:	40f686b3          	sub	a3,a3,a5
80000dc4:	00f55533          	srl	a0,a0,a5
80000dc8:	0bc70793          	addi	a5,a4,188 # 800010bc <__stack_top+0xf80010bc>
80000dcc:	00a78533          	add	a0,a5,a0
80000dd0:	00054503          	lbu	a0,0(a0)
80000dd4:	40a68533          	sub	a0,a3,a0
80000dd8:	00008067          	ret
80000ddc:	01000737          	lui	a4,0x1000
80000de0:	01000793          	li	a5,16
80000de4:	fce56ae3          	bltu	a0,a4,80000db8 <__clzsi2+0x14>
80000de8:	01800793          	li	a5,24
80000dec:	fcdff06f          	j	80000db8 <__clzsi2+0x14>

80000df0 <exit>:
80000df0:	ff010113          	addi	sp,sp,-16
80000df4:	00000593          	li	a1,0
80000df8:	00812423          	sw	s0,8(sp)
80000dfc:	00112623          	sw	ra,12(sp)
80000e00:	00050413          	mv	s0,a0
80000e04:	01c000ef          	jal	ra,80000e20 <__call_exitprocs>
80000e08:	c381a503          	lw	a0,-968(gp) # 80001628 <_global_impure_ptr>
80000e0c:	03c52783          	lw	a5,60(a0)
80000e10:	00078463          	beqz	a5,80000e18 <exit+0x28>
80000e14:	000780e7          	jalr	a5 # 10000 <_start-0x7fff0000>
80000e18:	00040513          	mv	a0,s0
80000e1c:	22c000ef          	jal	ra,80001048 <_exit>

80000e20 <__call_exitprocs>:
80000e20:	fd010113          	addi	sp,sp,-48
80000e24:	01412c23          	sw	s4,24(sp)
80000e28:	c381aa03          	lw	s4,-968(gp) # 80001628 <_global_impure_ptr>
80000e2c:	03212023          	sw	s2,32(sp)
80000e30:	02112623          	sw	ra,44(sp)
80000e34:	148a2903          	lw	s2,328(s4)
80000e38:	02812423          	sw	s0,40(sp)
80000e3c:	02912223          	sw	s1,36(sp)
80000e40:	01312e23          	sw	s3,28(sp)
80000e44:	01512a23          	sw	s5,20(sp)
80000e48:	01612823          	sw	s6,16(sp)
80000e4c:	01712623          	sw	s7,12(sp)
80000e50:	01812423          	sw	s8,8(sp)
80000e54:	04090063          	beqz	s2,80000e94 <__call_exitprocs+0x74>
80000e58:	00050b13          	mv	s6,a0
80000e5c:	00058b93          	mv	s7,a1
80000e60:	00100a93          	li	s5,1
80000e64:	fff00993          	li	s3,-1
80000e68:	00492483          	lw	s1,4(s2)
80000e6c:	fff48413          	addi	s0,s1,-1
80000e70:	02044263          	bltz	s0,80000e94 <__call_exitprocs+0x74>
80000e74:	00249493          	slli	s1,s1,0x2
80000e78:	009904b3          	add	s1,s2,s1
80000e7c:	040b8463          	beqz	s7,80000ec4 <__call_exitprocs+0xa4>
80000e80:	1044a783          	lw	a5,260(s1)
80000e84:	05778063          	beq	a5,s7,80000ec4 <__call_exitprocs+0xa4>
80000e88:	fff40413          	addi	s0,s0,-1 # 7ffff <_start-0x7ff80001>
80000e8c:	ffc48493          	addi	s1,s1,-4
80000e90:	ff3416e3          	bne	s0,s3,80000e7c <__call_exitprocs+0x5c>
80000e94:	02c12083          	lw	ra,44(sp)
80000e98:	02812403          	lw	s0,40(sp)
80000e9c:	02412483          	lw	s1,36(sp)
80000ea0:	02012903          	lw	s2,32(sp)
80000ea4:	01c12983          	lw	s3,28(sp)
80000ea8:	01812a03          	lw	s4,24(sp)
80000eac:	01412a83          	lw	s5,20(sp)
80000eb0:	01012b03          	lw	s6,16(sp)
80000eb4:	00c12b83          	lw	s7,12(sp)
80000eb8:	00812c03          	lw	s8,8(sp)
80000ebc:	03010113          	addi	sp,sp,48
80000ec0:	00008067          	ret
80000ec4:	00492783          	lw	a5,4(s2)
80000ec8:	0044a683          	lw	a3,4(s1)
80000ecc:	fff78793          	addi	a5,a5,-1
80000ed0:	04878e63          	beq	a5,s0,80000f2c <__call_exitprocs+0x10c>
80000ed4:	0004a223          	sw	zero,4(s1)
80000ed8:	fa0688e3          	beqz	a3,80000e88 <__call_exitprocs+0x68>
80000edc:	18892783          	lw	a5,392(s2)
80000ee0:	008a9733          	sll	a4,s5,s0
80000ee4:	00492c03          	lw	s8,4(s2)
80000ee8:	00f777b3          	and	a5,a4,a5
80000eec:	02079263          	bnez	a5,80000f10 <__call_exitprocs+0xf0>
80000ef0:	000680e7          	jalr	a3 # 80000 <_start-0x7ff80000>
80000ef4:	00492703          	lw	a4,4(s2)
80000ef8:	148a2783          	lw	a5,328(s4)
80000efc:	01871463          	bne	a4,s8,80000f04 <__call_exitprocs+0xe4>
80000f00:	f92784e3          	beq	a5,s2,80000e88 <__call_exitprocs+0x68>
80000f04:	f80788e3          	beqz	a5,80000e94 <__call_exitprocs+0x74>
80000f08:	00078913          	mv	s2,a5
80000f0c:	f5dff06f          	j	80000e68 <__call_exitprocs+0x48>
80000f10:	18c92783          	lw	a5,396(s2)
80000f14:	0844a583          	lw	a1,132(s1)
80000f18:	00f77733          	and	a4,a4,a5
80000f1c:	00071c63          	bnez	a4,80000f34 <__call_exitprocs+0x114>
80000f20:	000b0513          	mv	a0,s6
80000f24:	000680e7          	jalr	a3
80000f28:	fcdff06f          	j	80000ef4 <__call_exitprocs+0xd4>
80000f2c:	00892223          	sw	s0,4(s2)
80000f30:	fa9ff06f          	j	80000ed8 <__call_exitprocs+0xb8>
80000f34:	00058513          	mv	a0,a1
80000f38:	000680e7          	jalr	a3
80000f3c:	fb9ff06f          	j	80000ef4 <__call_exitprocs+0xd4>

80000f40 <atexit>:
80000f40:	00050593          	mv	a1,a0
80000f44:	00000693          	li	a3,0
80000f48:	00000613          	li	a2,0
80000f4c:	00000513          	li	a0,0
80000f50:	0600006f          	j	80000fb0 <__register_exitproc>

80000f54 <__libc_fini_array>:
80000f54:	ff010113          	addi	sp,sp,-16
80000f58:	00812423          	sw	s0,8(sp)
80000f5c:	800027b7          	lui	a5,0x80002
80000f60:	80002437          	lui	s0,0x80002
80000f64:	1e840413          	addi	s0,s0,488 # 800021e8 <__stack_top+0xf80021e8>
80000f68:	1e878793          	addi	a5,a5,488 # 800021e8 <__stack_top+0xf80021e8>
80000f6c:	408787b3          	sub	a5,a5,s0
80000f70:	00912223          	sw	s1,4(sp)
80000f74:	00112623          	sw	ra,12(sp)
80000f78:	4027d493          	srai	s1,a5,0x2
80000f7c:	02048063          	beqz	s1,80000f9c <__libc_fini_array+0x48>
80000f80:	ffc78793          	addi	a5,a5,-4
80000f84:	00878433          	add	s0,a5,s0
80000f88:	00042783          	lw	a5,0(s0)
80000f8c:	fff48493          	addi	s1,s1,-1
80000f90:	ffc40413          	addi	s0,s0,-4
80000f94:	000780e7          	jalr	a5
80000f98:	fe0498e3          	bnez	s1,80000f88 <__libc_fini_array+0x34>
80000f9c:	00c12083          	lw	ra,12(sp)
80000fa0:	00812403          	lw	s0,8(sp)
80000fa4:	00412483          	lw	s1,4(sp)
80000fa8:	01010113          	addi	sp,sp,16
80000fac:	00008067          	ret

80000fb0 <__register_exitproc>:
80000fb0:	c381a703          	lw	a4,-968(gp) # 80001628 <_global_impure_ptr>
80000fb4:	14872783          	lw	a5,328(a4) # 1000148 <_start-0x7efffeb8>
80000fb8:	04078c63          	beqz	a5,80001010 <__register_exitproc+0x60>
80000fbc:	0047a703          	lw	a4,4(a5)
80000fc0:	01f00813          	li	a6,31
80000fc4:	06e84e63          	blt	a6,a4,80001040 <__register_exitproc+0x90>
80000fc8:	00271813          	slli	a6,a4,0x2
80000fcc:	02050663          	beqz	a0,80000ff8 <__register_exitproc+0x48>
80000fd0:	01078333          	add	t1,a5,a6
80000fd4:	08c32423          	sw	a2,136(t1) # 10088 <_start-0x7ffeff78>
80000fd8:	1887a883          	lw	a7,392(a5)
80000fdc:	00100613          	li	a2,1
80000fe0:	00e61633          	sll	a2,a2,a4
80000fe4:	00c8e8b3          	or	a7,a7,a2
80000fe8:	1917a423          	sw	a7,392(a5)
80000fec:	10d32423          	sw	a3,264(t1)
80000ff0:	00200693          	li	a3,2
80000ff4:	02d50463          	beq	a0,a3,8000101c <__register_exitproc+0x6c>
80000ff8:	00170713          	addi	a4,a4,1
80000ffc:	00e7a223          	sw	a4,4(a5)
80001000:	010787b3          	add	a5,a5,a6
80001004:	00b7a423          	sw	a1,8(a5)
80001008:	00000513          	li	a0,0
8000100c:	00008067          	ret
80001010:	14c70793          	addi	a5,a4,332
80001014:	14f72423          	sw	a5,328(a4)
80001018:	fa5ff06f          	j	80000fbc <__register_exitproc+0xc>
8000101c:	18c7a683          	lw	a3,396(a5)
80001020:	00170713          	addi	a4,a4,1
80001024:	00e7a223          	sw	a4,4(a5)
80001028:	00c6e633          	or	a2,a3,a2
8000102c:	18c7a623          	sw	a2,396(a5)
80001030:	010787b3          	add	a5,a5,a6
80001034:	00b7a423          	sw	a1,8(a5)
80001038:	00000513          	li	a0,0
8000103c:	00008067          	ret
80001040:	fff00513          	li	a0,-1
80001044:	00008067          	ret

80001048 <_exit>:
80001048:	05d00893          	li	a7,93
8000104c:	00000073          	ecall
80001050:	00054463          	bltz	a0,80001058 <_exit+0x10>
80001054:	0000006f          	j	80001054 <_exit+0xc>
80001058:	ff010113          	addi	sp,sp,-16
8000105c:	00812423          	sw	s0,8(sp)
80001060:	00050413          	mv	s0,a0
80001064:	00112623          	sw	ra,12(sp)
80001068:	40800433          	neg	s0,s0
8000106c:	00c000ef          	jal	ra,80001078 <__errno>
80001070:	00852023          	sw	s0,0(a0)
80001074:	0000006f          	j	80001074 <_exit+0x2c>

80001078 <__errno>:
80001078:	c3c1a503          	lw	a0,-964(gp) # 8000162c <_impure_ptr>
8000107c:	00008067          	ret
