
symm.elf:     file format elf32-littleriscv


Disassembly of section .init:

80000000 <_start>:
80000000:	00001197          	auipc	gp,0x1
80000004:	e1018193          	addi	gp,gp,-496 # 80000e10 <__global_pointer$>
80000008:	08000117          	auipc	sp,0x8000
8000000c:	ff810113          	addi	sp,sp,-8 # 88000000 <__stack_top>
80000010:	00010433          	add	s0,sp,zero
80000014:	008000ef          	jal	ra,8000001c <main>
80000018:	3340006f          	j	8000034c <exit>

Disassembly of section .text:

8000001c <main>:
8000001c:	ffff4337          	lui	t1,0xffff4
80000020:	81010113          	addi	sp,sp,-2032
80000024:	97030313          	addi	t1,t1,-1680 # ffff3970 <__stack_top+0x77ff3970>
80000028:	7e112623          	sw	ra,2028(sp)
8000002c:	7e812423          	sw	s0,2024(sp)
80000030:	7e912223          	sw	s1,2020(sp)
80000034:	7f212023          	sw	s2,2016(sp)
80000038:	7d312e23          	sw	s3,2012(sp)
8000003c:	7d412c23          	sw	s4,2008(sp)
80000040:	0000d7b7          	lui	a5,0xd
80000044:	00610133          	add	sp,sp,t1
80000048:	01010693          	addi	a3,sp,16
8000004c:	e5078713          	addi	a4,a5,-432 # ce50 <_start-0x7fff31b0>
80000050:	ffffb4b7          	lui	s1,0xffffb
80000054:	00d70733          	add	a4,a4,a3
80000058:	50048493          	addi	s1,s1,1280 # ffffb500 <__stack_top+0x77ffb500>
8000005c:	ffff39b7          	lui	s3,0xffff3
80000060:	009704b3          	add	s1,a4,s1
80000064:	00078593          	mv	a1,a5
80000068:	e5078713          	addi	a4,a5,-432
8000006c:	ffff7437          	lui	s0,0xffff7
80000070:	e5078793          	addi	a5,a5,-432
80000074:	01010893          	addi	a7,sp,16
80000078:	00d70733          	add	a4,a4,a3
8000007c:	00d787b3          	add	a5,a5,a3
80000080:	00058a13          	mv	s4,a1
80000084:	1c098913          	addi	s2,s3,448 # ffff31c0 <__stack_top+0x77ff31c0>
80000088:	e5058513          	addi	a0,a1,-432
8000008c:	a0040413          	addi	s0,s0,-1536 # ffff6a00 <__stack_top+0x77ff6a00>
80000090:	e5058593          	addi	a1,a1,-432
80000094:	00878433          	add	s0,a5,s0
80000098:	01270933          	add	s2,a4,s2
8000009c:	01150533          	add	a0,a0,a7
800000a0:	011585b3          	add	a1,a1,a7
800000a4:	1bc98693          	addi	a3,s3,444
800000a8:	1b898613          	addi	a2,s3,440
800000ac:	00048813          	mv	a6,s1
800000b0:	00090793          	mv	a5,s2
800000b4:	00040713          	mv	a4,s0
800000b8:	00d506b3          	add	a3,a0,a3
800000bc:	00c58633          	add	a2,a1,a2
800000c0:	03c00513          	li	a0,60
800000c4:	05000593          	li	a1,80
800000c8:	080000ef          	jal	ra,80000148 <init_array>
800000cc:	01010713          	addi	a4,sp,16
800000d0:	e50a0793          	addi	a5,s4,-432
800000d4:	00e787b3          	add	a5,a5,a4
800000d8:	013787b3          	add	a5,a5,s3
800000dc:	1bc7a587          	flw	fa1,444(a5)
800000e0:	1b87a507          	flw	fa0,440(a5)
800000e4:	03c00513          	li	a0,60
800000e8:	00048713          	mv	a4,s1
800000ec:	00090693          	mv	a3,s2
800000f0:	00040613          	mv	a2,s0
800000f4:	05000593          	li	a1,80
800000f8:	00f12623          	sw	a5,12(sp)
800000fc:	158000ef          	jal	ra,80000254 <kernel_symm>
80000100:	0000c337          	lui	t1,0xc
80000104:	69030313          	addi	t1,t1,1680 # c690 <_start-0x7fff3970>
80000108:	00610133          	add	sp,sp,t1
8000010c:	7ec12083          	lw	ra,2028(sp)
80000110:	7e812403          	lw	s0,2024(sp)
80000114:	7e412483          	lw	s1,2020(sp)
80000118:	7e012903          	lw	s2,2016(sp)
8000011c:	7dc12983          	lw	s3,2012(sp)
80000120:	7d812a03          	lw	s4,2008(sp)
80000124:	00000513          	li	a0,0
80000128:	7f010113          	addi	sp,sp,2032
8000012c:	00008067          	ret

80000130 <register_fini>:
80000130:	00000793          	li	a5,0
80000134:	00078863          	beqz	a5,80000144 <register_fini+0x14>
80000138:	80000537          	lui	a0,0x80000
8000013c:	4b050513          	addi	a0,a0,1200 # 800004b0 <__stack_top+0xf80004b0>
80000140:	35c0006f          	j	8000049c <atexit>
80000144:	00008067          	ret

80000148 <init_array>:
80000148:	c281a787          	flw	fa5,-984(gp) # 80000a38 <__SDATA_BEGIN__>
8000014c:	00f62027          	fsw	fa5,0(a2)
80000150:	c2c1a787          	flw	fa5,-980(gp) # 80000a3c <__SDATA_BEGIN__+0x4>
80000154:	00f6a027          	fsw	fa5,0(a3)
80000158:	08a05263          	blez	a0,800001dc <init_array+0x94>
8000015c:	d0057753          	fcvt.s.w	fa4,a0
80000160:	00070293          	mv	t0,a4
80000164:	00080f93          	mv	t6,a6
80000168:	00058f13          	mv	t5,a1
8000016c:	00058e93          	mv	t4,a1
80000170:	00000e13          	li	t3,0
80000174:	06400893          	li	a7,100
80000178:	000e0713          	mv	a4,t3
8000017c:	000f8813          	mv	a6,t6
80000180:	00028613          	mv	a2,t0
80000184:	02b05c63          	blez	a1,800001bc <init_array+0x74>
80000188:	03176333          	rem	t1,a4,a7
8000018c:	40ef06b3          	sub	a3,t5,a4
80000190:	00460613          	addi	a2,a2,4
80000194:	00480813          	addi	a6,a6,4
80000198:	00170713          	addi	a4,a4,1
8000019c:	0316e6b3          	rem	a3,a3,a7
800001a0:	d00377d3          	fcvt.s.w	fa5,t1
800001a4:	18e7f7d3          	fdiv.s	fa5,fa5,fa4
800001a8:	fef62e27          	fsw	fa5,-4(a2)
800001ac:	d006f7d3          	fcvt.s.w	fa5,a3
800001b0:	18e7f7d3          	fdiv.s	fa5,fa5,fa4
800001b4:	fef82e27          	fsw	fa5,-4(a6)
800001b8:	fdd718e3          	bne	a4,t4,80000188 <init_array+0x40>
800001bc:	001e0713          	addi	a4,t3,1
800001c0:	14028293          	addi	t0,t0,320
800001c4:	140f8f93          	addi	t6,t6,320
800001c8:	002f0f13          	addi	t5,t5,2
800001cc:	001e8e93          	addi	t4,t4,1
800001d0:	00e50863          	beq	a0,a4,800001e0 <init_array+0x98>
800001d4:	00070e13          	mv	t3,a4
800001d8:	fa1ff06f          	j	80000178 <init_array+0x30>
800001dc:	00008067          	ret
800001e0:	c301a687          	flw	fa3,-976(gp) # 80000a40 <__SDATA_BEGIN__+0x8>
800001e4:	00078813          	mv	a6,a5
800001e8:	00078893          	mv	a7,a5
800001ec:	00100613          	li	a2,1
800001f0:	00000513          	li	a0,0
800001f4:	06400593          	li	a1,100
800001f8:	00050793          	mv	a5,a0
800001fc:	00088713          	mv	a4,a7
80000200:	02b7e6b3          	rem	a3,a5,a1
80000204:	00470713          	addi	a4,a4,4
80000208:	00178793          	addi	a5,a5,1
8000020c:	d006f7d3          	fcvt.s.w	fa5,a3
80000210:	18e7f7d3          	fdiv.s	fa5,fa5,fa4
80000214:	fef72e27          	fsw	fa5,-4(a4)
80000218:	fec794e3          	bne	a5,a2,80000200 <init_array+0xb8>
8000021c:	00150313          	addi	t1,a0,1
80000220:	fbc50ee3          	beq	a0,t3,800001dc <init_array+0x94>
80000224:	00080713          	mv	a4,a6
80000228:	00030793          	mv	a5,t1
8000022c:	00d72227          	fsw	fa3,4(a4)
80000230:	00078693          	mv	a3,a5
80000234:	00470713          	addi	a4,a4,4
80000238:	00178793          	addi	a5,a5,1
8000023c:	fede18e3          	bne	t3,a3,8000022c <init_array+0xe4>
80000240:	0f480813          	addi	a6,a6,244
80000244:	0f088893          	addi	a7,a7,240
80000248:	00260613          	addi	a2,a2,2
8000024c:	00030513          	mv	a0,t1
80000250:	fa9ff06f          	j	800001f8 <init_array+0xb0>

80000254 <kernel_symm>:
80000254:	0ea05a63          	blez	a0,80000348 <kernel_symm+0xf4>
80000258:	ff010113          	addi	sp,sp,-16
8000025c:	00812623          	sw	s0,12(sp)
80000260:	00912423          	sw	s1,8(sp)
80000264:	00058e93          	mv	t4,a1
80000268:	00050393          	mv	t2,a0
8000026c:	00060413          	mv	s0,a2
80000270:	00070493          	mv	s1,a4
80000274:	00068593          	mv	a1,a3
80000278:	00068f13          	mv	t5,a3
8000027c:	00070293          	mv	t0,a4
80000280:	00060f93          	mv	t6,a2
80000284:	00000e13          	li	t3,0
80000288:	09d05c63          	blez	t4,80000320 <kernel_symm+0xcc>
8000028c:	00048313          	mv	t1,s1
80000290:	00040893          	mv	a7,s0
80000294:	00028613          	mv	a2,t0
80000298:	000f8513          	mv	a0,t6
8000029c:	00000813          	li	a6,0
800002a0:	f0000753          	fmv.w.x	fa4,zero
800002a4:	00030693          	mv	a3,t1
800002a8:	000f0793          	mv	a5,t5
800002ac:	00088713          	mv	a4,a7
800002b0:	020e0c63          	beqz	t3,800002e8 <kernel_symm+0x94>
800002b4:	00062787          	flw	fa5,0(a2)
800002b8:	0007a607          	flw	fa2,0(a5)
800002bc:	00072687          	flw	fa3,0(a4)
800002c0:	10f577d3          	fmul.s	fa5,fa0,fa5
800002c4:	14070713          	addi	a4,a4,320
800002c8:	00478793          	addi	a5,a5,4
800002cc:	14068693          	addi	a3,a3,320
800002d0:	68c7f7c3          	fmadd.s	fa5,fa5,fa2,fa3
800002d4:	ecf72027          	fsw	fa5,-320(a4)
800002d8:	ec06a687          	flw	fa3,-320(a3)
800002dc:	ffc7a787          	flw	fa5,-4(a5)
800002e0:	70f6f743          	fmadd.s	fa4,fa3,fa5,fa4
800002e4:	fcb798e3          	bne	a5,a1,800002b4 <kernel_symm+0x60>
800002e8:	00062787          	flw	fa5,0(a2)
800002ec:	0005a607          	flw	fa2,0(a1)
800002f0:	00052687          	flw	fa3,0(a0)
800002f4:	10f577d3          	fmul.s	fa5,fa0,fa5
800002f8:	00450513          	addi	a0,a0,4
800002fc:	00180813          	addi	a6,a6,1
80000300:	00460613          	addi	a2,a2,4
80000304:	00488893          	addi	a7,a7,4
80000308:	10c7f7d3          	fmul.s	fa5,fa5,fa2
8000030c:	00430313          	addi	t1,t1,4
80000310:	78b6f7c3          	fmadd.s	fa5,fa3,fa1,fa5
80000314:	78e57743          	fmadd.s	fa4,fa0,fa4,fa5
80000318:	fee52e27          	fsw	fa4,-4(a0)
8000031c:	f90e92e3          	bne	t4,a6,800002a0 <kernel_symm+0x4c>
80000320:	001e0e13          	addi	t3,t3,1
80000324:	0f458593          	addi	a1,a1,244
80000328:	140f8f93          	addi	t6,t6,320
8000032c:	14028293          	addi	t0,t0,320
80000330:	0f0f0f13          	addi	t5,t5,240
80000334:	f5c39ae3          	bne	t2,t3,80000288 <kernel_symm+0x34>
80000338:	00c12403          	lw	s0,12(sp)
8000033c:	00812483          	lw	s1,8(sp)
80000340:	01010113          	addi	sp,sp,16
80000344:	00008067          	ret
80000348:	00008067          	ret

8000034c <exit>:
8000034c:	ff010113          	addi	sp,sp,-16
80000350:	00000593          	li	a1,0
80000354:	00812423          	sw	s0,8(sp)
80000358:	00112623          	sw	ra,12(sp)
8000035c:	00050413          	mv	s0,a0
80000360:	01c000ef          	jal	ra,8000037c <__call_exitprocs>
80000364:	c341a503          	lw	a0,-972(gp) # 80000a44 <_global_impure_ptr>
80000368:	03c52783          	lw	a5,60(a0)
8000036c:	00078463          	beqz	a5,80000374 <exit+0x28>
80000370:	000780e7          	jalr	a5
80000374:	00040513          	mv	a0,s0
80000378:	22c000ef          	jal	ra,800005a4 <_exit>

8000037c <__call_exitprocs>:
8000037c:	fd010113          	addi	sp,sp,-48
80000380:	01412c23          	sw	s4,24(sp)
80000384:	c341aa03          	lw	s4,-972(gp) # 80000a44 <_global_impure_ptr>
80000388:	03212023          	sw	s2,32(sp)
8000038c:	02112623          	sw	ra,44(sp)
80000390:	148a2903          	lw	s2,328(s4)
80000394:	02812423          	sw	s0,40(sp)
80000398:	02912223          	sw	s1,36(sp)
8000039c:	01312e23          	sw	s3,28(sp)
800003a0:	01512a23          	sw	s5,20(sp)
800003a4:	01612823          	sw	s6,16(sp)
800003a8:	01712623          	sw	s7,12(sp)
800003ac:	01812423          	sw	s8,8(sp)
800003b0:	04090063          	beqz	s2,800003f0 <__call_exitprocs+0x74>
800003b4:	00050b13          	mv	s6,a0
800003b8:	00058b93          	mv	s7,a1
800003bc:	00100a93          	li	s5,1
800003c0:	fff00993          	li	s3,-1
800003c4:	00492483          	lw	s1,4(s2)
800003c8:	fff48413          	addi	s0,s1,-1
800003cc:	02044263          	bltz	s0,800003f0 <__call_exitprocs+0x74>
800003d0:	00249493          	slli	s1,s1,0x2
800003d4:	009904b3          	add	s1,s2,s1
800003d8:	040b8463          	beqz	s7,80000420 <__call_exitprocs+0xa4>
800003dc:	1044a783          	lw	a5,260(s1)
800003e0:	05778063          	beq	a5,s7,80000420 <__call_exitprocs+0xa4>
800003e4:	fff40413          	addi	s0,s0,-1
800003e8:	ffc48493          	addi	s1,s1,-4
800003ec:	ff3416e3          	bne	s0,s3,800003d8 <__call_exitprocs+0x5c>
800003f0:	02c12083          	lw	ra,44(sp)
800003f4:	02812403          	lw	s0,40(sp)
800003f8:	02412483          	lw	s1,36(sp)
800003fc:	02012903          	lw	s2,32(sp)
80000400:	01c12983          	lw	s3,28(sp)
80000404:	01812a03          	lw	s4,24(sp)
80000408:	01412a83          	lw	s5,20(sp)
8000040c:	01012b03          	lw	s6,16(sp)
80000410:	00c12b83          	lw	s7,12(sp)
80000414:	00812c03          	lw	s8,8(sp)
80000418:	03010113          	addi	sp,sp,48
8000041c:	00008067          	ret
80000420:	00492783          	lw	a5,4(s2)
80000424:	0044a683          	lw	a3,4(s1)
80000428:	fff78793          	addi	a5,a5,-1
8000042c:	04878e63          	beq	a5,s0,80000488 <__call_exitprocs+0x10c>
80000430:	0004a223          	sw	zero,4(s1)
80000434:	fa0688e3          	beqz	a3,800003e4 <__call_exitprocs+0x68>
80000438:	18892783          	lw	a5,392(s2)
8000043c:	008a9733          	sll	a4,s5,s0
80000440:	00492c03          	lw	s8,4(s2)
80000444:	00f777b3          	and	a5,a4,a5
80000448:	02079263          	bnez	a5,8000046c <__call_exitprocs+0xf0>
8000044c:	000680e7          	jalr	a3
80000450:	00492703          	lw	a4,4(s2)
80000454:	148a2783          	lw	a5,328(s4)
80000458:	01871463          	bne	a4,s8,80000460 <__call_exitprocs+0xe4>
8000045c:	f92784e3          	beq	a5,s2,800003e4 <__call_exitprocs+0x68>
80000460:	f80788e3          	beqz	a5,800003f0 <__call_exitprocs+0x74>
80000464:	00078913          	mv	s2,a5
80000468:	f5dff06f          	j	800003c4 <__call_exitprocs+0x48>
8000046c:	18c92783          	lw	a5,396(s2)
80000470:	0844a583          	lw	a1,132(s1)
80000474:	00f77733          	and	a4,a4,a5
80000478:	00071c63          	bnez	a4,80000490 <__call_exitprocs+0x114>
8000047c:	000b0513          	mv	a0,s6
80000480:	000680e7          	jalr	a3
80000484:	fcdff06f          	j	80000450 <__call_exitprocs+0xd4>
80000488:	00892223          	sw	s0,4(s2)
8000048c:	fa9ff06f          	j	80000434 <__call_exitprocs+0xb8>
80000490:	00058513          	mv	a0,a1
80000494:	000680e7          	jalr	a3
80000498:	fb9ff06f          	j	80000450 <__call_exitprocs+0xd4>

8000049c <atexit>:
8000049c:	00050593          	mv	a1,a0
800004a0:	00000693          	li	a3,0
800004a4:	00000613          	li	a2,0
800004a8:	00000513          	li	a0,0
800004ac:	0600006f          	j	8000050c <__register_exitproc>

800004b0 <__libc_fini_array>:
800004b0:	ff010113          	addi	sp,sp,-16
800004b4:	00812423          	sw	s0,8(sp)
800004b8:	800017b7          	lui	a5,0x80001
800004bc:	80001437          	lui	s0,0x80001
800004c0:	60840413          	addi	s0,s0,1544 # 80001608 <__stack_top+0xf8001608>
800004c4:	60878793          	addi	a5,a5,1544 # 80001608 <__stack_top+0xf8001608>
800004c8:	408787b3          	sub	a5,a5,s0
800004cc:	00912223          	sw	s1,4(sp)
800004d0:	00112623          	sw	ra,12(sp)
800004d4:	4027d493          	srai	s1,a5,0x2
800004d8:	02048063          	beqz	s1,800004f8 <__libc_fini_array+0x48>
800004dc:	ffc78793          	addi	a5,a5,-4
800004e0:	00878433          	add	s0,a5,s0
800004e4:	00042783          	lw	a5,0(s0)
800004e8:	fff48493          	addi	s1,s1,-1
800004ec:	ffc40413          	addi	s0,s0,-4
800004f0:	000780e7          	jalr	a5
800004f4:	fe0498e3          	bnez	s1,800004e4 <__libc_fini_array+0x34>
800004f8:	00c12083          	lw	ra,12(sp)
800004fc:	00812403          	lw	s0,8(sp)
80000500:	00412483          	lw	s1,4(sp)
80000504:	01010113          	addi	sp,sp,16
80000508:	00008067          	ret

8000050c <__register_exitproc>:
8000050c:	c341a703          	lw	a4,-972(gp) # 80000a44 <_global_impure_ptr>
80000510:	14872783          	lw	a5,328(a4)
80000514:	04078c63          	beqz	a5,8000056c <__register_exitproc+0x60>
80000518:	0047a703          	lw	a4,4(a5)
8000051c:	01f00813          	li	a6,31
80000520:	06e84e63          	blt	a6,a4,8000059c <__register_exitproc+0x90>
80000524:	00271813          	slli	a6,a4,0x2
80000528:	02050663          	beqz	a0,80000554 <__register_exitproc+0x48>
8000052c:	01078333          	add	t1,a5,a6
80000530:	08c32423          	sw	a2,136(t1)
80000534:	1887a883          	lw	a7,392(a5)
80000538:	00100613          	li	a2,1
8000053c:	00e61633          	sll	a2,a2,a4
80000540:	00c8e8b3          	or	a7,a7,a2
80000544:	1917a423          	sw	a7,392(a5)
80000548:	10d32423          	sw	a3,264(t1)
8000054c:	00200693          	li	a3,2
80000550:	02d50463          	beq	a0,a3,80000578 <__register_exitproc+0x6c>
80000554:	00170713          	addi	a4,a4,1
80000558:	00e7a223          	sw	a4,4(a5)
8000055c:	010787b3          	add	a5,a5,a6
80000560:	00b7a423          	sw	a1,8(a5)
80000564:	00000513          	li	a0,0
80000568:	00008067          	ret
8000056c:	14c70793          	addi	a5,a4,332
80000570:	14f72423          	sw	a5,328(a4)
80000574:	fa5ff06f          	j	80000518 <__register_exitproc+0xc>
80000578:	18c7a683          	lw	a3,396(a5)
8000057c:	00170713          	addi	a4,a4,1
80000580:	00e7a223          	sw	a4,4(a5)
80000584:	00c6e633          	or	a2,a3,a2
80000588:	18c7a623          	sw	a2,396(a5)
8000058c:	010787b3          	add	a5,a5,a6
80000590:	00b7a423          	sw	a1,8(a5)
80000594:	00000513          	li	a0,0
80000598:	00008067          	ret
8000059c:	fff00513          	li	a0,-1
800005a0:	00008067          	ret

800005a4 <_exit>:
800005a4:	05d00893          	li	a7,93
800005a8:	00000073          	ecall
800005ac:	00054463          	bltz	a0,800005b4 <_exit+0x10>
800005b0:	0000006f          	j	800005b0 <_exit+0xc>
800005b4:	ff010113          	addi	sp,sp,-16
800005b8:	00812423          	sw	s0,8(sp)
800005bc:	00050413          	mv	s0,a0
800005c0:	00112623          	sw	ra,12(sp)
800005c4:	40800433          	neg	s0,s0
800005c8:	00c000ef          	jal	ra,800005d4 <__errno>
800005cc:	00852023          	sw	s0,0(a0)
800005d0:	0000006f          	j	800005d0 <_exit+0x2c>

800005d4 <__errno>:
800005d4:	c381a503          	lw	a0,-968(gp) # 80000a48 <_impure_ptr>
800005d8:	00008067          	ret
